(lp0
(S'_init'
p1
S'"MOV~R12,SP\nSTMFD~SP!,{R4-R12,LR,PC}\nSUB~R11,R12,0\nBL~FOO\nBL~FOO\nLDMDB~R11,{R4-R11,SP,PC}"'
p2
L24L
tp3
a(S'__do_global_dtors_aux'
p4
S'"STMFD~SP!,{R4,R5,LR}\nLDR~R5,<STR>\nLDRB~R3,[R5]\nCMP~R3,0\nLDMNEFD~SP!,{R4,R5,PC}\nLDR~R4,<STR>\nLDR~R3,[R4]\nLDR~R2,[R3]\nCMP~R2,0\nBEQ~FOO\nADD~R3,R3,0\nSTR~R3,[R4]\nMOV~LR,PC\nMOV~PC,R2\nLDR~R3,[R4]\nLDR~R2,[R3]\nCMP~R2,0\nBNE~FOO\nLDR~R3,<STR>\nCMP~R3,0\nLDRNE~R0,<STR>\nMOVNE~LR,PC\nMOVNE~PC,R3\nMOV~R3,0\nSTRB~R3,[R5]\nLDMFD~SP!,{R4,R5,PC}"'
p5
L104L
tp6
a(S'call___do_global_dtors_aux'
p7
S'"STR~LR,[SP,-0]\nLDR~PC,[SP]"'
p8
L8L
tp9
a(S'frame_dummy'
p10
S'"LDR~R3,<STR>\nCMP~R3,0\nSTR~LR,[SP,-0]\nLDR~R0,<STR>\nLDR~R1,<STR>\nMOVNE~LR,PC\nMOVNE~PC,R3\nLDR~R0,<STR>\nLDR~R3,[R0]\nCMP~R3,0\nLDR~R3,<STR>\nLDREQ~PC,[SP]\nCMP~R3,0\nLDREQ~PC,[SP]\nMOV~LR,PC\nMOV~PC,R3\nLDR~PC,[SP]"'
p11
L68L
tp12
a(S'call_frame_dummy'
p13
S'"STR~LR,[SP,-0]\nLDR~PC,[SP]"'
p14
L8L
tp15
a(S'_start'
p16
S'"MOV~R11,0\nMOV~LR,0\nLDR~R1,[SP]\nMOV~R2,SP\nSTR~R2,[SP,-0]\nSTR~R0,[SP,-0]\nLDR~R12,<STR>\nSTR~R12,[SP,-0]\nLDR~R0,<STR>\nLDR~R3,<STR>\nB~FOO"'
p17
L44L
tp18
a(S'attack_app_http'
p19
S'"STMFD~SP!,{R4-R11,LR}\nSUB~SP,SP,0\nSUB~SP,SP,0\nAND~R4,R2,0\nMOV~R5,R3\nMOV~R12,R0\nAND~R12,R12,0\nSTR~R1,[SP,0]\nMOV~R2,0\nMOV~R3,0\nMOV~R0,R4\nMOV~R1,R5\nSTR~R12,[SP,0]\nBL~FOO\nMOV~R1,R5\nSTR~R0,[SP,0]\nMOV~R2,0\nMOV~R0,R4\nLDR~R3,<STR>\nBL~FOO\nMOV~R1,R5\nMOV~R2,0\nMOV~R3,0\nMOV~R11,R0\nMOV~R0,R4\nBL~FOO\nMOV~R1,R5\nMOV~R9,R0\nMOV~R2,0\nMOV~R0,R4\nLDR~R3,<STR>\nBL~FOO\nMOV~R1,R5\nMOV~R10,R0\nMOV~R2,0\nMOV~R0,R4\nMOV~R3,0\nBL~FOO\nMOV~R1,R5\nMOV~R2,0\nMOV~R3,0\nMOV~R6,R0\nMOV~R0,R4\nBL~FOO\nADD~R1,SP,0\nSUB~R1,R1,0\nMOV~R2,0\nMOV~R3,R0,LSL0\nSTR~R1,[SP,0]\nMOV~R0,R1\nADD~R2,R2,0\nMOV~R1,0\nMOV~R8,R3,LSR0\nBL~FOO\nCMP~R10,0\nCMPNE~R9,0\nMOVNE~R4,0\nMOVEQ~R4,0\nBNE~FOO\nADD~SP,SP,0\nADD~SP,SP,0\nLDMFD~SP!,{R4-R11,PC}\nMOV~R0,R10\nBL~FOO\nCMP~R0,0\nBGT~FOO\nMOV~R0,R9\nBL~FOO\nCMP~R0,0\nBGT~FOO\nMOV~R0,R11\nBL~FOO\nCMP~R0,0\nADDLE~R2,SP,0\nSTRLE~R4,[R2,0]\nBGT~FOO\nMOV~R0,R11\nBL~FOO\nADD~R1,SP,0\nLDR~R12,[R1,0]\nCMP~R0,R12\nBLE~FOO\nLDRB~R3,[R11,R12]\nSUB~R2,R3,0\nSUB~R3,R3,0\nCMP~R3,0\nSTRLSB~R2,[R11,R12]\nADDLS~R3,SP,0\nLDRLS~R12,[R3,0]\nADD~LR,SP,0\nADD~R12,R12,0\nSTR~R12,[LR,0]\nB~FOO\nMOV~R0,0\nBL~FOO\nMOV~R0,0\nBL~FOO\nMOV~R0,0\nBL~FOO\nMOV~R0,0\nBL~FOO\nMOV~R0,0\nBL~FOO\nMOV~R0,0\nBL~FOO\nMOV~R0,0\nBL~FOO\nMOV~R0,0\nBL~FOO\nMOV~R0,0\nBL~FOO\nMOV~R0,0\nBL~FOO\nCMP~R6,0\nMOVGE~R6,0\nMOV~R0,0\nSTR~R6,[SP,0]\nBL~FOO\nMOV~R1,0\nLDR~R0,[SP,0]\nADD~R1,R1,0\nBL~FOO\nLDR~R2,[SP,0]\nCMP~R2,0\nMOV~R5,R0\nSTR~R0,[SP,0]\nBLE~FOO\nMOV~R7,0\nMOV~R3,0\nMOV~R2,0\nLDR~R1,[SP,0]\nSTR~R2,[R5]\nSTRB~R3,[R5,0]\nMOV~R0,R7\nBL~FOO\nLDR~R12,[SP,0]\nMOV~R3,R0,LSL0\nSUB~R3,R3,R0,LSL0\nADD~R6,R3,R12\nLDR~R2,[R6,0]\nADD~LR,R5,0\nMOV~R0,LR\nMOV~R1,R10\nSTR~R2,[R5,0]\nSTR~LR,[SP,0]\nBL~FOO\nLDRB~R3,[R5,0]\nCMP~R3,0\nBEQ~FOO\nLDR~R0,[SP,0]\nBL~FOO\nMOV~R2,R0\nADD~R0,R5,0\nADD~R0,R0,0\nLDR~R1,[SP,0]\nBL~FOO\nMOV~R3,0\nSTRB~R3,[R5,0]\nMOV~R1,R11\nADD~R0,R5,0\nBL~FOO\nADD~R0,R5,0\nMOV~R1,R11\nADD~R0,R0,0\nBL~FOO\nADD~R0,R5,0\nADD~R0,R0,0\nMOV~R1,R9\nBL~FOO\nLDRB~R3,[R6,0]\nCMP~R3,0\nBHI~FOO\nLDR~R4,[R6,0]\nBL~FOO\nAND~R2,R4,0\nAND~R3,R4,0\nMOV~R2,R2,LSR0\nMOV~R1,R4,LSL0\nORR~R1,R1,R3,LSL0\nLDRB~R12,[R6,0]\nORR~R2,R2,R4,LSR0\nORR~R2,R2,R1\nADD~R2,R2,R0,LSRR12\nAND~R3,R2,0\nMOV~R3,R3,LSR0\nMOV~R1,R2,LSL0\nAND~R0,R2,0\nORR~R1,R1,R0,LSL0\nORR~R3,R3,R2,LSR0\nORR~R3,R3,R1\nSTR~R3,[R5,0]\nBL~FOO\nMOV~R1,0\nBL~FOO\nCMP~R0,0\nLDRLS~PC,[PC,R0,LSL0]\nB~FOO\nADD~R2,SP,0\nADD~R1,R0,0\nADD~R2,R2,0\nAND~R3,R8,0\nADD~R1,R1,0\nSUB~R2,R2,0\nADD~R5,R0,0\nMOV~R8,R8,LSR0\nSTR~R1,[SP,0]\nSTR~R3,[SP,0]\nSTR~R2,[SP,0]\nSTR~R5,[SP,0]\nSTR~R8,[SP,0]\nMOV~R0,0\nBL~FOO\nMOV~R3,0\nMOV~R9,R0\nMOV~R2,R3\nADD~R12,R3,0\nADD~R3,R3,0\nADD~R12,R12,0\nCMP~R3,0\nSTR~R2,[R12,SP]\nBNE~FOO\nMOV~R3,R2\nMOV~R0,R2\nADD~LR,R3,0\nADD~R3,R3,0\nADD~LR,LR,0\nCMP~R3,0\nSTR~R0,[LR,SP]\nBNE~FOO\nLDR~R1,[SP,0]\nCMP~R1,0\nBLE~FOO\nADD~R2,SP,0\nLDMIA~R2,{R2,R12}\nLDR~R3,[SP,0]\nSUB~R7,R12,0\nORR~R2,R2,R3,LSL0\nMOV~LR,R2,ASR0\nMOV~R10,R0\nSUB~R7,R7,0\nMOV~R8,R0\nSUB~R6,R12,0\nMOV~R11,0\nSTR~R2,[SP,0]\nSTR~LR,[SP,0]\nB~FOO\nCMP~R3,0\nBEQ~FOO\nCMP~R3,0\nBEQ~FOO\nCMP~R3,0\nLDREQ~R0,[R6,-0]\nADDEQ~R1,SP,0\nMOVEQ~R3,R0,LSR0\nMOVEQ~R3,R3,LSL0\nADDEQ~R1,R1,0\nADDEQ~R3,R3,R1\nBEQ~FOO\nCMP~R3,0\nLDREQ~R0,[R6,-0]\nADDEQ~R2,SP,0\nMOVEQ~R3,R0,LSR0\nMOVEQ~R3,R3,LSL0\nADDEQ~R2,R2,0\nADDEQ~R3,R3,R2\nBEQ~FOO\nCMP~R3,0\nBEQ~FOO\nCMP~R3,0\nBEQ~FOO\nMOV~R3,0\nSTRB~R3,[R6,-0]\nLDR~R0,[R6,-0]\nBL~FOO\nMOV~R3,0\nSTR~R3,[R6,-0]\nLDR~LR,[SP,0]\nADD~R8,R8,0\nADD~R7,R7,0\nADD~R6,R6,0\nCMP~LR,R8\nADD~R7,R7,0\nADD~R6,R6,0\nBEQ~FOO\nLDRB~R3,[R6,-0]\nCMP~R3,0\nBEQ~FOO\nCMP~R3,0\nBNE~FOO\nLDR~R0,[R6,-0]\nMOV~R5,0\nADD~R1,SP,0\nCMN~R0,0\nSTR~R5,[R1,0]\nSTR~R5,[R1,0]\nSTR~R5,[R1,0]\nSTR~R5,[R1,0]\nBLNE~FOO\nMOV~R0,0\nMOV~R1,0\nMOV~R2,R5\nBL~FOO\nCMN~R0,0\nMOV~R4,R0\nSTR~R0,[R6,-0]\nBEQ~FOO\nMOV~R1,0\nMOV~R2,R5\nBL~FOO\nMOV~R1,0\nORR~R2,R0,0\nMOV~R0,R4\nBL~FOO\nMOV~R12,0\nADD~LR,SP,0\nSUB~R12,R12,0\nADD~R3,SP,0\nLDR~R0,[R6,-0]\nMOV~R1,R5\nSTR~R12,[LR,0]\nMOV~R2,0\nMOV~R12,0\nADD~R3,R3,0\nSTR~R12,[SP]\nBL~FOO\nLDR~R12,[R6,-0]\nADD~LR,SP,0\nMOV~R3,0\nSTRB~R5,[LR,0]\nLDR~R0,[R6,-0]\nSTR~R12,[LR,0]\nSTRB~R3,[R6,-0]\nLDR~R12,[SP,0]\nSTRB~R3,[LR,0]\nLDR~R3,[SP,0]\nADD~R1,SP,0\nSTRB~R3,[LR,0]\nSTRB~R12,[LR,0]\nADD~R1,R1,0\nMOV~R2,0\nSTR~R9,[R6,-0]\nBL~FOO\nLDR~R0,[R6,-0]\nADD~LR,SP,0\nMOV~R3,R0,LSR0\nMOV~R3,R3,LSL0\nADD~LR,LR,0\nADD~R3,R3,LR\nLDR~R2,[R3,-0]\nAND~R1,R0,0\nORR~R2,R2,R11,LSLR1\nCMP~R10,R0\nSTR~R2,[R3,-0]\nBGE~FOO\nADD~R10,R0,0\nLDR~LR,[SP,0]\nADD~R8,R8,0\nADD~R7,R7,0\nADD~R6,R6,0\nCMP~LR,R8\nADD~R7,R7,0\nADD~R6,R6,0\nBNE~FOO\nCMP~R10,0\nBEQ~FOO\nADD~LR,SP,0\nMOV~R12,0\nMOV~R5,0\nSTR~R12,[LR,0]\nADD~R1,SP,0\nADD~R2,SP,0\nADD~R12,SP,0\nSTR~R5,[LR,0]\nADD~R12,R12,0\nADD~R1,R1,0\nADD~R2,R2,0\nMOV~R3,R5\nMOV~R0,R10\nSTR~R12,[SP]\nBL~FOO\nMOV~R4,R0\nMOV~R0,R5\nBL~FOO\nCMP~R4,R5\nSTR~R0,[SP,0]\nBLE~FOO\nLDR~R8,[SP,0]\nSTR~R5,[SP,0]\nB~FOO\nMOV~R3,R0,LSR0\nADD~R2,SP,0\nADD~R2,R2,0\nMOV~R3,R3,LSL0\nADD~R3,R3,R2\nLDR~R2,[R3,-0]\nAND~R1,R0,0\nMOV~R2,R2,LSRR1\nTST~R2,0\nBEQ~FOO\nLDRB~R3,[R8,-0]\nCMP~R3,0\nBEQ~FOO\nCMP~R3,0\nBEQ~FOO\nCMP~R3,0\nBEQ~FOO\nLDR~R2,[SP,0]\nLDR~R3,[SP,0]\nADD~R2,R2,0\nADD~R8,R8,0\nCMP~R2,R3\nSTR~R2,[SP,0]\nADD~R8,R8,0\nBEQ~FOO\nLDR~R0,[R8,-0]\nCMN~R0,0\nSUB~R9,R8,0\nBEQ~FOO\nMOV~R3,R0,LSR0\nADD~LR,SP,0\nMOV~R3,R3,LSL0\nADD~LR,LR,0\nADD~R3,R3,LR\nLDR~R2,[R3,-0]\nAND~R1,R0,0\nMOV~R2,R2,LSRR1\nTST~R2,0\nBEQ~FOO\nMOV~R4,0\nADD~R12,SP,0\nMOV~R5,0\nADD~R3,SP,0\nADD~LR,SP,0\nMOV~R1,0\nADD~R3,R3,0\nSTR~R5,[R12,0]\nSTR~R4,[R12,0]\nADD~LR,LR,0\nMOV~R2,R4\nSTR~LR,[SP]\nBL~FOO\nADD~R1,SP,0\nLDR~R3,[R1,0]\nORRS~R0,R0,R3\nLDREQ~R0,[R8,-0]\nSTREQB~R4,[R8,-0]\nBEQ~FOO\nLDR~R0,[R8,-0]\nBL~FOO\nMOV~R0,0\nSTR~R0,[R8,-0]\nSTRB~R5,[R8,-0]\nB~FOO\nLDR~R3,[R6,0]\nCMP~R3,0\nMOVNE~R3,0\nSTRNEB~R3,[R6,-0]\nSTREQB~R3,[R6,-0]\nBEQ~FOO\nMOV~R3,0\nMOV~R5,0\nADD~R0,R7,0\nSTR~R3,[R6,0]\nADD~R0,R0,0\nMOV~R1,0\nSTR~R5,[R6,0]\nBL~FOO\nMOV~R1,0\nLDR~R0,[SP,0]\nSTR~R5,[R6,0]\nBL~FOO\nLDR~R0,[SP,0]\nBL~FOO\nLDR~R2,[SP,0]\nMOV~R1,R6\nADD~R0,R2,R0\nBL~FOO\nLDR~R0,[SP,0]\nBL~FOO\nLDR~R3,[SP,0]\nLDR~R1,<STR>\nADD~R0,R3,R0\nBL~FOO\nLDR~R0,[SP,0]\nBL~FOO\nLDR~R12,[SP,0]\nADD~R1,R7,0\nADD~R0,R12,R0\nBL~FOO\nLDR~R0,[SP,0]\nBL~FOO\nLDR~LR,[SP,0]\nLDR~R1,<STR>\nADD~R0,LR,R0\nBL~FOO\nLDR~R0,[SP,0]\nBL~FOO\nLDR~R1,[SP,0]\nADD~R0,R1,R0\nADD~R1,R7,0\nBL~FOO\nLDR~R0,[SP,0]\nBL~FOO\nLDR~R2,[SP,0]\nLDR~R1,<STR>\nADD~R0,R2,R0\nBL~FOO\nLDR~R0,[SP,0]\nBL~FOO\nLDR~R3,[SP,0]\nADD~R1,R7,0\nADD~R0,R3,R0\nADD~R1,R1,0\nBL~FOO\nLDR~R0,[SP,0]\nBL~FOO\nLDR~R12,[SP,0]\nLDR~R1,<STR>\nADD~R0,R12,R0\nBL~FOO\nMOV~R0,0\nBL~FOO\nLDR~R0,[SP,0]\nBL~FOO\nMOV~R1,R5\nMOV~R4,R0\nMOV~R0,0\nBL~FOO\nLDR~LR,[SP,0]\nMOV~R1,R0\nADD~R0,LR,R4\nBL~FOO\nMOV~R0,0\nBL~FOO\nLDR~R0,[SP,0]\nBL~FOO\nLDR~R1,[SP,0]\nADD~R0,R1,R0\nLDR~R1,<STR>\nBL~FOO\nMOV~R0,0\nBL~FOO\nLDR~R0,[SP,0]\nBL~FOO\nMOV~R1,R5\nMOV~R4,R0\nMOV~R0,0\nBL~FOO\nLDR~R2,[SP,0]\nMOV~R1,R0\nADD~R0,R2,R4\nBL~FOO\nMOV~R0,0\nBL~FOO\nLDR~R0,[SP,0]\nBL~FOO\nLDR~R3,[SP,0]\nLDR~R1,<STR>\nADD~R0,R3,R0\nBL~FOO\nMOV~R0,0\nBL~FOO\nLDR~R0,[SP,0]\nBL~FOO\nMOV~R1,R5\nMOV~R4,R0\nMOV~R0,0\nBL~FOO\nLDR~R12,[SP,0]\nMOV~R1,R0\nADD~R0,R12,R4\nBL~FOO\nMOV~R0,0\nBL~FOO\nLDR~R0,[SP,0]\nBL~FOO\nLDR~LR,[SP,0]\nLDR~R1,<STR>\nADD~R0,LR,R0\nBL~FOO\nLDR~R1,[SP,0]\nCMP~R1,R5\nBEQ~FOO\nMOV~R0,0\nBL~FOO\nLDR~R0,[SP,0]\nBL~FOO\nMOV~R1,R5\nMOV~R4,R0\nMOV~R0,0\nBL~FOO\nLDR~R2,[SP,0]\nMOV~R1,R0\nADD~R0,R2,R4\nBL~FOO\nMOV~R0,0\nBL~FOO\nLDR~R0,[SP,0]\nBL~FOO\nLDR~R3,[SP,0]\nLDR~R1,<STR>\nADD~R0,R3,R0\nBL~FOO\nLDR~R0,[SP,0]\nBL~FOO\nMOV~R1,R5\nMOV~R4,R0\nMOV~R0,0\nBL~FOO\nLDR~R12,[SP,0]\nMOV~R1,R0\nADD~R0,R12,R4\nBL~FOO\nLDR~R0,[SP,0]\nBL~FOO\nLDR~LR,[SP,0]\nLDR~R1,<STR>\nADD~R0,LR,R0\nBL~FOO\nLDR~R0,[SP,0]\nBL~FOO\nMOV~R4,R0\nLDR~R0,[SP,0]\nBL~FOO\nLDR~R1,[SP,0]\nADD~R2,R1,R0\nMOV~R1,0\nMOV~R0,R4\nBL~FOO\nLDR~R0,[SP,0]\nBL~FOO\nLDR~R2,[SP,0]\nLDR~R1,<STR>\nADD~R0,R2,R0\nBL~FOO\nLDR~R3,[R6,0]\nCMP~R3,0\nBLE~FOO\nLDR~R0,[SP,0]\nBL~FOO\nLDR~R3,[SP,0]\nLDR~R1,<STR>\nADD~R0,R3,R0\nBL~FOO\nLDR~R3,[R6,0]\nADD~LR,SP,0\nCMP~R3,0\nSTR~R5,[LR,0]\nBLE~FOO\nLDR~R0,[SP,0]\nBL~FOO\nADD~R2,SP,0\nLDR~R1,[R2,0]\nLDR~R3,[SP,0]\nMOV~R1,R1,LSL0\nADD~R1,R1,0\nADD~R0,R3,R0\nADD~R1,R7,R1\nBL~FOO\nLDR~R0,[SP,0]\nBL~FOO\nLDR~R12,[SP,0]\nLDR~R1,<STR>\nADD~R0,R12,R0\nBL~FOO\nADD~LR,SP,0\nLDR~R3,[LR,0]\nLDR~R2,[R6,0]\nADD~R12,R3,0\nCMP~R2,R12\nSTR~R12,[LR,0]\nBGT~FOO\nLDR~R0,[SP,0]\nBL~FOO\nLDR~R1,[SP,0]\nADD~R0,R1,R0\nLDR~R1,<STR>\nBL~FOO\nLDR~R0,[SP,0]\nBL~FOO\nLDR~R2,[SP,0]\nLDR~R1,<STR>\nADD~R0,R2,R0\nBL~FOO\nLDR~R3,[SP,0]\nCMP~R3,0\nBEQ~FOO\nLDR~R0,[SP,0]\nBL~FOO\nLDR~R12,[SP,0]\nLDR~R1,[SP,0]\nADD~R0,R12,R0\nBL~FOO\nADD~R4,R7,0\nMOV~R0,R6\nMOV~R1,R4\nBL~FOO\nCMP~R0,0\nBEQ~FOO\nLDR~R0,[SP,0]\nLDR~R4,[R6,-0]\nBL~FOO\nLDR~R1,[SP,0]\nMOV~R2,R0\nMOV~R3,0\nMOV~R0,R4\nBL~FOO\nLDR~R0,[R6,-0]\nADD~LR,SP,0\nMOV~R3,R0,LSR0\nMOV~R3,R3,LSL0\nADD~LR,LR,0\nADD~R3,R3,LR\nLDR~R2,[R3,-0]\nAND~R1,R0,0\nORR~R2,R2,R11,LSLR1\nCMP~R10,R0\nMOV~R1,0\nSTR~R2,[R3,-0]\nSTR~R9,[R6,-0]\nSTRB~R1,[R6,-0]\nBGE~FOO\nADD~R10,R0,0\nB~FOO\nLDR~R0,[R6,-0]\nADD~R12,SP,0\nMOV~R3,R0,LSR0\nMOV~R3,R3,LSL0\nADD~R12,R12,0\nADD~R3,R3,R12\nLDR~R2,[R3,-0]\nAND~R1,R0,0\nORR~R2,R2,R11,LSLR1\nCMP~R10,R0\nSTR~R2,[R3,-0]\nBGE~FOO\nADD~R10,R0,0\nB~FOO\nLDR~R3,[R6,-0]\nRSB~R3,R3,R9\nCMP~R3,0\nBHI~FOO\nLDR~R0,[R6,-0]\nADD~R1,SP,0\nMOV~R3,R0,LSR0\nMOV~R3,R3,LSL0\nADD~R1,R1,0\nADD~R3,R3,R1\nB~FOO\nLDR~R0,[SP,0]\nMOV~R1,0\nBL~FOO\nMOV~R3,0\nLDR~R0,[R8,-0]\nLDR~R1,[SP,0]\nMOV~R2,0\nBL~FOO\nMOV~R6,0\nSUBS~R11,R0,0\nSUB~R6,R6,0\nBLE~FOO\nLDR~R0,[SP,0]\nMOV~R1,R11\nLDR~R2,<STR>\nMOV~R3,0\nBL~FOO\nCMN~R0,0\nBEQ~FOO\nLDR~R2,<STR>\nMOV~R3,0\nMOV~R1,R11\nLDR~R0,[SP,0]\nBL~FOO\nADD~R12,SP,0\nADD~R12,R12,0\nADD~R3,R12,R0\nMOV~R5,0\nSTRB~R5,[R3,R6]\nMOV~R1,R5\nMOV~R0,0\nBL~FOO\nMOV~R1,R11\nMOV~R2,R0\nLDR~R0,[SP,0]\nBL~FOO\nCMN~R0,0\nMOVNE~R3,0\nSTRNE~R3,[R8,-0]\nMOV~R1,R5\nMOV~R0,0\nBL~FOO\nMOV~R1,R11\nMOV~R2,R0\nLDR~R0,[SP,0]\nBL~FOO\nCMN~R0,0\nMOVNE~R3,0\nSTRNE~R3,[R8,-0]\nMOV~R1,R5\nMOV~R0,0\nSTR~R5,[R8]\nBL~FOO\nMOV~R1,R11\nMOV~R2,R0\nLDR~R0,[SP,0]\nBL~FOO\nCMN~R0,0\nBEQ~FOO\nMOV~R1,R5\nMOV~R0,0\nBL~FOO\nMOV~R1,R11\nMOV~R2,R0\nLDR~R0,[SP,0]\nBL~FOO\nADD~LR,SP,0\nADD~LR,LR,0\nADD~R3,LR,R0\nLDRB~R2,[R3,R6]\nLDR~R1,[SP,0]\nCMP~R2,0\nMOV~R4,R0\nADDEQ~R4,R0,0\nADD~R6,R1,R4\nLDR~R2,<STR>\nMOV~R0,R6\nRSB~R1,R4,R11\nMOV~R3,0\nBL~FOO\nCMN~R0,0\nMOV~R2,R0\nBEQ~FOO\nADD~R12,SP,0\nADD~R12,R12,0\nADD~R3,R12,R4\nCMP~R0,0\nSUB~R3,R3,0\nSUBGT~R2,R0,0\nSUB~R3,R3,0\nSTRB~R5,[R3,R2]\nMOV~R0,R6\nBL~FOO\nMOV~R1,R5\nMOV~R4,R0\nMOV~R0,0\nBL~FOO\nMOV~R1,R4\nMOV~R2,R0\nMOV~R0,R6\nBL~FOO\nCMP~R0,0\nMOVNE~R3,0\nSTRNE~R3,[R8]\nMOV~R6,0\nMOV~R1,R6\nMOV~R0,0\nSTR~R6,[R8,0]\nBL~FOO\nMOV~R1,R11\nMOV~R2,R0\nLDR~R0,[SP,0]\nBL~FOO\nMOV~R5,0\nCMN~R0,0\nSUB~R5,R5,0\nBEQ~FOO\nMOV~R1,R6\nMOV~R0,0\nBL~FOO\nMOV~R1,R11\nMOV~R2,R0\nLDR~R0,[SP,0]\nBL~FOO\nADD~LR,SP,0\nADD~LR,LR,0\nADD~R3,LR,R0\nLDRB~R2,[R3,R5]\nLDR~R1,[SP,0]\nCMP~R2,0\nMOV~R4,R0\nADDEQ~R4,R0,0\nADD~R5,R1,R4\nLDR~R2,<STR>\nMOV~R0,R5\nRSB~R1,R4,R11\nMOV~R3,0\nBL~FOO\nCMN~R0,0\nMOV~R2,R0\nBEQ~FOO\nADD~R12,SP,0\nADD~R12,R12,0\nADD~R3,R12,R4\nCMP~R0,0\nSUB~R3,R3,0\nSUBGT~R2,R0,0\nSUB~R3,R3,0\nSTRB~R6,[R3,R2]\nMOV~R0,R5\nBL~FOO\nMOV~R1,R6\nMOV~R4,R0\nMOV~R0,0\nBL~FOO\nMOV~R1,R4\nMOV~R2,R0\nMOV~R0,R5\nBL~FOO\nCMP~R0,0\nMOVNE~R3,0\nSTRNE~R3,[R8,0]\nMOV~R1,0\nMOV~R0,0\nBL~FOO\nMOV~R1,R11\nMOV~R2,R0\nLDR~R0,[SP,0]\nBL~FOO\nCMN~R0,0\nMOV~R5,0\nMOVEQ~R6,0\nSUB~R5,R5,0\nSTREQ~R6,[R8,0]\nBEQ~FOO\nMOV~R1,0\nMOV~R0,0\nBL~FOO\nMOV~R1,R11\nMOV~R2,R0\nLDR~R0,[SP,0]\nBL~FOO\nADD~LR,SP,0\nADD~LR,LR,0\nADD~R3,LR,R0\nLDRB~R2,[R3,R5]\nLDR~R1,[SP,0]\nCMP~R2,0\nMOV~R4,R0\nADDEQ~R4,R0,0\nADD~R5,R1,R4\nLDR~R2,<STR>\nMOV~R0,R5\nRSB~R1,R4,R11\nMOV~R3,0\nBL~FOO\nCMN~R0,0\nMOV~R2,R0\nBEQ~FOO\nADD~R12,SP,0\nADD~R12,R12,0\nADD~R3,R12,R4\nCMP~R0,0\nSUB~R3,R3,0\nSUBGT~R2,R0,0\nSUB~R3,R3,0\nMOV~LR,0\nMOV~R0,R5\nMOV~R1,0\nSTRB~LR,[R3,R2]\nBL~FOO\nSTR~R0,[R8,0]\nMOV~R5,0\nLDR~R3,[SP,0]\nMOV~R1,0\nMOV~R0,0\nADD~R4,R3,R5\nBL~FOO\nMOV~R1,R11\nMOV~R2,R0\nMOV~R0,R4\nBL~FOO\nMOV~R6,0\nCMN~R0,0\nSUB~R6,R6,0\nBEQ~FOO\nLDR~R3,[R8,0]\nCMP~R3,0\nBGT~FOO\nMOV~R1,0\nMOV~R0,0\nBL~FOO\nMOV~R1,R11\nMOV~R2,R0\nMOV~R0,R4\nBL~FOO\nADD~R1,SP,0\nADD~R10,R5,R0\nADD~R1,R1,0\nADD~R3,R1,R10\nLDRB~R2,[R3,R6]\nCMP~R2,0\nADDEQ~R0,R0,0\nRSB~R3,R5,R11\nRSB~R7,R0,R3\nADD~R6,R4,R0\nADDEQ~R10,R5,R0\nMOV~R1,R7\nMOV~R0,R6\nLDR~R2,<STR>\nMOV~R3,0\nBL~FOO\nCMN~R0,0\nMOV~R4,R0\nBEQ~FOO\nLDR~R2,[SP,0]\nCMP~R0,0\nSUBGT~R4,R0,0\nADD~R5,R2,R10\nMOV~R0,R6\nMOV~R1,R7\nLDR~R2,<STR>\nMOV~R3,0\nBL~FOO\nCMP~R0,0\nBLE~FOO\nMOV~R0,R6\nMOV~R1,R7\nLDR~R2,<STR>\nMOV~R3,0\nBL~FOO\nSUB~R4,R0,0\nADD~R12,SP,0\nADD~R12,R12,0\nADD~R3,R12,R4\nSUB~R3,R3,0\nSUB~R3,R3,0\nMOV~LR,0\nMOV~R2,0\nADD~R1,SP,0\nSTRB~LR,[R3,R10]\nSTR~R2,[R1,0]\nB~FOO\nLDRB~R3,[R5,R4]\nCMP~R3,0\nBEQ~FOO\nADD~R3,SP,0\nSTR~R12,[R3,0]\nMOV~R0,R5\nBL~FOO\nADD~R12,SP,0\nLDR~R4,[R12,0]\nCMP~R0,R4\nADD~R12,R4,0\nBGT~FOO\nLDRB~R3,[R5,R4]\nCMP~R3,0\nBEQ~FOO\nMOV~R5,R10\nB~FOO\nLDR~R3,[R8,0]\nMOV~R12,0\nADD~LR,SP,0\nCMP~R3,0\nSTR~R12,[LR,0]\nBLE~FOO\nMOV~R1,R12\nB~FOO\nADD~R1,SP,0\nLDR~R3,[R1,0]\nLDR~R2,[R8,0]\nADD~R12,R3,0\nCMP~R2,R12\nADD~R2,SP,0\nMOV~R1,R12\nSTR~R12,[R2,0]\nBLE~FOO\nMOV~R1,R1,LSL0\nADD~R1,R1,0\nADD~R1,R9,R1\nMOV~R0,R5\nMOV~R2,R4\nBL~FOO\nCMP~R0,0\nBEQ~FOO\nB~FOO\nMOV~R0,R5\nBL~FOO\nCMP~R0,0\nBGT~FOO\nLDR~R0,[R8,0]\nMOV~R0,R0,LSL0\nADD~R0,R0,0\nMOV~R1,R5\nADD~R0,R9,R0\nBL~FOO\nLDR~R3,[R8,0]\nMOV~R5,R10\nADD~R3,R3,0\nSTR~R3,[R8,0]\nB~FOO\nMOV~R1,0\nMOV~R0,0\nBL~FOO\nMOV~R1,R11\nMOV~R2,R0\nLDR~R0,[SP,0]\nBL~FOO\nCMN~R0,0\nBEQ~FOO\nMOV~R1,0\nMOV~R0,0\nBL~FOO\nMOV~R1,R11\nMOV~R2,R0\nLDR~R0,[SP,0]\nBL~FOO\nADD~R12,SP,0\nADD~R12,R12,0\nADD~R3,R12,R0\nLDRB~R2,[R3,R6]\nLDR~LR,[SP,0]\nCMP~R2,0\nMOV~R4,R0\nADDEQ~R4,R0,0\nADD~R5,LR,R4\nMOV~R0,R5\nRSB~R1,R4,R11\nLDR~R2,<STR>\nMOV~R3,0\nBL~FOO\nCMN~R0,0\nMOV~LR,R0\nBEQ~FOO\nADD~R1,SP,0\nADD~R1,R1,0\nCMP~R0,0\nADD~R12,R1,R4\nSUBGT~LR,R0,0\nSUB~R12,R12,0\nADD~R6,LR,0\nSUB~R12,R12,0\nMOV~R7,0\nMOV~R0,R5\nMOV~R1,R6\nLDR~R2,<STR>\nMOV~R3,0\nSTRB~R7,[R12,LR]\nBL~FOO\nCMP~R0,0\nBEQ~FOO\nLDR~R12,[SP,0]\nLDRB~R3,[R12,R4]\nCMP~R3,0\nBEQ~FOO\nMOV~R3,0\nSTRB~R3,[R8,-0]\nB~FOO\nBL~FOO\nADD~R3,R9,0\nSTR~R3,[SP,0]\nLDR~R3,[R8,0]\nADD~R7,R9,0\nCMP~R3,0\nMOV~R11,R0\nADD~R7,R7,0\nBEQ~FOO\nMOV~R12,0\nSTR~R12,[R11]\nLDR~R1,[R8,0]\nLDR~R0,[R8,-0]\nRSB~R2,R1,0\nMOV~R3,0\nADD~R1,R7,R1\nBL~FOO\nCMP~R0,0\nBEQ~FOO\nCMN~R0,0\nBEQ~FOO\nLDR~R4,[R8,0]\nLDR~R1,[SP,0]\nADD~R4,R4,R0\nSTR~R4,[R8,0]\nSTR~R1,[R8,-0]\nB~FOO\nLDR~R10,[R8,-0]\nCMP~R6,R4\nMOVLT~R5,R6\nMOVGE~R5,R4\nRSB~R6,R5,R6\nCMP~R10,0\nSTR~R6,[R8,0]\nBEQ~FOO\nCMP~R6,0\nBNE~FOO\nLDR~R4,[R8,0]\nCMP~R4,0\nBEQ~FOO\nLDR~R3,[R8,0]\nRSB~R3,R5,R3\nCMP~R3,0\nSTR~R3,[R8,0]\nBEQ~FOO\nCMP~R5,0\nBEQ~FOO\nLDR~R3,[R8,0]\nRSB~R4,R5,R3\nMOV~R2,R4\nSTR~R4,[R8,0]\nADD~R1,R7,R5\nMOV~R0,R7\nBL~FOO\nLDR~R4,[R8,0]\nMOV~LR,0\nADD~R3,R4,R9\nCMP~R4,0\nSTRB~LR,[R3,0]\nBEQ~FOO\nLDR~R6,[R8,0]\nCMP~R6,0\nBGT~FOO\nMOV~R5,0\nB~FOO\nLDRB~R3,[R8,-0]\nCMP~R3,0\nBNE~FOO\nLDR~R3,[R8,0]\nCMP~R3,0\nBNE~FOO\nMOV~R0,R7\nADD~R1,R7,0\nMOV~R2,0\nBL~FOO\nLDR~R3,[R8,0]\nSUB~R4,R3,0\nSTR~R4,[R8,0]\nB~FOO\nMOV~R1,0\nMOV~R0,0\nBL~FOO\nMOV~R1,R4\nMOV~R2,R0\nMOV~R3,0\nMOV~R0,R7\nBL~FOO\nCMN~R0,0\nBNE~FOO\nLDR~R6,[R8,0]\nB~FOO\nMOV~R0,R7\nLDR~R1,[R8,0]\nLDR~R2,<STR>\nMOV~R3,0\nBL~FOO\nCMN~R0,0\nBEQ~FOO\nLDR~R1,[R8,0]\nLDR~R2,<STR>\nMOV~R3,0\nMOV~R0,R7\nBL~FOO\nADD~R12,R0,R9\nMOV~R5,R0\nMOV~R1,R5\nMOV~R0,R7\nLDR~R2,<STR>\nMOV~R3,R4\nSTRB~R6,[R12,0]\nBL~FOO\nCMN~R0,0\nBEQ~FOO\nMOV~R0,R7\nMOV~R1,R5\nLDR~R2,<STR>\nMOV~R3,R4\nBL~FOO\nADD~R0,R0,R9\nSTRB~R6,[R0,0]\nMOV~R0,R7\nMOV~R1,0\nBL~FOO\nCMP~R0,0\nBEQ~FOO\nADD~R6,R0,0\nSTR~R6,[R8,0]\nB~FOO\nMOV~R1,R4\nMOV~R0,R6\nBL~FOO\nB~FOO\nBL~FOO\nMOV~R5,0\nMOV~R4,R0\nSTR~R5,[R4]\nLDR~R1,[SP,0]\nLDR~R0,[R8,-0]\nMOV~R2,0\nMOV~R3,0\nBL~FOO\nCMP~R0,0\nBEQ~FOO\nCMN~R0,0\nBNE~FOO\nLDR~R3,[R4]\nCMP~R3,0\nBEQ~FOO\nLDR~R0,[R8,-0]\nBL~FOO\nMOV~R3,0\nMOV~R1,0\nSTR~R3,[R8,-0]\nSTRB~R1,[R8,-0]\nB~FOO\nMOV~R1,0\nMOV~R0,0\nBL~FOO\nMOV~R1,R11\nMOV~R2,R0\nLDR~R0,[SP,0]\nBL~FOO\nMOV~R5,0\nCMN~R0,0\nSUB~R5,R5,0\nBEQ~FOO\nMOV~R1,0\nMOV~R0,0\nBL~FOO\nMOV~R1,R11\nMOV~R2,R0\nLDR~R0,[SP,0]\nBL~FOO\nADD~R12,SP,0\nADD~R12,R12,0\nADD~R3,R12,R0\nLDRB~R2,[R3,R5]\nLDR~LR,[SP,0]\nCMP~R2,0\nMOV~R4,R0\nADDEQ~R4,R0,0\nADD~R6,LR,R4\nMOV~R0,R6\nRSB~R1,R4,R11\nLDR~R2,<STR>\nMOV~R3,0\nBL~FOO\nCMN~R0,0\nMOV~R7,R0\nBEQ~FOO\nADD~R1,SP,0\nADD~R1,R1,0\nADD~R3,R1,R4\nCMP~R0,0\nSUB~R3,R3,0\nSUBGT~R7,R0,0\nSUB~R3,R3,0\nMOV~R2,0\nSTRB~R2,[R3,R7]\nMOV~R12,0\nADD~R3,SP,0\nSTR~R12,[R3,0]\nLDR~LR,[SP,0]\nLDRB~R0,[LR,R4]\nSUB~R3,R0,0\nCMP~R3,0\nMOVHI~R1,R6\nBHI~FOO\nMOV~R3,R12\nADD~R12,R3,0\nADD~R1,SP,0\nSTR~R12,[R1,0]\nLDRB~R0,[R12,R6]\nSUB~R3,R0,0\nCMP~R3,0\nMOV~R3,R12\nBLS~FOO\nADD~R1,R6,R12\nCMP~R0,0\nBEQ~FOO\nMOV~R5,0\nSTRB~R5,[R1]\nADD~R2,SP,0\nLDR~R12,[R2,0]\nADD~R12,R12,0\nSTR~R12,[R2,0]\nLDRB~R3,[R6,R12]\nCMP~R3,0\nADDEQ~R12,R12,0\nADD~R4,R6,R12\nSTREQ~R12,[R2,0]\nMOV~R0,R4\nBL~FOO\nLDR~R2,<STR>\nMOV~R1,R0\nMOV~R0,R4\nBL~FOO\nCMN~R0,0\nADDEQ~R1,SP,0\nLDREQ~R12,[R1,0]\nBEQ~FOO\nADD~R3,SP,0\nLDR~R4,[R3,0]\nADD~R4,R6,R4\nMOV~R0,R4\nBL~FOO\nLDR~R2,<STR>\nMOV~R1,R0\nMOV~R0,R4\nBL~FOO\nADD~LR,SP,0\nLDR~R12,[LR,0]\nADD~R12,R12,R0\nSTR~R12,[LR,0]\nLDRB~R3,[R6,R12]\nCMP~R3,0\nBEQ~FOO\nMOV~R0,R6\nMOV~R1,0\nBL~FOO\nSUB~R3,R0,0\nCMP~R3,0\nLDRLS~R12,[SP,0]\nADDLS~R4,R12,R0\nBLS~FOO\nB~FOO\nBL~FOO\nMOV~R0,0\nBL~FOO\nCMP~R0,R4\nMOV~R0,0\nBCC~FOO\nADD~LR,SP,0\nLDR~R4,[LR,0]\nADD~R5,R6,R4\nMOV~R0,R5\nBL~FOO\nLDR~R2,<STR>\nMOV~R1,R0\nMOV~R0,R5\nBL~FOO\nCMP~R0,0\nBEQ~FOO\nLDRB~R3,[R6,R4]\nCMP~R3,0\nBEQ~FOO\nADD~R0,R9,0\nADD~R0,R0,0\nLDR~R1,<STR>\nMOV~R2,0\nBL~FOO\nMOV~R3,0\nSTRB~R3,[R8,-0]\nB~FOO\nSUB~R3,R3,0\nSTRB~R3,[R6,-0]\nLDR~R0,[R6,-0]\nBL~FOO\nMOV~R3,0\nSTR~R3,[R6,-0]\nB~FOO\nMOV~R1,R11\nLDR~R2,<STR>\nMOV~R3,0\nLDR~R0,[SP,0]\nBL~FOO\nADD~R4,R9,0\nADD~R4,R4,0\nMOV~R5,R0\nLDR~R1,<STR>\nMOV~R0,R4\nBL~FOO\nCMP~R0,0\nBEQ~FOO\nMOV~R3,0\nSTRB~R3,[R8,-0]\nMOV~R2,R5\nLDR~R0,[R8,-0]\nLDR~R1,[SP,0]\nMOV~R3,0\nBL~FOO\nB~FOO\nCMP~R11,0\nBLT~FOO\nB~FOO\nMOV~R3,0\nSTR~R3,[R4]\nB~FOO\nMOV~R3,0\nSTR~R3,[R11]\nLDR~R0,[R8,-0]\nBL~FOO\nMOV~R0,0\nMOV~LR,0\nSTR~R0,[R8,-0]\nSTRB~LR,[R8,-0]\nB~FOO\nLDR~R3,[R11]\nCMP~R3,0\nBNE~FOO\nB~FOO\nMOV~R12,0\nADD~R2,SP,0\nSTR~R12,[R2,0]\nLDRB~R3,[R5,0]\nCMP~R3,0\nADDEQ~R12,R12,0\nSTREQ~R12,[R2,0]\nADD~R3,SP,0\nLDR~R1,[R3,0]\nMOV~R0,R5\nRSB~R2,R1,R6\nADD~R1,R5,R1\nBL~FOO\nADD~LR,SP,0\nSTR~R7,[LR,0]\nLDR~R1,[SP,0]\nLDRB~R0,[R1,R4]\nCMP~R0,0\nBEQ~FOO\nCMP~R0,0\nMOVEQ~R1,R5\nBEQ~FOO\nMOV~R3,0\nB~FOO\nCMP~R2,0\nBEQ~FOO\nMOV~R12,R3\nADD~LR,SP,0\nSTR~R12,[LR,0]\nLDRB~R2,[R12,R5]\nCMP~R2,0\nADD~R3,R3,0\nADD~R1,R5,R12\nBNE~FOO\nMOV~R0,R5\nBL~FOO\nCMP~R0,0\nBLE~FOO\nMOV~R0,R5\nBL~FOO\nCMP~R0,0\nADDLE~R0,R9,0\nADDLE~R0,R0,0\nMOVLE~R1,R5\nBLLE~FOO\nADD~R1,SP,0\nLDR~R0,[R1,0]\nADD~R0,R5,R0\nADD~R0,R0,0\nBL~FOO\nCMP~R0,0\nBGT~FOO\nADD~R4,R9,0\nADD~R4,R4,0\nMOV~R0,R4\nMOV~R1,0\nBL~FOO\nADD~R2,SP,0\nLDR~R0,[R2,0]\nADD~R0,R5,R0\nADD~R0,R0,0\nBL~FOO\nCMP~R0,0\nBLE~FOO\nADD~R3,SP,0\nLDR~R1,[R3,0]\nADD~R1,R5,R1\nMOV~R0,R4\nADD~R1,R1,0\nBL~FOO\nB~FOO\nLDR~R0,[R8,-0]\nBL~FOO\nMOV~R0,0\nMOV~R3,0\nSTR~R0,[R8,-0]\nSTRB~R3,[R8,-0]\nB~FOO\nLDRB~R3,[R8,-0]\nCMP~R3,0\nBEQ~FOO\nB~FOO\nMOV~R0,R4\nLDR~R1,<STR>\nBL~FOO\nCMP~R0,0\nBNE~FOO\nCMP~R11,R5\nMOVGT~R3,0\nMOVLE~R3,0\nSTRGTB~R3,[R8,-0]\nSTRLEB~R3,[R8,-0]\nB~FOO\nMOV~R1,0\nMOV~R0,0\nLDR~R4,[R8,0]\nBL~FOO\nMOV~R1,R4\nMOV~R2,R0\nMOV~R3,0\nMOV~R0,R7\nBL~FOO\nLDR~R1,[R8,0]\nADD~R5,R7,R0\nMOV~R4,R0\nRSB~R1,R0,R1\nLDR~R2,<STR>\nMOV~R3,R10\nMOV~R0,R5\nBL~FOO\nLDR~R3,[R8,0]\nADD~R6,R4,R0\nADD~R2,R6,R9\nMOV~R11,0\nCMP~R3,0\nSTRB~R11,[R2,0]\nBLE~FOO\nMOV~R6,0\nMOV~R3,0\nSTR~R6,[R8,0]\nSTRB~R3,[R8,-0]\nB~FOO\nMOV~R2,0\nSTRB~R2,[R1]\nB~FOO\nADD~R4,R9,0\nADD~R4,R4,0\nMOV~R0,R4\nMOV~R1,0\nBL~FOO\nADD~LR,SP,0\nLDR~R0,[LR,0]\nADD~R0,R5,R0\nADD~R0,R0,0\nBL~FOO\nCMP~R0,0\nBLE~FOO\nADD~R1,SP,0\nLDR~R0,[R1,0]\nADD~R0,R5,R0\nADD~R0,R0,0\nBL~FOO\nCMP~R0,0\nBGT~FOO\nADD~R2,SP,0\nLDR~R1,[R2,0]\nADD~R1,R5,R1\nMOV~R0,R4\nADD~R1,R1,0\nBL~FOO\nB~FOO\nMOV~R0,R5\nBL~FOO\nCMP~R0,0\nBGT~FOO\nLDR~R0,[R8,0]\nLDR~R2,[SP,0]\nMOV~R0,R0,LSL0\nMOV~R1,R5\nADD~R0,R2,R0\nBL~FOO\nLDR~R4,[R8,0]\nLDR~R3,[SP,0]\nMOV~R4,R4,LSL0\nADD~R4,R3,R4\nMOV~R0,R4\nBL~FOO\nLDR~R1,<STR>\nADD~R0,R4,R0\nBL~FOO\nADD~R4,R6,0\nLDR~R1,[R8,0]\nADD~R6,R7,R4\nRSB~R1,R4,R1\nMOV~R3,R10\nLDR~R2,<STR>\nMOV~R0,R6\nBL~FOO\nLDR~R5,[R8,0]\nLDR~R12,[SP,0]\nMOV~R5,R5,LSL0\nADD~R4,R4,R9\nADD~R5,R12,R5\nADD~R4,R4,R0\nSTRB~R11,[R4,0]\nMOV~R0,R5\nBL~FOO\nMOV~R1,R6\nADD~R0,R5,R0\nBL~FOO\nLDR~R3,[R8,0]\nADD~R3,R3,0\nSTR~R3,[R8,0]\nB~FOO\nMOV~R12,0\nADD~R1,SP,0\nSTR~R12,[R1,0]\nLDRB~R3,[R5,0]\nCMP~R3,0\nADDEQ~R12,R12,0\nSTREQ~R12,[R1,0]\nADD~R2,SP,0\nLDR~R1,[R2,0]\nADD~R2,R7,0\nRSB~R2,R1,R2\nMOV~R0,R5\nADD~R1,R5,R1\nBL~FOO\nMOV~R12,0\nADD~R3,SP,0\nSTR~R12,[R3,0]\nLDRB~R0,[R6,R4]\nCMP~R0,R12\nBEQ~FOO\nCMP~R0,0\nMOVEQ~R1,R5\nBEQ~FOO\nMOV~R3,0\nB~FOO\nCMP~R2,0\nBEQ~FOO\nADD~LR,SP,0\nSTR~R3,[LR,0]\nLDRB~R2,[R3,R5]\nCMP~R2,0\nADD~R1,R5,R3\nADD~R3,R3,0\nBNE~FOO\nMOV~R0,R5\nBL~FOO\nCMP~R0,0\nBLE~FOO\nMOV~R0,R5\nBL~FOO\nCMP~R0,0\nADDLE~R0,R9,0\nADDLE~R0,R0,0\nMOVLE~R1,R5\nBLLE~FOO\nADD~R1,SP,0\nLDR~R0,[R1,0]\nADD~R0,R5,R0\nADD~R0,R0,0\nBL~FOO\nCMP~R0,0\nBGT~FOO\nADD~R4,R9,0\nADD~R4,R4,0\nMOV~R0,R4\nMOV~R1,0\nBL~FOO\nADD~R2,SP,0\nLDR~R0,[R2,0]\nADD~R0,R5,R0\nADD~R0,R0,0\nBL~FOO\nCMP~R0,0\nBLE~FOO\nADD~R3,SP,0\nLDR~R1,[R3,0]\nADD~R1,R5,R1\nMOV~R0,R4\nADD~R1,R1,0\nBL~FOO\nB~FOO\nSTRB~R4,[R8,-0]\nB~FOO\nADD~R12,R12,0\nADD~R4,R6,R12\nADD~R2,SP,0\nMOV~R0,R4\nSTR~R12,[R2,0]\nBL~FOO\nADD~R4,R4,R0\nLDRB~R3,[R4,-0]\nCMP~R3,0\nBNE~FOO\nADD~R3,SP,0\nLDR~R4,[R3,0]\nADD~R4,R6,R4\nMOV~R0,R4\nBL~FOO\nADD~R4,R4,R0\nSTRB~R5,[R4,-0]\nB~FOO\nMOV~R12,0\nSTRB~R12,[R1]\nB~FOO\nADD~R12,SP,0\nLDR~R0,[R12,0]\nADD~R0,R5,R0\nADD~R0,R0,0\nBL~FOO\nCMP~R0,0\nBGT~FOO\nADD~R4,R9,0\nADD~R4,R4,0\nMOV~R0,R4\nMOV~R1,0\nBL~FOO\nADD~LR,SP,0\nLDR~R0,[LR,0]\nADD~R0,R5,R0\nADD~R0,R0,0\nBL~FOO\nCMP~R0,0\nBLE~FOO\nADD~R2,SP,0\nLDR~R1,[R2,0]\nADD~R1,R5,R1\nMOV~R0,R4\nADD~R1,R1,0\nBL~FOO\nB~FOO\nMOV~R0,0\nBL~FOO\nMOV~R1,0\nMOV~R0,0\nBL~FOO\nMOV~R1,R0\nADD~R0,R5,0\nBL~FOO\nMOV~R0,0\nBL~FOO\nMOV~R1,R10\nLDR~R0,[SP,0]\nBL~FOO\nLDR~R1,[SP,0]\nADD~R7,R7,0\nADD~R5,R5,0\nCMP~R1,R7\nADD~R5,R5,0\nBNE~FOO\nLDR~R2,[SP,0]\nADD~R3,SP,0\nLDR~LR,[SP,0]\nADD~R2,R2,0\nADD~R3,R3,0\nAND~R12,R8,0\nADD~R2,R2,0\nSUB~R3,R3,0\nADD~LR,LR,0\nMOV~R8,R8,LSR0\nSTR~R2,[SP,0]\nSTR~R12,[SP,0]\nSTR~R3,[SP,0]\nSTR~LR,[SP,0]\nSTR~R8,[SP,0]\nB~FOO\nMOV~R0,0\nBL~FOO\nMOV~R1,0\nMOV~R0,0\nBL~FOO\nMOV~R1,R0\nADD~R0,R5,0\nBL~FOO\nMOV~R0,0\nBL~FOO\nB~FOO\nMOV~R0,0\nBL~FOO\nMOV~R1,0\nMOV~R0,0\nBL~FOO\nMOV~R1,R0\nADD~R0,R5,0\nBL~FOO\nMOV~R0,0\nBL~FOO\nB~FOO\nMOV~R0,0\nBL~FOO\nMOV~R1,0\nMOV~R0,0\nBL~FOO\nMOV~R1,R0\nADD~R0,R5,0\nBL~FOO\nMOV~R0,0\nBL~FOO\nB~FOO\nMOV~R0,0\nBL~FOO\nMOV~R1,0\nMOV~R0,0\nBL~FOO\nMOV~R1,R0\nADD~R0,R5,0\nBL~FOO\nMOV~R0,0\nBL~FOO\nB~FOO"'
p20
L7608L
tp21
a(S'attack_get_opt_str'
p22
S'"AND~R0,R0,0\nCMP~R0,0\nSTMFD~SP!,{R4,LR}\nAND~R2,R2,0\nMOV~R4,R3\nBLE~FOO\nLDRB~R3,[R1,0]\nCMP~R3,R2\nADDNE~R12,R1,0\nMOVNE~LR,0\nBNE~FOO\nB~FOO\nLDRB~R3,[R12,0]\nCMP~R3,R2\nADD~R12,R12,0\nBEQ~FOO\nADD~LR,LR,0\nCMP~LR,R0\nMOV~R1,R12\nBNE~FOO\nMOV~R0,R4\nLDMFD~SP!,{R4,PC}\nLDR~R4,[R1]\nMOV~R0,R4\nLDMFD~SP!,{R4,PC}"'
p23
L100L
tp24
a(S'attack_start'
p25
S'"STMFD~SP!,{R4-R10,LR}\nMOV~R9,R3\nMOV~R6,R0\nAND~R7,R1,0\nAND~R8,R2,0\nLDRB~R10,[SP,0]\nBL~FOO\nCMN~R0,0\nMOVNE~R3,0\nMOVEQ~R3,0\nCMP~R0,0\nMOVLE~R5,R3\nORRGT~R5,R3,0\nCMP~R5,0\nLDMNEFD~SP!,{R4-R10,PC}\nBL~FOO\nCMN~R0,0\nMOV~R4,R0\nBEQ~FOO\nCMP~R0,0\nBNE~FOO\nMOV~R0,R6\nBL~FOO\nBL~FOO\nMOV~R1,0\nBL~FOO\nMOV~R0,R4\nBL~FOO\nMOV~R0,R5\nBL~FOO\nLDR~R3,<STR>\nLDRB~R1,[R3]\nCMP~R1,0\nBLE~FOO\nLDR~R3,<STR>\nLDR~R2,[R3]\nLDR~R12,[R2]\nLDRB~R3,[R12,0]\nCMP~R3,R7\nMOVNE~R0,R5\nBNE~FOO\nB~FOO\nLDR~R12,[R2,R0,LSL0]\nLDRB~R3,[R12,0]\nCMP~R3,R7\nBEQ~FOO\nADD~R0,R0,0\nCMP~R0,R1\nBNE~FOO\nMOV~R0,0\nBL~FOO\nMOV~R0,R8\nMOV~R1,R9\nMOV~R2,R10\nLDR~R3,[SP,0]\nMOV~LR,PC\nLDR~PC,[R12]\nB~FOO"'
p26
L232L
tp27
a(S'attack_parse'
p28
S'"STMFD~SP!,{R4-R11,LR}\nCMP~R1,0\nSUB~SP,SP,0\nMOV~R5,R1\nMOV~R4,R0\nBLS~FOO\nCMP~R1,0\nLDR~R10,[R0]\nBNE~FOO\nADD~SP,SP,0\nLDMFD~SP!,{R4-R11,PC}\nCMP~R1,0\nLDRB~R1,[R0,0]\nSTR~R1,[SP,0]\nBEQ~FOO\nLDRB~R7,[R0,0]\nCMP~R7,0\nBEQ~FOO\nMOV~R9,R7,LSL0\nSUB~R6,R5,0\nADD~R8,R9,R7\nCMP~R6,R8\nBCC~FOO\nMOV~R0,R7\nMOV~R1,0\nBL~FOO\nCMP~R7,0\nSTR~R0,[SP,0]\nADD~R11,R4,0\nBLE~FOO\nMOV~R1,R0\nADD~R12,R4,R8\nMOV~R0,R4\nMOV~LR,0\nMOV~R4,0\nLDRB~R3,[R0,0]\nLDR~R2,[R0,0]\nADD~R0,R0,0\nCMP~R12,R0\nSTRB~R3,[R1,0]\nSTR~R2,[R1,0]\nSTR~R2,[R1,0]\nSTRB~R4,[R1]\nSTRB~LR,[R1,0]\nADD~R1,R1,0\nBNE~FOO\nADD~R3,R9,R7\nRSB~R3,R3,R5\nADD~R11,R0,0\nSUB~R6,R3,0\nCMP~R6,0\nSTREQ~R6,[SP,0]\nBEQ~FOO\nLDRB~R9,[R11]\nCMP~R9,0\nSTREQ~R9,[SP,0]\nSTREQ~R9,[SP,0]\nBEQ~FOO\nMOV~R0,R9\nMOV~R1,0\nBL~FOO\nCMP~R9,0\nSTR~R0,[SP,0]\nSTR~R9,[SP,0]\nBLE~FOO\nSUBS~R2,R6,0\nBEQ~FOO\nLDRB~R3,[R11,0]\nSUBS~R2,R2,0\nSTRB~R3,[R0,0]\nADD~R0,R11,0\nBEQ~FOO\nLDRB~R4,[R0,0]\nSUB~R8,R2,0\nCMP~R8,R4\nADD~R0,R0,0\nBLT~FOO\nLDR~R3,[SP,0]\nLDR~R5,[SP,0]\nADD~R3,R3,0\nADD~R6,R0,0\nMOV~R11,0\nSTR~R3,[SP,0]\nB~FOO\nSUBS~R2,R8,R4\nBEQ~FOO\nLDRB~R3,[R4,R6]\nADD~R0,R4,R6\nSUBS~R2,R2,0\nSTRB~R3,[R5,0]\nADD~R3,R0,0\nSUB~R8,R2,0\nADD~R6,R3,0\nBEQ~FOO\nLDRB~R4,[R0,0]\nCMP~R8,R4\nBLT~FOO\nMOV~R1,0\nADD~R0,R4,0\nBL~FOO\nMOV~R1,R6\nSTR~R0,[R5]\nMOV~R2,R4\nBL~FOO\nLDR~R5,[SP,0]\nADD~R11,R11,0\nADD~R12,R5,0\nCMP~R11,R9\nSTR~R12,[SP,0]\nBNE~FOO\nBL~FOO\nAND~R3,R10,0\nLDR~R12,[SP,0]\nAND~R2,R10,0\nMOV~R1,R10,LSL0\nORR~R1,R1,R3,LSL0\nMOV~R2,R2,LSR0\nMOV~R3,0\nSTR~R3,[R0]\nORR~R2,R2,R10,LSR0\nSTR~R12,[SP]\nLDR~R12,[SP,0]\nORR~R0,R2,R1\nLDR~R3,[SP,0]\nLDR~R1,[SP,0]\nMOV~R2,R7\nSTR~R12,[SP,0]\nBL~FOO\nLDR~R1,[SP,0]\nCMP~R1,0\nMOVNE~R0,R1\nBLNE~FOO\nLDR~R3,[SP,0]\nCMP~R3,0\nBEQ~FOO\nCMP~R9,0\nBLE~FOO\nMOV~R4,0\nLDR~R12,[SP,0]\nLDR~R0,[R12,R4,LSL0]\nCMP~R0,0\nADD~R4,R4,0\nBLNE~FOO\nCMP~R9,R4\nBNE~FOO\nLDR~R0,[SP,0]\nADD~SP,SP,0\nLDMFD~SP!,{R4-R11,LR}\nB~FOO"'
p29
L596L
tp30
a(S'attack_kill_all'
p31
S'"STMFD~SP!,{R4,R5,LR}\nLDR~R4,<STR>\nLDR~R0,[R4]\nCMP~R0,0\nBNE~FOO\nLDR~R0,[R4,0]\nMOV~R5,0\nCMP~R0,0\nSTR~R5,[R4]\nBNE~FOO\nLDR~R0,[R4,0]\nCMP~R0,0\nSTR~R5,[R4,0]\nBNE~FOO\nLDR~R0,[R4,0]\nCMP~R0,0\nSTR~R5,[R4,0]\nBNE~FOO\nLDR~R0,[R4,0]\nCMP~R0,0\nSTR~R5,[R4,0]\nBNE~FOO\nLDR~R0,[R4,0]\nCMP~R0,0\nSTR~R5,[R4,0]\nBNE~FOO\nLDR~R0,[R4,0]\nCMP~R0,0\nSTR~R5,[R4,0]\nBNE~FOO\nLDR~R0,[R4,0]\nCMP~R0,0\nSTR~R5,[R4,0]\nBNE~FOO\nSTR~R5,[R4,0]\nLDMFD~SP!,{R4,R5,LR}\nB~FOO\nMOV~R1,0\nBL~FOO\nLDR~R0,[R4,0]\nMOV~R5,0\nCMP~R0,0\nSTR~R5,[R4]\nBEQ~FOO\nMOV~R1,0\nBL~FOO\nLDR~R0,[R4,0]\nCMP~R0,0\nSTR~R5,[R4,0]\nBEQ~FOO\nMOV~R1,0\nBL~FOO\nLDR~R0,[R4,0]\nCMP~R0,0\nSTR~R5,[R4,0]\nBEQ~FOO\nMOV~R1,0\nBL~FOO\nLDR~R0,[R4,0]\nCMP~R0,0\nSTR~R5,[R4,0]\nBEQ~FOO\nMOV~R1,0\nBL~FOO\nLDR~R0,[R4,0]\nCMP~R0,0\nSTR~R5,[R4,0]\nBEQ~FOO\nMOV~R1,0\nBL~FOO\nLDR~R0,[R4,0]\nCMP~R0,0\nSTR~R5,[R4,0]\nBEQ~FOO\nMOV~R1,0\nBL~FOO\nLDR~R0,[R4,0]\nCMP~R0,0\nSTR~R5,[R4,0]\nBEQ~FOO\nMOV~R1,0\nBL~FOO\nB~FOO"'
p32
L332L
tp33
a(S'attack_get_opt_ip'
p34
S'"AND~R0,R0,0\nCMP~R0,0\nSTMFD~SP!,{R4,LR}\nMOV~R4,R3\nBLE~FOO\nLDRB~R3,[R1,0]\nAND~R2,R2,0\nCMP~R3,R2\nADDNE~R12,R1,0\nMOVNE~LR,0\nBNE~FOO\nB~FOO\nLDRB~R3,[R12,0]\nCMP~R2,R3\nADD~R12,R12,0\nBEQ~FOO\nADD~LR,LR,0\nCMP~R0,LR\nMOV~R1,R12\nBNE~FOO\nMOV~R0,R4\nLDMFD~SP!,{R4,PC}\nLDR~R0,[R1]\nCMP~R0,0\nBEQ~FOO\nLDMFD~SP!,{R4,LR}\nB~FOO"'
p35
L108L
tp36
a(S'attack_get_opt_int'
p37
S'"AND~R0,R0,0\nCMP~R0,0\nSTMFD~SP!,{R4,LR}\nMOV~R4,R3\nBLE~FOO\nLDRB~R3,[R1,0]\nAND~R2,R2,0\nCMP~R3,R2\nADDNE~R12,R1,0\nMOVNE~LR,0\nBNE~FOO\nB~FOO\nLDRB~R3,[R12,0]\nCMP~R2,R3\nADD~R12,R12,0\nBEQ~FOO\nADD~LR,LR,0\nCMP~R0,LR\nMOV~R1,R12\nBNE~FOO\nMOV~R0,R4\nLDMFD~SP!,{R4,PC}\nLDR~R0,[R1]\nCMP~R0,0\nBEQ~FOO\nMOV~R1,0\nLDMFD~SP!,{R4,LR}\nB~FOO"'
p38
L112L
tp39
a(S'attack_init'
p40
S'"STMFD~SP!,{R4-R7,LR}\nMOV~R1,0\nMOV~R0,0\nBL~FOO\nLDR~R4,<STR>\nLDRB~R1,[R4]\nLDR~R6,<STR>\nLDR~R2,<STR>\nMOV~R5,R0\nMOV~R3,0\nMOV~R1,R1,LSL0\nLDR~R0,[R6]\nSTR~R2,[R5]\nSTRB~R3,[R5,0]\nADD~R1,R1,0\nBL~FOO\nLDRB~R3,[R4]\nMOV~R12,R0\nSTR~R5,[R12,R3,LSL0]\nADD~R2,R3,0\nMOV~R1,0\nMOV~R0,0\nSTRB~R2,[R4]\nSTR~R12,[R6]\nBL~FOO\nLDRB~R1,[R4]\nLDR~R3,<STR>\nMOV~R7,0\nMOV~R5,R0\nMOV~R1,R1,LSL0\nLDR~R0,[R6]\nSTR~R3,[R5]\nSTRB~R7,[R5,0]\nADD~R1,R1,0\nBL~FOO\nLDRB~R3,[R4]\nMOV~R12,R0\nSTR~R5,[R12,R3,LSL0]\nADD~R2,R3,R7\nMOV~R1,0\nMOV~R0,R7\nSTR~R12,[R6]\nSTRB~R2,[R4]\nBL~FOO\nLDRB~R1,[R4]\nLDR~R2,<STR>\nMOV~R5,R0\nMOV~R3,0\nMOV~R1,R1,LSL0\nLDR~R0,[R6]\nSTR~R2,[R5]\nSTRB~R3,[R5,0]\nADD~R1,R1,0\nBL~FOO\nLDRB~R3,[R4]\nMOV~R12,R0\nSTR~R5,[R12,R3,LSL0]\nADD~R2,R3,R7\nMOV~R1,0\nMOV~R0,R7\nSTR~R12,[R6]\nSTRB~R2,[R4]\nBL~FOO\nLDRB~R1,[R4]\nLDR~R2,<STR>\nMOV~R5,R0\nMOV~R3,0\nMOV~R1,R1,LSL0\nLDR~R0,[R6]\nSTR~R2,[R5]\nSTRB~R3,[R5,0]\nADD~R1,R1,0\nBL~FOO\nLDRB~R3,[R4]\nMOV~R12,R0\nSTR~R5,[R12,R3,LSL0]\nADD~R2,R3,R7\nMOV~R1,0\nMOV~R0,R7\nSTR~R12,[R6]\nSTRB~R2,[R4]\nBL~FOO\nLDRB~R1,[R4]\nLDR~R2,<STR>\nMOV~R5,R0\nMOV~R3,0\nMOV~R1,R1,LSL0\nLDR~R0,[R6]\nSTR~R2,[R5]\nSTRB~R3,[R5,0]\nADD~R1,R1,0\nBL~FOO\nLDRB~R3,[R4]\nMOV~R12,R0\nSTR~R5,[R12,R3,LSL0]\nADD~R2,R3,R7\nMOV~R1,0\nMOV~R0,R7\nSTR~R12,[R6]\nSTRB~R2,[R4]\nBL~FOO\nLDRB~R1,[R4]\nLDR~R2,<STR>\nMOV~R5,R0\nMOV~R3,0\nMOV~R1,R1,LSL0\nLDR~R0,[R6]\nSTR~R2,[R5]\nSTRB~R3,[R5,0]\nADD~R1,R1,0\nBL~FOO\nLDRB~R3,[R4]\nMOV~R12,R0\nSTR~R5,[R12,R3,LSL0]\nADD~R2,R3,R7\nMOV~R1,0\nMOV~R0,R7\nSTR~R12,[R6]\nSTRB~R2,[R4]\nBL~FOO\nLDRB~R1,[R4]\nLDR~R2,<STR>\nMOV~R5,R0\nMOV~R3,0\nMOV~R1,R1,LSL0\nLDR~R0,[R6]\nSTR~R2,[R5]\nSTRB~R3,[R5,0]\nADD~R1,R1,0\nBL~FOO\nLDRB~R3,[R4]\nMOV~R12,R0\nSTR~R5,[R12,R3,LSL0]\nADD~R2,R3,R7\nMOV~R1,0\nMOV~R0,R7\nSTR~R12,[R6]\nSTRB~R2,[R4]\nBL~FOO\nLDRB~R1,[R4]\nLDR~R2,<STR>\nMOV~R5,R0\nMOV~R3,0\nMOV~R1,R1,LSL0\nLDR~R0,[R6]\nSTR~R2,[R5]\nSTRB~R3,[R5,0]\nADD~R1,R1,0\nBL~FOO\nLDRB~R3,[R4]\nMOV~R12,R0\nSTR~R5,[R12,R3,LSL0]\nADD~R2,R3,R7\nMOV~R1,0\nMOV~R0,R7\nSTR~R12,[R6]\nSTRB~R2,[R4]\nBL~FOO\nLDRB~R1,[R4]\nLDR~R2,<STR>\nMOV~R5,R0\nMOV~R3,0\nMOV~R1,R1,LSL0\nLDR~R0,[R6]\nSTR~R2,[R5]\nSTRB~R3,[R5,0]\nADD~R1,R1,0\nBL~FOO\nLDRB~R3,[R4]\nMOV~R12,R0\nSTR~R5,[R12,R3,LSL0]\nADD~R2,R3,R7\nMOV~R1,0\nMOV~R0,R7\nSTRB~R2,[R4]\nSTR~R12,[R6]\nBL~FOO\nLDRB~R1,[R4]\nLDR~R2,<STR>\nMOV~R5,R0\nMOV~R3,0\nMOV~R1,R1,LSL0\nLDR~R0,[R6]\nSTR~R2,[R5]\nSTRB~R3,[R5,0]\nADD~R1,R1,0\nBL~FOO\nLDRB~R3,[R4]\nSTR~R0,[R6]\nSTR~R5,[R0,R3,LSL0]\nADD~R2,R3,R7\nMOV~R0,R7\nSTRB~R2,[R4]\nLDMFD~SP!,{R4-R7,PC}"'
p41
L776L
tp42
a(S'attack_gre_eth'
p43
S'"STMFD~SP!,{R4-R11,LR}\nAND~R11,R0,0\nSUB~SP,SP,0\nMOV~R9,R1\nMOV~R0,R11\nMOV~R1,0\nMOV~R5,R3\nAND~R4,R2,0\nBL~FOO\nMOV~R1,R5\nSTR~R0,[SP,0]\nMOV~R2,0\nMOV~R3,0\nMOV~R0,R4\nBL~FOO\nMOV~R3,0\nMOV~R12,R0\nAND~R12,R12,0\nSUB~R3,R3,0\nMOV~R2,0\nMOV~R1,R5\nMOV~R0,R4\nSTR~R12,[SP,0]\nBL~FOO\nMOV~R1,R5\nMOV~R2,0\nMOV~R3,0\nMOV~R7,R0\nMOV~R0,R4\nBL~FOO\nMOV~R12,R0\nAND~R12,R12,0\nMOV~R1,R5\nMOV~R2,0\nMOV~R3,0\nMOV~R0,R4\nSTR~R12,[SP,0]\nBL~FOO\nMOV~R3,0\nMOV~R12,R0\nAND~R12,R12,0\nSUB~R3,R3,0\nMOV~R2,0\nMOV~R1,R5\nMOV~R0,R4\nSTR~R12,[SP,0]\nBL~FOO\nMOV~R3,0\nMOV~R1,R5\nSUB~R3,R3,0\nMOV~R2,0\nMOV~R10,R0\nMOV~R0,R4\nBL~FOO\nMOV~R1,R5\nMOV~R2,0\nMOV~R3,0\nMOV~R8,R0\nMOV~R0,R4\nBL~FOO\nMOV~R2,0\nMOV~R3,R2\nSTR~R0,[SP,0]\nMOV~R1,R5\nMOV~R0,R4\nBL~FOO\nMOV~R12,R0\nAND~R12,R12,0\nMOV~R1,R5\nMOV~R2,0\nMOV~R3,0\nMOV~R0,R4\nSTR~R12,[SP,0]\nBL~FOO\nLDR~R2,<STR>\nMOV~R1,R5\nLDR~R3,[R2]\nMOV~R6,R0\nMOV~R2,0\nMOV~R0,R4\nBL~FOO\nMOV~R1,0\nSTR~R0,[SP,0]\nMOV~R2,0\nMOV~R0,0\nBL~FOO\nCMN~R0,0\nSTR~R0,[SP,0]\nBEQ~FOO\nADD~R3,SP,0\nMOV~R2,0\nSTR~R2,[R3,-0]\nMOV~R12,0\nMOV~R1,0\nADD~R2,R2,0\nSTR~R12,[SP]\nBL~FOO\nCMN~R0,0\nBEQ~FOO\nMOV~R10,R10,LSL0\nMOV~R8,R8,LSL0\nMOV~R1,0\nMOV~R7,R7,LSL0\nAND~R6,R6,0\nSTR~R1,[SP,0]\nMOV~R2,R7,LSR0\nMOV~R3,R10,LSR0\nMOV~R1,R8,LSR0\nCMP~R11,0\nSTR~R10,[SP,0]\nSTR~R8,[SP,0]\nSTR~R6,[SP,0]\nSTR~R2,[SP,0]\nSTR~R3,[SP,0]\nSTR~R1,[SP,0]\nBLE~FOO\nLDR~R3,[SP,0]\nMOV~R2,R3,LSL0\nLDR~R3,[SP,0]\nMVN~R1,R3\nLDR~R3,[SP,0]\nADD~R10,R2,0\nAND~R4,R3,0\nLDR~R3,[SP,0]\nMOV~R0,R10,LSR0\nADD~R8,R2,0\nMOV~R1,R1,LSL0\nADD~R2,R2,0\nAND~R5,R3,0\nAND~R0,R0,0\nLDR~R3,[SP,0]\nMOV~R12,R2,LSR0\nMOV~LR,R1,LSR0\nORR~R10,R0,R10,LSR0\nAND~R3,R3,0\nSTR~R10,[SP,0]\nMOV~R7,R7,LSR0\nAND~R12,R12,0\nAND~LR,LR,0\nORR~R7,R7,R3,LSL0\nORR~R2,R12,R2,LSR0\nORR~R1,LR,R1,LSR0\nSTR~R3,[SP,0]\nLDR~R3,[SP,0]\nSTR~R2,[SP,0]\nSTR~R1,[SP,0]\nLDR~R2,[SP,0]\nLDR~R1,[SP,0]\nMOV~R4,R4,LSL0\nSTR~R7,[SP,0]\nMOV~R3,R3,ASR0\nMOV~R5,R5,LSL0\nORR~R7,R4,R1,LSR0\nMOV~R6,R8,LSR0\nORR~R10,R5,R2,LSR0\nSTR~R3,[SP,0]\nADD~R1,SP,0\nLDMIA~R1,{R1-R3}\nAND~R6,R6,0\nMOV~R1,R1,ASR0\nMOV~R2,R2,ASR0\nMOV~R3,R3,ASR0\nORR~R8,R6,R8,LSR0\nSTR~R1,[SP,0]\nSTR~R2,[SP,0]\nSTR~R3,[SP,0]\nMOV~R1,R7,ASR0\nMOV~R2,R10,ASR0\nMOV~R3,R8,ASR0\nSTR~R1,[SP,0]\nSTR~R2,[SP,0]\nSTR~R3,[SP,0]\nMOV~R4,0\nMOV~R0,0\nMOV~R1,0\nADD~R0,R0,0\nBL~FOO\nLDR~R1,[SP,0]\nLDR~R3,[SP,0]\nSTR~R0,[R1,R4,LSL0]\nLDR~R4,[R1,R3,LSL0]\nLDRB~R2,[R4]\nBIC~R2,R2,0\nORR~R2,R2,0\nSTRB~R2,[R4]\nLDRB~R3,[R4]\nBIC~R3,R3,0\nORR~R3,R3,0\nLDR~R2,[SP,0]\nSTRB~R3,[R4]\nLDR~R3,[SP,0]\nSTRB~R3,[R4,0]\nLDR~R1,[SP,0]\nMOV~R12,0\nSTRB~R1,[R4,0]\nCMP~R2,R12\nLDR~R3,[SP,0]\nLDR~R2,[SP,0]\nSTRB~R3,[R4,0]\nSTRB~R2,[R4,0]\nMOVNE~R3,0\nLDR~R2,[SP,0]\nSTRNEB~R3,[R4,0]\nMOV~R3,0\nSTRB~R2,[R4,0]\nLDR~R1,[SP,0]\nMOVNE~R2,R12\nSTRB~R3,[R4,0]\nSTRNEB~R2,[R4,0]\nLDR~R2,[SP,0]\nMOV~R3,R2,LSL0\nSUB~R3,R3,R2,LSL0\nLDR~R2,[SP,0]\nSTR~R2,[R4,0]\nADD~R3,R3,R9\nLDR~R2,[R3,0]\nSTRB~R1,[R4,0]\nMOV~R3,0\nADD~R1,R4,0\nSTRB~R3,[R1,0]\nSTR~R2,[R4,0]\nADD~R0,R4,0\nMOV~R2,0\nSUB~R3,R3,0\nSTRB~R2,[R1,0]\nSTRB~R3,[R0,0]\nSTRB~R12,[R0,0]\nLDRB~R3,[R4,0]\nBIC~R3,R3,0\nORR~R3,R3,0\nSTRB~R3,[R4,0]\nLDRB~R2,[R4,0]\nBIC~R2,R2,0\nORR~R2,R2,0\nSTRB~R2,[R4,0]\nLDR~R3,[SP,0]\nADD~R5,R4,0\nSTRB~R3,[R5,0]\nADD~R1,SP,0\nLDMIA~R1,{R1,R3}\nLDR~R2,[SP,0]\nSTRB~R3,[R5,0]\nSTRB~R1,[R5,0]\nMOVNE~R3,0\nLDR~R1,[SP,0]\nSTRB~R2,[R5,0]\nLDR~R2,[SP,0]\nSTRNEB~R3,[R5,0]\nMOV~R3,0\nSTRB~R1,[R5,0]\nSTRB~R2,[R5,0]\nSTRNEB~R12,[R5,0]\nSTRB~R3,[R5,0]\nBL~FOO\nLDR~R1,[SP,0]\nSUB~R3,R0,0\nCMP~R1,0\nMVN~R3,R3\nLDRNE~R3,[R4,0]\nSTREQ~R3,[R5,0]\nSTRNE~R3,[R5,0]\nLDR~R3,[SP,0]\nADD~R6,R4,0\nSTR~R0,[R5,0]\nSTRB~R3,[R6,0]\nLDR~R3,[SP,0]\nLDR~R2,[SP,0]\nADD~R4,R3,0\nLDR~R1,[SP,0]\nCMP~R4,R11\nSTRB~R2,[R6,0]\nSTRB~R7,[R6]\nSTRB~R10,[R6,0]\nSTRB~R1,[R6,0]\nSTRB~R8,[R6,0]\nSTR~R4,[SP,0]\nBLT~FOO\nLDR~R2,[SP,0]\nLDR~R3,[SP,0]\nADD~R2,R2,0\nADD~R3,R3,0\nSTR~R2,[SP,0]\nSTR~R3,[SP,0]\nCMP~R11,0\nMOV~R3,0\nBLE~FOO\nSTR~R3,[SP,0]\nMOV~R0,R3\nMOV~R10,R3\nMOV~R3,R0,LSL0\nSUB~R3,R3,R0,LSL0\nADD~R3,R3,R9\nLDR~R1,[SP,0]\nLDRB~R2,[R3,0]\nLDR~R5,[R1,R0,LSL0]\nCMP~R2,0\nADD~R8,R5,0\nADD~R6,R5,0\nADD~R7,R5,0\nBLS~FOO\nLDR~R2,[SP,0]\nCMN~R2,0\nBEQ~FOO\nMOV~R4,0\nLDR~R3,[SP,0]\nSUB~R4,R4,0\nCMP~R3,R4\nBEQ~FOO\nLDR~R1,[SP,0]\nCMP~R1,R4\nBEQ~FOO\nLDR~R2,[SP,0]\nCMP~R2,R4\nBEQ~FOO\nLDR~R3,[SP,0]\nCMP~R3,0\nLDRNE~R3,[R5,0]\nSTRNE~R3,[R6,0]\nBEQ~FOO\nBL~FOO\nSTR~R0,[SP,0]\nBL~FOO\nSTR~R0,[SP,0]\nBL~FOO\nADD~R1,SP,0\nSTR~R0,[SP,0]\nMOV~R2,0\nMOV~R0,R8\nBL~FOO\nADD~R0,R8,0\nADD~R1,SP,0\nMOV~R2,0\nBL~FOO\nADD~R0,R8,0\nADD~R1,SP,0\nMOV~R2,0\nBL~FOO\nADD~R1,SP,0\nADD~R0,R8,0\nMOV~R2,0\nBL~FOO\nLDR~R1,[SP,0]\nCMP~R1,0\nBNE~FOO\nMOV~R1,0\nSTRB~R10,[R5,0]\nSTRB~R10,[R5,0]\nMOV~R0,R5\nBL~FOO\nMOV~R3,R0,ASR0\nSTRB~R3,[R5,0]\nSTRB~R0,[R5,0]\nMOV~R1,0\nSTRB~R10,[R6,0]\nSTRB~R10,[R6,0]\nMOV~R0,R6\nBL~FOO\nMOV~R3,R0,ASR0\nSTRB~R0,[R6,0]\nSTRB~R3,[R6,0]\nLDRB~R3,[R7,0]\nLDRB~R2,[R7,0]\nMOV~R1,R7\nORR~R2,R3,R2,LSL0\nSTRB~R10,[R7,0]\nLDR~R3,[SP,0]\nSTRB~R10,[R7,0]\nMOV~R0,R6\nBL~FOO\nLDR~R3,[SP,0]\nMOV~R2,R3,LSL0\nLDR~R1,[R5,0]\nSUB~R2,R2,R3,LSL0\nMOV~R3,R0,ASR0\nSTRB~R3,[R7,0]\nADD~LR,R2,R9\nMOV~R3,0\nSTRB~R0,[R7,0]\nSTR~R1,[LR,0]\nSTRB~R3,[R2,R9]\nSTRB~R10,[LR,0]\nSTRB~R10,[LR,0]\nSTRB~R10,[LR,0]\nMOV~R3,0\nMOV~R12,0\nMOV~R1,R5\nLDR~R0,[SP,0]\nLDR~R2,[SP,0]\nSTR~LR,[SP]\nSTR~R12,[SP,0]\nBL~FOO\nLDR~R3,[SP,0]\nADD~R0,R3,0\nCMP~R0,R11\nSTR~R0,[SP,0]\nBGE~FOO\nB~FOO\nLDR~R0,[SP,0]\nBL~FOO\nADD~SP,SP,0\nLDMFD~SP!,{R4-R11,PC}\nLDR~R4,[R3,0]\nBL~FOO\nLDR~R3,[SP,0]\nMOV~R1,R3,LSL0\nSUB~R1,R1,R3,LSL0\nAND~R2,R4,0\nADD~R1,R1,R9\nAND~R3,R4,0\nMOV~R2,R2,LSR0\nMOV~R12,R4,LSL0\nLDRB~LR,[R1,0]\nORR~R12,R12,R3,LSL0\nORR~R2,R2,R4,LSR0\nORR~R2,R2,R12\nADD~R2,R2,R0,LSRLR\nAND~R3,R2,0\nMOV~R3,R3,LSR0\nMOV~R1,R2,LSL0\nAND~R0,R2,0\nORR~R3,R3,R2,LSR0\nLDR~R2,[SP,0]\nORR~R1,R1,R0,LSL0\nORR~R3,R3,R1\nCMN~R2,0\nSTR~R3,[R5,0]\nBNE~FOO\nBL~FOO\nMOV~R4,0\nLDR~R3,[SP,0]\nSUB~R4,R4,0\nCMP~R3,R4\nSTR~R0,[R5,0]\nBNE~FOO\nBL~FOO\nMOV~R0,R0,LSL0\nMOV~R0,R0,LSR0\nSUB~R2,R0,0\nMVN~R2,R2\nMOV~R1,R2,ASR0\nMOV~R3,R0,ASR0\nSTRB~R3,[R5,0]\nSTRB~R0,[R5,0]\nSTRB~R1,[R6,0]\nLDR~R1,[SP,0]\nCMP~R1,R4\nSTRB~R2,[R6,0]\nBNE~FOO\nBL~FOO\nLDR~R2,[SP,0]\nMOV~R3,R0,ASR0\nCMP~R2,R4\nSTRB~R0,[R5,0]\nSTRB~R3,[R7,0]\nBNE~FOO\nBL~FOO\nMOV~R3,R0,ASR0\nSTRB~R3,[R7,0]\nLDR~R3,[SP,0]\nCMP~R3,0\nLDRNE~R3,[R5,0]\nSTRB~R0,[R7,0]\nSTRNE~R3,[R6,0]\nBNE~FOO\nBL~FOO\nSTR~R0,[R6,0]\nB~FOO\nADD~R0,R7,0\nLDR~R1,[SP,0]\nBL~FOO\nB~FOO\nLDR~R1,[SP,0]\nLDR~R2,[SP,0]\nADD~R1,R1,0\nADD~R2,R2,0\nSTR~R1,[SP,0]\nSTR~R2,[SP,0]\nB~FOO"'
p44
L1912L
tp45
a(S'attack_gre_ip'
p46
S'"STMFD~SP!,{R4-R11,LR}\nAND~R11,R0,0\nSUB~SP,SP,0\nMOV~R9,R1\nMOV~R0,R11\nMOV~R1,0\nMOV~R5,R3\nAND~R4,R2,0\nBL~FOO\nMOV~R1,R5\nSTR~R0,[SP,0]\nMOV~R2,0\nMOV~R3,0\nMOV~R0,R4\nBL~FOO\nMOV~R3,0\nMOV~R12,R0\nAND~R12,R12,0\nSUB~R3,R3,0\nMOV~R2,0\nMOV~R1,R5\nMOV~R0,R4\nSTR~R12,[SP,0]\nBL~FOO\nMOV~R1,R5\nMOV~R2,0\nMOV~R3,0\nMOV~R7,R0\nMOV~R0,R4\nBL~FOO\nMOV~R12,R0\nAND~R12,R12,0\nMOV~R1,R5\nMOV~R2,0\nMOV~R3,0\nMOV~R0,R4\nSTR~R12,[SP,0]\nBL~FOO\nMOV~R3,0\nMOV~R12,R0\nAND~R12,R12,0\nSUB~R3,R3,0\nMOV~R2,0\nMOV~R1,R5\nMOV~R0,R4\nSTR~R12,[SP,0]\nBL~FOO\nMOV~R3,0\nMOV~R1,R5\nSUB~R3,R3,0\nMOV~R2,0\nMOV~R10,R0\nMOV~R0,R4\nBL~FOO\nMOV~R1,R5\nMOV~R2,0\nMOV~R3,0\nMOV~R8,R0\nMOV~R0,R4\nBL~FOO\nMOV~R2,0\nMOV~R3,R2\nSTR~R0,[SP,0]\nMOV~R1,R5\nMOV~R0,R4\nBL~FOO\nMOV~R12,R0\nAND~R12,R12,0\nMOV~R1,R5\nMOV~R2,0\nMOV~R3,0\nMOV~R0,R4\nSTR~R12,[SP,0]\nBL~FOO\nLDR~R2,<STR>\nMOV~R1,R5\nLDR~R3,[R2]\nMOV~R6,R0\nMOV~R2,0\nMOV~R0,R4\nBL~FOO\nMOV~R1,0\nSTR~R0,[SP,0]\nMOV~R2,0\nMOV~R0,0\nBL~FOO\nCMN~R0,0\nSTR~R0,[SP,0]\nBEQ~FOO\nADD~R3,SP,0\nMOV~R2,0\nSTR~R2,[R3,-0]\nMOV~R12,0\nMOV~R1,0\nADD~R2,R2,0\nSTR~R12,[SP]\nBL~FOO\nCMN~R0,0\nBEQ~FOO\nMOV~R10,R10,LSL0\nSTR~R10,[SP,0]\nLDR~R2,[SP,0]\nMOV~R8,R8,LSL0\nMOV~R7,R7,LSL0\nAND~R6,R6,0\nMOV~R1,0\nMOV~R2,R2,LSR0\nMOV~R3,R8,LSR0\nCMP~R11,0\nSTR~R8,[SP,0]\nSTR~R6,[SP,0]\nSTR~R1,[SP,0]\nMOV~R10,R7,LSR0\nSTR~R2,[SP,0]\nSTR~R3,[SP,0]\nBLE~FOO\nLDR~R1,[SP,0]\nMOV~R2,R1,LSL0\nADD~R3,R2,0\nSTR~R3,[SP,0]\nMOV~R0,R3,LSR0\nLDR~R3,[SP,0]\nAND~R4,R3,0\nLDR~R3,[SP,0]\nMVN~R1,R10\nAND~R5,R3,0\nAND~R3,R10,0\nMOV~R1,R1,LSL0\nSTR~R3,[SP,0]\nLDR~R3,[SP,0]\nMOV~LR,R1,LSR0\nAND~R0,R0,0\nADD~R8,R2,0\nORR~R0,R0,R3,LSR0\nADD~R2,R2,0\nLDR~R3,[SP,0]\nAND~LR,LR,0\nMOV~R12,R2,LSR0\nORR~R1,LR,R1,LSR0\nMOV~R7,R7,LSR0\nORR~R7,R7,R3,LSL0\nSTR~R1,[SP,0]\nAND~R12,R12,0\nLDR~R1,[SP,0]\nSTR~R7,[SP,0]\nORR~R2,R12,R2,LSR0\nMOV~R4,R4,LSL0\nORR~R4,R4,R1,LSR0\nSTR~R2,[SP,0]\nLDR~R1,[SP,0]\nLDR~R2,[SP,0]\nMOV~R3,R0,ASR0\nMOV~R5,R5,LSL0\nMOV~R6,R8,LSR0\nSTR~R4,[SP,0]\nORR~R7,R5,R2,LSR0\nMOV~R1,R1,ASR0\nSTR~R3,[SP,0]\nADD~R2,SP,0\nLDMIA~R2,{R2,R3}\nAND~R6,R6,0\nSTR~R1,[SP,0]\nLDR~R1,[SP,0]\nMOV~R2,R2,ASR0\nMOV~R3,R3,ASR0\nORR~R8,R6,R8,LSR0\nSTR~R2,[SP,0]\nSTR~R3,[SP,0]\nMOV~R1,R1,ASR0\nMOV~R2,R7,ASR0\nMOV~R3,R8,ASR0\nSTR~R0,[SP,0]\nSTR~R1,[SP,0]\nSTR~R2,[SP,0]\nSTR~R3,[SP,0]\nMOV~R4,0\nMOV~R0,0\nMOV~R1,0\nADD~R0,R0,0\nBL~FOO\nLDR~R1,[SP,0]\nLDR~R3,[SP,0]\nSTR~R0,[R1,R4,LSL0]\nLDR~R4,[R1,R3,LSL0]\nLDRB~R2,[R4]\nBIC~R2,R2,0\nORR~R2,R2,0\nSTRB~R2,[R4]\nLDRB~R3,[R4]\nBIC~R3,R3,0\nORR~R3,R3,0\nLDR~R2,[SP,0]\nSTRB~R3,[R4]\nLDR~R3,[SP,0]\nSTRB~R3,[R4,0]\nLDR~R1,[SP,0]\nSTRB~R1,[R4,0]\nLDR~R3,[SP,0]\nMOV~R0,0\nCMP~R2,R0\nSTRB~R3,[R4,0]\nLDR~R2,[SP,0]\nMOVNE~R3,R0\nSTRNEB~R3,[R4,0]\nMOVNE~R3,0\nSTRNEB~R3,[R4,0]\nSTRB~R2,[R4,0]\nMOV~R3,0\nLDR~R2,[SP,0]\nLDR~R1,[SP,0]\nSTRB~R3,[R4,0]\nSTRB~R2,[R4,0]\nLDR~R2,[SP,0]\nMOV~R3,R2,LSL0\nSUB~R3,R3,R2,LSL0\nLDR~R2,[SP,0]\nSTR~R2,[R4,0]\nADD~R3,R3,R9\nSTRB~R1,[R4,0]\nLDR~R2,[R3,0]\nADD~R1,R4,0\nMOV~R3,0\nSTRB~R0,[R1,0]\nSTRB~R3,[R1,0]\nLDRB~R3,[R4,0]\nBIC~R3,R3,0\nORR~R3,R3,0\nSTRB~R3,[R4,0]\nSTR~R2,[R4,0]\nLDRB~R2,[R4,0]\nBIC~R2,R2,0\nORR~R2,R2,0\nSTRB~R2,[R4,0]\nLDR~R3,[SP,0]\nADD~R5,R4,0\nSTRB~R3,[R5,0]\nADD~R1,SP,0\nLDMIA~R1,{R1,R3}\nLDR~R2,[SP,0]\nSTRB~R3,[R5,0]\nSTRB~R1,[R5,0]\nMOVNE~R3,0\nLDR~R1,[SP,0]\nSTRB~R2,[R5,0]\nLDR~R2,[SP,0]\nSTRNEB~R3,[R5,0]\nMOV~R3,0\nSTRB~R1,[R5,0]\nSTRB~R2,[R5,0]\nSTRNEB~R0,[R5,0]\nSTRB~R3,[R5,0]\nBL~FOO\nLDR~R1,[SP,0]\nSUB~R3,R0,0\nCMP~R1,0\nMVN~R3,R3\nLDRNE~R3,[R4,0]\nSTREQ~R3,[R5,0]\nSTRNE~R3,[R5,0]\nLDR~R3,[SP,0]\nADD~R6,R4,0\nSTR~R0,[R5,0]\nLDR~R2,[SP,0]\nSTRB~R3,[R6]\nLDR~R3,[SP,0]\nSTRB~R2,[R6,0]\nADD~R4,R3,0\nADD~R1,SP,0\nLDMIA~R1,{R1,R2}\nCMP~R4,R11\nSTRB~R1,[R6,0]\nSTRB~R7,[R6,0]\nSTRB~R2,[R6,0]\nSTRB~R8,[R6,0]\nSTR~R4,[SP,0]\nBLT~FOO\nLDR~R3,[SP,0]\nLDR~R1,[SP,0]\nADD~R3,R3,0\nADD~R1,R1,0\nSTR~R3,[SP,0]\nSTR~R1,[SP,0]\nCMP~R11,0\nMOV~R3,0\nBLE~FOO\nSTR~R3,[SP,0]\nMOV~R0,R3\nMOV~R8,R3\nMOV~R3,R0,LSL0\nSUB~R3,R3,R0,LSL0\nADD~R3,R3,R9\nLDR~R1,[SP,0]\nLDRB~R2,[R3,0]\nLDR~R5,[R1,R0,LSL0]\nCMP~R2,0\nADD~R6,R5,0\nADD~R7,R5,0\nBLS~FOO\nLDR~R2,[SP,0]\nCMN~R2,0\nBEQ~FOO\nMOV~R4,0\nCMP~R10,R4\nBEQ~FOO\nLDR~R3,[SP,0]\nCMP~R3,R4\nBEQ~FOO\nLDR~R1,[SP,0]\nCMP~R1,R4\nBEQ~FOO\nLDR~R2,[SP,0]\nCMP~R2,0\nLDRNE~R3,[R5,0]\nSTRNE~R3,[R6,0]\nBEQ~FOO\nLDR~R3,[SP,0]\nCMP~R3,0\nBNE~FOO\nMOV~R1,0\nSTRB~R8,[R5,0]\nSTRB~R8,[R5,0]\nMOV~R0,R5\nBL~FOO\nMOV~R3,R0,ASR0\nSTRB~R3,[R5,0]\nSTRB~R0,[R5,0]\nMOV~R1,0\nSTRB~R8,[R6,0]\nSTRB~R8,[R6,0]\nMOV~R0,R6\nBL~FOO\nMOV~R3,R0,ASR0\nSTRB~R0,[R6,0]\nSTRB~R3,[R6,0]\nLDRB~R3,[R7,0]\nLDRB~R2,[R7,0]\nMOV~R1,R7\nORR~R2,R3,R2,LSL0\nSTRB~R8,[R7,0]\nLDR~R3,[SP,0]\nSTRB~R8,[R7,0]\nMOV~R0,R6\nBL~FOO\nLDR~R3,[SP,0]\nMOV~R2,R3,LSL0\nLDR~R1,[R5,0]\nSUB~R2,R2,R3,LSL0\nMOV~R3,R0,ASR0\nSTRB~R3,[R7,0]\nADD~LR,R2,R9\nMOV~R3,0\nSTRB~R0,[R7,0]\nSTR~R1,[LR,0]\nSTRB~R3,[R2,R9]\nSTRB~R8,[LR,0]\nSTRB~R8,[LR,0]\nSTRB~R8,[LR,0]\nMOV~R3,0\nMOV~R12,0\nMOV~R1,R5\nLDR~R0,[SP,0]\nLDR~R2,[SP,0]\nSTR~LR,[SP]\nSTR~R12,[SP,0]\nBL~FOO\nLDR~R3,[SP,0]\nADD~R0,R3,0\nCMP~R0,R11\nSTR~R0,[SP,0]\nBGE~FOO\nB~FOO\nLDR~R0,[SP,0]\nBL~FOO\nADD~SP,SP,0\nLDMFD~SP!,{R4-R11,PC}\nLDR~R4,[R3,0]\nBL~FOO\nLDR~R3,[SP,0]\nMOV~R1,R3,LSL0\nSUB~R1,R1,R3,LSL0\nAND~R2,R4,0\nADD~R1,R1,R9\nAND~R3,R4,0\nMOV~R2,R2,LSR0\nMOV~R12,R4,LSL0\nLDRB~LR,[R1,0]\nORR~R12,R12,R3,LSL0\nORR~R2,R2,R4,LSR0\nORR~R2,R2,R12\nADD~R2,R2,R0,LSRLR\nAND~R3,R2,0\nMOV~R3,R3,LSR0\nMOV~R1,R2,LSL0\nAND~R0,R2,0\nORR~R3,R3,R2,LSR0\nLDR~R2,[SP,0]\nORR~R1,R1,R0,LSL0\nORR~R3,R3,R1\nCMN~R2,0\nSTR~R3,[R5,0]\nBNE~FOO\nBL~FOO\nMOV~R4,0\nCMP~R10,R4\nSTR~R0,[R5,0]\nBNE~FOO\nBL~FOO\nMOV~R0,R0,LSL0\nMOV~R0,R0,LSR0\nMOV~R3,R0,ASR0\nSTRB~R3,[R5,0]\nSUB~R2,R0,0\nLDR~R3,[SP,0]\nMVN~R2,R2\nMOV~R1,R2,ASR0\nCMP~R3,R4\nSTRB~R0,[R5,0]\nSTRB~R1,[R6,0]\nSTRB~R2,[R6,0]\nBNE~FOO\nBL~FOO\nLDR~R1,[SP,0]\nMOV~R3,R0,ASR0\nCMP~R1,R4\nSTRB~R0,[R5,0]\nSTRB~R3,[R7,0]\nBNE~FOO\nBL~FOO\nLDR~R2,[SP,0]\nMOV~R3,R0,ASR0\nCMP~R2,0\nSTRB~R3,[R7,0]\nLDRNE~R3,[R5,0]\nSTRB~R0,[R7,0]\nSTRNE~R3,[R6,0]\nBNE~FOO\nBL~FOO\nLDR~R3,[SP,0]\nCMP~R3,0\nSTR~R0,[R6,0]\nBEQ~FOO\nADD~R0,R7,0\nLDR~R1,[SP,0]\nBL~FOO\nB~FOO\nLDR~R2,[SP,0]\nLDR~R3,[SP,0]\nADD~R2,R2,0\nADD~R3,R3,0\nSTR~R2,[SP,0]\nSTR~R3,[SP,0]\nB~FOO"'
p47
L1816L
tp48
a(S'attack_tcp_stomp'
p49
S'"STMFD~SP!,{R4-R11,LR}\nAND~R11,R0,0\nSUB~SP,SP,0\nSTR~R1,[SP,0]\nMOV~R0,R11\nMOV~R1,0\nMOV~R5,R3\nAND~R4,R2,0\nBL~FOO\nMOV~R1,0\nSTR~R0,[SP,0]\nMOV~R0,R11\nBL~FOO\nMOV~R1,R5\nSTR~R0,[SP,0]\nMOV~R2,0\nMOV~R3,0\nMOV~R0,R4\nBL~FOO\nMOV~R3,0\nMOV~R12,R0\nAND~R12,R12,0\nSUB~R3,R3,0\nMOV~R2,0\nMOV~R1,R5\nMOV~R0,R4\nSTR~R12,[SP,0]\nBL~FOO\nMOV~R1,R5\nMOV~R2,0\nMOV~R3,0\nMOV~R6,R0\nMOV~R0,R4\nBL~FOO\nMOV~R12,R0\nAND~R12,R12,0\nMOV~R1,R5\nMOV~R2,0\nMOV~R3,0\nMOV~R0,R4\nSTR~R12,[SP,0]\nBL~FOO\nMOV~R3,0\nMOV~R12,R0\nAND~R12,R12,0\nSUB~R3,R3,0\nMOV~R1,R5\nMOV~R2,0\nMOV~R0,R4\nSTR~R12,[SP,0]\nBL~FOO\nMOV~R1,R5\nMOV~R7,R0,LSL0\nMOV~R2,0\nMOV~R3,0\nMOV~R0,R4\nBL~FOO\nMOV~R12,R0\nAND~R12,R12,0\nMOV~R1,R5\nMOV~R2,0\nMOV~R3,0\nMOV~R0,R4\nSTR~R12,[SP,0]\nBL~FOO\nMOV~R12,R0\nAND~R12,R12,0\nMOV~R1,R5\nMOV~R2,0\nMOV~R3,0\nMOV~R0,R4\nSTR~R12,[SP,0]\nBL~FOO\nMOV~R12,R0\nAND~R12,R12,0\nMOV~R1,R5\nMOV~R2,0\nMOV~R3,0\nMOV~R0,R4\nSTR~R12,[SP,0]\nBL~FOO\nMOV~R12,R0\nAND~R12,R12,0\nMOV~R1,R5\nMOV~R2,0\nMOV~R3,0\nMOV~R0,R4\nSTR~R12,[SP,0]\nBL~FOO\nMOV~R12,R0\nAND~R12,R12,0\nMOV~R1,R5\nMOV~R2,0\nMOV~R3,0\nMOV~R0,R4\nSTR~R12,[SP,0]\nBL~FOO\nMOV~R2,0\nMOV~R12,R0\nMOV~R3,0\nMOV~R1,R5\nMOV~R0,R4\nAND~R8,R12,0\nBL~FOO\nMOV~R2,0\nMOV~R3,R2\nMOV~R1,R5\nMOV~R9,R0\nMOV~R0,R4\nBL~FOO\nMOV~R3,R0\nMOV~R1,0\nAND~R3,R3,0\nMOV~R0,0\nMOV~R2,0\nSTR~R3,[SP,0]\nBL~FOO\nMOV~R1,R7,LSR0\nCMN~R0,0\nSTR~R0,[SP,0]\nSTR~R1,[SP,0]\nBEQ~FOO\nADD~R3,SP,0\nMOV~R2,0\nSTR~R2,[R3,-0]\nMOV~R12,0\nMOV~R1,0\nADD~R2,R2,0\nSTR~R12,[SP]\nBL~FOO\nCMN~R0,0\nBEQ~FOO\nCMP~R11,0\nMOV~R0,R6,LSL0\nMOV~R2,R0,LSR0\nMOV~R3,0\nMOVGT~R7,R7,LSR0\nMOVGT~R0,R0,LSR0\nSTR~R3,[SP,0]\nSTR~R2,[SP,0]\nSTRGT~R7,[SP,0]\nSTRGT~R0,[SP,0]\nBLE~FOO\nLDR~R3,[SP,0]\nAND~R3,R3,0\nSTR~R3,[SP,0]\nADD~R10,R9,0\nMOV~R0,0\nMOV~R1,0\nMOV~R2,0\nBL~FOO\nCMN~R0,0\nMOV~R7,R0\nBEQ~FOO\nMOV~R1,0\nMOV~R2,0\nBL~FOO\nMOV~R1,0\nORR~R2,R0,0\nMOV~R0,R7\nBL~FOO\nLDR~R12,[SP,0]\nMOV~R1,R12,LSL0\nMOV~R3,0\nMOV~R2,0\nSUB~R1,R1,R12,LSL0\nLDR~R12,[SP,0]\nSTRB~R2,[SP,0]\nSTRB~R3,[SP,0]\nADD~R2,R12,R1\nLDRB~R3,[R2,0]\nCMP~R3,0\nLDRHI~R3,[R2,0]\nSTRHI~R3,[SP,0]\nBHI~FOO\nLDR~R4,[R2,0]\nBL~FOO\nLDR~R3,[SP,0]\nLDR~LR,[SP,0]\nMOV~R1,R3,LSL0\nSUB~R1,R1,R3,LSL0\nAND~R2,R4,0\nADD~R1,R1,LR\nAND~R3,R4,0\nMOV~R2,R2,LSR0\nMOV~R12,R4,LSL0\nLDRB~LR,[R1,0]\nORR~R12,R12,R3,LSL0\nORR~R2,R2,R4,LSR0\nORR~R2,R2,R12\nADD~R2,R2,R0,LSRLR\nAND~R3,R2,0\nMOV~R3,R3,LSR0\nMOV~R1,R2,LSL0\nAND~R0,R2,0\nORR~R1,R1,R0,LSL0\nORR~R3,R3,R2,LSR0\nORR~R3,R3,R1\nSTR~R3,[SP,0]\nMOV~R3,0\nLDR~R1,[SP,0]\nSUB~R3,R3,0\nCMP~R1,R3\nBEQ~FOO\nLDR~R2,[SP,0]\nLDR~R12,[SP,0]\nAND~R3,R2,0\nORR~R3,R12,R3,LSL0\nMOV~R2,R3,ASR0\nSTRB~R2,[SP,0]\nSTRB~R3,[SP,0]\nADD~R1,SP,0\nMOV~R2,0\nMOV~R0,R7\nBL~FOO\nMOV~R0,0\nBL~FOO\nMOV~R4,R0\nB~FOO\nBL~FOO\nRSB~R0,R4,R0\nCMP~R0,0\nBGT~FOO\nMOV~R12,0\nMOV~R2,0\nSTR~R12,[SP,0]\nADD~LR,SP,0\nADD~R12,SP,0\nADD~R1,SP,0\nMOV~R3,0\nLDR~R0,[SP,0]\nSTR~LR,[SP]\nSTR~R12,[SP,0]\nBL~FOO\nMOV~R2,R0\nCMN~R2,0\nMOV~R0,0\nBEQ~FOO\nLDR~LR,[SP,0]\nLDR~R3,[SP,0]\nCMP~R3,LR\nMOVNE~R1,0\nMOVEQ~R1,0\nCMP~R2,0\nMOVLS~R1,0\nCMP~R1,R0\nBEQ~FOO\nLDRB~R3,[SP,0]\nLDRB~R1,[SP,0]\nLDRB~R12,[SP,0]\nLDRB~R2,[SP,0]\nORR~R3,R3,R1,LSL0\nORR~R5,R12,R2,LSL0\nCMP~R5,R3\nBNE~FOO\nLDRB~R2,[SP,0]\nAND~R3,R2,0\nCMP~R3,0\nBEQ~FOO\nTST~R2,0\nBEQ~FOO\nMOV~R0,R7\nBL~FOO\nB~FOO\nMOV~R0,R7\nBL~FOO\nB~FOO\nLDR~R0,[SP,0]\nBL~FOO\nADD~SP,SP,0\nLDMFD~SP!,{R4-R11,PC}\nBL~FOO\nMOV~R3,R0,ASR0\nSTRB~R3,[SP,0]\nSTRB~R0,[SP,0]\nB~FOO\nLDR~R4,[SP,0]\nLDR~R2,[SP,0]\nMOV~R12,R4,LSL0\nSTR~LR,[R2,R12]\nLDR~R0,[R6,0]\nAND~R3,R0,0\nAND~R1,R0,0\nLDR~LR,[SP,0]\nMOV~R2,R0,LSL0\nMOV~R3,R3,LSR0\nORR~R2,R2,R1,LSL0\nORR~R3,R3,R0,LSR0\nADD~R12,LR,R12\nORR~R3,R3,R2\nSTR~R3,[R12,0]\nLDR~R0,[R6,0]\nAND~R3,R0,0\nAND~R1,R0,0\nMOV~R2,R0,LSL0\nMOV~R3,R3,LSR0\nORR~R2,R2,R1,LSL0\nORR~R3,R3,R0,LSR0\nORR~R3,R3,R2\nSTR~R3,[R12,0]\nLDR~R2,[R6]\nMOV~R2,R2,LSR0\nMOV~R1,R2,ASR0\nMOV~R3,R5,ASR0\nSTRB~R3,[R12,0]\nSTRB~R1,[R12,0]\nSTRB~R2,[R12,0]\nSTRB~R5,[R12,0]\nMOV~R0,R10\nBL~FOO\nLDR~R1,[SP,0]\nLDR~R2,[SP,0]\nSTR~R0,[R1,R4,LSL0]\nLDR~R4,[R1,R2,LSL0]\nLDRB~R3,[R4]\nBIC~R3,R3,0\nORR~R3,R3,0\nSTRB~R3,[R4]\nLDRB~R1,[R4]\nLDR~R12,[SP,0]\nLDR~LR,[SP,0]\nBIC~R1,R1,0\nAND~R0,R12,0\nORR~R1,R1,0\nORR~R0,LR,R0,LSL0\nMOV~R2,R10,LSL0\nLDR~LR,[SP,0]\nSTRB~R1,[R4]\nLDR~R1,[SP,0]\nMOV~R3,R2,LSR0\nAND~R3,R3,0\nMOV~R2,R2,LSR0\nSTRB~R1,[R4,0]\nORR~R2,R2,R3,LSL0\nSTRB~R2,[R4,0]\nCMP~LR,0\nMOV~R3,R2,ASR0\nLDR~R2,[SP,0]\nSTRB~R3,[R4,0]\nMOVNE~R3,0\nSTRB~R2,[R4,0]\nSTRNEB~R3,[R4,0]\nMOVNE~R2,0\nMOV~R3,0\nSTRB~R3,[R4,0]\nSTRNEB~R2,[R4,0]\nLDR~R2,<STR>\nLDR~R3,[R2]\nMOV~R12,R0,ASR0\nSTR~R3,[R4,0]\nSTRB~R12,[R4,0]\nLDR~R2,[SP,0]\nLDR~R12,[SP,0]\nLDR~R3,[R12,R2,LSL0]\nSTRB~R0,[R4,0]\nSTR~R3,[R4,0]\nMOV~R2,R2,LSL0\nADD~R2,R2,R12\nLDRB~R1,[R2,0]\nLDRB~R3,[R2,0]\nORR~R3,R3,R1,LSL0\nSTRB~R3,[R4,0]\nADD~R6,R4,0\nMOV~R3,R3,ASR0\nSTRB~R3,[R6,0]\nLDRB~R3,[R6,0]\nLDR~R1,[R2,0]\nORR~R3,R3,0\nLDRB~R12,[R2,0]\nLDRB~R0,[R2,0]\nSTR~R1,[R6,0]\nLDR~LR,[R2,0]\nSTRB~R3,[R6,0]\nLDRB~R2,[R6,0]\nLDRB~R3,[R6,0]\nORR~R0,R0,R12,LSL0\nBIC~R2,R2,0\nMOV~R1,R0,ASR0\nORR~R2,R2,0\nORR~R3,R3,0\nSTRB~R1,[R6,0]\nSTR~LR,[R6,0]\nSTRB~R2,[R6,0]\nSTRB~R3,[R6,0]\nSTRB~R0,[R6,0]\nBL~FOO\nLDR~LR,[SP,0]\nLDRB~R3,[R6,0]\nAND~R2,LR,0\nBIC~R3,R3,0\nORR~R3,R3,R2,LSL0\nSTRB~R3,[R6,0]\nLDR~R1,[SP,0]\nLDRB~R2,[R6,0]\nAND~R3,R1,0\nBIC~R2,R2,0\nORR~R2,R2,R3,LSL0\nSTRB~R2,[R6,0]\nLDR~R12,[SP,0]\nLDRB~R3,[R6,0]\nAND~R2,R12,0\nBIC~R3,R3,0\nORR~R3,R3,R2,LSL0\nSTRB~R3,[R6,0]\nLDR~LR,[SP,0]\nLDRB~R2,[R6,0]\nAND~R3,LR,0\nBIC~R2,R2,0\nORR~R2,R2,R3,LSL0\nSTRB~R2,[R6,0]\nLDR~R1,[SP,0]\nLDRB~R3,[R6,0]\nAND~R2,R1,0\nBIC~R3,R3,0\nORR~R3,R3,R2,LSL0\nSTRB~R3,[R6,0]\nLDRB~R2,[R6,0]\nAND~R3,R8,0\nBIC~R2,R2,0\nMOV~R1,R0,ASR0\nORR~R3,R3,R2\nSTRB~R1,[R6,0]\nSTRB~R0,[R6,0]\nSTRB~R3,[R6,0]\nADD~R0,R4,0\nMOV~R1,R9\nBL~FOO\nLDR~R3,[SP,0]\nADD~R3,R3,0\nCMP~R3,R11\nSTR~R3,[SP,0]\nBLT~FOO\nADD~R10,R9,0\nADD~R7,R9,0\nCMP~R11,0\nMOV~R1,0\nBLE~FOO\nMOV~R2,R7,LSL0\nMOV~R3,R2,LSR0\nAND~R3,R3,0\nORR~R8,R3,R2,LSR0\nLDR~R2,[SP,0]\nMOV~R0,R1\nMOV~R3,0\nLDR~R12,[SP,0]\nLDR~R4,[R2,R0,LSL0]\nSUB~R3,R3,0\nCMP~R12,R3\nSTR~R1,[SP,0]\nMOV~R6,R1\nADD~R5,R4,0\nBEQ~FOO\nLDR~LR,[SP,0]\nCMP~LR,0\nADD~R0,R4,0\nMOV~R1,R9\nBNE~FOO\nSTRB~R6,[R4,0]\nSTRB~R6,[R4,0]\nMOV~R1,0\nMOV~R0,R4\nBL~FOO\nLDR~R1,[SP,0]\nLDR~R2,[SP,0]\nMOV~R1,R1,LSL0\nADD~R1,R2,R1\nLDR~R3,[R1,0]\nMOV~R12,R3,LSL0\nMOV~R2,R12,LSR0\nAND~R2,R2,0\nORR~R2,R2,R12,LSR0\nADD~R3,R3,0\nSTR~R3,[R1,0]\nSTR~R2,[R5,0]\nLDR~R3,[R1,0]\nMOV~R3,R3,LSL0\nMOV~R2,R3,LSR0\nAND~R2,R2,0\nORR~R2,R2,R3,LSR0\nMOV~R1,R0,ASR0\nSTRB~R1,[R4,0]\nSTRB~R0,[R4,0]\nSTR~R2,[R5,0]\nMOV~R1,R5\nMOV~R2,R8\nMOV~R3,R7\nMOV~R0,R4\nSTRB~R6,[R5,0]\nSTRB~R6,[R5,0]\nBL~FOO\nMOV~R3,R0,ASR0\nSTRB~R3,[R5,0]\nSTRB~R0,[R5,0]\nLDR~R3,[SP,0]\nLDR~R2,[R4,0]\nMOV~R12,R3,LSL0\nSUB~R12,R12,R3,LSL0\nLDR~R3,[SP,0]\nMOV~R2,R2,LSR0\nADD~R12,R12,R3\nMOV~R3,R2,ASR0\nSTRB~R3,[R12,0]\nSTRB~R2,[R12,0]\nMOV~R1,R4\nMOV~R3,0\nLDR~R0,[SP,0]\nMOV~R2,R10\nMOV~R4,0\nSTR~R12,[SP]\nSTR~R4,[SP,0]\nBL~FOO\nLDR~R3,[SP,0]\nADD~R0,R3,0\nCMP~R0,R11\nSTR~R0,[SP,0]\nBGE~FOO\nLDR~R2,[SP,0]\nMOV~R3,0\nLDR~R12,[SP,0]\nLDR~R4,[R2,R0,LSL0]\nSUB~R3,R3,0\nCMP~R12,R3\nADD~R5,R4,0\nBNE~FOO\nBL~FOO\nLDR~LR,[SP,0]\nMOV~R3,R0,ASR0\nCMP~LR,0\nSTRB~R0,[R4,0]\nSTRB~R3,[R4,0]\nADD~R0,R4,0\nMOV~R1,R9\nBEQ~FOO\nBL~FOO\nB~FOO"'
p50
L2140L
tp51
a(S'attack_tcp_ack'
p52
S'"STMFD~SP!,{R4-R11,LR}\nAND~R11,R0,0\nSUB~SP,SP,0\nMOV~R9,R1\nMOV~R0,R11\nMOV~R1,0\nMOV~R5,R3\nAND~R4,R2,0\nBL~FOO\nMOV~R1,R5\nSTR~R0,[SP,0]\nMOV~R2,0\nMOV~R3,0\nMOV~R0,R4\nBL~FOO\nMOV~R3,0\nMOV~R12,R0\nAND~R12,R12,0\nSUB~R3,R3,0\nMOV~R2,0\nMOV~R1,R5\nMOV~R0,R4\nSTR~R12,[SP,0]\nBL~FOO\nMOV~R1,R5\nMOV~R2,0\nMOV~R3,0\nMOV~R8,R0\nMOV~R0,R4\nBL~FOO\nMOV~R12,R0\nAND~R12,R12,0\nMOV~R1,R5\nMOV~R2,0\nMOV~R3,0\nMOV~R0,R4\nSTR~R12,[SP,0]\nBL~FOO\nMOV~R3,0\nMOV~R12,R0\nAND~R12,R12,0\nSUB~R3,R3,0\nMOV~R2,0\nMOV~R1,R5\nMOV~R0,R4\nSTR~R12,[SP,0]\nBL~FOO\nMOV~R3,0\nMOV~R1,R5\nSUB~R3,R3,0\nMOV~R2,0\nMOV~R7,R0\nMOV~R0,R4\nBL~FOO\nMOV~R3,0\nMOV~R1,R5\nSUB~R3,R3,0\nMOV~R2,0\nMOV~R6,R0\nMOV~R0,R4\nBL~FOO\nMOV~R3,0\nSTR~R0,[SP,0]\nMOV~R1,R5\nSUB~R3,R3,0\nMOV~R2,0\nMOV~R0,R4\nBL~FOO\nMOV~R1,R5\nSTR~R0,[SP,0]\nMOV~R2,0\nMOV~R3,0\nMOV~R0,R4\nBL~FOO\nMOV~R1,R5\nSTR~R0,[SP,0]\nMOV~R2,0\nMOV~R3,0\nMOV~R0,R4\nBL~FOO\nMOV~R1,R5\nSTR~R0,[SP,0]\nMOV~R2,0\nMOV~R3,0\nMOV~R0,R4\nBL~FOO\nMOV~R1,R5\nSTR~R0,[SP,0]\nMOV~R2,0\nMOV~R3,0\nMOV~R0,R4\nBL~FOO\nMOV~R1,R5\nSTR~R0,[SP,0]\nMOV~R2,0\nMOV~R3,0\nMOV~R0,R4\nBL~FOO\nMOV~R1,R5\nSTR~R0,[SP,0]\nMOV~R2,0\nMOV~R3,0\nMOV~R0,R4\nBL~FOO\nMOV~R1,R5\nSTR~R0,[SP,0]\nMOV~R2,0\nMOV~R3,0\nMOV~R0,R4\nBL~FOO\nMOV~R2,0\nMOV~R3,R2\nSTR~R0,[SP,0]\nMOV~R1,R5\nMOV~R0,R4\nBL~FOO\nLDR~R2,<STR>\nMOV~R12,R0\nLDR~R3,[R2]\nAND~R12,R12,0\nMOV~R1,R5\nMOV~R2,0\nMOV~R0,R4\nSTR~R12,[SP,0]\nBL~FOO\nMOV~R1,0\nSTR~R0,[SP,0]\nMOV~R2,0\nMOV~R0,0\nBL~FOO\nCMN~R0,0\nSTR~R0,[SP,0]\nBEQ~FOO\nADD~R3,SP,0\nMOV~R2,0\nSTR~R2,[R3,-0]\nMOV~R12,0\nMOV~R1,0\nADD~R2,R2,0\nSTR~R12,[SP]\nBL~FOO\nCMN~R0,0\nBEQ~FOO\nMOV~R0,R8,LSL0\nMOV~R7,R7,LSL0\nMOV~R6,R6,LSL0\nMOV~R1,0\nMOV~R2,R0,LSR0\nMOV~R3,R7,LSR0\nMOV~R12,R6,LSR0\nCMP~R11,0\nSTR~R1,[SP,0]\nSTR~R2,[SP,0]\nSTR~R3,[SP,0]\nSTR~R12,[SP,0]\nBLE~FOO\nLDR~R1,[SP,0]\nLDR~R2,[SP,0]\nADD~R1,R1,0\nMOV~LR,R1,LSL0\nMOV~R4,R2,LSL0\nSTR~R1,[SP,0]\nMOV~R2,LR,LSR0\nAND~R1,R3,0\nAND~R2,R2,0\nMOV~R1,R1,LSL0\nLDR~R3,[SP,0]\nAND~R12,R12,0\nMOV~R6,R6,LSR0\nORR~LR,R2,LR,LSR0\nORR~R10,R1,R7,LSR0\nORR~R6,R6,R12,LSL0\nLDR~R1,[SP,0]\nLDR~R12,[SP,0]\nLDR~R2,[SP,0]\nMOV~R5,R0,LSR0\nAND~R0,R3,0\nMOV~R3,R4,LSR0\nAND~R3,R3,0\nAND~R12,R12,0\nAND~R1,R1,0\nAND~R2,R2,0\nORR~R8,R3,R4,LSR0\nSTR~R12,[SP,0]\nSTR~R1,[SP,0]\nSTR~R2,[SP,0]\nADD~R3,SP,0\nLDMIA~R3,{R3,R12}\nLDR~R1,[SP,0]\nLDR~R2,[SP,0]\nAND~R3,R3,0\nAND~R12,R12,0\nAND~R1,R1,0\nAND~R2,R2,0\nORR~R5,R5,R0,LSL0\nSTR~R3,[SP,0]\nSTR~R12,[SP,0]\nSTR~R1,[SP,0]\nSTR~R2,[SP,0]\nMOV~R3,LR,ASR0\nMOV~R12,R5,ASR0\nMOV~R1,R10,ASR0\nMOV~R2,R6,ASR0\nSTR~LR,[SP,0]\nSTR~R3,[SP,0]\nSTR~R12,[SP,0]\nSTR~R1,[SP,0]\nSTR~R2,[SP,0]\nMOV~R4,0\nMOV~R0,0\nMOV~R1,0\nADD~R0,R0,0\nBL~FOO\nLDR~R3,[SP,0]\nLDR~R12,[SP,0]\nSTR~R0,[R3,R4,LSL0]\nLDR~R3,[SP,0]\nLDR~R7,[R12,R3,LSL0]\nLDRB~R2,[R7]\nBIC~R2,R2,0\nORR~R2,R2,0\nSTRB~R2,[R7]\nLDRB~R3,[R7]\nBIC~R3,R3,0\nORR~R3,R3,0\nLDR~R1,[SP,0]\nSTRB~R3,[R7]\nLDR~R2,[SP,0]\nSTRB~R2,[R7,0]\nLDR~R3,[SP,0]\nCMP~R1,0\nSTRB~R3,[R7,0]\nLDR~R2,[SP,0]\nMOVNE~R3,0\nSTRNEB~R3,[R7,0]\nMOV~R3,0\nSTRB~R2,[R7,0]\nLDR~R12,[SP,0]\nLDR~R1,[SP,0]\nMOVNE~R2,0\nSTRB~R3,[R7,0]\nSTRNEB~R2,[R7,0]\nLDR~R2,[SP,0]\nSTRB~R12,[R7,0]\nLDR~R12,[SP,0]\nMOV~R3,R2,LSL0\nSTR~R12,[R7,0]\nSUB~R3,R3,R2,LSL0\nADD~R3,R3,R9\nLDR~R2,[R3,0]\nSTRB~R1,[R7,0]\nSTRB~R5,[R7,0]\nSTR~R2,[R7,0]\nSTRB~R10,[R7,0]\nADD~R4,R7,0\nLDRB~R3,[R4,0]\nLDR~R1,[SP,0]\nBIC~R3,R3,0\nORR~R3,R3,R1,LSL0\nSTRB~R3,[R4,0]\nLDRB~R2,[R4,0]\nLDR~R3,[SP,0]\nBIC~R2,R2,0\nORR~R2,R2,R3,LSL0\nSTRB~R2,[R4,0]\nLDRB~R3,[R4,0]\nLDR~R12,[SP,0]\nBIC~R3,R3,0\nORR~R3,R3,R12,LSL0\nSTRB~R3,[R4,0]\nLDRB~R2,[R4,0]\nLDR~R1,[SP,0]\nBIC~R2,R2,0\nORR~R2,R2,R1,LSL0\nSTRB~R2,[R4,0]\nLDRB~R3,[R4,0]\nLDR~R2,[SP,0]\nBIC~R3,R3,0\nORR~R3,R3,R2,LSL0\nSTRB~R3,[R4,0]\nLDRB~R2,[R4,0]\nLDRB~R3,[R4,0]\nLDR~R12,[SP,0]\nBIC~R2,R2,0\nBIC~R3,R3,0\nORR~R3,R12,R3\nORR~R2,R2,0\nSTRB~R3,[R4,0]\nSTRB~R2,[R4,0]\nADD~R1,SP,0\nLDMIA~R1,{R1,R2}\nSTRB~R1,[R4,0]\nSTRB~R2,[R4,0]\nSTRB~R6,[R4,0]\nSTR~R8,[R4,0]\nBL~FOO\nLDR~R12,[SP,0]\nMOV~R2,R0\nMOV~R3,R2,ASR0\nCMP~R12,0\nSTRB~R3,[R4,0]\nLDRNEB~R3,[R4,0]\nORRNE~R3,R3,0\nLDR~R1,[SP,0]\nSTRB~R2,[R4,0]\nSTRNEB~R3,[R4,0]\nADD~R0,R7,0\nBL~FOO\nLDR~R3,[SP,0]\nADD~R4,R3,0\nCMP~R11,R4\nSTR~R4,[SP,0]\nBGT~FOO\nLDR~R1,[SP,0]\nADD~R8,R1,0\nCMP~R11,0\nMOV~R1,0\nBLE~FOO\nMOV~R2,R8,LSL0\nMOV~R3,R2,LSR0\nAND~R3,R3,0\nSTR~R1,[SP,0]\nMOV~R0,R1\nORR~R10,R3,R2,LSR0\nMOV~R7,R1\nMOV~R3,R0,LSL0\nSUB~R3,R3,R0,LSL0\nADD~R3,R3,R9\nLDR~R12,[SP,0]\nLDRB~R2,[R3,0]\nLDR~R5,[R12,R0,LSL0]\nCMP~R2,0\nADD~R6,R5,0\nBLS~FOO\nLDR~R1,[SP,0]\nCMN~R1,0\nBEQ~FOO\nMOV~R4,0\nLDR~R2,[SP,0]\nSUB~R4,R4,0\nCMP~R2,R4\nBEQ~FOO\nLDR~R3,[SP,0]\nCMP~R3,R4\nBEQ~FOO\nLDR~R12,[SP,0]\nCMP~R12,R4\nBEQ~FOO\nLDR~R1,[SP,0]\nCMP~R1,R4\nBEQ~FOO\nLDR~R2,[SP,0]\nCMP~R2,R4\nBEQ~FOO\nLDR~R3,[SP,0]\nCMP~R3,0\nBNE~FOO\nMOV~R1,0\nSTRB~R7,[R5,0]\nSTRB~R7,[R5,0]\nMOV~R0,R5\nBL~FOO\nMOV~R3,R0,ASR0\nSTRB~R3,[R5,0]\nSTRB~R0,[R5,0]\nMOV~R1,R6\nMOV~R2,R10\nMOV~R3,R8\nSTRB~R7,[R6,0]\nSTRB~R7,[R6,0]\nMOV~R0,R5\nBL~FOO\nMOV~R3,R0,ASR0\nSTRB~R3,[R6,0]\nSTRB~R0,[R6,0]\nLDR~R3,[SP,0]\nLDR~R2,[R5,0]\nMOV~R12,R3,LSL0\nMOV~R2,R2,LSR0\nSUB~R12,R12,R3,LSL0\nADD~R12,R12,R9\nMOV~R3,R2,ASR0\nSTRB~R3,[R12,0]\nSTRB~R2,[R12,0]\nMOV~R3,0\nMOV~R1,R5\nLDR~R0,[SP,0]\nLDR~R2,[SP,0]\nMOV~R4,0\nSTR~R12,[SP]\nSTR~R4,[SP,0]\nBL~FOO\nLDR~R3,[SP,0]\nADD~R0,R3,0\nCMP~R11,R0\nSTR~R0,[SP,0]\nBLE~FOO\nB~FOO\nLDR~R0,[SP,0]\nBL~FOO\nADD~SP,SP,0\nLDMFD~SP!,{R4-R11,PC}\nLDR~R4,[R3,0]\nBL~FOO\nLDR~R3,[SP,0]\nMOV~R1,R3,LSL0\nSUB~R1,R1,R3,LSL0\nAND~R2,R4,0\nADD~R1,R1,R9\nAND~R3,R4,0\nMOV~R2,R2,LSR0\nMOV~R12,R4,LSL0\nLDRB~LR,[R1,0]\nORR~R12,R12,R3,LSL0\nORR~R2,R2,R4,LSR0\nORR~R2,R2,R12\nADD~R2,R2,R0,LSRLR\nAND~R3,R2,0\nMOV~R3,R3,LSR0\nMOV~R1,R2,LSL0\nAND~R0,R2,0\nORR~R1,R1,R0,LSL0\nORR~R3,R3,R2,LSR0\nORR~R3,R3,R1\nLDR~R1,[SP,0]\nCMN~R1,0\nSTR~R3,[R5,0]\nBNE~FOO\nBL~FOO\nMOV~R4,0\nLDR~R2,[SP,0]\nSUB~R4,R4,0\nCMP~R2,R4\nSTR~R0,[R5,0]\nBNE~FOO\nBL~FOO\nMOV~R3,R0,ASR0\nSTRB~R3,[R5,0]\nLDR~R3,[SP,0]\nCMP~R3,R4\nSTRB~R0,[R5,0]\nBNE~FOO\nBL~FOO\nLDR~R12,[SP,0]\nMOV~R3,R0,ASR0\nCMP~R12,R4\nSTRB~R0,[R5,0]\nSTRB~R3,[R6,0]\nBNE~FOO\nBL~FOO\nLDR~R1,[SP,0]\nMOV~R3,R0,ASR0\nCMP~R1,R4\nSTRB~R3,[R6,0]\nSTRB~R0,[R6,0]\nBNE~FOO\nBL~FOO\nLDR~R2,[SP,0]\nCMP~R2,R4\nSTR~R0,[R6,0]\nBNE~FOO\nBL~FOO\nLDR~R3,[SP,0]\nCMP~R3,0\nSTR~R0,[R6,0]\nBEQ~FOO\nADD~R0,R5,0\nLDR~R1,[SP,0]\nBL~FOO\nB~FOO\nLDR~R2,[SP,0]\nLDR~R3,[SP,0]\nADD~R2,R2,0\nADD~R8,R3,0\nSTR~R2,[SP,0]\nB~FOO"'
p53
L1904L
tp54
a(S'attack_tcp_syn'
p55
S'"STMFD~SP!,{R4-R11,LR}\nAND~R10,R0,0\nSUB~SP,SP,0\nMOV~R8,R1\nMOV~R0,R10\nMOV~R1,0\nMOV~R5,R3\nAND~R4,R2,0\nBL~FOO\nMOV~R1,R5\nMOV~R2,0\nMOV~R3,0\nMOV~R11,R0\nMOV~R0,R4\nBL~FOO\nMOV~R3,0\nMOV~R12,R0\nAND~R12,R12,0\nSUB~R3,R3,0\nMOV~R2,0\nMOV~R1,R5\nMOV~R0,R4\nSTR~R12,[SP,0]\nBL~FOO\nMOV~R1,R5\nSTR~R0,[SP,0]\nMOV~R2,0\nMOV~R3,0\nMOV~R0,R4\nBL~FOO\nMOV~R12,R0\nAND~R12,R12,0\nMOV~R1,R5\nMOV~R2,0\nMOV~R3,0\nMOV~R0,R4\nSTR~R12,[SP,0]\nBL~FOO\nMOV~R3,0\nMOV~R12,R0\nAND~R12,R12,0\nSUB~R3,R3,0\nMOV~R2,0\nMOV~R1,R5\nMOV~R0,R4\nSTR~R12,[SP,0]\nBL~FOO\nMOV~R3,0\nMOV~R1,R5\nSUB~R3,R3,0\nMOV~R2,0\nMOV~R7,R0\nMOV~R0,R4\nBL~FOO\nMOV~R3,0\nMOV~R1,R5\nSUB~R3,R3,0\nMOV~R2,0\nMOV~R6,R0\nMOV~R0,R4\nBL~FOO\nMOV~R1,R5\nSTR~R0,[SP,0]\nMOV~R2,0\nMOV~R3,0\nMOV~R0,R4\nBL~FOO\nMOV~R1,R5\nSTR~R0,[SP,0]\nMOV~R2,0\nMOV~R3,0\nMOV~R0,R4\nBL~FOO\nMOV~R1,R5\nSTR~R0,[SP,0]\nMOV~R2,0\nMOV~R3,0\nMOV~R0,R4\nBL~FOO\nMOV~R1,R5\nSTR~R0,[SP,0]\nMOV~R2,0\nMOV~R3,0\nMOV~R0,R4\nBL~FOO\nMOV~R1,R5\nSTR~R0,[SP,0]\nMOV~R2,0\nMOV~R3,0\nMOV~R0,R4\nBL~FOO\nMOV~R1,R5\nSTR~R0,[SP,0]\nMOV~R2,0\nMOV~R3,0\nMOV~R0,R4\nBL~FOO\nMOV~R1,R5\nSTR~R0,[SP,0]\nMOV~R2,0\nMOV~R3,0\nMOV~R0,R4\nBL~FOO\nLDR~R2,<STR>\nSTR~R0,[SP,0]\nLDR~R3,[R2]\nMOV~R1,R5\nMOV~R2,0\nMOV~R0,R4\nBL~FOO\nMOV~R1,0\nSTR~R0,[SP,0]\nMOV~R2,0\nMOV~R0,0\nBL~FOO\nCMN~R0,0\nMOV~R9,R0\nBEQ~FOO\nADD~R3,SP,0\nMOV~R2,0\nSTR~R2,[R3,-0]\nMOV~R12,0\nMOV~R1,0\nADD~R2,R2,0\nSTR~R12,[SP]\nBL~FOO\nCMN~R0,0\nBEQ~FOO\nLDR~R0,[SP,0]\nMOV~R2,0\nSTR~R2,[SP,0]\nLDR~R2,[SP,0]\nMOV~LR,R0,LSL0\nMOV~R4,R7,LSL0\nMOV~R5,R6,LSL0\nMOV~R3,LR,LSR0\nMOV~R12,R4,LSR0\nMOV~R0,R5,LSR0\nAND~R2,R2,0\nCMP~R10,0\nSTR~R3,[SP,0]\nSTR~R12,[SP,0]\nSTR~R0,[SP,0]\nSTR~R2,[SP,0]\nBLE~FOO\nLDR~R3,[SP,0]\nMOV~R12,R3,LSL0\nLDR~R3,[SP,0]\nLDR~R0,[SP,0]\nAND~R1,R3,0\nLDR~R3,[SP,0]\nAND~R2,R0,0\nAND~R0,R3,0\nMOV~R3,R12,LSR0\nMOV~R0,R0,LSL0\nAND~R3,R3,0\nORR~R6,R0,R5,LSR0\nORR~R5,R3,R12,LSR0\nLDR~R12,[SP,0]\nLDR~R0,[SP,0]\nMOV~R2,R2,LSL0\nAND~R12,R12,0\nORR~LR,R2,LR,LSR0\nAND~R0,R0,0\nSTR~R12,[SP,0]\nADD~R2,SP,0\nLDMIA~R2,{R2,R3,R12}\nMOV~R1,R1,LSL0\nSTR~R0,[SP,0]\nLDR~R0,[SP,0]\nORR~R7,R1,R4,LSR0\nAND~R2,R2,0\nAND~R3,R3,0\nAND~R12,R12,0\nSTR~R2,[SP,0]\nSTR~R3,[SP,0]\nSTR~R12,[SP,0]\nAND~R0,R0,0\nMOV~R2,LR,ASR0\nMOV~R3,R7,ASR0\nMOV~R12,R6,ASR0\nSTR~LR,[SP,0]\nSTR~R0,[SP,0]\nSTR~R2,[SP,0]\nSTR~R3,[SP,0]\nSTR~R12,[SP,0]\nMOV~R4,0\nMOV~R1,0\nMOV~R0,0\nBL~FOO\nLDR~R2,[SP,0]\nSTR~R0,[R11,R4,LSL0]\nLDR~R4,[R11,R2,LSL0]\nLDRB~R3,[R4]\nBIC~R3,R3,0\nORR~R3,R3,0\nSTRB~R3,[R4]\nLDRB~R2,[R4]\nBIC~R2,R2,0\nORR~R2,R2,0\nLDR~R0,[SP,0]\nSTRB~R2,[R4]\nLDR~R2,[SP,0]\nSTRB~R2,[R4,0]\nLDR~R12,[SP,0]\nLDR~R2,[SP,0]\nSTRB~R12,[R4,0]\nMOV~R3,0\nMOV~R12,0\nCMP~R0,0\nSTRB~R3,[R4,0]\nLDR~R0,[SP,0]\nMOV~R3,0\nSTRB~R2,[R4,0]\nSTRB~R12,[R4,0]\nSTRB~R3,[R4,0]\nLDR~R2,[SP,0]\nMOVNE~R3,0\nSTRNEB~R3,[R4,0]\nSTRB~R0,[R4,0]\nMOVNE~R3,0\nLDR~R0,[SP,0]\nSTRNEB~R3,[R4,0]\nMOV~R3,R2,LSL0\nSTR~R0,[R4,0]\nSUB~R3,R3,R2,LSL0\nADD~R3,R3,R8\nLDR~R2,[R3,0]\nSTRB~R7,[R4,0]\nSTR~R2,[R4,0]\nADD~R1,R4,0\nLDRB~R3,[R1,0]\nLDR~R2,[SP,0]\nBIC~R3,R3,0\nORR~R3,R3,R2,LSL0\nSTRB~R3,[R1,0]\nLDRB~R2,[R1,0]\nLDR~R3,[SP,0]\nBIC~R2,R2,0\nORR~R2,R2,R3,LSL0\nSTRB~R2,[R1,0]\nLDRB~R3,[R1,0]\nLDR~R12,[SP,0]\nBIC~R3,R3,0\nORR~R3,R3,R12,LSL0\nSTRB~R3,[R1,0]\nLDRB~R2,[R1,0]\nLDR~R0,[SP,0]\nBIC~R2,R2,0\nORR~R2,R2,R0,LSL0\nSTRB~R2,[R1,0]\nLDRB~R3,[R1,0]\nLDR~R2,[SP,0]\nBIC~R3,R3,0\nORR~R3,R3,R2,LSL0\nSTRB~R3,[R1,0]\nLDRB~R2,[R1,0]\nLDRB~R3,[R1,0]\nLDR~R12,[SP,0]\nBIC~R2,R2,0\nBIC~R3,R3,0\nORR~R3,R12,R3\nORR~R2,R2,0\nSTRB~R3,[R1,0]\nSTRB~R2,[R1,0]\nADD~R0,SP,0\nLDMIA~R0,{R0,R2}\nMOV~R12,0\nMOV~R3,0\nSTRB~R2,[R1,0]\nSTRB~R0,[R1,0]\nSTRB~R6,[R1,0]\nSTR~R5,[R1,0]\nSTRB~R12,[R4,0]\nSTRB~R3,[R4,0]\nBL~FOO\nAND~R0,R0,0\nADD~R0,R0,0\nADD~R0,R0,0\nMOV~R0,R0,LSL0\nMOV~R3,R0,LSR0\nAND~R3,R3,0\nORR~R3,R3,R0,LSR0\nMOV~R1,R3,ASR0\nADD~R2,R4,0\nSTRB~R3,[R4,0]\nSTRB~R1,[R2,0]\nMOV~R2,0\nMOV~R3,0\nSTRB~R2,[R4,0]\nMOV~R0,0\nMOV~R2,0\nSTRB~R3,[R4,0]\nSTRB~R2,[R4,0]\nSTRB~R0,[R4,0]\nBL~FOO\nMOV~R3,0\nSTRB~R3,[R4,0]\nMOV~R2,0\nMOV~R3,0\nMOV~R12,0\nSTR~R0,[R4,0]\nSTRB~R2,[R4,0]\nSTRB~R3,[R4,0]\nSTR~R12,[R4,0]\nSTRB~R2,[R4,0]\nLDR~R3,[SP,0]\nADD~R4,R3,0\nCMP~R10,R4\nSTR~R4,[SP,0]\nBGT~FOO\nCMP~R10,0\nMOV~R3,0\nBLE~FOO\nSTR~R3,[SP,0]\nMOV~R0,R3\nMOV~R7,R3\nMOV~R3,R0,LSL0\nSUB~R3,R3,R0,LSL0\nADD~R3,R3,R8\nLDRB~R2,[R3,0]\nLDR~R5,[R11,R0,LSL0]\nCMP~R2,0\nADD~R6,R5,0\nBLS~FOO\nLDR~R0,[SP,0]\nCMN~R0,0\nBEQ~FOO\nMOV~R4,0\nLDR~R2,[SP,0]\nSUB~R4,R4,0\nCMP~R2,R4\nBEQ~FOO\nLDR~R3,[SP,0]\nCMP~R3,R4\nBEQ~FOO\nLDR~R12,[SP,0]\nCMP~R12,R4\nBEQ~FOO\nLDR~R0,[SP,0]\nCMP~R0,R4\nBEQ~FOO\nLDR~R2,[SP,0]\nCMP~R2,R4\nBEQ~FOO\nLDR~R3,[SP,0]\nCMP~R3,0\nBNE~FOO\nMOV~R1,0\nSTRB~R7,[R5,0]\nSTRB~R7,[R5,0]\nMOV~R0,R5\nBL~FOO\nMOV~R3,R0,ASR0\nSTRB~R3,[R5,0]\nSTRB~R0,[R5,0]\nMOV~R1,R6\nMOV~R2,0\nMOV~R3,0\nSTRB~R7,[R6,0]\nSTRB~R7,[R6,0]\nMOV~R0,R5\nBL~FOO\nMOV~R3,R0,ASR0\nSTRB~R3,[R6,0]\nSTRB~R0,[R6,0]\nLDR~R3,[SP,0]\nLDR~R2,[R5,0]\nMOV~R12,R3,LSL0\nMOV~R2,R2,LSR0\nSUB~R12,R12,R3,LSL0\nADD~R12,R12,R8\nMOV~R3,R2,ASR0\nSTRB~R3,[R12,0]\nSTRB~R2,[R12,0]\nMOV~R3,0\nMOV~R1,R5\nMOV~R0,R9\nMOV~R2,0\nMOV~R4,0\nSTR~R12,[SP]\nSTR~R4,[SP,0]\nBL~FOO\nLDR~R3,[SP,0]\nADD~R0,R3,0\nCMP~R10,R0\nSTR~R0,[SP,0]\nBGT~FOO\nCMP~R10,0\nMOV~R3,0\nB~FOO\nLDR~R4,[R3,0]\nBL~FOO\nLDR~R3,[SP,0]\nMOV~R1,R3,LSL0\nSUB~R1,R1,R3,LSL0\nAND~R2,R4,0\nADD~R1,R1,R8\nAND~R3,R4,0\nMOV~R2,R2,LSR0\nMOV~R12,R4,LSL0\nLDRB~LR,[R1,0]\nORR~R12,R12,R3,LSL0\nORR~R2,R2,R4,LSR0\nORR~R2,R2,R12\nADD~R2,R2,R0,LSRLR\nAND~R0,R2,0\nAND~R3,R2,0\nMOV~R1,R2,LSL0\nORR~R1,R1,R0,LSL0\nMOV~R3,R3,LSR0\nLDR~R0,[SP,0]\nORR~R3,R3,R2,LSR0\nORR~R3,R3,R1\nCMN~R0,0\nSTR~R3,[R5,0]\nBNE~FOO\nBL~FOO\nMOV~R4,0\nLDR~R2,[SP,0]\nSUB~R4,R4,0\nCMP~R2,R4\nSTR~R0,[R5,0]\nBNE~FOO\nBL~FOO\nMOV~R3,R0,ASR0\nSTRB~R3,[R5,0]\nLDR~R3,[SP,0]\nCMP~R3,R4\nSTRB~R0,[R5,0]\nBNE~FOO\nBL~FOO\nLDR~R12,[SP,0]\nMOV~R3,R0,ASR0\nCMP~R12,R4\nSTRB~R0,[R5,0]\nSTRB~R3,[R6,0]\nBNE~FOO\nBL~FOO\nMOV~R3,R0,ASR0\nSTRB~R0,[R6,0]\nLDR~R0,[SP,0]\nCMP~R0,R4\nSTRB~R3,[R6,0]\nBNE~FOO\nBL~FOO\nLDR~R2,[SP,0]\nCMP~R2,R4\nSTR~R0,[R6,0]\nBNE~FOO\nBL~FOO\nLDR~R3,[SP,0]\nCMP~R3,0\nSTR~R0,[R6,0]\nBEQ~FOO\nBL~FOO\nMOV~R3,R0,ASR0\nSTRB~R3,[R6,0]\nSTRB~R0,[R6,0]\nB~FOO\nMOV~R0,R9\nBL~FOO\nADD~SP,SP,0\nLDMFD~SP!,{R4-R11,PC}"'
p56
L1856L
tp57
a(S'attack_udp_plain'
p58
S'"STMFD~SP!,{R4-R11,LR}\nAND~R7,R0,0\nSUB~SP,SP,0\nSTR~R1,[SP,0]\nMOV~R0,R7\nMOV~R1,0\nMOV~R6,R3\nAND~R4,R2,0\nBL~FOO\nMOV~R1,0\nMOV~R10,R0\nMOV~R0,R7\nBL~FOO\nMOV~R5,0\nMOV~R1,R6\nMOV~R2,0\nMOV~R3,R5\nMOV~R9,R0\nMOV~R0,R4\nBL~FOO\nMOV~R12,R0,LSL0\nMOV~R12,R12,LSR0\nMOV~R1,R6\nMOV~R2,0\nMOV~R3,R5\nMOV~R0,R4\nSTR~R12,[SP,0]\nBL~FOO\nMOV~R1,R6\nMOV~R11,R0,LSL0\nMOV~R2,0\nMOV~R3,0\nMOV~R0,R4\nBL~FOO\nMOV~R2,0\nMOV~R12,R0,LSL0\nMOV~R1,R6\nMOV~R0,R4\nMOV~R3,R2\nMOV~R6,R12,LSR0\nBL~FOO\nMOV~R4,R11,LSR0\nMOV~R3,0\nCMP~R4,R5\nSTR~R3,[SP,0]\nSTR~R3,[SP,0]\nSTR~R3,[SP,0]\nSTR~R3,[SP,0]\nANDNE~R3,R4,0\nMOVNE~R3,R3,LSL0\nAND~R8,R0,0\nORRNE~R11,R3,R11,LSR0\nBNE~FOO\nBL~FOO\nMOV~R0,R0,LSL0\nMOV~R11,R0,LSR0\nCMP~R7,0\nBLE~FOO\nLDR~R1,[SP,0]\nMOV~R2,R1,LSR0\nAND~R3,R1,0\nORR~R3,R2,R3,LSL0\nSTR~R3,[SP,0]\nLDR~R4,[SP,0]\nMOV~R3,0\nLDR~R5,[SP,0]\nMOV~R2,0\nSUB~R3,R3,0\nMOV~R4,R4,ASR0\nSTR~R2,[SP,0]\nSTR~R3,[SP,0]\nSTR~R2,[SP,0]\nSTR~R4,[SP]\nB~FOO\nLDMFD~SP,{R1,R4}\nSTRB~R4,[R5,0]\nSTRB~R1,[R5,0]\nLDR~R2,[SP,0]\nMOV~R0,0\nADD~R2,R2,0\nSTR~R2,[SP,0]\nMOV~R1,R0\nMOV~R2,0\nBL~FOO\nLDR~R4,[SP,0]\nCMN~R0,0\nADD~R1,SP,0\nMOV~R2,0\nMOV~LR,0\nMOV~R12,R11,ASR0\nSTR~R0,[R4,R9]\nBEQ~FOO\nMOV~R3,0\nSTRB~R3,[SP,0]\nSTRB~R12,[SP,0]\nSTR~LR,[SP,0]\nSTRB~LR,[SP,0]\nSTRB~R11,[SP,0]\nBL~FOO\nLDRB~R3,[R5,0]\nCMP~R3,0\nBHI~FOO\nLDR~R4,[R5,0]\nBL~FOO\nAND~R2,R4,0\nAND~R3,R4,0\nMOV~R2,R2,LSR0\nMOV~R1,R4,LSL0\nORR~R1,R1,R3,LSL0\nORR~R2,R2,R4,LSR0\nLDRB~R12,[R5,0]\nORR~R2,R2,R1\nADD~R2,R2,R0,LSRR12\nAND~R3,R2,0\nMOV~R3,R3,LSR0\nMOV~R1,R2,LSL0\nAND~R0,R2,0\nORR~R1,R1,R0,LSL0\nORR~R3,R3,R2,LSR0\nORR~R3,R3,R1\nSTR~R3,[R5,0]\nLDR~R1,[SP,0]\nMOV~R2,0\nLDR~R0,[R1,R9]\nMOV~R1,R5\nBL~FOO\nLDR~R3,[SP,0]\nLDR~R2,[SP,0]\nADD~R3,R3,0\nCMP~R2,R7\nSTR~R3,[SP,0]\nADD~R5,R5,0\nBEQ~FOO\nMOV~R0,0\nMOV~R1,0\nSUB~R0,R0,0\nBL~FOO\nLDR~R1,[SP,0]\nLDR~R2,[SP,0]\nLDR~R3,[SP,0]\nCMP~R1,R2\nSTR~R0,[R3,R10]\nBNE~FOO\nBL~FOO\nMOV~R3,R0,ASR0\nSTRB~R3,[R5,0]\nSTRB~R0,[R5,0]\nB~FOO\nBLE~FOO\nCMP~R8,0\nBNE~FOO\nMOV~R5,R8\nMOV~R4,R8\nLDR~R0,[R4,R9]\nLDR~R1,[R4,R10]\nADD~R5,R5,0\nMOV~R2,R6\nMOV~R3,0\nBL~FOO\nCMP~R5,R7\nADD~R4,R4,0\nBNE~FOO\nCMP~R7,0\nBLE~FOO\nB~FOO\nADD~SP,SP,0\nLDMFD~SP!,{R4-R11,PC}\nMOV~R5,0\nMOV~R11,R5\nLDR~R4,[R11,R10]\nMOV~R1,R6\nMOV~R0,R4\nBL~FOO\nADD~R5,R5,0\nLDR~R0,[R11,R9]\nMOV~R1,R4\nMOV~R2,R6\nMOV~R3,0\nBL~FOO\nCMP~R5,R7\nADD~R11,R11,0\nBNE~FOO\nCMP~R7,0\nB~FOO"'
p59
L740L
tp60
a(S'attack_udp_generic'
p61
S'"STMFD~SP!,{R4-R11,LR}\nAND~R10,R0,0\nSUB~SP,SP,0\nMOV~R8,R1\nMOV~R0,R10\nMOV~R1,0\nMOV~R5,R3\nAND~R4,R2,0\nBL~FOO\nMOV~R1,R5\nSTR~R0,[SP,0]\nMOV~R2,0\nMOV~R3,0\nMOV~R0,R4\nBL~FOO\nMOV~R3,0\nMOV~R12,R0\nAND~R12,R12,0\nSUB~R3,R3,0\nMOV~R2,0\nMOV~R1,R5\nMOV~R0,R4\nSTR~R12,[SP,0]\nBL~FOO\nMOV~R1,R5\nMOV~R2,0\nMOV~R3,0\nMOV~R11,R0\nMOV~R0,R4\nBL~FOO\nMOV~R12,R0\nAND~R12,R12,0\nMOV~R1,R5\nMOV~R2,0\nMOV~R3,0\nMOV~R0,R4\nSTR~R12,[SP,0]\nBL~FOO\nMOV~R3,0\nMOV~R12,R0\nAND~R12,R12,0\nSUB~R3,R3,0\nMOV~R2,0\nMOV~R1,R5\nMOV~R0,R4\nSTR~R12,[SP,0]\nBL~FOO\nMOV~R3,0\nMOV~R1,R5\nSUB~R3,R3,0\nMOV~R2,0\nMOV~R7,R0\nMOV~R0,R4\nBL~FOO\nMOV~R1,R5\nMOV~R2,0\nMOV~R3,0\nMOV~R9,R0\nMOV~R0,R4\nBL~FOO\nMOV~R2,0\nMOV~R3,R2\nMOV~R1,R5\nMOV~R6,R0\nMOV~R0,R4\nBL~FOO\nLDR~R2,<STR>\nMOV~R12,R0\nLDR~R3,[R2]\nAND~R12,R12,0\nMOV~R1,R5\nMOV~R2,0\nMOV~R0,R4\nSTR~R12,[SP,0]\nBL~FOO\nMOV~R1,0\nSTR~R0,[SP,0]\nMOV~R2,0\nMOV~R0,0\nBL~FOO\nCMN~R0,0\nSTR~R0,[SP,0]\nBEQ~FOO\nADD~R3,SP,0\nMOV~R2,0\nSTR~R2,[R3,-0]\nMOV~R12,0\nMOV~R1,0\nADD~R2,R2,0\nSTR~R12,[SP]\nBL~FOO\nCMN~R0,0\nBEQ~FOO\nMOV~R2,R6,LSL0\nMOV~R3,0\nMOV~R2,R2,LSR0\nCMP~R2,R3\nMOVCS~R2,R3\nSTR~R2,[SP,0]\nMOV~R0,R11,LSL0\nMOV~R2,R0,LSR0\nCMP~R10,0\nMOV~R5,R9,LSL0\nMOV~R7,R7,LSL0\nSTR~R2,[SP,0]\nLDRLE~R2,[SP,0]\nMOV~R1,0\nMOV~R3,R7,LSR0\nMOV~R12,R5,LSR0\nSTR~R1,[SP,0]\nSTR~R3,[SP,0]\nSTR~R12,[SP,0]\nADDLE~R11,R2,0\nADDLE~R9,R2,0\nBLE~FOO\nLDR~R1,[SP,0]\nADD~R11,R1,0\nMOV~LR,R11,LSL0\nMOV~R3,LR,LSR0\nAND~R3,R3,0\nMOV~R4,R0,LSR0\nSTR~R3,[SP,0]\nLDR~R0,[SP,0]\nLDR~R3,[SP,0]\nLDR~R12,[SP,0]\nCMP~R0,0\nAND~R0,R3,0\nLDR~R3,[SP,0]\nADD~R9,R1,0\nMOV~R6,R9,LSL0\nAND~R2,R12,0\nAND~R12,R3,0\nLDR~R3,[SP,0]\nMOV~R1,R6,LSR0\nORR~R0,R4,R0,LSL0\nMOV~R2,R2,LSL0\nMOV~R5,R5,LSR0\nAND~R1,R1,0\nORR~LR,R3,LR,LSR0\nORR~R4,R2,R7,LSR0\nSTR~LR,[SP,0]\nSTR~R0,[SP,0]\nORR~R5,R5,R12,LSL0\nORR~R7,R1,R6,LSR0\nBNE~FOO\nMOV~R12,LR,ASR0\nMOV~R0,R0,ASR0\nMOV~R1,R4,ASR0\nMOV~R2,R5,ASR0\nMOV~R3,R7,ASR0\nLDR~R6,[SP,0]\nSTR~R12,[SP,0]\nSTR~R0,[SP,0]\nSTR~R1,[SP,0]\nSTR~R2,[SP,0]\nSTR~R3,[SP,0]\nMOV~R0,0\nMOV~R1,0\nADD~R0,R0,0\nBL~FOO\nLDR~R12,[SP,0]\nLDR~R2,[SP,0]\nSTR~R0,[R12,R6,LSL0]\nLDR~R1,[R12,R2,LSL0]\nLDRB~R3,[R1]\nBIC~R3,R3,0\nORR~R3,R3,0\nSTRB~R3,[R1]\nLDRB~R2,[R1]\nBIC~R2,R2,0\nORR~R2,R2,0\nMOV~R3,0\nSTRB~R3,[R1,0]\nSTRB~R2,[R1]\nLDR~R0,[SP,0]\nSTRB~R0,[R1,0]\nLDR~R2,[SP,0]\nSTRB~R2,[R1,0]\nLDR~R2,[SP,0]\nLDR~R12,[SP,0]\nMOV~R3,R2,LSL0\nSTR~R12,[R1,0]\nSUB~R3,R3,R2,LSL0\nADD~R3,R3,R8\nLDR~R0,[R3,0]\nSTR~R0,[R1,0]\nLDR~R0,[SP,0]\nADD~R6,R2,0\nSTRB~R0,[R1,0]\nLDR~R2,[SP,0]\nLDR~R12,[SP,0]\nLDR~R0,[SP,0]\nADD~R3,R1,0\nSTRB~R2,[R1,0]\nSTRB~R12,[R1,0]\nSTRB~R0,[R1,0]\nSTRB~R4,[R1,0]\nLDR~R2,[SP,0]\nLDR~R1,[SP,0]\nLDR~R12,[SP,0]\nCMP~R6,R10\nSTRB~R1,[R3,0]\nSTRB~R2,[R3,0]\nSTRB~R5,[R3,0]\nSTRB~R12,[R3,0]\nSTRB~R7,[R3,0]\nSTR~R6,[SP,0]\nBLT~FOO\nCMP~R10,0\nMOV~R3,0\nBLE~FOO\nSTR~R3,[SP,0]\nMOV~R0,R3\nMOV~R7,R3\nMOV~R3,R0,LSL0\nSUB~R3,R3,R0,LSL0\nADD~R3,R3,R8\nLDR~R12,[SP,0]\nLDRB~R2,[R3,0]\nLDR~R5,[R12,R0,LSL0]\nCMP~R2,0\nADD~R6,R5,0\nBLS~FOO\nLDR~R0,[SP,0]\nCMN~R0,0\nBEQ~FOO\nMOV~R4,0\nLDR~R1,[SP,0]\nSUB~R4,R4,0\nCMP~R1,R4\nBEQ~FOO\nLDR~R2,[SP,0]\nCMP~R2,R4\nBEQ~FOO\nLDR~R3,[SP,0]\nCMP~R3,R4\nBEQ~FOO\nLDR~R12,[SP,0]\nCMP~R12,0\nBNE~FOO\nMOV~R1,0\nSTRB~R7,[R5,0]\nSTRB~R7,[R5,0]\nMOV~R0,R5\nBL~FOO\nMOV~R3,R0,ASR0\nSTRB~R3,[R5,0]\nSTRB~R0,[R5,0]\nSTRB~R7,[R6,0]\nSTRB~R7,[R6,0]\nLDRB~R3,[R5,0]\nLDRB~R2,[R5,0]\nMOV~R1,R6\nORR~R2,R3,R2,LSL0\nMOV~R0,R5\nMOV~R3,R9\nBL~FOO\nMOV~R3,R0,ASR0\nSTRB~R3,[R6,0]\nSTRB~R0,[R6,0]\nLDR~R3,[SP,0]\nLDR~R2,[R5,0]\nMOV~R12,R3,LSL0\nMOV~R2,R2,LSR0\nSUB~R12,R12,R3,LSL0\nADD~R12,R12,R8\nMOV~R3,R2,ASR0\nSTRB~R3,[R12,0]\nSTRB~R2,[R12,0]\nMOV~R3,0\nMOV~R1,R5\nLDR~R0,[SP,0]\nMOV~R2,R11\nMOV~R4,0\nSTR~R12,[SP]\nSTR~R4,[SP,0]\nBL~FOO\nLDR~R3,[SP,0]\nADD~R0,R3,0\nCMP~R0,R10\nSTR~R0,[SP,0]\nBLT~FOO\nCMP~R10,0\nMOV~R3,0\nB~FOO\nLDR~R4,[R3,0]\nBL~FOO\nLDR~R3,[SP,0]\nMOV~R1,R3,LSL0\nSUB~R1,R1,R3,LSL0\nAND~R2,R4,0\nADD~R1,R1,R8\nAND~R3,R4,0\nMOV~R2,R2,LSR0\nMOV~R12,R4,LSL0\nLDRB~LR,[R1,0]\nORR~R12,R12,R3,LSL0\nORR~R2,R2,R4,LSR0\nORR~R2,R2,R12\nADD~R2,R2,R0,LSRLR\nAND~R0,R2,0\nAND~R3,R2,0\nMOV~R1,R2,LSL0\nORR~R1,R1,R0,LSL0\nMOV~R3,R3,LSR0\nLDR~R0,[SP,0]\nORR~R3,R3,R2,LSR0\nORR~R3,R3,R1\nCMN~R0,0\nSTR~R3,[R5,0]\nBNE~FOO\nBL~FOO\nMOV~R4,0\nLDR~R1,[SP,0]\nSUB~R4,R4,0\nCMP~R1,R4\nSTR~R0,[R5,0]\nBNE~FOO\nBL~FOO\nLDR~R2,[SP,0]\nMOV~R3,R0,ASR0\nCMP~R2,R4\nSTRB~R3,[R5,0]\nSTRB~R0,[R5,0]\nBNE~FOO\nBL~FOO\nMOV~R3,R0,ASR0\nSTRB~R0,[R5,0]\nSTRB~R3,[R6,0]\nLDR~R3,[SP,0]\nCMP~R3,R4\nBNE~FOO\nBL~FOO\nLDR~R12,[SP,0]\nMOV~R3,R0,ASR0\nCMP~R12,0\nSTRB~R3,[R6,0]\nSTRB~R0,[R6,0]\nBEQ~FOO\nADD~R0,R5,0\nLDR~R1,[SP,0]\nBL~FOO\nB~FOO\nLDR~R0,[SP,0]\nBL~FOO\nADD~SP,SP,0\nLDMFD~SP!,{R4-R11,PC}\nADD~R0,SP,0\nLDMIA~R0,{R0,R1}\nMOV~R0,R0,ASR0\nMOV~R1,R1,ASR0\nMOV~R2,R4,ASR0\nMOV~R3,R5,ASR0\nMOV~R12,R7,ASR0\nSTR~R0,[SP,0]\nSTR~R1,[SP,0]\nSTR~R2,[SP,0]\nSTR~R3,[SP,0]\nSTR~R12,[SP,0]\nMOV~R6,0\nMOV~R0,0\nMOV~R1,0\nADD~R0,R0,0\nBL~FOO\nLDR~R1,[SP,0]\nLDR~R2,[SP,0]\nSTR~R0,[R1,R6,LSL0]\nLDR~R1,[R1,R2,LSL0]\nLDRB~R3,[R1]\nBIC~R3,R3,0\nORR~R3,R3,0\nSTRB~R3,[R1]\nLDRB~R2,[R1]\nBIC~R2,R2,0\nORR~R2,R2,0\nMOV~R3,0\nSTRB~R3,[R1,0]\nSTRB~R2,[R1]\nLDR~R12,[SP,0]\nSTRB~R12,[R1,0]\nLDR~R0,[SP,0]\nSTRB~R0,[R1,0]\nLDR~R2,[SP,0]\nLDR~R12,[SP,0]\nMOV~R3,R2,LSL0\nSTR~R12,[R1,0]\nSUB~R3,R3,R2,LSL0\nADD~R3,R3,R8\nLDR~R12,[R3,0]\nADD~R6,R2,0\nMOV~R3,0\nMOV~R2,0\nSTRB~R3,[R1,0]\nSTRB~R2,[R1,0]\nSTR~R12,[R1,0]\nLDR~R2,[SP,0]\nLDR~R3,[SP,0]\nLDR~R12,[SP,0]\nSTRB~R2,[R1,0]\nSTRB~R3,[R1,0]\nSTRB~R12,[R1,0]\nLDR~R2,[SP,0]\nLDR~R3,[SP,0]\nLDR~R12,[SP,0]\nADD~R0,R1,0\nSTRB~R2,[R1,0]\nSTRB~R4,[R1,0]\nSTRB~R3,[R0,0]\nSTRB~R12,[R0,0]\nSTRB~R5,[R0,0]\nLDR~R1,[SP,0]\nCMP~R6,R10\nSTRB~R1,[R0,0]\nSTRB~R7,[R0,0]\nSTR~R6,[SP,0]\nBLT~FOO\nB~FOO"'
p62
L1672L
tp63
a(S'attack_udp_vse'
p64
S'"STMFD~SP!,{R4-R11,LR}\nAND~R9,R0,0\nSUB~SP,SP,0\nMOV~R10,R1\nMOV~R0,R9\nMOV~R1,0\nAND~R4,R2,0\nMOV~R5,R3\nBL~FOO\nMOV~R1,R5\nSTR~R0,[SP,0]\nMOV~R2,0\nMOV~R0,R4\nMOV~R3,0\nBL~FOO\nMOV~R3,0\nMOV~R12,R0\nAND~R12,R12,0\nSUB~R3,R3,0\nMOV~R2,0\nMOV~R0,R4\nMOV~R1,R5\nSTR~R12,[SP,0]\nBL~FOO\nMOV~R1,R5\nMOV~R2,0\nMOV~R3,0\nMOV~R7,R0\nMOV~R0,R4\nBL~FOO\nMOV~R12,R0\nAND~R12,R12,0\nMOV~R1,R5\nMOV~R2,0\nMOV~R3,0\nMOV~R0,R4\nSTR~R12,[SP,0]\nBL~FOO\nMOV~R3,0\nMOV~R12,R0\nAND~R12,R12,0\nSUB~R3,R3,0\nMOV~R2,0\nMOV~R0,R4\nMOV~R1,R5\nSTR~R12,[SP,0]\nBL~FOO\nMOV~R3,0\nMOV~R2,0\nMOV~R1,R5\nMOV~R6,R0\nMOV~R0,R4\nBL~FOO\nMOV~R4,R0\nMOV~R0,0\nBL~FOO\nADD~R1,SP,0\nMOV~R0,0\nBL~FOO\nMOV~R1,0\nMOV~R8,R0\nMOV~R2,0\nMOV~R0,0\nBL~FOO\nCMN~R0,0\nMOV~R11,R0\nBEQ~FOO\nADD~R3,SP,0\nMOV~R2,0\nSTR~R2,[R3,-0]\nMOV~R12,0\nMOV~R1,0\nADD~R2,R2,0\nSTR~R12,[SP]\nBL~FOO\nCMN~R0,0\nBEQ~FOO\nMOV~LR,R4,LSL0\nMOV~R0,R7,LSL0\nMOV~R12,R6,LSL0\nMOV~R4,0\nMOV~R1,R0,LSR0\nMOV~R2,R12,LSR0\nMOV~R3,LR,LSR0\nCMP~R9,0\nSTR~R4,[SP,0]\nSTR~R1,[SP,0]\nSTR~R2,[SP,0]\nSTR~R3,[SP,0]\nBLE~FOO\nLDR~R5,[SP,0]\nAND~R3,R3,0\nAND~R2,R1,0\nMOV~R3,R3,LSL0\nAND~R1,R5,0\nMOV~R0,R0,LSR0\nMOV~R12,R12,LSR0\nORR~R7,R0,R2,LSL0\nORR~R6,R12,R1,LSL0\nORR~R5,R3,LR,LSR0\nMOV~R1,R7,ASR0\nMOV~R2,R6,ASR0\nMOV~R3,R5,ASR0\nSTR~R1,[SP,0]\nSTR~R2,[SP,0]\nSTR~R3,[SP,0]\nMOV~R1,0\nMOV~R0,0\nBL~FOO\nLDR~R2,[SP,0]\nLDR~R3,[SP,0]\nSTR~R0,[R2,R4,LSL0]\nLDR~LR,[R2,R3,LSL0]\nLDRB~R3,[LR]\nBIC~R3,R3,0\nORR~R3,R3,0\nSTRB~R3,[LR]\nLDRB~R2,[LR]\nBIC~R2,R2,0\nORR~R2,R2,0\nSTRB~R2,[LR]\nLDR~R3,[SP,0]\nSTRB~R3,[LR,0]\nLDR~R3,[SP,0]\nADD~R3,R3,0\nMOV~R3,R3,LSL0\nMOV~R2,R3,LSR0\nAND~R2,R2,0\nORR~R2,R2,R3,LSR0\nLDR~R3,[SP,0]\nCMP~R3,0\nLDR~R3,[SP,0]\nSTRB~R3,[LR,0]\nMOVNE~R3,0\nSTRNEB~R3,[LR,0]\nSTRB~R2,[LR,0]\nMOV~R12,R2,ASR0\nMOV~R3,0\nLDR~R2,[SP,0]\nSTRB~R3,[LR,0]\nLDR~R3,<STR>\nSTRB~R2,[LR,0]\nSTRB~R12,[LR,0]\nMOVNE~R2,0\nLDR~R12,[SP,0]\nSTRNEB~R2,[LR,0]\nLDR~R2,[R3]\nMOV~R3,R12,LSL0\nSTR~R2,[LR,0]\nSUB~R3,R3,R12,LSL0\nADD~R3,R3,R10\nLDR~R2,[R3,0]\nSTR~R2,[LR,0]\nLDR~R3,[SP,0]\nADD~R3,R3,0\nMOV~R3,R3,LSL0\nMOV~R12,R3,LSR0\nMOV~R2,0\nAND~R12,R12,0\nORR~R12,R12,R3,LSR0\nSTR~R2,[LR,0]\nLDR~R2,[SP,0]\nADD~R4,LR,0\nMOV~R3,R12,ASR0\nSTRB~R7,[LR,0]\nSTRB~R6,[LR,0]\nSTRB~R3,[R4,0]\nSTRB~R5,[R4,0]\nSTRB~R2,[R4,0]\nLDR~R3,[SP,0]\nSTRB~R12,[R4,0]\nSTRB~R3,[R4,0]\nMOV~R1,R8\nADD~R0,LR,0\nLDR~R2,[SP,0]\nBL~FOO\nLDR~R3,[SP,0]\nADD~R4,R3,0\nCMP~R4,R9\nSTR~R4,[SP,0]\nBLT~FOO\nCMP~R9,0\nMOV~R3,0\nBLE~FOO\nSTR~R3,[SP,0]\nMOV~R0,R3\nMOV~R8,R3\nMOV~R3,R0,LSL0\nSUB~R3,R3,R0,LSL0\nADD~R3,R3,R10\nLDR~R1,[SP,0]\nLDRB~R2,[R3,0]\nLDR~R5,[R1,R0,LSL0]\nMOV~R7,0\nCMP~R2,0\nSUB~R7,R7,0\nADD~R6,R5,0\nBLS~FOO\nLDR~R2,[SP,0]\nCMP~R2,R7\nBEQ~FOO\nLDR~R3,[SP,0]\nCMP~R3,R7\nBEQ~FOO\nLDR~R1,[SP,0]\nCMP~R1,R7\nBEQ~FOO\nMOV~R1,0\nSTRB~R8,[R5,0]\nSTRB~R8,[R5,0]\nMOV~R0,R5\nBL~FOO\nMOV~R3,R0,ASR0\nSTRB~R3,[R5,0]\nSTRB~R0,[R5,0]\nSTRB~R8,[R6,0]\nSTRB~R8,[R6,0]\nLDRB~R3,[R5,0]\nLDRB~R2,[R5,0]\nORR~R2,R3,R2,LSL0\nLDR~R3,[SP,0]\nMOV~R1,R6\nADD~R3,R3,0\nMOV~R0,R5\nBL~FOO\nMOV~R3,R0,ASR0\nSTRB~R3,[R6,0]\nSTRB~R0,[R6,0]\nLDR~R3,[SP,0]\nLDR~R2,[R5,0]\nMOV~R12,R3,LSL0\nSUB~R12,R12,R3,LSL0\nADD~R12,R12,R10\nMOV~R2,R2,LSR0\nSTRB~R2,[R12,0]\nMOV~R3,R2,ASR0\nLDR~R2,[SP,0]\nSTRB~R3,[R12,0]\nMOV~R1,R5\nMOV~R3,0\nADD~R2,R2,0\nMOV~R0,R11\nMOV~R4,0\nSTR~R12,[SP]\nSTR~R4,[SP,0]\nBL~FOO\nLDR~R3,[SP,0]\nADD~R0,R3,0\nCMP~R0,R9\nSTR~R0,[SP,0]\nBLT~FOO\nCMP~R9,0\nMOV~R3,0\nB~FOO\nLDR~R4,[R3,0]\nBL~FOO\nLDR~R3,[SP,0]\nMOV~R12,R3,LSL0\nSUB~R12,R12,R3,LSL0\nAND~R2,R4,0\nAND~R3,R4,0\nMOV~R2,R2,LSR0\nADD~R12,R12,R10\nMOV~R1,R4,LSL0\nORR~R1,R1,R3,LSL0\nLDRB~LR,[R12,0]\nORR~R2,R2,R4,LSR0\nORR~R2,R2,R1\nADD~R2,R2,R0,LSRLR\nAND~R3,R2,0\nMOV~R3,R3,LSR0\nMOV~R1,R2,LSL0\nAND~R0,R2,0\nORR~R3,R3,R2,LSR0\nLDR~R2,[SP,0]\nORR~R1,R1,R0,LSL0\nORR~R3,R3,R1\nCMP~R2,R7\nSTR~R3,[R5,0]\nBNE~FOO\nBL~FOO\nMOV~R3,R0,ASR0\nSTRB~R3,[R5,0]\nLDR~R3,[SP,0]\nCMP~R3,R7\nSTRB~R0,[R5,0]\nBNE~FOO\nBL~FOO\nLDR~R1,[SP,0]\nMOV~R3,R0,ASR0\nCMP~R1,R7\nSTRB~R0,[R5,0]\nSTRB~R3,[R6,0]\nBNE~FOO\nBL~FOO\nMOV~R3,R0,ASR0\nSTRB~R3,[R6,0]\nSTRB~R0,[R6,0]\nB~FOO\nMOV~R0,R11\nBL~FOO\nADD~SP,SP,0\nLDMFD~SP!,{R4-R11,PC}"'
p65
L1216L
tp66
a(S'attack_udp_dns'
p67
S'"STMFD~SP!,{R4-R11,LR}\nSUB~SP,SP,0\nSUB~SP,SP,0\nAND~R0,R0,0\nSTR~R1,[SP,0]\nMOV~R1,0\nAND~R4,R2,0\nMOV~R5,R3\nSTR~R0,[SP,0]\nBL~FOO\nMOV~R1,R5\nSTR~R0,[SP,0]\nMOV~R2,0\nMOV~R0,R4\nMOV~R3,0\nBL~FOO\nMOV~R3,0\nMOV~R12,R0\nAND~R12,R12,0\nSUB~R3,R3,0\nMOV~R2,0\nMOV~R0,R4\nMOV~R1,R5\nSTR~R12,[SP,0]\nBL~FOO\nMOV~R1,R5\nSTR~R0,[SP,0]\nMOV~R2,0\nMOV~R0,R4\nMOV~R3,0\nBL~FOO\nMOV~R12,R0\nAND~R12,R12,0\nMOV~R1,R5\nMOV~R2,0\nMOV~R3,0\nMOV~R0,R4\nSTR~R12,[SP,0]\nBL~FOO\nMOV~R3,0\nMOV~R12,R0\nAND~R12,R12,0\nSUB~R3,R3,0\nMOV~R2,0\nMOV~R0,R4\nMOV~R1,R5\nSTR~R12,[SP,0]\nBL~FOO\nMOV~R1,R5\nMOV~R2,0\nMOV~R3,0\nMOV~R11,R0\nMOV~R0,R4\nBL~FOO\nMOV~R3,0\nMOV~R1,R5\nSUB~R3,R3,0\nMOV~R2,0\nMOV~R9,R0\nMOV~R0,R4\nBL~FOO\nMOV~R1,R5\nMOV~R2,0\nMOV~R3,0\nMOV~R10,R0\nMOV~R0,R4\nBL~FOO\nMOV~R2,0\nMOV~R3,0\nMOV~R1,R5\nMOV~R8,R0\nMOV~R0,R4\nBL~FOO\nSTR~R0,[SP,0]\nMOV~R0,0\nBL~FOO\nMOV~R1,0\nMOV~R0,0\nBL~FOO\nMOV~R1,0\nBL~FOO\nMOV~R4,R0\nMOV~R0,0\nBL~FOO\nCMP~R4,0\nBLT~FOO\nADD~R6,SP,0\nSUB~R6,R6,0\nMOV~R2,0\nMOV~R1,R6\nMOV~R0,R4\nBL~FOO\nMOV~R5,R0\nMOV~R0,R4\nBL~FOO\nMOV~R0,0\nBL~FOO\nMOV~R1,0\nMOV~R0,0\nBL~FOO\nMOV~R1,R5\nMOV~R2,R0\nMOV~R0,R6\nBL~FOO\nMOV~R4,R0\nMOV~R0,0\nBL~FOO\nCMN~R4,0\nBEQ~FOO\nCMP~R5,R4\nBLE~FOO\nRSB~R3,R4,R5\nADD~R7,SP,0\nADD~R3,R4,R3\nMOV~R2,R4\nADD~R1,R6,R4\nMOV~LR,0\nADD~R7,R7,0\nSTR~R3,[SP,0]\nB~FOO\nCMP~R2,R12\nBEQ~FOO\nLDR~R0,[SP,0]\nADD~R2,R2,0\nCMP~R0,R2\nADD~R7,R7,0\nBEQ~FOO\nLDRB~R3,[R1]\nCMP~LR,0\nSUB~R12,R5,0\nADD~R1,R1,0\nSUB~R0,R3,0\nBNE~FOO\nCMP~R3,0\nCMPNE~R3,0\nBEQ~FOO\nADD~LR,LR,0\nCMP~R3,0\nCMPNE~R0,0\nBLS~FOO\nADD~R0,SP,0\nRSB~R2,R4,R2\nADD~R1,R6,R4\nADD~R0,R0,0\nBL~FOO\nMOV~R3,0\nADD~R0,SP,0\nADD~R0,R0,0\nSTRB~R3,[R7]\nBL~FOO\nSTR~R0,[SP,0]\nLDR~R12,[SP,0]\nCMP~R12,0\nBEQ~FOO\nMOV~R0,R12\nBL~FOO\nMOV~R1,0\nSTR~R0,[SP,0]\nMOV~R2,0\nMOV~R0,0\nBL~FOO\nCMN~R0,0\nSTR~R0,[SP,0]\nBEQ~FOO\nADD~R3,SP,0\nADD~R3,R3,0\nMOV~R7,0\nSTR~R7,[R3,-0]\nMOV~R12,0\nMOV~R1,0\nMOV~R2,0\nSTR~R12,[SP]\nBL~FOO\nCMN~R0,0\nBEQ~FOO\nLDR~LR,[SP,0]\nLDR~R0,[SP,0]\nMOV~LR,LR,LSL0\nMOV~R10,R10,LSL0\nAND~R8,R8,0\nMOV~R5,R11,LSL0\nMOV~R9,R9,LSL0\nSTR~R8,[SP,0]\nMOV~R1,0\nMOV~R2,LR,LSR0\nMOV~R3,R5,LSR0\nMOV~R4,R9,LSR0\nMOV~R8,R10,LSR0\nCMP~R0,0\nSTR~LR,[SP,0]\nSTR~R10,[SP,0]\nSTR~R1,[SP,0]\nSTR~R2,[SP,0]\nSTR~R3,[SP,0]\nSTR~R4,[SP,0]\nSTR~R8,[SP,0]\nBLE~FOO\nLDR~R12,[SP,0]\nLDR~LR,[SP,0]\nADD~R11,R12,LR\nMOV~R3,R11,LSL0\nADD~R6,R3,0\nADD~R3,R3,0\nMOV~R2,R3,LSR0\nAND~R2,R2,0\nORR~R3,R2,R3,LSR0\nLDR~R0,[SP,0]\nAND~LR,R8,0\nSTR~R3,[SP,0]\nLDR~R8,[SP,0]\nLDR~R3,[SP,0]\nMOV~R12,R6,LSR0\nAND~R1,R0,0\nAND~R12,R12,0\nAND~R0,R4,0\nMOV~LR,LR,LSL0\nLDR~R2,[SP,0]\nAND~R4,R8,0\nMOV~R0,R0,LSL0\nORR~R8,LR,R3,LSR0\nORR~R10,R12,R6,LSR0\nMOV~R1,R1,LSL0\nLDR~R12,[SP,0]\nMOV~R5,R5,LSR0\nLDR~LR,[SP,0]\nORR~R1,R1,R2,LSR0\nORR~R5,R5,R4,LSL0\nORR~R9,R0,R9,LSR0\nSTR~R1,[SP,0]\nMOV~R0,R1,ASR0\nADD~R7,R12,0\nMOV~LR,LR,ASR0\nMOV~R1,R5,ASR0\nMOV~R2,R9,ASR0\nMOV~R3,R10,ASR0\nMOV~R12,R8,ASR0\nSTR~LR,[SP,0]\nSTR~R0,[SP,0]\nSTR~R1,[SP,0]\nSTR~R2,[SP,0]\nSTR~R3,[SP,0]\nSTR~R12,[SP,0]\nMOV~R4,0\nMOV~R1,0\nMOV~R0,0\nBL~FOO\nLDR~LR,[SP,0]\nLDR~R3,[SP,0]\nSTR~R0,[LR,R4,LSL0]\nLDR~R1,[LR,R3,LSL0]\nLDRB~R2,[R1]\nBIC~R2,R2,0\nORR~R2,R2,0\nSTRB~R2,[R1]\nLDRB~R3,[R1]\nBIC~R3,R3,0\nORR~R3,R3,0\nLDR~R0,[SP,0]\nSTRB~R3,[R1]\nLDR~R2,[SP,0]\nSTRB~R2,[R1,0]\nLDR~R3,[SP,0]\nCMP~R0,0\nSTRB~R3,[R1,0]\nLDR~R4,[SP,0]\nLDR~R0,[SP,0]\nMOVNE~R3,0\nSTRNEB~R3,[R1,0]\nMOV~R3,0\nSTRB~R4,[R1,0]\nLDR~R12,[SP,0]\nLDR~LR,[SP,0]\nLDR~R4,<STR>\nSTRB~R0,[R1,0]\nSTRB~R3,[R1,0]\nSTRB~LR,[R1,0]\nMOVNE~R2,0\nLDR~R3,[R4]\nLDR~LR,[SP,0]\nSTRNEB~R2,[R1,0]\nADD~R2,R1,0\nADD~R4,LR,R2\nSTR~R3,[R1,0]\nLDR~R2,[SP,0]\nLDR~R3,[SP,0]\nADD~R0,R1,0\nSTRB~R12,[R1,0]\nSTRB~R2,[R0,0]\nSTRB~R3,[R0,0]\nSTRB~R9,[R0,0]\nSTRB~R10,[R0,0]\nSTRB~R5,[R1,0]\nLDR~LR,[SP,0]\nLDR~R2,[SP,0]\nSTR~LR,[R1,0]\nSTRB~R2,[R0,0]\nLDR~LR,[SP,0]\nLDR~R0,[SP,0]\nADD~R12,R1,0\nMOV~R6,0\nMOV~R3,0\nSTRB~R8,[R1,0]\nSTRB~R3,[R12,0]\nSTRB~LR,[R12,0]\nSTRB~R3,[R12,0]\nSTRB~R6,[R12,0]\nSTRB~R6,[R12,0]\nSTRB~R0,[R1,0]\nLDR~R1,[SP,0]\nMOV~R2,R7\nADD~R0,R4,0\nBL~FOO\nLDR~R1,[SP,0]\nCMP~R1,R6\nMOVLE~LR,R6\nMOVLE~R2,R4\nBLE~FOO\nMOV~LR,R6\nMOV~R2,R4\nMOV~R1,R6\nLDR~R12,[SP,0]\nLDRB~R3,[R1,R12]\nCMP~R3,0\nSTREQB~LR,[R2]\nADD~R0,R4,R1\nADDEQ~R2,R0,0\nLDR~R0,[SP,0]\nADD~R12,LR,0\nADD~R1,R1,0\nMOVEQ~LR,0\nANDNE~LR,R12,0\nCMP~R0,R1\nBNE~FOO\nSTRB~LR,[R2]\nLDR~R2,[SP,0]\nLDR~R1,[SP,0]\nADD~R3,R4,R1\nADD~R4,R2,0\nLDR~R2,[SP,0]\nMOV~R12,0\nMOV~LR,0\nCMP~R2,R4\nADD~R2,R3,0\nSTRB~R12,[R3,0]\nSTRB~LR,[R2,0]\nSTRB~LR,[R2,0]\nSTRB~R12,[R2,0]\nSTR~R4,[SP,0]\nBGT~FOO\nLDR~R2,[SP,0]\nMOV~R3,0\nCMP~R2,0\nBLE~FOO\nMOV~R6,0\nSTR~R3,[SP,0]\nMOV~R0,R3\nSUB~R6,R6,0\nADD~R9,R11,0\nADD~R10,R11,0\nMOV~R7,R3\nLDR~R3,[SP,0]\nLDR~R8,[SP,0]\nLDR~R4,[R3,R0,LSL0]\nCMP~R8,R6\nADD~R5,R4,0\nADD~R8,R4,0\nBEQ~FOO\nLDR~R12,[SP,0]\nCMP~R12,R6\nBEQ~FOO\nLDR~LR,[SP,0]\nCMP~LR,R6\nBEQ~FOO\nLDR~R0,[SP,0]\nCMP~R0,R6\nBEQ~FOO\nADD~R0,R4,0\nLDR~R1,[SP,0]\nBL~FOO\nMOV~R1,0\nSTRB~R7,[R4,0]\nSTRB~R7,[R4,0]\nMOV~R0,R4\nBL~FOO\nMOV~R3,R0,ASR0\nSTRB~R3,[R4,0]\nSTRB~R0,[R4,0]\nSTRB~R7,[R5,0]\nSTRB~R7,[R5,0]\nLDRB~R3,[R4,0]\nLDRB~R2,[R4,0]\nMOV~R1,R5\nORR~R2,R3,R2,LSL0\nMOV~R0,R4\nMOV~R3,R9\nBL~FOO\nLDR~R3,[SP,0]\nLDR~R1,[SP,0]\nMOV~LR,R3,LSL0\nLDR~R2,[SP,0]\nSUB~LR,LR,R3,LSL0\nADD~LR,LR,R1\nMOV~R3,R0,ASR0\nSTRB~R0,[R5,0]\nSTRB~R3,[R5,0]\nSTR~R2,[LR,0]\nLDR~R3,[R4,0]\nMOV~R3,R3,LSR0\nMOV~R2,R3,ASR0\nSTRB~R2,[LR,0]\nSTRB~R3,[LR,0]\nMOV~R12,0\nMOV~R3,0\nMOV~R1,R4\nLDR~R0,[SP,0]\nMOV~R2,R10\nSTR~LR,[SP]\nSTR~R12,[SP,0]\nBL~FOO\nLDR~R3,[SP,0]\nADD~R0,R3,0\nLDR~R3,[SP,0]\nCMP~R3,R0\nSTR~R0,[SP,0]\nBGT~FOO\nLDR~R2,[SP,0]\nMOV~R3,0\nCMP~R2,0\nB~FOO\nBL~FOO\nLDR~R12,[SP,0]\nMOV~R3,R0,ASR0\nCMP~R12,R6\nSTRB~R3,[R4,0]\nSTRB~R0,[R4,0]\nBNE~FOO\nBL~FOO\nLDR~LR,[SP,0]\nMOV~R3,R0,ASR0\nCMP~LR,R6\nSTRB~R0,[R4,0]\nSTRB~R3,[R5,0]\nBNE~FOO\nBL~FOO\nMOV~R3,R0,ASR0\nSTRB~R0,[R5,0]\nLDR~R0,[SP,0]\nCMP~R0,R6\nSTRB~R3,[R5,0]\nBNE~FOO\nBL~FOO\nMOV~R3,R0,ASR0\nSTRB~R0,[R4,0]\nSTRB~R3,[R8,0]\nB~FOO\nBL~FOO\nAND~R0,R0,0\nCMP~R0,0\nLDRLS~PC,[PC,R0,LSL0]\nB~FOO\nLDR~R0,[SP,0]\nLDR~R1,[SP,0]\nADD~R11,R0,R1\nB~FOO\nLDR~R0,[SP,0]\nBL~FOO\nADD~SP,SP,0\nADD~SP,SP,0\nLDMFD~SP!,{R4-R11,PC}\nMOV~R3,0\nORR~R3,R3,R3,LSL0\nSTR~R3,[SP,0]\nB~FOO\nLDR~R4,<STR>\nSTR~R4,[SP,0]\nB~FOO\nMOV~R1,0\nSTR~R1,[SP,0]\nB~FOO\nMOV~R2,0\nSTR~R2,[SP,0]\nB~FOO"'
p68
L1960L
tp69
a(S'checksum_generic'
p70
S'"CMP~R1,0\nMOVLS~R12,0\nBLS~FOO\nMOV~R12,0\nLDRB~R3,[R0]\nLDRB~R2,[R0,0]\nSUB~R1,R1,0\nORR~R3,R3,R2,LSL0\nCMP~R1,0\nADD~R12,R12,R3\nADD~R0,R0,0\nBHI~FOO\nCMP~R1,0\nLDREQB~R3,[R0]\nADDEQ~R12,R12,R3\nMOV~R0,R12,LSL0\nMOV~R0,R0,LSR0\nADD~R0,R0,R12,LSR0\nADD~R0,R0,R0,LSR0\nMVN~R0,R0\nMOV~R0,R0,LSL0\nMOV~R0,R0,LSR0\nRET"'
p71
L92L
tp72
a(S'checksum_tcpudp'
p73
S'"MOV~R2,R2,LSL0\nCMP~R3,0\nSTMFD~SP!,{R4-R6,LR}\nMOV~R12,R3\nMOV~R6,R2,LSR0\nADD~R4,R0,0\nLDMIA~R4,{R4,R5}\nMOVLE~LR,0\nBLE~FOO\nMOV~LR,0\nLDRB~R3,[R1]\nLDRB~R2,[R1,0]\nSUB~R12,R12,0\nORR~R3,R3,R2,LSL0\nCMP~R12,0\nADD~LR,LR,R3\nADD~R1,R1,0\nBGT~FOO\nCMP~R12,0\nLDREQB~R3,[R1]\nADDEQ~LR,LR,R3\nMOV~R3,R4,LSL0\nMOV~R3,R3,LSR0\nMOV~R2,R5,LSL0\nLDRB~R0,[R0,0]\nMOV~R2,R2,LSR0\nADD~R3,R3,R4,LSR0\nADD~R3,R3,R2\nMOV~R0,R0,LSL0\nADD~R1,LR,R5,LSR0\nADD~R1,R1,R0\nADD~R3,R3,R6\nADD~R0,R1,R3\nMOVS~R2,R0,LSR0\nBEQ~FOO\nMOV~R3,R0,LSL0\nMOV~R3,R3,LSR0\nADD~R0,R3,R2\nMOVS~R2,R0,LSR0\nBNE~FOO\nMVN~R0,R0\nMOV~R0,R0,LSL0\nMOV~R0,R0,LSR0\nLDMFD~SP!,{R4-R6,PC}"'
p74
L176L
tp75
a(S'killer_kill'
p76
S'"LDR~R3,<STR>\nLDR~R0,[R3]\nMOV~R1,0\nB~FOO"'
p77
L16L
tp78
a(S'killer_kill_by_port'
p79
S'"STMFD~SP!,{R4-R11,LR}\nSUB~SP,SP,0\nSUB~SP,SP,0\nADD~R10,SP,0\nADD~R10,R10,0\nSUB~R10,R10,0\nADD~R11,SP,0\nMOV~R5,R0,LSL0\nMOV~R1,0\nMOV~R2,0\nSUB~R11,R11,0\nMOV~R0,R10\nADD~R6,SP,0\nBL~FOO\nADD~R6,R6,0\nMOV~R1,0\nMOV~R2,0\nMOV~R0,R11\nMOV~R4,R5,LSR0\nBL~FOO\nSUB~R6,R6,0\nMOV~R2,0\nAND~R4,R4,0\nADD~R2,R2,0\nMOV~R1,0\nMOV~R4,R4,LSL0\nMOV~R0,R6\nADD~R9,SP,0\nBL~FOO\nADD~R9,R9,0\nADD~R3,SP,0\nORR~R0,R4,R5,LSR0\nMOV~R4,0\nMOV~R1,0\nMOV~R2,R9\nSTR~R4,[R3,0]\nSTR~R4,[R3,0]\nSTR~R4,[R3,0]\nSTR~R4,[R3,0]\nBL~FOO\nMOV~R0,R9\nBL~FOO\nCMP~R0,0\nBEQ~FOO\nMOV~R0,0\nBL~FOO\nMOV~R0,0\nBL~FOO\nMOV~R0,0\nBL~FOO\nLDR~R0,<STR>\nMOV~R1,R4\nBL~FOO\nCMN~R0,0\nMOV~R8,R0\nBEQ~FOO\nMOV~R0,R6\nMOV~R1,0\nMOV~R2,R8\nBL~FOO\nCMP~R0,0\nBEQ~FOO\nADD~R0,SP,0\nLDRB~R2,[R0,0]\nCMP~R2,0\nCMPNE~R2,0\nMOVEQ~R3,0\nMOVNE~R3,0\nMOVEQ~R1,R3\nBEQ~FOO\nMOV~R1,0\nADD~R1,R1,0\nLDRB~R2,[R1,R6]\nCMP~R2,0\nCMPNE~R2,0\nBNE~FOO\nCMP~R2,0\nBEQ~FOO\nADD~R3,SP,0\nADD~R0,R1,0\nADD~R3,R3,0\nADD~R2,R3,R0\nLDRB~R3,[R2,-0]\nCMP~R3,0\nCMPNE~R3,0\nMOVEQ~R5,R0\nBEQ~FOO\nADD~R2,R6,R1\nLDRB~R3,[R2,0]\nCMP~R3,0\nCMPNE~R3,0\nADD~R2,R2,0\nBNE~FOO\nRSB~R3,R6,R2\nADD~R5,R3,0\nADD~R4,R6,R0\nADD~R0,SP,0\nADD~R0,R0,0\nADD~R3,R0,R5\nMOV~R7,0\nMOV~R0,R4\nSTRB~R7,[R3,-0]\nBL~FOO\nMOV~R2,R9\nMOV~R1,R0\nMOV~R0,R4\nBL~FOO\nCMN~R0,0\nMOVNE~R1,R7\nADDNE~R2,R6,R5\nADDNE~R12,R5,0\nMOVNE~LR,R1\nMOVNE~R4,R1\nBEQ~FOO\nLDRB~R3,[R2,0]\nCMP~R3,0\nADD~R12,R12,0\nBEQ~FOO\nCMP~R3,0\nCMPNE~R3,0\nMOVNE~R0,0\nMOVEQ~R0,0\nMOVEQ~R1,0\nBEQ~FOO\nCMP~R1,0\nBEQ~FOO\nMOV~R1,0\nCMP~LR,0\nADD~R2,R2,0\nBLE~FOO\nCMP~R4,0\nMOV~R0,R12\nBEQ~FOO\nADD~R1,SP,0\nADD~R1,R1,0\nADD~R2,R1,R12\nLDRB~R3,[R2,-0]\nCMP~R3,0\nCMPNE~R3,0\nBEQ~FOO\nADD~R2,R6,R12\nLDRB~R3,[R2,0]\nCMP~R3,0\nCMPNE~R3,0\nADD~R12,R12,0\nBNE~FOO\nADD~R3,SP,0\nADD~R3,R3,0\nADD~R2,R3,R12\nMOV~R3,0\nADD~R4,R6,R0\nMOV~R0,R4\nSTRB~R3,[R2,-0]\nBL~FOO\nCMP~R0,0\nBGT~FOO\nADD~R0,SP,0\nMOV~R1,R4\nADD~R0,R0,0\nBL~FOO\nMOV~R0,R8\nBL~FOO\nADD~R0,SP,0\nADD~R0,R0,0\nBL~FOO\nSUBS~R4,R0,0\nBEQ~FOO\nMOV~R1,0\nMOV~R0,0\nBL~FOO\nBL~FOO\nSUBS~R8,R0,0\nMOVEQ~R4,R8\nMOVNE~R5,0\nBEQ~FOO\nMOV~R0,R8\nBL~FOO\nCMP~R0,0\nBEQ~FOO\nCMP~R5,0\nBNE~FOO\nLDRB~R3,[R0,0]\nSUB~R3,R3,0\nCMP~R3,0\nADD~R7,R0,0\nBHI~FOO\nMOV~R1,R5\nMOV~R0,0\nBL~FOO\nMOV~R1,R0\nMOV~R0,R10\nBL~FOO\nMOV~R0,R10\nBL~FOO\nMOV~R1,R7\nADD~R0,R10,R0\nBL~FOO\nMOV~R0,R10\nBL~FOO\nMOV~R1,R5\nMOV~R4,R0\nMOV~R0,0\nBL~FOO\nMOV~R1,R0\nADD~R0,R10,R4\nBL~FOO\nMOV~R0,R10\nMOV~R1,R11\nMOV~R2,0\nBL~FOO\nCMN~R0,0\nBEQ~FOO\nMOV~R1,R5\nMOV~R0,0\nBL~FOO\nMOV~R1,R0\nMOV~R0,R10\nBL~FOO\nMOV~R0,R10\nBL~FOO\nMOV~R1,R7\nADD~R0,R10,R0\nBL~FOO\nMOV~R0,R10\nBL~FOO\nMOV~R1,R5\nMOV~R4,R0\nMOV~R0,0\nBL~FOO\nMOV~R1,R0\nADD~R0,R10,R4\nBL~FOO\nMOV~R0,R10\nBL~FOO\nSUBS~R9,R0,0\nBEQ~FOO\nMOV~R0,R9\nBL~FOO\nSUBS~R6,R0,0\nMOV~R1,0\nMOV~R0,R11\nBEQ~FOO\nCMP~R5,0\nBNE~FOO\nBL~FOO\nMOV~R1,R5\nMOV~R0,0\nBL~FOO\nMOV~R1,R0\nMOV~R0,R10\nBL~FOO\nMOV~R0,R10\nBL~FOO\nMOV~R1,R7\nADD~R0,R10,R0\nBL~FOO\nMOV~R0,R10\nBL~FOO\nMOV~R1,R5\nMOV~R4,R0\nMOV~R0,0\nBL~FOO\nMOV~R1,R0\nADD~R0,R10,R4\nBL~FOO\nMOV~R0,R10\nBL~FOO\nLDR~R1,<STR>\nADD~R0,R10,R0\nBL~FOO\nMOV~R0,R10\nBL~FOO\nADD~R1,R6,0\nADD~R0,R10,R0\nBL~FOO\nMOV~R0,R10\nMOV~R1,R11\nMOV~R2,0\nBL~FOO\nCMN~R0,0\nMOV~R0,R11\nBEQ~FOO\nBL~FOO\nADD~R2,SP,0\nMOV~R1,R0\nADD~R2,R2,0\nMOV~R0,R11\nBL~FOO\nCMN~R0,0\nMOV~R1,0\nMOV~R0,R7\nBEQ~FOO\nBL~FOO\nMOV~R1,0\nBL~FOO\nMOV~R0,R9\nBL~FOO\nSUBS~R6,R0,0\nMOV~R5,0\nMOV~R1,0\nMOV~R0,R11\nBNE~FOO\nMOV~R0,R9\nBL~FOO\nMOV~R0,R8\nBL~FOO\nCMP~R0,0\nBNE~FOO\nMOV~R0,R8\nBL~FOO\nAND~R4,R5,0\nMOV~R0,0\nBL~FOO\nMOV~R0,0\nBL~FOO\nMOV~R0,0\nBL~FOO\nMOV~R0,0\nBL~FOO\nMOV~R0,R4\nADD~SP,SP,0\nADD~SP,SP,0\nLDMFD~SP!,{R4-R11,PC}\nADD~LR,LR,0\nCMP~LR,0\nBNE~FOO\nLDRB~R3,[R2,0]\nCMP~R3,0\nMOVNE~R1,R0\nADDNE~R2,R2,0\nBNE~FOO\nMOV~R1,R0\nMOV~R4,LR\nADD~R2,R2,0\nB~FOO\nADD~R0,SP,0\nLDRB~R3,[R0,0]\nLDRB~R2,[R0,0]\nMOV~R1,0\nSTRB~R3,[R0,0]\nSTRB~R2,[R0,0]\nSTRB~R1,[R0,0]\nSTRB~R4,[R0,0]\nSTRB~R1,[R0,0]\nB~FOO"'
p80
L1380L
tp81
a(S'killer_init'
p82
S'"STMFD~SP!,{R4-R11,LR}\nSUB~SP,SP,0\nSUB~SP,SP,0\nMOV~R0,0\nBL~FOO\nMOV~R7,R0\nBL~FOO\nCMN~R0,0\nMOVNE~R3,0\nMOVEQ~R3,0\nCMP~R0,0\nMOVLE~R5,R3\nORRGT~R5,R3,0\nLDR~R3,<STR>\nCMP~R5,0\nSTR~R0,[R3]\nBEQ~FOO\nADD~SP,SP,0\nADD~SP,SP,0\nLDMFD~SP!,{R4-R11,PC}\nADD~R1,SP,0\nMOV~R6,0\nSTRB~R6,[R1,0]\nSTRB~R5,[R1,0]\nSTR~R5,[R1,0]\nMOV~R0,0\nBL~FOO\nADD~R12,SP,0\nMOV~R3,0\nMOV~R0,R6\nMOV~R1,0\nMOV~R2,R5\nSTRB~R3,[R12,0]\nSTRB~R5,[R12,0]\nBL~FOO\nCMN~R0,0\nMOV~R4,R0\nBEQ~FOO\nADD~R1,SP,0\nADD~R1,R1,0\nMOV~R2,0\nBL~FOO\nMOV~R0,R4\nMOV~R1,0\nBL~FOO\nMOV~R0,0\nBL~FOO\nADD~R12,SP,0\nMOV~R3,0\nMOV~R0,R6\nMOV~R1,0\nMOV~R2,R5\nSTRB~R3,[R12,0]\nSTRB~R5,[R12,0]\nBL~FOO\nCMN~R0,0\nMOV~R4,R0\nBEQ~FOO\nADD~R1,SP,0\nADD~R1,R1,0\nMOV~R2,0\nBL~FOO\nMOV~R0,R4\nMOV~R1,0\nBL~FOO\nMOV~R0,0\nBL~FOO\nMOV~R0,0\nBL~FOO\nLDR~R3,<STR>\nLDR~R1,<STR>\nMOV~R2,R0\nSTRB~R5,[R2]\nMOV~R0,0\nSTR~R5,[R3]\nSTR~R2,[R1]\nBL~FOO\nMOV~R0,0\nBL~FOO\nMOV~R1,R5\nMOV~R0,0\nBL~FOO\nADD~R8,SP,0\nSUB~R8,R8,0\nMOV~R1,R0\nMOV~R0,R8\nBL~FOO\nADD~R4,R8,R0\nBL~FOO\nADD~R2,SP,0\nADD~R2,R2,0\nMOV~R1,0\nBL~FOO\nMOV~R1,R0\nMOV~R0,R4\nBL~FOO\nMOV~R1,R5\nADD~R4,R4,R0\nMOV~R0,0\nBL~FOO\nMOV~R1,R0\nMOV~R0,R4\nBL~FOO\nMOV~R1,R5\nMOV~R6,R0\nMOV~R0,R8\nBL~FOO\nCMN~R0,0\nBEQ~FOO\nBL~FOO\nMOV~R0,0\nBL~FOO\nMOV~R0,0\nBL~FOO\nLDR~R3,<STR>\nMOV~R2,0\nLDR~R1,[R3]\nADD~R2,R2,0\nMOV~R0,R8\nBL~FOO\nCMN~R0,0\nLDRNE~R12,<STR>\nLDRNE~R3,[R12]\nADD~R1,R4,R6\nSTRNEB~R5,[R3,R0]\nRSB~R1,R8,R1\nMOV~R0,R8\nBL~FOO\nADD~R1,SP,0\nADD~R1,R1,0\nSUB~R1,R1,0\nSTR~R1,[SP]\nSTR~R5,[SP,0]\nMOV~R4,R7\nMOV~R5,0\nMOV~R0,0\nBL~FOO\nMOV~R1,0\nMOV~R0,0\nBL~FOO\nBL~FOO\nSUBS~R10,R0,0\nBEQ~FOO\nMOV~R0,0\nBL~FOO\nMOV~R0,R10\nBL~FOO\nCMP~R0,0\nBEQ~FOO\nLDRB~R3,[R0,0]\nSUB~R3,R3,0\nCMP~R3,0\nBHI~FOO\nADD~R6,R0,0\nMOV~R0,R6\nBL~FOO\nLDR~R2,[SP,0]\nCMP~R5,R0\nADD~R2,R2,0\nMOV~R7,R0\nSTR~R2,[SP,0]\nBLT~FOO\nMOV~R0,0\nBL~FOO\nRSB~R0,R4,R0\nCMP~R0,0\nMOVGT~R5,0\nBGT~FOO\nCMP~R7,0\nBLE~FOO\nLDR~R0,[SP,0]\nMOV~R1,0\nBL~FOO\nCMP~R0,0\nBNE~FOO\nADD~R0,R0,0\nBL~FOO\nMOV~R0,R10\nBL~FOO\nCMP~R0,0\nBNE~FOO\nMOV~R0,R10\nBL~FOO\nB~FOO\nMOV~R0,0\nBL~FOO\nSTR~R0,[SP,0]\nMOV~R0,0\nBL~FOO\nMOV~R0,0\nBL~FOO\nMOV~R1,0\nMOV~R0,0\nBL~FOO\nMOV~R1,R0\nADD~R0,SP,0\nADD~R0,R0,0\nBL~FOO\nADD~R3,SP,0\nADD~R3,R3,0\nADD~R5,R3,R0\nMOV~R1,R6\nMOV~R0,R5\nBL~FOO\nMOV~R1,0\nMOV~R4,R0\nMOV~R0,0\nBL~FOO\nMOV~R1,R0\nADD~R0,R5,R4\nBL~FOO\nMOV~R1,0\nMOV~R0,0\nBL~FOO\nMOV~R1,R0\nADD~R0,SP,0\nADD~R0,R0,0\nBL~FOO\nADD~R12,SP,0\nADD~R12,R12,0\nADD~R5,R12,R0\nMOV~R1,R6\nMOV~R0,R5\nBL~FOO\nMOV~R1,0\nMOV~R4,R0\nMOV~R0,0\nBL~FOO\nMOV~R1,R0\nADD~R0,R5,R4\nBL~FOO\nMOV~R0,0\nBL~FOO\nMOV~R0,0\nBL~FOO\nMOV~R2,0\nADD~R0,SP,0\nADD~R2,R2,0\nADD~R0,R0,0\nLDR~R1,[SP]\nBL~FOO\nMOV~R2,0\nCMN~R0,0\nMOV~R5,R0\nSUB~R2,R2,0\nBEQ~FOO\nADD~R1,SP,0\nADD~R1,R1,0\nADD~R3,R1,R5\nMOV~R4,0\nSTRB~R4,[R3,R2]\nMOV~R0,0\nBL~FOO\nMOV~R1,R4\nMOV~R0,0\nBL~FOO\nSUB~R1,R5,0\nMOV~R2,R0\nLDR~R0,[SP]\nBL~FOO\nCMN~R0,0\nBEQ~FOO\nLDR~R0,[SP]\nBL~FOO\nMOV~R0,R7\nMOV~R1,0\nBL~FOO\nMOV~R0,0\nBL~FOO\nBL~FOO\nCMP~R7,R0\nBEQ~FOO\nBL~FOO\nCMP~R7,R0\nBEQ~FOO\nLDR~R2,<STR>\nLDR~R0,[SP]\nLDR~R1,[R2]\nBL~FOO\nCMP~R0,0\nBEQ~FOO\nLDR~R4,[SP,0]\nMOV~R5,R7\nB~FOO\nMOV~R1,R0\nLDR~R0,[SP]\nBL~FOO\nCMN~R0,0\nMOV~R4,R0\nBEQ~FOO\nMOV~R0,R4\nBL~FOO\nADD~R0,SP,0\nADD~R0,R0,0\nMOV~R1,0\nBL~FOO\nCMN~R0,0\nSTR~R0,[SP,0]\nBEQ~FOO\nMOV~R0,0\nBL~FOO\nMOV~R0,0\nBL~FOO\nMOV~R0,0\nBL~FOO\nMOV~R0,0\nBL~FOO\nMOV~R0,0\nBL~FOO\nADD~R1,SP,0\nMOV~R0,0\nBL~FOO\nADD~R1,SP,0\nADD~R1,R1,0\nMOV~R5,R0\nMOV~R0,0\nBL~FOO\nADD~R1,SP,0\nADD~R1,R1,0\nMOV~R6,R0\nMOV~R0,0\nBL~FOO\nADD~R1,SP,0\nADD~R1,R1,0\nMOV~R9,R0\nMOV~R0,0\nBL~FOO\nADD~R1,SP,0\nMOV~R11,R0\nADD~R1,R1,0\nMOV~R0,0\nBL~FOO\nSTR~R0,[SP,0]\nLDR~R0,[SP,0]\nMOV~R1,R8\nMOV~R2,0\nBL~FOO\nCMP~R0,0\nBLE~FOO\nADD~R3,SP,0\nLDR~R4,[R3,0]\nCMP~R0,R4\nMOVGE~LR,0\nMOVGE~R1,R0\nMOVGE~R12,LR\nBGE~FOO\nADD~R12,SP,0\nLDR~R4,[R12,0]\nCMP~R0,R4\nMOVGE~LR,0\nMOVGE~R1,R0\nMOVGE~R12,LR\nBGE~FOO\nADD~R1,SP,0\nLDR~R4,[R1,0]\nCMP~R0,R4\nMOVGE~LR,0\nMOVGE~R1,R0\nMOVGE~R12,LR\nBGE~FOO\nADD~R2,SP,0\nLDR~R4,[R2,0]\nCMP~R0,R4\nMOVGE~LR,0\nMOVGE~R1,R0\nMOVGE~R12,LR\nBGE~FOO\nADD~R3,SP,0\nLDR~LR,[R3,0]\nCMP~R0,LR\nMOVGE~R12,0\nMOVGE~R1,R12\nBLT~FOO\nSUBS~R0,R0,0\nBCC~FOO\nLDR~R3,[SP,0]\nLDRB~R2,[R3,R1]\nLDRB~R3,[R12,R8]\nCMP~R3,R2\nADD~R1,R1,0\nMOVNE~R1,0\nBEQ~FOO\nADD~R12,R12,0\nB~FOO\nCMP~R4,R12\nBEQ~FOO\nADD~LR,LR,0\nSUBS~R1,R1,0\nBCC~FOO\nLDRB~R2,[R5,R12]\nLDRB~R3,[LR,R8]\nCMP~R3,R2\nADD~R12,R12,0\nMOVNE~R12,0\nBEQ~FOO\nADD~LR,LR,0\nB~FOO\nCMP~R4,R12\nBEQ~FOO\nADD~LR,LR,0\nSUBS~R1,R1,0\nBCC~FOO\nLDRB~R2,[R6,R12]\nLDRB~R3,[LR,R8]\nCMP~R3,R2\nADD~R12,R12,0\nMOVNE~R12,0\nBEQ~FOO\nADD~LR,LR,0\nB~FOO\nCMP~R4,R12\nBEQ~FOO\nADD~LR,LR,0\nSUBS~R1,R1,0\nBCC~FOO\nLDRB~R2,[R9,R12]\nLDRB~R3,[LR,R8]\nCMP~R3,R2\nADD~R12,R12,0\nMOVNE~R12,0\nBEQ~FOO\nADD~LR,LR,0\nB~FOO\nCMP~R4,R12\nBEQ~FOO\nADD~LR,LR,0\nSUBS~R1,R1,0\nBCC~FOO\nLDRB~R2,[R11,R12]\nLDRB~R3,[LR,R8]\nCMP~R3,R2\nADD~R12,R12,0\nMOVNE~R12,0\nBEQ~FOO\nADD~LR,LR,0\nB~FOO\nCMP~LR,R1\nBNE~FOO\nMOV~R0,0\nBL~FOO\nMOV~R0,0\nBL~FOO\nMOV~R0,0\nBL~FOO\nMOV~R0,0\nBL~FOO\nMOV~R0,0\nBL~FOO\nLDR~R0,[SP,0]\nBL~FOO\nMOV~R0,R7\nMOV~R1,0\nBL~FOO\nADD~R0,SP,0\nMOV~R1,0\nADD~R0,R0,0\nBL~FOO\nADD~R0,SP,0\nADD~R0,R0,0\nMOV~R1,0\nBL~FOO\nMOV~R0,0\nBL~FOO\nLDR~R4,[SP,0]\nMOV~R5,R7\nB~FOO\nMOV~R0,R7\nMOV~R1,0\nBL~FOO\nB~FOO\nMOV~R0,0\nBL~FOO\nMOV~R0,0\nBL~FOO\nMOV~R0,0\nBL~FOO\nMOV~R0,0\nBL~FOO\nMOV~R0,0\nBL~FOO\nLDR~R0,[SP,0]\nBL~FOO\nB~FOO"'
p83
L1932L
tp84
a(S'anti_gdb_entry'
p85
S'"LDR~R2,<STR>\nLDR~R3,<STR>\nSTR~R2,[R3]\nRET"'
p86
L16L
tp87
a(S'ensure_single_instance'
p88
S'"STMFD~SP!,{R4-R8,LR}\nMOV~R4,0\nSUB~SP,SP,0\nMOV~R0,0\nMOV~R1,R4\nMOV~R2,0\nSTR~R4,[SP,0]\nBL~FOO\nLDR~R6,<STR>\nCMN~R0,0\nSTR~R0,[R6]\nBEQ~FOO\nADD~R3,SP,0\nMOV~R1,R4\nMOV~R5,0\nMOV~R2,0\nSTR~R5,[SP]\nBL~FOO\nLDR~R4,[R6]\nMOV~R1,0\nMOV~R2,0\nMOV~R0,R4\nBL~FOO\nMOV~R1,R5\nORR~R2,R0,0\nMOV~R0,R4\nBL~FOO\nLDR~R8,<STR>\nLDRB~R3,[R8]\nCMP~R3,0\nLDREQ~R3,<STR>\nMOVNE~R2,0\nLDREQ~R2,[R3]\nADDNE~R2,R2,0\nMOV~R3,0\nMOV~R5,0\nSTRB~R3,[SP,0]\nSTR~R2,[SP,0]\nADD~R3,R3,0\nMOV~R2,0\nSTRB~R3,[SP,0]\nSTRB~R2,[SP,0]\nSTRB~R5,[SP,0]\nBL~FOO\nSTR~R5,[R0]\nADD~R7,SP,0\nMOV~R4,R0\nMOV~R1,R7\nLDR~R0,[R6]\nMOV~R2,0\nBL~FOO\nCMN~R0,0\nBEQ~FOO\nLDR~R3,<STR>\nMOV~R1,0\nLDR~R0,[R3]\nBL~FOO\nADD~SP,SP,0\nLDMFD~SP!,{R4-R8,PC}\nLDR~R3,[R4]\nCMP~R3,0\nBEQ~FOO\nMOV~R3,0\nMOV~R12,0\nMOV~R1,R7\nMOV~R2,0\nMOV~R4,0\nSTRB~R3,[SP,0]\nLDR~R0,[R6]\nADD~R3,R3,0\nSTRB~R3,[SP,0]\nSTRB~R12,[SP,0]\nSTR~R4,[SP,0]\nSTRB~R4,[SP,0]\nBL~FOO\nMOV~R0,0\nBL~FOO\nLDR~R0,[R6]\nBL~FOO\nMOV~R0,0\nBL~FOO\nBL~FOO\nB~FOO\nLDRB~R3,[R8]\nCMP~R3,R5\nLDRNE~R3,<STR>\nSTRNEB~R5,[R3]\nB~FOO"'
p89
L356L
tp90
a(S'resolve_cnc_addr'
p91
S'"STMFD~SP!,{R4-R6,LR}\nMOV~R0,0\nBL~FOO\nMOV~R1,0\nMOV~R0,0\nBL~FOO\nBL~FOO\nMOV~R5,R0\nMOV~R0,0\nBL~FOO\nCMP~R5,0\nLDR~R6,<STR>\nLDMEQFD~SP!,{R4-R6,PC}\nLDR~R4,[R5,0]\nBL~FOO\nLDRB~R1,[R5]\nBL~FOO\nLDR~R3,[R4,R0,LSL0]\nMOV~R0,R5\nSTR~R3,[R6,0]\nBL~FOO\nMOV~R0,0\nBL~FOO\nMOV~R1,0\nMOV~R0,0\nBL~FOO\nLDRB~R2,[R0,0]\nLDRB~R3,[R0]\nORR~R3,R3,R2,LSL0\nMOV~R1,R3,ASR0\nMOV~R0,0\nSTRB~R1,[R6,0]\nSTRB~R3,[R6,0]\nLDMFD~SP!,{R4-R6,LR}\nB~FOO"'
p92
L140L
tp93
a(S'main'
p94
S'"STMFD~SP!,{R4-R11,LR}\nSUB~SP,SP,0\nSUB~SP,SP,0\nADD~R4,SP,0\nADD~R4,R4,0\nMOV~R8,R0\nLDR~R0,[R1]\nMOV~R6,R1\nBL~FOO\nMOV~R0,R4\nBL~FOO\nMOV~R0,R4\nMOV~R1,0\nBL~FOO\nMOV~R0,0\nMOV~R2,R0\nMOV~R1,R4\nBL~FOO\nMOV~R1,0\nMOV~R0,0\nBL~FOO\nLDR~R1,<STR>\nMOV~R0,0\nBL~FOO\nLDR~R0,<STR>\nMOV~R1,0\nBL~FOO\nCMN~R0,0\nMOV~R4,R0\nBEQ~FOO\nMOV~R1,0\nADD~R2,SP,0\nMOV~R3,0\nADD~R1,R1,0\nMOV~R0,R4\nADD~R2,R2,0\nSTR~R3,[SP,0]\nBL~FOO\nMOV~R0,R4\nBL~FOO\nLDR~R0,<STR>\nBL~FOO\nBL~FOO\nLDR~R11,<STR>\nLDR~LR,<STR>\nLDR~R12,<STR>\nADD~R10,SP,0\nMOV~R4,0\nMOV~R3,0\nADD~R10,R10,0\nMOV~R7,0\nSTRB~R3,[LR,0]\nSTR~R12,[LR,0]\nSTRB~R4,[LR,0]\nSTRB~R4,[LR,0]\nSTR~R0,[R11]\nLDR~R1,<STR>\nMOV~R2,0\nSTRB~R7,[LR]\nMOV~R0,R10\nLDR~R5,[R6]\nBL~FOO\nLDR~R12,<STR>\nMOV~R4,R12\nLDMIA~R4!,{R0-R3}\nADD~LR,SP,0\nADD~LR,LR,0\nSTMIA~LR!,{R0-R3}\nLDMIA~R4!,{R0-R3}\nSTMIA~LR!,{R0-R3}\nLDR~R2,[SP,0]\nLDR~R3,[SP,0]\nLDR~R1,[SP,0]\nADD~R3,R3,R2\nLDR~R2,[SP,0]\nADD~R3,R3,R1\nLDR~R1,[SP,0]\nADD~R3,R3,R2\nLDR~R2,[SP,0]\nADD~R3,R3,R1\nLDR~R1,[SP,0]\nADD~R3,R3,R2\nADD~R3,R3,R1\nLDR~R2,[R4]\nCMP~R3,0\nSTR~R2,[LR]\nBEQ~FOO\nLDRB~R2,[SP,0]\nLDRB~R3,[SP,0]\nMOV~R0,R5\nSTRB~R3,[SP,0]\nSTRB~R2,[SP,0]\nBL~FOO\nMOV~R1,R0\nMOV~R0,R7\nBL~FOO\nLDRB~R2,[SP,0]\nLDRB~R3,[SP,0]\nLDRB~R4,[R5,R0]\nMOV~R0,R5\nSTRB~R3,[SP,0]\nSTRB~R2,[SP,0]\nBL~FOO\nMOV~R1,R0\nMOV~R0,0\nBL~FOO\nMVN~R4,R4\nLDRB~R3,[R5,R0]\nLDRB~R2,[SP,0]\nLDRB~R1,[SP,0]\nSUB~R4,R4,0\nMVN~R3,R3\nMOV~R0,R5\nAND~R4,R4,0\nADD~R4,R4,R3\nSTRB~R2,[SP,0]\nSTRB~R1,[SP,0]\nBL~FOO\nMOV~R1,R0\nMOV~R0,0\nBL~FOO\nLDRB~R3,[R5,R0]\nLDRB~R2,[SP,0]\nLDRB~R1,[SP,0]\nMVN~R3,R3\nMOV~R0,R5\nAND~R4,R4,0\nADD~R4,R4,R3\nSTRB~R2,[SP,0]\nSTRB~R1,[SP,0]\nBL~FOO\nMOV~R1,R0\nMOV~R0,0\nBL~FOO\nLDRB~R3,[R5,R0]\nLDRB~R2,[SP,0]\nLDRB~R1,[SP,0]\nMVN~R3,R3\nMOV~R0,R5\nAND~R4,R4,0\nADD~R4,R4,R3\nSTRB~R2,[SP,0]\nSTRB~R1,[SP,0]\nBL~FOO\nMOV~R1,R0\nMOV~R0,0\nBL~FOO\nLDRB~R3,[R5,R0]\nLDRB~R2,[SP,0]\nLDRB~R1,[SP,0]\nMVN~R3,R3\nMOV~R0,R5\nAND~R4,R4,0\nADD~R4,R4,R3\nSTRB~R2,[SP,0]\nSTRB~R1,[SP,0]\nBL~FOO\nMOV~R1,R0\nMOV~R0,0\nBL~FOO\nLDRB~R3,[R5,R0]\nAND~R4,R4,0\nMVN~R3,R3\nADD~R4,R4,R3\nMOV~R1,0\nAND~R0,R4,0\nBL~FOO\nMOV~R0,R0,LSLR7\nADD~R2,SP,0\nADD~R2,R2,0\nAND~R0,R0,0\nADD~R4,SP,0\nADD~R0,R0,R2\nADD~R4,R4,0\nMOV~LR,PC\nLDR~PC,[R0,-0]\nMOV~R0,R5\nMOV~R1,R4\nBL~FOO\nMOV~R1,0\nMOV~R5,R0\nMOV~R0,R10\nBL~FOO\nMOV~R0,R4\nMOV~R1,0\nBL~FOO\nTST~R5,0\nBNE~FOO\nADD~R10,SP,0\nADD~R10,R10,0\nBL~FOO\nBL~FOO\nMOV~R0,R10\nMOV~R1,0\nBL~FOO\nCMP~R8,0\nBEQ~FOO\nBL~FOO\nAND~R4,R0,0\nMOV~R4,R4,LSL0\nADD~R5,SP,0\nADD~R5,R5,0\nADD~R4,R4,0\nMOV~R1,R4\nMOV~R0,R5\nBL~FOO\nADD~R12,SP,0\nADD~R12,R12,0\nADD~R3,R12,R4\nLDR~R0,[R6]\nMOV~R6,0\nSTRB~R6,[R3,-0]\nMOV~R1,R5\nBL~FOO\nBL~FOO\nMOV~R1,0\nBL~FOO\nMOV~R4,R0,LSL0\nADD~R4,R4,0\nMOV~R0,R5\nMOV~R1,R4\nBL~FOO\nADD~R2,SP,0\nADD~R2,R2,0\nADD~R3,R2,R4\nSTRB~R6,[R3,-0]\nMOV~R1,R5\nMOV~R0,0\nBL~FOO\nMOV~R0,0\nBL~FOO\nADD~R1,SP,0\nMOV~R0,0\nBL~FOO\nLDR~R2,[SP,0]\nMOV~R1,R0\nMOV~R0,0\nBL~FOO\nMOV~R0,0\nLDR~R1,<STR>\nMOV~R2,R0\nBL~FOO\nMOV~R0,0\nBL~FOO\nBL~FOO\nCMP~R0,R6\nBLE~FOO\nMOV~R0,0\nADD~SP,SP,0\nADD~SP,SP,0\nLDMFD~SP!,{R4-R11,PC}\nLDR~R0,<STR>\nMOV~R1,0\nBL~FOO\nCMN~R0,0\nMOV~R4,R0\nBNE~FOO\nB~FOO\nMOV~R0,0\nBL~FOO\nB~FOO\nLDR~R0,[R6,0]\nBL~FOO\nCMP~R0,0\nBGT~FOO\nLDR~R1,[R6,0]\nMOV~R0,R10\nBL~FOO\nLDR~R4,[R6,0]\nMOV~R0,R4\nBL~FOO\nMOV~R1,R0\nMOV~R0,R4\nBL~FOO\nB~FOO\nBL~FOO\nSTR~R0,[SP,0]\nMOV~R0,R6\nBL~FOO\nMOV~R0,0\nBL~FOO\nMOV~R0,0\nBL~FOO\nADD~R7,SP,0\nBL~FOO\nLDR~R9,<STR>\nBL~FOO\nBL~FOO\nSTR~R6,[SP,0]\nADD~R6,SP,0\nADD~R6,R6,0\nADD~R7,R7,0\nMOV~R3,0\nMOV~R2,R3\nSTR~R2,[R3,R6]\nADD~R3,R3,0\nCMP~R3,0\nBNE~FOO\nMOV~R3,R2\nMOV~R4,R2\nSTR~R4,[R3,R7]\nADD~R3,R3,0\nCMP~R3,0\nBNE~FOO\nLDR~R3,<STR>\nLDR~R0,[R3]\nCMN~R0,0\nBEQ~FOO\nMOV~R3,R0,LSR0\nADD~R12,SP,0\nMOV~R3,R3,LSL0\nADD~R12,R12,0\nADD~R3,R3,R12\nLDR~R2,[R3,-0]\nAND~R0,R0,0\nMOV~R1,0\nORR~R2,R2,R1,LSLR0\nSTR~R2,[R3,-0]\nLDR~R3,[R9]\nCMN~R3,0\nLDR~R8,<STR>\nBEQ~FOO\nLDR~R2,<STR>\nLDRB~R3,[R2]\nCMP~R3,0\nBEQ~FOO\nLDR~R0,[R9]\nADD~R12,SP,0\nMOV~R3,R0,LSR0\nMOV~R3,R3,LSL0\nADD~R12,R12,0\nADD~R3,R3,R12\nLDR~R2,[R3,-0]\nAND~R0,R0,0\nMOV~R1,0\nORR~R2,R2,R1,LSLR0\nSTR~R2,[R3,-0]\nLDR~R3,<STR>\nLDR~R0,[R3]\nLDR~R3,[R9]\nMOV~LR,0\nCMP~R0,R3\nMOVLT~R0,R3\nMOV~R12,0\nMOV~R3,LR\nSTR~R12,[SP,0]\nADD~R0,R0,0\nADD~R12,SP,0\nMOV~R1,R6\nMOV~R2,R7\nSTR~LR,[SP,0]\nSTR~R12,[SP]\nBL~FOO\nCMN~R0,0\nMOV~R3,R0\nBEQ~FOO\nCMP~R0,0\nBNE~FOO\nLDR~R0,[SP,0]\nMOV~R1,0\nSTRB~R3,[SP,0]\nSTRB~R3,[SP,0]\nBL~FOO\nLDR~R2,[SP,0]\nCMP~R0,0\nADD~R2,R2,0\nSTR~R2,[SP,0]\nBEQ~FOO\nLDR~R3,<STR>\nLDR~R0,[R3]\nCMN~R0,0\nBEQ~FOO\nMOV~R3,R0,LSR0\nADD~R12,SP,0\nMOV~R3,R3,LSL0\nADD~R12,R12,0\nADD~R3,R3,R12\nLDR~R2,[R3,-0]\nAND~R1,R0,0\nMOV~R2,R2,LSRR1\nTST~R2,0\nBNE~FOO\nLDR~R3,<STR>\nLDRB~R4,[R3]\nCMP~R4,0\nBEQ~FOO\nLDR~R0,[R9]\nADD~R12,SP,0\nMOV~R3,R0,LSR0\nADD~R12,R12,0\nMOV~R3,R3,LSL0\nADD~R3,R3,R12\nLDR~R2,[R3,-0]\nAND~R1,R0,0\nMOV~R2,R2,LSRR1\nLDR~R3,<STR>\nMOV~R12,0\nTST~R2,0\nSTRB~R12,[R3]\nLDR~R5,<STR>\nBNE~FOO\nCMN~R0,0\nBLNE~FOO\nMOV~R3,0\nSTR~R3,[R5]\nMOV~R0,0\nBL~FOO\nB~FOO\nLDR~R0,[R9]\nADD~R2,SP,0\nMOV~R3,R0,LSR0\nADD~R2,R2,0\nMOV~R3,R3,LSL0\nADD~R3,R3,R2\nLDR~R2,[R3,-0]\nAND~R0,R0,0\nMOV~R1,0\nORR~R2,R2,R1,LSLR0\nSTR~R2,[R3,-0]\nB~FOO\nLDR~R1,[R9]\nCMN~R1,0\nLDR~R5,<STR>\nBEQ~FOO\nMOV~R3,R1,LSR0\nADD~R2,SP,0\nADD~R2,R2,0\nMOV~R3,R3,LSL0\nADD~R3,R3,R2\nLDR~R2,[R3,-0]\nAND~R1,R1,0\nMOV~R2,R2,LSRR1\nTST~R2,0\nBEQ~FOO\nBL~FOO\nSTR~R4,[R0]\nMOV~R3,0\nADD~R1,SP,0\nMOV~R8,R0\nADD~R3,R3,0\nLDR~R0,[R5]\nADD~R1,R1,0\nMOV~R2,0\nBL~FOO\nCMN~R0,0\nBEQ~FOO\nCMP~R0,0\nBEQ~FOO\nLDRB~R2,[SP,0]\nLDRB~R3,[SP,0]\nORRS~R2,R2,R3,LSL0\nBEQ~FOO\nAND~R3,R2,0\nMOV~R3,R3,LSL0\nORR~R3,R3,R2,LSR0\nMOV~R2,R3,ASR0\nCMP~R3,0\nSTRB~R2,[SP,0]\nSTRB~R3,[SP,0]\nBLS~FOO\nLDR~R0,[R5]\nBL~FOO\nMOV~R3,0\nSTR~R3,[R5]\nSTR~R4,[R8]\nLDRB~R1,[SP,0]\nLDRB~R2,[SP,0]\nADD~R4,SP,0\nSUB~R4,R4,0\nMOV~R3,0\nORR~R2,R2,R1,LSL0\nADD~R3,R3,0\nLDR~R0,[R5]\nMOV~R1,R4\nBL~FOO\nCMN~R0,0\nBEQ~FOO\nCMP~R0,0\nBNE~FOO\nLDR~R0,[R9]\nCMN~R0,0\nBLNE~FOO\nLDR~R3,<STR>\nMOV~R2,0\nSTR~R2,[R3]\nMOV~R0,0\nBL~FOO\nB~FOO\nMOV~R0,0\nMOV~R1,0\nMOV~R2,R4\nBL~FOO\nCMN~R0,0\nMOV~R5,R0\nSTR~R0,[R8]\nBEQ~FOO\nMOV~R2,R4\nMOV~R1,0\nBL~FOO\nMOV~R1,0\nORR~R2,R0,0\nMOV~R0,R5\nBL~FOO\nLDR~R3,<STR>\nLDR~R3,[R3]\nCMP~R3,0\nMOVNE~LR,PC\nMOVNE~PC,R3\nLDR~R12,<STR>\nMOV~R3,0\nLDR~R0,[R8]\nLDR~R1,<STR>\nMOV~R2,0\nSTRB~R3,[R12]\nBL~FOO\nB~FOO\nLDR~R3,<STR>\nADD~R1,SP,0\nLDR~R0,[R3]\nADD~R1,R1,0\nMOV~R2,0\nMOV~R3,0\nBL~FOO\nB~FOO\nMOV~R4,0\nSTR~R12,[SP,0]\nADD~R3,SP,0\nADD~R12,SP,0\nADD~R3,R3,0\nADD~R12,R12,0\nMOV~R1,0\nMOV~R2,R4\nSTR~R12,[SP]\nSTR~R4,[SP,0]\nBL~FOO\nLDR~R3,[SP,0]\nCMP~R3,0\nBEQ~FOO\nLDR~R0,[R5]\nBL~FOO\nMOV~R3,0\nSTR~R3,[R5]\nBL~FOO\nMOV~R1,0\nBL~FOO\nADD~R0,R0,0\nBL~FOO\nB~FOO\nADD~R2,SP,0\nADD~R1,SP,0\nMOV~R3,0\nADD~R2,R2,0\nADD~R1,R1,0\nSTR~R3,[SP,0]\nBL~FOO\nBL~FOO\nBL~FOO\nBL~FOO\nLDR~R2,[SP,0]\nMOV~R1,0\nRSB~R0,R2,0\nBL~FOO\nMOV~R0,0\nBL~FOO\nMOV~R0,R10\nBL~FOO\nSTRB~R0,[SP,0]\nBL~FOO\nMOV~R2,R4\nSTR~R0,[R11]\nLDR~R1,<STR>\nMOV~R3,0\nLDR~R0,[R5]\nBL~FOO\nADD~R1,SP,0\nMOV~R2,0\nLDR~R0,[R5]\nADD~R1,R1,0\nMOV~R3,0\nBL~FOO\nLDRB~R2,[SP,0]\nCMP~R2,0\nBEQ~FOO\nLDR~R0,[R5]\nMOV~R1,R10\nMOV~R3,0\nBL~FOO\nB~FOO\nLDR~R3,[R8]\nCMP~R3,0\nCMPNE~R3,0\nBEQ~FOO\nB~FOO\nADD~R1,SP,0\nLDR~R0,[R5]\nADD~R1,R1,0\nMOV~R2,0\nMOV~R3,0\nBL~FOO\nB~FOO\nADD~R1,SP,0\nADD~R1,R1,0\nMOV~R2,0\nMOV~R3,0\nLDR~R0,[R5]\nBL~FOO\nLDRB~R3,[SP,0]\nLDRB~R12,[SP,0]\nORR~R12,R12,R3,LSL0\nMOV~R2,R12\nMOV~LR,R12,ASR0\nMOV~R1,R4\nMOV~R3,0\nLDR~R0,[R5]\nSTRB~LR,[SP,0]\nSTRB~R12,[SP,0]\nBL~FOO\nLDRB~R2,[SP,0]\nLDRB~R3,[SP,0]\nORRS~R1,R2,R3,LSL0\nBEQ~FOO\nMOV~R0,R4\nBL~FOO\nB~FOO"'
p95
L2500L
tp96
a(S'rand_next'
p97
S'"STMFD~SP!,{R4-R6,LR}\nLDR~R5,<STR>\nLDR~R6,<STR>\nLDR~R3,[R5]\nLDR~R2,[R6]\nLDR~LR,<STR>\nLDR~R4,<STR>\nEOR~R3,R3,R3,LSL0\nEOR~R0,R2,R2,LSR0\nLDR~R1,[LR]\nLDR~R12,[R4]\nEOR~R0,R3,R0\nEOR~R0,R0,R3,LSR0\nSTR~R1,[R5]\nSTR~R12,[LR]\nSTR~R2,[R4]\nSTR~R0,[R6]\nLDMFD~SP!,{R4-R6,PC}"'
p98
L72L
tp99
a(S'rand_init'
p100
S'"STMFD~SP!,{R4,R5,LR}\nMOV~R0,0\nBL~FOO\nLDR~R3,<STR>\nSTR~R0,[R3]\nBL~FOO\nMOV~R4,R0\nBL~FOO\nLDR~R5,<STR>\nEOR~R4,R4,R0\nSTR~R4,[R5]\nBL~FOO\nLDR~R3,[R5]\nLDR~R2,<STR>\nLDR~R1,<STR>\nEOR~R3,R0,R3\nSTR~R3,[R2]\nSTR~R0,[R1]\nLDMFD~SP!,{R4,R5,PC}"'
p101
L76L
tp102
a(S'rand_alphastr'
p103
S'"STMFD~SP!,{R4-R11,LR}\nSUB~SP,SP,0\nMOV~R8,R1\nMOV~R4,R0\nLDR~R1,<STR>\nADD~R0,SP,0\nMOV~R2,0\nBL~FOO\nCMP~R8,0\nBLE~FOO\nLDR~R3,<STR>\nLDR~R12,<STR>\nLDR~R11,<STR>\nLDR~R9,[R3]\nLDR~R3,<STR>\nLDR~R10,[R12]\nLDR~R6,[R11]\nLDR~R12,[R3]\nADD~R7,R4,0\nB~FOO\nAND~R3,R5,0\nADD~R12,SP,0\nADD~R0,R12,R3,LSR0\nMOV~R2,R5,LSL0\nADD~R3,SP,0\nMOV~R1,R5,LSL0\nADD~R12,R12,R2,LSR0\nADD~LR,R3,R1,LSR0\nADD~R4,R3,R5,LSR0\nLDRB~R2,[R12,-0]\nLDRB~R3,[R0,-0]\nLDRB~R1,[LR,-0]\nLDRB~R0,[R4,-0]\nSUB~R8,R8,0\nCMP~R8,0\nSTRB~R3,[R7,-0]\nSTRB~R2,[R7]\nSTRB~R1,[R7,0]\nSTRB~R0,[R7,0]\nMOV~R12,R10\nADD~R7,R7,0\nBLE~FOO\nMOV~R10,R9\nMOV~R9,R6\nMOV~R6,R5\nEOR~R3,R12,R12,LSL0\nEOR~R2,R6,R6,LSR0\nEOR~R2,R3,R2\nEOR~R5,R2,R3,LSR0\nCMP~R8,0\nMOV~R0,R5\nMOV~R1,0\nBHI~FOO\nBL~FOO\nSUB~R8,R8,0\nCMP~R8,0\nSTRB~R0,[R7,-0]\nMOV~R12,R10\nADD~R7,R7,0\nBGT~FOO\nLDR~R12,<STR>\nLDR~R3,<STR>\nSTR~R6,[R12]\nLDR~R12,<STR>\nSTR~R5,[R11]\nSTR~R9,[R3]\nSTR~R10,[R12]\nADD~SP,SP,0\nLDMFD~SP!,{R4-R11,PC}"'
p104
L276L
tp105
a(S'rand_str'
p106
S'"STMFD~SP!,{R4-R11,LR}\nSUBS~R4,R1,0\nMOV~R5,R0\nLDMLEFD~SP!,{R4-R11,PC}\nLDR~R11,<STR>\nLDR~R9,<STR>\nLDR~R10,<STR>\nLDR~R8,<STR>\nLDR~LR,[R11]\nLDR~R7,[R9]\nLDR~R6,[R10]\nLDR~R12,[R8]\nB~FOO\nSTRB~R2,[R5,0]\nSTRB~R3,[R5]\nADD~R5,R5,0\nCMP~R4,0\nMOV~R12,R6\nBLE~FOO\nMOV~R6,R7\nMOV~R7,LR\nMOV~LR,R3\nEOR~R3,R12,R12,LSL0\nEOR~R2,LR,LR,LSR0\nEOR~R2,R3,R2\nCMP~R4,0\nEOR~R0,R12,R12,LSL0\nEOR~R1,LR,LR,LSR0\nEOR~R3,R2,R3,LSR0\nEOR~R1,R0,R1\nSTRGT~R3,[R5]\nSUBGT~R4,R4,0\nBGT~FOO\nEOR~R3,R1,R0,LSR0\nCMP~R4,0\nMOV~R2,R3,ASR0\nSUB~R4,R4,0\nBNE~FOO\nEOR~R2,R12,R12,LSL0\nEOR~R3,LR,LR,LSR0\nEOR~R3,R2,R3\nEOR~R3,R3,R2,LSR0\nSTR~R6,[R8]\nSTR~R7,[R10]\nSTR~LR,[R9]\nSTR~R3,[R11]\nSTRB~R3,[R5]\nLDMFD~SP!,{R4-R11,PC}\nSTR~R3,[R11]\nSTR~LR,[R9]\nSTR~R7,[R10]\nSTR~R6,[R8]\nLDMFD~SP!,{R4-R11,PC}"'
p107
L212L
tp108
a(S'resolv_entries_free'
p109
S'"STMFD~SP!,{R4,LR}\nSUBS~R4,R0,0\nLDMEQFD~SP!,{R4,PC}\nLDR~R0,[R4,0]\nCMP~R0,0\nBLNE~FOO\nMOV~R0,R4\nLDMFD~SP!,{R4,LR}\nB~FOO"'
p110
L36L
tp111
a(S'resolv_lookup'
p112
S'"STMFD~SP!,{R4-R11,LR}\nSUB~SP,SP,0\nSUB~SP,SP,0\nMOV~R4,R0\nMOV~R1,0\nMOV~R0,0\nBL~FOO\nSTR~R0,[SP,0]\nMOV~R0,R4\nBL~FOO\nADD~R11,SP,0\nADD~R11,R11,0\nSUB~R9,R11,0\nADD~R0,R0,0\nADD~R2,R11,0\nMOV~R5,R11\nMOV~LR,0\nB~FOO\nLDRB~R3,[R4]\nCMP~R3,0\nCMPNE~R3,0\nSTRNEB~R3,[R2]\nMOVNE~R1,R2\nSTREQB~LR,[R5]\nANDNE~LR,R12,0\nMOVEQ~R5,R2\nMOVEQ~LR,0\nADD~R4,R4,0\nSUB~R0,R0,0\nMOV~R2,R1\nCMP~R0,0\nADD~R12,LR,0\nADD~R1,R2,0\nBGT~FOO\nMOV~R4,0\nSTRB~R4,[R2]\nMOV~R0,R11\nBL~FOO\nADD~R1,SP,0\nADD~R5,R11,R0\nSTR~R4,[R1,0]\nSTR~R4,[R1,0]\nSTR~R4,[R1,0]\nSTR~R4,[R1,0]\nMOV~R0,R11\nBL~FOO\nADD~R0,R0,0\nSTR~R0,[SP,0]\nBL~FOO\nMOV~R1,0\nBL~FOO\nMOV~R1,0\nMOV~R3,R0,LSL0\nMOV~R3,R3,LSRR1\nADD~R0,SP,0\nADD~R0,R0,0\nSTR~R3,[SP,0]\nBL~FOO\nLDR~R2,[SP,0]\nMOV~R1,0\nMOV~LR,R2,ASR0\nMOV~R3,0\nADD~R2,SP,0\nADD~R1,R1,0\nSTRB~R3,[R2,0]\nORR~R1,R1,R1,LSL0\nADD~R3,SP,0\nMOV~R2,0\nSTRB~R2,[R3,0]\nSTRB~R4,[R3,0]\nSTRB~R4,[R3,0]\nMOV~R0,0\nSTRB~LR,[R9,0]\nSTR~R1,[R3,0]\nLDR~LR,[SP,0]\nADD~R1,SP,0\nADD~R12,R5,R0\nSUB~R1,R1,0\nSTRB~LR,[R9]\nSTRB~R0,[R9,0]\nSTRB~R4,[R9,0]\nSTRB~R4,[R9,0]\nSTRB~R0,[R9,0]\nADD~R6,SP,0\nSTRB~R4,[R5,0]\nSTRB~R4,[R12,0]\nSTRB~R0,[R12,0]\nSTRB~R0,[R12,0]\nSTR~R1,[SP,0]\nMOV~R10,R0\nMOV~R7,0\nADD~R6,R6,0\nCMN~R7,0\nMOVNE~R0,R7\nBLNE~FOO\nMOV~R0,0\nMOV~R1,R0\nMOV~R2,0\nBL~FOO\nCMN~R0,0\nMOV~R7,R0\nBEQ~FOO\nADD~R1,SP,0\nADD~R1,R1,0\nMOV~R2,0\nBL~FOO\nCMN~R0,0\nBEQ~FOO\nMOV~R0,R7\nMOV~R1,R9\nLDR~R2,[SP,0]\nMOV~R3,0\nBL~FOO\nCMN~R0,0\nBEQ~FOO\nMOV~R1,R7\nMOV~R2,0\nMOV~R0,0\nBL~FOO\nMOV~R4,0\nORR~R2,R0,0\nMOV~R1,R7\nMOV~R0,0\nBL~FOO\nMOV~R3,R4\nSTR~R4,[R3,R6]\nADD~R3,R3,0\nCMP~R3,0\nBNE~FOO\nMOV~R3,R7,LSR0\nADD~R2,SP,0\nMOV~R3,R3,LSL0\nADD~R2,R2,0\nADD~R5,R3,R2\nLDR~LR,[R5,-0]\nMOV~R3,0\nAND~R8,R7,0\nORR~LR,LR,R3,LSLR8\nMOV~R12,0\nSTR~LR,[R5,-0]\nADD~LR,SP,0\nSTR~R12,[LR,0]\nADD~LR,SP,0\nADD~LR,LR,0\nADD~R12,SP,0\nADD~R0,R7,R3\nSTR~LR,[SP]\nMOV~R1,R6\nMOV~R2,R4\nMOV~R3,R4\nSTR~R4,[R12,0]\nBL~FOO\nCMN~R0,0\nBEQ~FOO\nCMP~R0,0\nBEQ~FOO\nLDR~R3,[R5,-0]\nMOV~R3,R3,ASRR8\nTST~R3,0\nBEQ~FOO\nLDR~R1,[SP,0]\nMOV~R2,0\nMOV~R3,0\nMOV~R0,R7\nSTR~R4,[SP,0]\nSTR~R4,[SP]\nBL~FOO\nMOV~R4,R0\nMOV~R0,R11\nBL~FOO\nADD~R0,R0,0\nCMP~R4,R0\nMOV~R4,0\nBCS~FOO\nCMP~R10,0\nBEQ~FOO\nADD~R10,R10,0\nB~FOO\nADD~R0,R0,0\nBL~FOO\nCMP~R10,0\nBNE~FOO\nMOV~R0,R7\nBL~FOO\nLDR~R2,[SP,0]\nLDRB~R4,[R2]\nCMP~R4,0\nBEQ~FOO\nLDR~R0,[SP,0]\nADD~SP,SP,0\nADD~SP,SP,0\nLDMFD~SP!,{R4-R11,PC}\nMOV~R0,0\nBL~FOO\nB~FOO\nLDR~LR,[SP,0]\nADD~R11,LR,0\nMOV~R0,R11\nBL~FOO\nADD~R1,SP,0\nLDR~R12,[SP,0]\nADD~R1,R1,0\nLDRB~R3,[R1,R4]\nLDRB~R2,[R12,0]\nLDR~LR,[SP,0]\nORR~R3,R3,R2,LSL0\nADD~R0,R11,R0\nCMP~R3,LR\nADD~R0,R0,0\nBNE~FOO\nLDRB~R2,[R12,0]\nLDRB~R3,[R12,0]\nORRS~R2,R2,R3,LSL0\nBEQ~FOO\nAND~R3,R2,0\nMOV~R3,R3,LSL0\nORR~R6,R3,R2,LSR0\nSUB~R3,R6,0\nMOV~R3,R3,LSL0\nCMN~R3,0\nMOV~R6,R3,LSR0\nBEQ~FOO\nMOV~R3,R0\nMOV~LR,0\nMOV~R12,0\nLDRB~R2,[R3]\nCMP~R2,0\nMOV~R1,R2,LSL0\nBEQ~FOO\nCMP~R2,0\nBLS~FOO\nLDRB~R3,[R3,0]\nADD~R3,R1,R3\nLDR~R1,[SP,0]\nSUB~R3,R3,0\nADD~R3,R1,R3\nLDRB~R2,[R3]\nCMP~R2,0\nMOV~LR,0\nMOV~R1,R2,LSL0\nBNE~FOO\nCMP~LR,0\nADDEQ~R12,R12,0\nADD~R4,R0,R12\nLDRB~R3,[R0,R12]\nLDRB~R2,[R4,0]\nORR~R3,R3,R2,LSL0\nCMP~R3,0\nADD~R5,R4,0\nBEQ~FOO\nMOV~R3,R5\nMOV~R12,0\nMOV~R0,0\nLDRB~R2,[R3]\nCMP~R2,0\nMOV~R1,R2,LSL0\nBEQ~FOO\nCMP~R2,0\nBLS~FOO\nLDRB~R3,[R3,0]\nADD~R3,R1,R3\nLDR~R1,[SP,0]\nSUB~R3,R3,0\nADD~R3,R1,R3\nLDRB~R2,[R3]\nCMP~R2,0\nMOV~R12,0\nMOV~R1,R2,LSL0\nBNE~FOO\nCMP~R12,0\nADDEQ~R0,R0,0\nADD~R0,R5,R0\nB~FOO\nLDR~R0,[R2,0]\nCMP~R0,0\nBLNE~FOO\nLDR~R0,[SP,0]\nBL~FOO\nSTR~R4,[SP,0]\nB~FOO\nCMP~LR,0\nADD~R3,R3,0\nADDEQ~R12,R12,0\nB~FOO\nCMP~R12,0\nADD~R3,R3,0\nADDEQ~R0,R0,0\nB~FOO\nLDRB~R3,[R4,0]\nLDRB~R2,[R4,0]\nORR~R3,R3,R2,LSL0\nCMP~R3,0\nBNE~FOO\nLDRB~R1,[R4,0]\nLDRB~R0,[R4,0]\nORR~R2,R1,R0,LSL0\nMOV~R2,R2,LSL0\nMOV~R3,R2,LSR0\nAND~R3,R3,0\nORR~R3,R3,R2,LSR0\nCMP~R3,0\nBNE~FOO\nLDRB~R3,[R4,0]\nADD~R2,SP,0\nSTRB~R3,[R2,0]\nLDRB~R2,[R5,0]\nADD~R3,SP,0\nSTRB~R2,[R3,0]\nLDRB~R3,[R5,0]\nADD~R12,SP,0\nSTRB~R3,[R12,0]\nLDRB~R2,[R5,0]\nSTRB~R2,[R12,0]\nLDR~LR,[SP,0]\nLDRB~R1,[LR]\nMOV~R1,R1,LSL0\nADD~R1,R1,0\nLDR~R0,[LR,0]\nBL~FOO\nLDR~R1,[SP,0]\nADD~R12,SP,0\nLDRB~R2,[R1]\nLDR~R3,[R12,0]\nLDR~LR,[SP,0]\nADD~R1,R2,0\nSTR~R3,[R0,R2,LSL0]\nSTR~R0,[LR,0]\nSTRB~R1,[LR]\nLDRB~R0,[R4,0]\nLDRB~R1,[R4,0]\nORR~R2,R1,R0,LSL0\nMOV~R2,R2,LSL0\nMOV~R3,R2,LSR0\nAND~R3,R3,0\nORR~R3,R3,R2,LSR0\nADD~R0,R5,R3\nB~FOO"'
p113
L1356L
tp114
a(S'scanner_kill'
p115
S'"LDR~R3,<STR>\nLDR~R0,[R3]\nMOV~R1,0\nB~FOO"'
p116
L16L
tp117
a(S'setup_connection'
p118
S'"STMFD~SP!,{R4-R6,LR}\nMOV~R5,R0\nLDR~R0,[R0,0]\nSUB~SP,SP,0\nMOV~R6,0\nCMN~R0,0\nSTR~R6,[SP]\nSTR~R6,[SP,0]\nSTR~R6,[SP,0]\nSTR~R6,[SP,0]\nBLNE~FOO\nMOV~R1,0\nMOV~R2,R6\nMOV~R0,0\nBL~FOO\nMOV~R3,R0\nCMN~R3,0\nMOV~R1,0\nADD~R0,R5,0\nSTR~R3,[R5,0]\nBEQ~FOO\nSTR~R6,[R5,0]\nBL~FOO\nLDR~R4,[R5,0]\nMOV~R1,0\nMOV~R2,R6\nMOV~R0,R4\nBL~FOO\nMOV~R1,0\nORR~R2,R0,0\nMOV~R0,R4\nBL~FOO\nLDR~R3,<STR>\nLDR~R4,[R5,0]\nLDR~R2,[R3]\nLDR~LR,[R5,0]\nMOV~R3,0\nSTR~R2,[R5,0]\nSTR~R3,[R5,0]\nMOV~R12,R4,ASR0\nLDR~R0,[R5,0]\nADD~R3,R3,R3\nMOV~R1,SP\nMOV~R2,0\nSTRB~R3,[SP]\nSTRB~R6,[SP,0]\nSTR~LR,[SP,0]\nSTRB~R12,[SP,0]\nSTRB~R4,[SP,0]\nBL~FOO\nADD~SP,SP,0\nLDMFD~SP!,{R4-R6,PC}"'
p119
L208L
tp120
a(S'add_auth_entry'
p121
S'"STMFD~SP!,{R4-R11,LR}\nLDR~R8,<STR>\nLDR~R3,[R8]\nLDR~R9,<STR>\nSUB~SP,SP,0\nMOV~R3,R3,LSL0\nMOV~R2,R2,LSL0\nMOV~R2,R2,LSR0\nMOV~R5,R0\nSTR~R1,[SP,0]\nLDR~R0,[R9]\nADD~R1,R3,0\nSTR~R2,[SP]\nBL~FOO\nMOV~R10,R0\nMOV~R0,R5\nSTR~R10,[R9]\nLDR~R11,[R8]\nBL~FOO\nADD~R4,R0,0\nMOV~R7,R0\nMOV~R0,R4\nBL~FOO\nMOV~R1,R5\nMOV~R2,R4\nMOV~R6,R0\nBL~FOO\nCMP~R7,0\nBLE~FOO\nMOV~R2,0\nLDRB~R3,[R2,R6]\nEOR~R3,R3,0\nSTRB~R3,[R2,R6]\nADD~R2,R2,0\nCMP~R7,R2\nBNE~FOO\nLDR~R3,[R8]\nLDR~R2,[R9]\nMOV~R3,R3,LSL0\nADD~R3,R3,R2\nSTRB~R7,[R3,0]\nSTR~R6,[R10,R11,LSL0]\nLDR~R0,[SP,0]\nLDR~R7,[R8]\nLDR~R10,[R9]\nBL~FOO\nADD~R4,R0,0\nMOV~R5,R0\nMOV~R0,R4\nBL~FOO\nLDR~R1,[SP,0]\nMOV~R2,R4\nMOV~R6,R0\nBL~FOO\nCMP~R5,0\nBLE~FOO\nMOV~R2,0\nLDRB~R3,[R2,R6]\nEOR~R3,R3,0\nSTRB~R3,[R2,R6]\nADD~R2,R2,0\nCMP~R5,R2\nBNE~FOO\nLDR~R3,[R8]\nLDR~R2,[R9]\nMOV~R3,R3,LSL0\nADD~R3,R3,R2\nSTRB~R5,[R3,0]\nLDR~R0,<STR>\nLDR~LR,[R8]\nLDRB~R3,[R0,0]\nLDRB~R2,[R0]\nLDR~R12,[R9]\nORR~R2,R2,R3,LSL0\nMOV~R1,LR,LSL0\nADD~R1,R1,R12\nMOV~R3,R2,ASR0\nSTRB~R3,[R1,0]\nSTRB~R2,[R1,0]\nLDRB~R2,[R0,0]\nLDRB~R3,[R0]\nORR~R3,R3,R2,LSL0\nLDR~R2,[SP]\nADD~R3,R2,R3\nMOV~R2,R3,ASR0\nSTRB~R2,[R1,0]\nSTRB~R3,[R1,0]\nLDRB~R3,[R0,0]\nLDRB~R2,[R0]\nORR~R2,R2,R3,LSL0\nLDR~R3,[SP]\nADD~R2,R3,R2\nMOV~R3,R7,LSL0\nADD~R3,R3,R10\nADD~LR,LR,0\nMOV~R1,R2,ASR0\nSTR~R6,[R3,0]\nSTR~LR,[R8]\nSTRB~R1,[R0,0]\nSTRB~R2,[R0]\nADD~SP,SP,0\nLDMFD~SP!,{R4-R11,PC}"'
p122
L408L
tp123
a(S'scanner_init'
p124
S'"STMFD~SP!,{R4-R11,LR}\nSUB~SP,SP,0\nBL~FOO\nCMN~R0,0\nMOVNE~R3,0\nMOVEQ~R3,0\nCMP~R0,0\nMOVLE~R4,R3\nORRGT~R4,R3,0\nLDR~R3,<STR>\nCMP~R4,0\nSTR~R0,[R3]\nBEQ~FOO\nADD~SP,SP,0\nLDMFD~SP!,{R4-R11,PC}\nBL~FOO\nLDR~R1,<STR>\nSTR~R0,[R1]\nBL~FOO\nMOV~R0,R4\nBL~FOO\nLDR~R2,<STR>\nMOV~R1,0\nSTR~R0,[R2]\nMOV~R0,0\nBL~FOO\nLDR~R12,<STR>\nMOV~LR,R0\nSTR~R4,[SP,0]\nSTR~R0,[R12]\nMOV~R3,R4\nMOV~R5,R4\nMOV~R0,0\nMOV~R12,R4\nADD~R1,LR,0\nMOV~R2,R3,LSL0\nMOV~R3,R3,LSL0\nADD~R12,R12,0\nADD~R3,R3,R2\nADD~R3,R3,LR\nCMP~R12,0\nSTR~R5,[R3,0]\nSTR~R0,[R1]\nMOV~R3,R12\nBLE~FOO\nMOV~R0,0\nMOV~R1,0\nMOV~R2,0\nSTR~R12,[SP,0]\nBL~FOO\nLDR~LR,<STR>\nCMN~R0,0\nMOV~R4,R0\nSTR~R0,[LR]\nBEQ~FOO\nMOV~R1,0\nMOV~R2,R5\nBL~FOO\nMOV~R1,0\nORR~R2,R0,0\nMOV~R0,R4\nBL~FOO\nLDR~R1,<STR>\nMOV~R12,0\nLDR~R0,[R1]\nMOV~R2,0\nMOV~R1,R5\nADD~R3,SP,0\nMOV~R4,0\nSTR~R12,[SP,0]\nSTR~R4,[SP]\nBL~FOO\nCMP~R0,0\nBNE~FOO\nBL~FOO\nMOV~R0,R0,LSL0\nMOV~R3,R0,LSR0\nSTR~R3,[SP,0]\nAND~R3,R3,0\nMOV~R3,R3,LSL0\nORR~R3,R3,R0,LSR0\nCMP~R3,0\nBCC~FOO\nLDR~R12,<STR>\nLDRB~R3,[R12]\nBIC~R3,R3,0\nORR~R3,R3,0\nSTRB~R3,[R12]\nLDRB~R2,[R12]\nBIC~R2,R2,0\nORR~R2,R2,0\nMOV~R3,0\nMOV~R5,0\nSTRB~R2,[R12]\nSTRB~R3,[R12,0]\nSTRB~R5,[R12,0]\nBL~FOO\nLDR~LR,<STR>\nLDR~R3,[SP,0]\nLDRB~R1,[LR,0]\nLDR~LR,<STR>\nMOV~R12,R3,ASR0\nMOV~R3,0\nSTRB~R3,[LR,0]\nMOV~R2,R0,ASR0\nLDR~R3,<STR>\nBIC~R1,R1,0\nSTRB~R2,[LR,0]\nORR~R1,R1,0\nMOV~R2,0\nMOV~R6,0\nSTRB~R1,[R3,0]\nSTRB~R12,[R3,0]\nSTRB~R2,[R3,0]\nSTRB~R6,[LR,0]\nLDR~R12,[SP,0]\nSTRB~R0,[LR,0]\nSTRB~R12,[LR,0]\nSTRB~R5,[R3,0]\nBL~FOO\nLDR~LR,<STR>\nLDRB~R3,[LR,0]\nMOV~R12,R0,ASR0\nORR~R3,R3,0\nMOV~R4,R0\nSTRB~R12,[LR,0]\nSTRB~R3,[LR,0]\nSTRB~R4,[LR,0]\nLDR~R0,<STR>\nLDR~R1,<STR>\nMOV~R2,0\nBL~FOO\nLDR~R0,<STR>\nLDR~R1,<STR>\nMOV~R2,0\nBL~FOO\nLDR~R0,<STR>\nLDR~R1,<STR>\nMOV~R2,0\nBL~FOO\nLDR~R0,<STR>\nMOV~R2,0\nMOV~R1,R0\nBL~FOO\nMOV~R2,R6\nLDR~R0,<STR>\nLDR~R1,<STR>\nBL~FOO\nLDR~R0,<STR>\nLDR~R1,<STR>\nMOV~R2,0\nBL~FOO\nLDR~R0,<STR>\nLDR~R1,<STR>\nMOV~R2,0\nBL~FOO\nLDR~R0,<STR>\nLDR~R1,<STR>\nMOV~R2,0\nBL~FOO\nLDR~R0,<STR>\nLDR~R1,<STR>\nMOV~R2,0\nBL~FOO\nLDR~R0,<STR>\nLDR~R1,<STR>\nMOV~R2,0\nBL~FOO\nLDR~R0,<STR>\nMOV~R2,0\nMOV~R1,R0\nBL~FOO\nLDR~R0,<STR>\nLDR~R1,<STR>\nMOV~R2,0\nBL~FOO\nLDR~R0,<STR>\nLDR~R1,<STR>\nMOV~R2,0\nBL~FOO\nLDR~R0,<STR>\nMOV~R2,0\nMOV~R1,R0\nBL~FOO\nLDR~R0,<STR>\nLDR~R1,<STR>\nMOV~R2,0\nBL~FOO\nLDR~R0,<STR>\nMOV~R2,0\nMOV~R1,R0\nBL~FOO\nLDR~R0,<STR>\nLDR~R1,<STR>\nMOV~R2,0\nBL~FOO\nLDR~R0,<STR>\nLDR~R1,<STR>\nMOV~R2,0\nBL~FOO\nLDR~R0,<STR>\nLDR~R1,<STR>\nMOV~R2,0\nBL~FOO\nLDR~R0,<STR>\nLDR~R1,<STR>\nMOV~R2,0\nBL~FOO\nLDR~R0,<STR>\nLDR~R1,<STR>\nMOV~R2,0\nBL~FOO\nLDR~R0,<STR>\nLDR~R1,<STR>\nMOV~R2,0\nBL~FOO\nLDR~R0,<STR>\nLDR~R1,<STR>\nMOV~R2,0\nBL~FOO\nLDR~R0,<STR>\nLDR~R1,<STR>\nMOV~R2,0\nBL~FOO\nLDR~R0,<STR>\nLDR~R1,<STR>\nMOV~R2,0\nBL~FOO\nLDR~R0,<STR>\nLDR~R1,<STR>\nMOV~R2,0\nBL~FOO\nLDR~R0,<STR>\nLDR~R1,<STR>\nMOV~R2,0\nBL~FOO\nLDR~R0,<STR>\nMOV~R2,0\nMOV~R1,R0\nBL~FOO\nLDR~R0,<STR>\nMOV~R2,0\nMOV~R1,R0\nBL~FOO\nLDR~R0,<STR>\nMOV~R2,0\nMOV~R1,R0\nBL~FOO\nLDR~R0,<STR>\nLDR~R1,<STR>\nMOV~R2,0\nBL~FOO\nLDR~R0,<STR>\nLDR~R1,<STR>\nMOV~R2,0\nBL~FOO\nLDR~R0,<STR>\nLDR~R1,<STR>\nMOV~R2,0\nBL~FOO\nLDR~R0,<STR>\nLDR~R1,<STR>\nMOV~R2,0\nBL~FOO\nLDR~R0,<STR>\nMOV~R2,0\nMOV~R1,R0\nBL~FOO\nLDR~R0,<STR>\nMOV~R2,0\nMOV~R1,R0\nBL~FOO\nLDR~R0,<STR>\nMOV~R2,0\nMOV~R1,R0\nBL~FOO\nLDR~R0,<STR>\nLDR~R1,<STR>\nMOV~R2,0\nBL~FOO\nLDR~R0,<STR>\nLDR~R1,<STR>\nMOV~R2,0\nBL~FOO\nLDR~R0,<STR>\nLDR~R1,<STR>\nMOV~R2,0\nBL~FOO\nLDR~R0,<STR>\nLDR~R1,<STR>\nMOV~R2,0\nBL~FOO\nLDR~R0,<STR>\nLDR~R1,<STR>\nMOV~R2,0\nBL~FOO\nLDR~R0,<STR>\nLDR~R1,<STR>\nMOV~R2,0\nBL~FOO\nLDR~R0,<STR>\nLDR~R1,<STR>\nMOV~R2,0\nBL~FOO\nLDR~R0,<STR>\nLDR~R1,<STR>\nMOV~R2,0\nBL~FOO\nLDR~R0,<STR>\nLDR~R1,<STR>\nMOV~R2,0\nBL~FOO\nLDR~R0,<STR>\nLDR~R1,<STR>\nMOV~R2,0\nBL~FOO\nLDR~R0,<STR>\nLDR~R1,<STR>\nMOV~R2,0\nBL~FOO\nLDR~R0,<STR>\nLDR~R1,<STR>\nMOV~R2,0\nBL~FOO\nLDR~R0,<STR>\nLDR~R1,<STR>\nMOV~R2,0\nBL~FOO\nLDR~R0,<STR>\nLDR~R1,<STR>\nMOV~R2,0\nBL~FOO\nLDR~R0,<STR>\nLDR~R1,<STR>\nMOV~R2,0\nBL~FOO\nLDR~R0,<STR>\nLDR~R1,<STR>\nMOV~R2,0\nBL~FOO\nLDR~R0,<STR>\nLDR~R1,<STR>\nMOV~R2,0\nBL~FOO\nLDR~R0,<STR>\nLDR~R1,<STR>\nMOV~R2,0\nBL~FOO\nLDR~R0,<STR>\nLDR~R1,<STR>\nMOV~R2,0\nBL~FOO\nLDR~R0,<STR>\nLDR~R1,<STR>\nMOV~R2,0\nBL~FOO\nLDR~R0,<STR>\nLDR~R1,<STR>\nMOV~R2,0\nBL~FOO\nLDR~R0,<STR>\nLDR~R1,<STR>\nMOV~R2,0\nBL~FOO\nLDR~R0,<STR>\nLDR~R1,<STR>\nMOV~R2,0\nBL~FOO\nLDR~R0,<STR>\nMOV~R2,0\nMOV~R1,R0\nBL~FOO\nLDR~R0,<STR>\nLDR~R1,<STR>\nMOV~R2,0\nBL~FOO\nADD~R0,SP,0\nSUB~R0,R0,0\nADD~R1,R0,0\nSTR~R0,[SP,0]\nSTR~R1,[SP,0]\nLDR~R2,<STR>\nLDR~R3,[SP,0]\nLDR~R8,[R2]\nCMP~R3,R8\nBEQ~FOO\nMOV~R12,0\nSTR~R12,[SP,0]\nMOV~R10,R12\nSTR~R10,[SP,0]\nSTR~R10,[SP,0]\nSTR~R10,[SP,0]\nSTR~R10,[SP,0]\nBL~FOO\nLDR~LR,<STR>\nLDR~R1,<STR>\nLDR~R2,[LR]\nMOV~R3,R0,ASR0\nSTRB~R3,[R1,0]\nSTR~R2,[R1,0]\nSTRB~R0,[R1,0]\nBL~FOO\nAND~R1,R0,0\nMOV~R3,R0,LSR0\nMOV~R2,R0,LSR0\nCMP~R1,0\nCMPNE~R1,0\nAND~R12,R3,0\nAND~R2,R2,0\nMOV~R0,R0,LSR0\nBEQ~FOO\nCMP~R1,0\nBEQ~FOO\nSUB~R3,R1,0\nCMP~R1,0\nCMPNE~R3,0\nBLS~FOO\nCMP~R1,0\nBEQ~FOO\nCMP~R1,0\nCMPEQ~R12,0\nBEQ~FOO\nCMP~R1,0\nMOVNE~R3,0\nMOVEQ~R3,0\nCMP~R12,0\nMOVLS~R3,0\nCMP~R3,0\nBEQ~FOO\nCMP~R12,0\nBLS~FOO\nCMP~R1,0\nMOVNE~R3,0\nMOVEQ~R3,0\nCMP~R12,0\nMOVLS~R3,0\nCMP~R3,0\nBEQ~FOO\nCMP~R12,0\nBLS~FOO\nCMP~R1,0\nCMPEQ~R12,0\nBEQ~FOO\nCMP~R1,0\nMOVNE~R3,0\nMOVEQ~R3,0\nCMP~R12,0\nMOVLS~R3,0\nCMP~R3,0\nBEQ~FOO\nCMP~R12,0\nBLS~FOO\nCMP~R1,0\nBHI~FOO\nSUB~R3,R1,0\nCMP~R1,0\nCMPNE~R3,0\nBLS~FOO\nCMP~R1,0\nCMPNE~R1,0\nBEQ~FOO\nCMP~R1,0\nCMPNE~R1,0\nBEQ~FOO\nCMP~R1,0\nCMPNE~R1,0\nBEQ~FOO\nCMP~R1,0\nCMPNE~R1,0\nBEQ~FOO\nCMP~R1,0\nCMPNE~R1,0\nMOVNE~R4,0\nMOVEQ~R4,0\nBEQ~FOO\nMOV~R3,R12,LSL0\nORR~R3,R3,R1,LSL0\nORR~R3,R3,R0\nORR~R3,R3,R2,LSL0\nAND~R2,R3,0\nAND~R0,R3,0\nMOV~R1,R3,LSL0\nMOV~R2,R2,LSR0\nORR~R1,R1,R0,LSL0\nORR~R2,R2,R3,LSR0\nLDR~R0,<STR>\nORR~R2,R2,R1\nSTR~R2,[R0,0]\nMOV~R1,0\nSTRB~R4,[R0,0]\nSTRB~R4,[R0,0]\nBL~FOO\nLDR~R12,<STR>\nMOV~R3,R0\nMOV~R2,R0,ASR0\nSTRB~R3,[R12,0]\nSTRB~R2,[R12,0]\nLDR~R0,[SP,0]\nMOV~R1,0\nBL~FOO\nCMP~R0,0\nLDRNE~R0,<STR>\nMOVNE~R3,0\nLDREQ~LR,<STR>\nSTRNEB~R4,[R0,0]\nSTRNEB~R3,[R0,0]\nLDR~R0,<STR>\nMOVEQ~R3,0\nMOVEQ~R2,0\nSTREQB~R3,[LR,0]\nSTREQB~R2,[LR,0]\nLDR~R12,[R0,0]\nLDR~LR,<STR>\nADD~R1,R0,0\nSTR~R12,[LR,0]\nMOV~R2,0\nMOV~R3,0\nSTRB~R10,[LR,0]\nSTRB~R10,[LR,0]\nBL~FOO\nLDR~R12,<STR>\nMOV~R7,R0\nLDR~R0,<STR>\nMOV~R5,R7,ASR0\nLDR~LR,[R0]\nLDR~R2,<STR>\nSTRB~R5,[R12,0]\nLDR~R1,<STR>\nMOV~R12,0\nSTRB~R12,[SP,0]\nADD~R12,R12,0\nLDR~R4,[R2,0]\nLDR~R0,[R1]\nMOV~LR,LR,LSR0\nSTR~R12,[SP,0]\nLDR~R12,<STR>\nMOV~R6,LR,ASR0\nSTRB~R6,[SP,0]\nSTRB~R7,[R12,0]\nSTRB~LR,[SP,0]\nADD~LR,SP,0\nMOV~R1,R2\nMOV~R3,0\nADD~LR,LR,0\nMOV~R2,0\nSTR~R4,[SP,0]\nSTRB~R10,[SP,0]\nSTR~LR,[SP]\nBL~FOO\nLDR~R3,[SP,0]\nADD~R3,R3,0\nCMP~R3,0\nSTR~R3,[SP,0]\nBLE~FOO\nSTR~R8,[SP,0]\nBL~FOO\nSTR~R0,[SP,0]\nMOV~R4,0\nLDR~R0,[SP,0]\nMOV~R1,0\nSTR~R1,[R0]\nLDR~R2,<STR>\nLDR~R0,[R2]\nMOV~R2,0\nMOV~R12,0\nADD~R2,R2,0\nLDR~R1,[SP,0]\nMOV~R3,0\nSTR~R12,[SP]\nSTR~R12,[SP,0]\nBL~FOO\nCMP~R0,0\nBLE~FOO\nLDR~LR,[SP,0]\nLDR~R3,[LR]\nCMP~R3,0\nBEQ~FOO\nCMP~R0,0\nBLS~FOO\nLDR~R0,[SP,0]\nLDR~R1,<STR>\nLDR~R2,[R0,0]\nLDR~R3,[R1]\nCMP~R2,R3\nBNE~FOO\nLDRB~R3,[R0,0]\nCMP~R3,0\nBNE~FOO\nLDR~R3,[SP,0]\nLDRB~R2,[R3]\nLDRB~R3,[R3,0]\nORR~R2,R2,R3,LSL0\nCMP~R2,0\nBEQ~FOO\nMOV~R3,0\nCMP~R2,R3\nBNE~FOO\nLDR~R12,[SP,0]\nLDRB~R3,[R12,0]\nLDRB~R2,[R12,0]\nLDR~LR,[SP,0]\nORR~R3,R3,R2,LSL0\nCMP~R3,LR\nBNE~FOO\nLDRB~R3,[R12,0]\nTST~R3,0\nBEQ~FOO\nTST~R3,0\nBEQ~FOO\nTST~R3,0\nBNE~FOO\nTST~R3,0\nBNE~FOO\nLDR~R0,[R12,0]\nAND~R3,R0,0\nAND~R1,R0,0\nMOV~R2,R0,LSL0\nMOV~R3,R3,LSR0\nORR~R2,R2,R1,LSL0\nORR~R3,R3,R0,LSR0\nORR~R3,R3,R2\nSUB~R3,R3,0\nAND~R1,R3,0\nMOV~R1,R1,LSR0\nAND~R2,R3,0\nMOV~R0,R3,LSL0\nORR~R1,R1,R3,LSR0\nLDR~R3,[SP,0]\nORR~R0,R0,R2,LSL0\nLDR~R2,[R3,0]\nORR~R12,R1,R0\nCMP~R12,R2\nBNE~FOO\nCMP~R4,0\nBGT~FOO\nLDR~LR,<STR>\nMOV~R2,R4,LSL0\nLDR~R1,[LR]\nMOV~R3,R4,LSL0\nADD~R3,R3,R2\nADD~R0,R3,R1\nLDR~R2,[R0,0]\nCMP~R2,0\nADDNE~R3,R0,0\nBEQ~FOO\nADD~R4,R4,0\nCMP~R4,0\nBEQ~FOO\nMOV~R0,R3\nLDR~R3,[R3,0]\nCMP~R3,0\nADD~R3,R0,0\nBNE~FOO\nSTR~R12,[R0,0]\nLDR~R1,[SP,0]\nLDR~R2,[R1]\nMOV~R3,R2,ASR0\nSTRB~R3,[R0,0]\nSTRB~R2,[R0,0]\nBL~FOO\nB~FOO\nLDR~R2,<STR>\nLDR~R0,[R2]\nBL~FOO\nMOV~R0,R5\nBL~FOO\nMOV~R3,0\nMOV~R2,R3\nADD~R12,R3,0\nADD~R3,R3,0\nADD~R12,R12,0\nCMP~R3,0\nSTR~R2,[R12,SP]\nBNE~FOO\nMOV~R3,R2\nADD~LR,R3,0\nADD~R3,R3,0\nADD~LR,LR,0\nCMP~R3,0\nSTR~R2,[LR,SP]\nBNE~FOO\nMOV~R6,R2\nMOV~R5,R2\nMOV~R7,R6\nSTR~R2,[SP,0]\nB~FOO\nLDR~R2,<STR>\nLDR~R3,[R2]\nLDR~R2,[R4,0]\nRSB~R3,R2,R3\nCMP~R3,R1\nBHI~FOO\nCMP~R12,0\nBEQ~FOO\nLDR~R12,[R4,0]\nMOV~R3,R12,LSR0\nADD~R0,SP,0\nMOV~R3,R3,LSL0\nADD~R3,R3,R0\nLDR~R2,[R3,-0]\nAND~R0,R12,0\nMOV~R1,0\nORR~R2,R2,R1,LSLR0\nSTR~R2,[R3,-0]\nCMP~R6,R12\nMOVLT~R6,R12\nLDR~R3,[SP,0]\nADD~R2,R3,0\nCMP~R2,0\nSTR~R2,[SP,0]\nBGT~FOO\nLDR~R0,<STR>\nMOV~R3,R2,LSL0\nLDR~R1,[R0]\nMOV~R2,R2,LSL0\nADD~R2,R2,R3\nADD~R4,R2,R1\nLDR~R12,[R4,0]\nCMP~R12,0\nMOVHI~R1,0\nBHI~FOO\nCMP~R12,0\nBEQ~FOO\nMOV~R1,0\nB~FOO\nLDR~R0,[R4,0]\nMOV~R3,R0,LSR0\nMOV~R3,R3,LSL0\nADD~LR,SP,0\nADD~R3,R3,LR\nLDR~R2,[R3,-0]\nAND~R1,R0,0\nORR~R2,R2,R12,LSLR1\nCMP~R5,R0\nMOVLT~R5,R0\nSTR~R2,[R3,-0]\nB~FOO\nLDR~R0,[R4,0]\nBL~FOO\nLDR~R3,[R4,0]\nMOV~R2,0\nCMP~R3,0\nSTR~R2,[R4,0]\nBLS~FOO\nLDRB~R3,[R4,0]\nADD~R3,R3,0\nAND~R3,R3,0\nCMP~R3,0\nSTRB~R3,[R4,0]\nBEQ~FOO\nMOV~R0,R4\nBL~FOO\nB~FOO\nMOV~R12,0\nSTR~R12,[SP,0]\nCMP~R6,R5\nMOVGE~R0,R6\nMOVLT~R0,R5\nADD~R1,SP,0\nADD~R2,SP,0\nADD~R12,SP,0\nADD~R2,R2,0\nMOV~R3,0\nADD~R12,R12,0\nADD~R1,R1,0\nADD~R0,R0,0\nSTR~R3,[SP,0]\nSTR~R12,[SP]\nBL~FOO\nMOV~R0,0\nBL~FOO\nLDR~LR,<STR>\nSTR~R0,[LR]\nMOV~R0,0\nMOV~R2,R0\nSTR~R0,[SP,0]\nB~FOO\nMOV~R3,R4,LSR0\nMOV~R3,R3,LSL0\nADD~LR,SP,0\nADD~R3,R3,LR\nLDR~R2,[R3,-0]\nAND~R1,R4,0\nMOV~R2,R2,LSRR1\nTST~R2,0\nBNE~FOO\nLDR~R3,[SP,0]\nADD~R2,R3,0\nCMP~R2,0\nSTR~R2,[SP,0]\nBGT~FOO\nLDR~R12,<STR>\nMOV~R3,R2,LSL0\nLDR~R1,[R12]\nMOV~R2,R2,LSL0\nADD~R2,R2,R3\nADD~R5,R2,R1\nLDR~R4,[R5,0]\nCMN~R4,0\nBEQ~FOO\nMOV~R3,R4,LSR0\nMOV~R3,R3,LSL0\nADD~LR,SP,0\nADD~R3,R3,LR\nLDR~R2,[R3,-0]\nAND~R1,R4,0\nMOV~R2,R2,LSRR1\nTST~R2,0\nBEQ~FOO\nMOV~R12,0\nMOV~R2,R12\nSTR~R12,[SP,0]\nADD~R3,SP,0\nADD~R12,SP,0\nADD~R3,R3,0\nADD~R12,R12,0\nMOV~R0,R4\nMOV~R6,0\nMOV~R1,0\nSTR~R6,[SP,0]\nSTR~R12,[SP]\nBL~FOO\nLDR~R3,[SP,0]\nORRS~R0,R0,R3\nBNE~FOO\nMOV~R2,0\nSTR~R2,[R5,0]\nBL~FOO\nLDR~R3,<STR>\nLDRB~R2,[R3,0]\nLDRB~R1,[R3]\nORR~R1,R1,R2,LSL0\nBL~FOO\nLDR~R3,<STR>\nLDR~LR,[R3]\nMOV~R0,R0,LSL0\nCMP~LR,R6\nMOV~R0,R0,LSR0\nBLE~FOO\nLDR~R3,<STR>\nLDR~R3,[R3]\nMOV~R12,R6\nB~FOO\nADD~R12,R12,0\nCMP~R12,LR\nADD~R3,R1,0\nBEQ~FOO\nMOV~R1,R3\nLDRB~R2,[R1,0]\nLDRB~R3,[R3,0]\nORR~R3,R3,R2,LSL0\nCMP~R3,R0\nBHI~FOO\nLDRB~R3,[R1,0]\nLDRB~R2,[R1,0]\nORR~R3,R3,R2,LSL0\nCMP~R3,R0\nBLS~FOO\nB~FOO\nMOV~R1,R12\nMOV~R0,R9\nLDR~R2,<STR>\nMOV~R3,0\nBL~FOO\nCMN~R0,0\nMOV~R7,R0\nBNE~FOO\nMOV~R0,R9\nLDR~R1,[R5,0]\nLDR~R2,<STR>\nMOV~R3,0\nBL~FOO\nCMN~R0,0\nMOV~R7,R0\nBNE~FOO\nLDR~R2,[R5,0]\nCMP~R2,0\nBEQ~FOO\nLDR~R3,[R5,0]\nCMP~R3,0\nADDNE~R9,R5,0\nBEQ~FOO\nLDR~R0,[SP,0]\nMOV~R6,0\nSTR~R6,[R0]\nLDR~R2,[R5,0]\nADD~R4,R9,R2\nLDR~R0,[R5,0]\nRSB~R2,R2,0\nMOV~R1,R4\nMOV~R3,0\nBL~FOO\nCMP~R0,0\nBLE~FOO\nMOV~R2,R6\nMOV~R1,0\nLDRB~R3,[R2,R4]\nCMP~R3,0\nSTREQB~R1,[R2,R4]\nADD~R2,R2,0\nCMP~R0,R2\nBNE~FOO\nLDR~LR,<STR>\nLDR~R12,[R5,0]\nLDR~R3,[LR]\nADD~R12,R12,R0\nSTR~R12,[R5,0]\nSTR~R3,[R5,0]\nLDR~R2,[R5,0]\nSUB~R3,R2,0\nCMP~R3,0\nLDRLS~PC,[PC,R3,LSL0]\nB~FOO\nADD~R11,SP,0\nLDR~R12,[R5,0]\nMOV~R6,R9\nMOV~R7,0\nADD~R11,R11,0\nADD~R4,R5,0\nMOV~R10,0\nMOV~R8,0\nCMP~R7,R12\nBGE~FOO\nLDRB~R3,[R4,-0]\nCMP~R3,0\nBNE~FOO\nADD~R2,R9,R12\nCMP~R2,R4\nBLS~FOO\nLDRB~R3,[R4]\nCMP~R3,0\nADDEQ~R6,R6,0\nADDEQ~R4,R4,0\nADDEQ~R7,R7,0\nBEQ~FOO\nCMP~R3,0\nBEQ~FOO\nADD~R3,R6,0\nCMP~R2,R3\nBLS~FOO\nLDRB~R3,[R4]\nCMP~R3,0\nSTREQB~R8,[R4]\nBEQ~FOO\nCMP~R3,0\nSTREQB~R10,[R4]\nLDRB~R3,[R4,0]\nCMP~R3,0\nSTREQB~R8,[R4,0]\nBEQ~FOO\nCMP~R3,0\nSTREQB~R10,[R4,0]\nLDR~R0,[R5,0]\nMOV~R1,R6\nMOV~R2,0\nMOV~R3,0\nBL~FOO\nLDR~R12,[R5,0]\nADD~R7,R7,0\nCMP~R7,R12\nADD~R6,R6,0\nADD~R4,R4,0\nBLT~FOO\nCMP~R7,0\nMOVGT~R2,0\nSTRGT~R2,[R5,0]\nBGT~FOO\nCMP~R7,0\nBEQ~FOO\nLDR~R12,[R5,0]\nB~FOO\nLDR~R12,[R5,0]\nSUB~R0,R12,0\nCMP~R0,0\nBGT~FOO\nB~FOO\nCMP~R3,0\nBEQ~FOO\nCMP~R3,0\nBEQ~FOO\nCMP~R3,0\nBEQ~FOO\nSUBS~R0,R0,0\nBEQ~FOO\nADD~R3,R0,R5\nLDRB~R3,[R3,0]\nCMP~R3,0\nCMPNE~R3,0\nBNE~FOO\nADD~R7,R0,0\nCMN~R7,0\nBEQ~FOO\nCMP~R7,0\nBLE~FOO\nLDR~R3,[R5]\nLDR~R0,[R5,0]\nLDRB~R2,[R3,0]\nLDR~R1,[R3]\nMOV~R3,0\nBL~FOO\nMOV~R2,0\nLDR~R0,[R5,0]\nLDR~R1,<STR>\nMOV~R3,0\nBL~FOO\nLDR~R12,[R5,0]\nMOV~R2,0\nSTR~R2,[R5,0]\nB~FOO\nLDR~R12,[R5,0]\nSUB~R0,R12,0\nCMP~R0,0\nBGT~FOO\nB~FOO\nCMP~R3,0\nBEQ~FOO\nCMP~R3,0\nBEQ~FOO\nSUBS~R0,R0,0\nBEQ~FOO\nADD~R3,R0,R5\nLDRB~R3,[R3,0]\nCMP~R3,0\nCMPNE~R3,0\nBNE~FOO\nADD~R7,R0,0\nCMN~R7,0\nBEQ~FOO\nCMP~R7,0\nBLE~FOO\nLDR~R3,[R5]\nLDR~R0,[R5,0]\nLDRB~R2,[R3,0]\nLDR~R1,[R3,0]\nMOV~R3,0\nBL~FOO\nMOV~R2,0\nLDR~R0,[R5,0]\nLDR~R1,<STR>\nMOV~R3,0\nBL~FOO\nLDR~R12,[R5,0]\nMOV~R2,0\nSTR~R2,[R5,0]\nB~FOO\nLDR~R12,[R5,0]\nSUB~R0,R12,0\nCMP~R0,0\nBGT~FOO\nB~FOO\nCMP~R3,0\nBEQ~FOO\nCMP~R3,0\nBEQ~FOO\nCMP~R3,0\nBEQ~FOO\nSUBS~R0,R0,0\nBEQ~FOO\nADD~R3,R0,R5\nLDRB~R3,[R3,0]\nCMP~R3,0\nCMPNE~R3,0\nBNE~FOO\nADD~R7,R0,0\nCMN~R7,0\nBEQ~FOO\nCMP~R7,0\nBLE~FOO\nMOV~R0,0\nBL~FOO\nADD~R1,SP,0\nADD~R1,R1,0\nMOV~R0,0\nBL~FOO\nLDR~R2,[SP,0]\nMOV~R1,R0\nMOV~R3,0\nLDR~R0,[R5,0]\nBL~FOO\nMOV~R2,0\nLDR~R1,<STR>\nMOV~R3,0\nLDR~R0,[R5,0]\nBL~FOO\nMOV~R0,0\nBL~FOO\nLDR~R12,[R5,0]\nMOV~R2,0\nSTR~R2,[R5,0]\nB~FOO\nLDR~R12,[R5,0]\nSUB~R0,R12,0\nCMP~R0,0\nBGT~FOO\nB~FOO\nCMP~R3,0\nBEQ~FOO\nCMP~R3,0\nBEQ~FOO\nCMP~R3,0\nBEQ~FOO\nSUBS~R0,R0,0\nBEQ~FOO\nADD~R3,R0,R5\nLDRB~R3,[R3,0]\nCMP~R3,0\nCMPNE~R3,0\nBNE~FOO\nADD~R7,R0,0\nCMN~R7,0\nBEQ~FOO\nCMP~R7,0\nBLE~FOO\nMOV~R0,0\nBL~FOO\nADD~R1,SP,0\nADD~R1,R1,0\nMOV~R0,0\nBL~FOO\nLDR~R2,[SP,0]\nMOV~R1,R0\nMOV~R3,0\nLDR~R0,[R5,0]\nBL~FOO\nMOV~R2,0\nLDR~R1,<STR>\nMOV~R3,0\nLDR~R0,[R5,0]\nBL~FOO\nMOV~R0,0\nBL~FOO\nLDR~R12,[R5,0]\nMOV~R2,0\nSTR~R2,[R5,0]\nB~FOO\nLDR~R12,[R5,0]\nSUB~R0,R12,0\nCMP~R0,0\nBGT~FOO\nB~FOO\nCMP~R3,0\nBEQ~FOO\nCMP~R3,0\nBEQ~FOO\nCMP~R3,0\nBEQ~FOO\nSUBS~R0,R0,0\nBEQ~FOO\nADD~R3,R0,R5\nLDRB~R3,[R3,0]\nCMP~R3,0\nCMPNE~R3,0\nBNE~FOO\nADD~R7,R0,0\nCMN~R7,0\nBEQ~FOO\nCMP~R7,0\nBLE~FOO\nMOV~R0,0\nBL~FOO\nADD~R1,SP,0\nADD~R1,R1,0\nMOV~R0,0\nBL~FOO\nLDR~R2,[SP,0]\nMOV~R1,R0\nMOV~R3,0\nLDR~R0,[R5,0]\nBL~FOO\nMOV~R2,0\nLDR~R1,<STR>\nMOV~R3,0\nLDR~R0,[R5,0]\nBL~FOO\nMOV~R0,0\nBL~FOO\nLDR~R12,[R5,0]\nMOV~R2,0\nSTR~R2,[R5,0]\nB~FOO\nLDR~R12,[R5,0]\nSUB~R0,R12,0\nCMP~R0,0\nBGT~FOO\nB~FOO\nCMP~R3,0\nBEQ~FOO\nCMP~R3,0\nBEQ~FOO\nCMP~R3,0\nBEQ~FOO\nSUBS~R0,R0,0\nBEQ~FOO\nADD~R3,R0,R5\nLDRB~R3,[R3,0]\nCMP~R3,0\nCMPNE~R3,0\nBNE~FOO\nADD~R7,R0,0\nCMN~R7,0\nBEQ~FOO\nCMP~R7,0\nBLE~FOO\nMOV~R0,0\nBL~FOO\nADD~R1,SP,0\nADD~R1,R1,0\nMOV~R0,0\nBL~FOO\nLDR~R2,[SP,0]\nMOV~R1,R0\nMOV~R3,0\nLDR~R0,[R5,0]\nBL~FOO\nMOV~R2,0\nLDR~R1,<STR>\nMOV~R3,0\nLDR~R0,[R5,0]\nBL~FOO\nMOV~R0,0\nBL~FOO\nLDR~R12,[R5,0]\nMOV~R2,0\nSTR~R2,[R5,0]\nB~FOO\nMOV~R0,0\nBL~FOO\nADD~R1,SP,0\nADD~R1,R1,0\nMOV~R0,0\nBL~FOO\nLDR~R3,[SP,0]\nMOV~R2,R0\nSUB~R3,R3,0\nMOV~R0,R9\nLDR~R1,[R5,0]\nBL~FOO\nCMN~R0,0\nBNE~FOO\nMOV~R0,0\nBL~FOO\nMOV~R0,0\nBL~FOO\nADD~R1,SP,0\nADD~R1,R1,0\nMOV~R0,0\nBL~FOO\nLDR~R3,[SP,0]\nMOV~R2,R0\nSUB~R3,R3,0\nLDR~R1,[R5,0]\nMOV~R0,R9\nBL~FOO\nMOV~R7,R0\nMOV~R0,0\nBL~FOO\nCMN~R7,0\nBEQ~FOO\nCMP~R7,0\nBLE~FOO\nLDRB~R3,[R5,0]\nLDRB~R2,[R5,0]\nLDR~R1,[R5,0]\nORR~R2,R2,R3,LSL0\nMOV~R3,R2,ASR0\nSTRB~R3,[SP,0]\nSTR~R1,[SP,0]\nSTRB~R2,[SP,0]\nLDR~R11,[R5]\nBL~FOO\nCMN~R0,0\nMOVNE~R3,0\nMOVEQ~R3,0\nCMP~R0,0\nMOVLE~R10,R3\nORRGT~R10,R3,0\nCMP~R10,0\nBNE~FOO\nMOV~R0,0\nMOV~R1,0\nMOV~R2,R10\nBL~FOO\nCMN~R0,0\nMOV~R6,R0\nBEQ~FOO\nMOV~R0,0\nBL~FOO\nMOV~R0,0\nBL~FOO\nMOV~R1,R10\nMOV~R0,0\nBL~FOO\nBL~FOO\nSUBS~R8,R0,0\nBNE~FOO\nLDR~R0,[R5,0]\nBL~FOO\nMOV~R3,0\nMOV~R2,0\nLDR~R12,[R5,0]\nSTR~R3,[R5,0]\nSTR~R2,[R5,0]\nCMP~R12,R7\nMOVLT~R1,R12\nMOVGE~R1,R7\nRSB~R2,R1,R12\nSTR~R2,[R5,0]\nADD~R1,R9,R1\nMOV~R0,R9\nBL~FOO\nB~FOO\nLDR~R12,[R5,0]\nSUB~R0,R12,0\nCMP~R0,0\nBGT~FOO\nB~FOO\nCMP~R3,0\nBEQ~FOO\nCMP~R3,0\nBEQ~FOO\nCMP~R3,0\nBEQ~FOO\nSUBS~R0,R0,0\nBEQ~FOO\nADD~R3,R0,R5\nLDRB~R3,[R3,0]\nCMP~R3,0\nCMPNE~R3,0\nBNE~FOO\nADD~R7,R0,0\nCMN~R7,0\nBEQ~FOO\nCMP~R7,0\nBLE~FOO\nMOV~R0,0\nBL~FOO\nADD~R1,SP,0\nADD~R1,R1,0\nMOV~R0,0\nBL~FOO\nLDR~R2,[SP,0]\nMOV~R1,R0\nMOV~R3,0\nLDR~R0,[R5,0]\nBL~FOO\nMOV~R2,0\nLDR~R1,<STR>\nMOV~R3,0\nLDR~R0,[R5,0]\nBL~FOO\nMOV~R0,0\nBL~FOO\nLDR~R12,[R5,0]\nMOV~R2,0\nSTR~R2,[R5,0]\nB~FOO\nLDR~R1,<STR>\nMOV~R2,0\nMOV~R0,R11\nBL~FOO\nADD~R0,SP,0\nMOV~R2,0\nADD~R0,R0,0\nLDR~R1,<STR>\nBL~FOO\nLDR~R12,[R5,0]\nADD~R2,R6,0\nADD~R3,R9,R12\nCMP~R3,R2\nBLS~FOO\nLDRB~R3,[R4,0]\nCMP~R3,0\nBEQ~FOO\nLDRB~R3,[R4,-0]\nCMP~R3,0\nSTREQB~R8,[R4,-0]\nBEQ~FOO\nCMP~R3,0\nSTREQB~R10,[R4,-0]\nB~FOO\nMOV~R0,0\nBL~FOO\nLDR~R0,[R5,0]\nBL~FOO\nLDRB~R3,[R5,0]\nADD~R3,R3,0\nAND~R3,R3,0\nMOV~R4,0\nCMP~R3,0\nSTR~R4,[R5,0]\nSTRB~R3,[R5,0]\nBNE~FOO\nLDR~R12,[R5,0]\nMOV~R0,0\nMOV~R1,0\nMOV~R7,0\nSTRB~R0,[R5,0]\nSTR~R1,[R5,0]\nB~FOO\nBEQ~FOO\nCMN~R0,0\nBNE~FOO\nLDR~R2,[SP,0]\nLDR~R3,[R2]\nCMP~R3,0\nBEQ~FOO\nLDR~R0,[R5,0]\nBL~FOO\nLDRB~R3,[R5,0]\nADD~R3,R3,0\nAND~R3,R3,0\nCMP~R3,0\nSTRB~R3,[R5,0]\nMOV~R4,0\nMOVHI~R3,0\nSTR~R4,[R5,0]\nSTRHI~R3,[R5,0]\nSTRHIB~R3,[R5,0]\nBHI~FOO\nMOV~R0,R5\nBL~FOO\nB~FOO\nMOV~R1,R12\nMOV~R0,R9\nLDR~R2,<STR>\nMOV~R3,0\nBL~FOO\nCMN~R0,0\nMOV~R7,R0\nBNE~FOO\nB~FOO\nMOV~R1,R11\nMOV~R2,0\nMOV~R3,0\nLDR~R0,[R5,0]\nBL~FOO\nADD~R1,SP,0\nLDR~R0,[R5,0]\nADD~R1,R1,0\nMOV~R2,0\nB~FOO\nADD~R9,R5,0\nMOV~R0,R9\nADD~R1,R5,0\nMOV~R2,0\nBL~FOO\nLDR~R3,[R5,0]\nSUB~R12,R3,0\nSTR~R12,[R5,0]\nB~FOO\nMOV~R0,R5\nBL~FOO\nLDR~R12,[R5,0]\nMOV~R7,R4\nB~FOO\nSTR~R7,[R4,0]\nSTRB~R7,[R4,0]\nB~FOO\nMOV~R1,0\nLDR~R4,[R5,0]\nMOV~R12,0\nSTR~R1,[R5]\nSTR~R12,[R5,0]\nB~FOO\nLDR~R0,[R5,0]\nBL~FOO\nMOV~R4,0\nSTR~R6,[R5,0]\nSTR~R4,[R5,0]\nSTRB~R6,[R5,0]\nB~FOO\nLDR~R1,[SP,0]\nMOV~R3,0\nSTR~R3,[R1]\nB~FOO\nMOV~R5,0\nLDR~R4,[R8,0]\nSTRB~R5,[SP,0]\nSTRB~R10,[SP,0]\nBL~FOO\nLDRB~R1,[R8]\nBL~FOO\nLDR~R3,[R4,R0,LSL0]\nMOV~R1,R10\nMOV~R0,0\nSTR~R3,[SP,0]\nBL~FOO\nLDRB~R2,[R0,0]\nLDRB~R3,[R0]\nORR~R3,R3,R2,LSL0\nMOV~R1,R3,ASR0\nMOV~R0,R8\nSTRB~R1,[SP,0]\nSTRB~R3,[SP,0]\nBL~FOO\nMOV~R0,0\nBL~FOO\nMOV~R0,0\nBL~FOO\nADD~R1,SP,0\nMOV~R0,R6\nADD~R1,R1,0\nMOV~R2,0\nBL~FOO\nCMN~R0,0\nBNE~FOO\nMOV~R0,R6\nBL~FOO\nMOV~R0,R10\nBL~FOO\nADD~R1,SP,0\nADD~R1,R1,0\nMOV~R2,0\nMOV~R3,0\nMOV~R0,R6\nSTRB~R10,[SP,0]\nBL~FOO\nADD~R1,SP,0\nADD~R1,R1,0\nMOV~R2,0\nMOV~R3,0\nMOV~R0,R6\nBL~FOO\nADD~R1,SP,0\nMOV~R2,R5\nADD~R1,R1,0\nMOV~R3,0\nMOV~R0,R6\nBL~FOO\nADD~R1,R11,0\nMOV~R2,0\nMOV~R3,0\nMOV~R0,R6\nBL~FOO\nLDR~R1,[R11]\nLDRB~R2,[R11,0]\nMOV~R3,0\nMOV~R0,R6\nBL~FOO\nADD~R1,R11,0\nMOV~R2,0\nMOV~R3,0\nMOV~R0,R6\nBL~FOO\nMOV~R0,R6\nLDRB~R2,[R11,0]\nLDR~R1,[R11,0]\nMOV~R3,0\nBL~FOO\nMOV~R0,R6\nBL~FOO\nMOV~R0,R10\nBL~FOO"'
p125
L6508L
tp126
a(S'table_retrieve_val'
p127
S'"LDR~R12,<STR>\nMOV~R0,R0,LSL0\nADD~R3,R0,R12\nCMP~R1,0\nLDRNEB~R2,[R3,0]\nLDRNEB~R3,[R3,0]\nLDR~R0,[R0,R12]\nORRNE~R3,R3,R2,LSL0\nSTRNE~R3,[R1]\nRET"'
p128
L40L
tp129
a(S'table_lock_val'
p130
S'"MOV~R0,R0,LSL0\nSTMFD~SP!,{R4-R7,LR}\nBIC~R0,R0,0\nLDR~R3,<STR>\nMOV~R0,R0,LSL0\nMOV~R0,R0,LSR0\nADD~LR,R0,R3\nLDR~R3,<STR>\nADD~R7,LR,0\nLDR~R2,[R3]\nLDRB~R1,[LR,0]\nLDRB~R3,[R7,0]\nMOV~R0,R2,LSR0\nORRS~R3,R1,R3,LSL0\nMOV~R3,R2,LSR0\nAND~R6,R0,0\nAND~R5,R3,0\nMOV~R4,R2,LSR0\nAND~R0,R2,0\nLDMEQFD~SP!,{R4-R7,PC}\nMOV~R12,0\nLDR~R2,[LR]\nLDRB~R3,[R12,R2]\nEOR~R3,R0,R3\nSTRB~R3,[R12,R2]\nLDR~R1,[LR]\nLDRB~R3,[R12,R1]\nEOR~R3,R6,R3\nSTRB~R3,[R12,R1]\nLDR~R2,[LR]\nLDRB~R3,[R12,R2]\nEOR~R3,R5,R3\nSTRB~R3,[R12,R2]\nLDR~R1,[LR]\nLDRB~R3,[R12,R1]\nEOR~R3,R4,R3\nSTRB~R3,[R12,R1]\nLDRB~R2,[LR,0]\nLDRB~R3,[R7,0]\nADD~R12,R12,0\nORR~R2,R2,R3,LSL0\nCMP~R2,R12\nBGT~FOO\nLDMFD~SP!,{R4-R7,PC}"'
p131
L176L
tp132
a(S'table_unlock_val'
p133
S'"MOV~R0,R0,LSL0\nSTMFD~SP!,{R4-R7,LR}\nBIC~R0,R0,0\nLDR~R3,<STR>\nMOV~R0,R0,LSL0\nMOV~R0,R0,LSR0\nADD~LR,R0,R3\nLDR~R3,<STR>\nADD~R7,LR,0\nLDR~R2,[R3]\nLDRB~R1,[LR,0]\nLDRB~R3,[R7,0]\nMOV~R0,R2,LSR0\nORRS~R3,R1,R3,LSL0\nMOV~R3,R2,LSR0\nAND~R6,R0,0\nAND~R5,R3,0\nMOV~R4,R2,LSR0\nAND~R0,R2,0\nLDMEQFD~SP!,{R4-R7,PC}\nMOV~R12,0\nLDR~R2,[LR]\nLDRB~R3,[R12,R2]\nEOR~R3,R0,R3\nSTRB~R3,[R12,R2]\nLDR~R1,[LR]\nLDRB~R3,[R12,R1]\nEOR~R3,R6,R3\nSTRB~R3,[R12,R1]\nLDR~R2,[LR]\nLDRB~R3,[R12,R2]\nEOR~R3,R5,R3\nSTRB~R3,[R12,R2]\nLDR~R1,[LR]\nLDRB~R3,[R12,R1]\nEOR~R3,R4,R3\nSTRB~R3,[R12,R1]\nLDRB~R2,[LR,0]\nLDRB~R3,[R7,0]\nADD~R12,R12,0\nORR~R2,R2,R3,LSL0\nCMP~R2,R12\nBGT~FOO\nLDMFD~SP!,{R4-R7,PC}"'
p134
L176L
tp135
a(S'table_init'
p136
S'"STMFD~SP!,{R4-R11,LR}\nMOV~R0,0\nBL~FOO\nLDR~R4,<STR>\nLDR~R1,<STR>\nMOV~R2,0\nMOV~R6,0\nMOV~R5,R0\nBL~FOO\nMOV~R3,0\nMOV~R0,0\nSTRB~R3,[R4,0]\nSTR~R5,[R4,0]\nSTRB~R6,[R4,0]\nBL~FOO\nLDR~R1,<STR>\nMOV~R2,0\nMOV~R5,0\nMOV~R7,R0\nBL~FOO\nMOV~R0,0\nSTR~R7,[R4,0]\nSTRB~R5,[R4,0]\nSTRB~R6,[R4,0]\nBL~FOO\nLDR~R1,<STR>\nMOV~R2,0\nMOV~R8,0\nMOV~R7,R0\nBL~FOO\nMOV~R0,R5\nSTR~R7,[R4,0]\nSTRB~R8,[R4,0]\nSTRB~R6,[R4,0]\nBL~FOO\nMOV~R2,R5\nLDR~R1,<STR>\nMOV~R7,R0\nBL~FOO\nMOV~R0,0\nSTR~R7,[R4,0]\nSTRB~R5,[R4,0]\nSTRB~R6,[R4,0]\nBL~FOO\nLDR~R1,<STR>\nMOV~R2,0\nMOV~R5,R0\nBL~FOO\nMOV~R3,0\nMOV~R0,R8\nSTRB~R3,[R4,0]\nSTR~R5,[R4,0]\nSTRB~R6,[R4,0]\nBL~FOO\nMOV~R2,R8\nLDR~R1,<STR>\nMOV~R5,R0\nBL~FOO\nMOV~R0,0\nSTR~R5,[R4,0]\nSTRB~R8,[R4,0]\nSTRB~R6,[R4,0]\nBL~FOO\nLDR~R1,<STR>\nMOV~R2,0\nMOV~R7,0\nMOV~R5,R0\nBL~FOO\nMOV~R0,0\nSTR~R5,[R4,0]\nSTRB~R7,[R4,0]\nSTRB~R6,[R4,0]\nBL~FOO\nLDR~R1,<STR>\nMOV~R2,0\nMOV~R5,R0\nBL~FOO\nMOV~R3,0\nMOV~R0,0\nSTRB~R3,[R4,0]\nSTR~R5,[R4,0]\nSTRB~R6,[R4,0]\nBL~FOO\nLDR~R1,<STR>\nMOV~R2,0\nMOV~R5,R0\nBL~FOO\nMOV~R3,0\nMOV~R0,0\nSTRB~R3,[R4,0]\nSTR~R5,[R4,0]\nSTRB~R6,[R4,0]\nBL~FOO\nLDR~R1,<STR>\nMOV~R2,0\nMOV~R5,R0\nBL~FOO\nMOV~R3,0\nMOV~R0,R7\nSTRB~R3,[R4,0]\nSTR~R5,[R4,0]\nSTRB~R6,[R4,0]\nBL~FOO\nMOV~R2,R7\nLDR~R1,<STR>\nMOV~R5,R0\nBL~FOO\nMOV~R0,0\nSTR~R5,[R4,0]\nSTRB~R7,[R4,0]\nSTRB~R6,[R4,0]\nBL~FOO\nLDR~R1,<STR>\nMOV~R2,0\nMOV~R5,R0\nBL~FOO\nMOV~R3,0\nMOV~R0,0\nSTRB~R3,[R4,0]\nSTR~R5,[R4,0]\nSTRB~R6,[R4,0]\nBL~FOO\nLDR~R1,<STR>\nMOV~R2,0\nMOV~R5,R0\nBL~FOO\nMOV~R3,0\nMOV~R0,0\nSTRB~R3,[R4,0]\nSTR~R5,[R4,0]\nSTRB~R6,[R4,0]\nBL~FOO\nSUB~R8,R8,0\nLDR~R1,<STR>\nMOV~R2,R8\nMOV~R5,R0\nBL~FOO\nMOV~R0,R8\nSTR~R5,[R4,0]\nSTRB~R8,[R4,0]\nSTRB~R6,[R4,0]\nBL~FOO\nLDR~R1,<STR>\nMOV~R2,R8\nMOV~R5,R0\nBL~FOO\nMOV~R0,0\nSTR~R5,[R4,0]\nSTRB~R8,[R4,0]\nSTRB~R6,[R4,0]\nBL~FOO\nLDR~R1,<STR>\nMOV~R2,0\nMOV~R5,R0\nBL~FOO\nMOV~R3,0\nMOV~R0,0\nSTRB~R3,[R4,0]\nSTR~R5,[R4,0]\nSTRB~R6,[R4,0]\nBL~FOO\nLDR~R1,<STR>\nMOV~R2,0\nMOV~R5,R0\nBL~FOO\nMOV~R3,0\nMOV~R0,0\nSTRB~R3,[R4,0]\nSTR~R5,[R4,0]\nSTRB~R6,[R4,0]\nBL~FOO\nLDR~R1,<STR>\nMOV~R2,0\nMOV~R5,R0\nBL~FOO\nMOV~R3,0\nMOV~R0,0\nSTRB~R3,[R4,0]\nSTR~R5,[R4,0]\nSTRB~R6,[R4,0]\nBL~FOO\nLDR~R1,<STR>\nMOV~R2,0\nMOV~R5,R0\nBL~FOO\nMOV~R3,0\nMOV~R0,R7\nSTRB~R3,[R4,0]\nSTR~R5,[R4,0]\nSTRB~R6,[R4,0]\nBL~FOO\nMOV~R2,R7\nLDR~R1,<STR>\nMOV~R5,R0\nBL~FOO\nMOV~R0,R7\nSTR~R5,[R4,0]\nSTRB~R7,[R4,0]\nSTRB~R6,[R4,0]\nBL~FOO\nMOV~R2,R7\nLDR~R1,<STR>\nMOV~R5,R0\nBL~FOO\nMOV~R0,0\nSTR~R5,[R4,0]\nSTRB~R7,[R4,0]\nSTRB~R6,[R4,0]\nBL~FOO\nLDR~R1,<STR>\nMOV~R2,0\nMOV~R5,R0\nBL~FOO\nMOV~R3,0\nMOV~R0,0\nSTRB~R3,[R4,0]\nSTR~R5,[R4,0]\nSTRB~R6,[R4,0]\nBL~FOO\nLDR~R1,<STR>\nMOV~R2,0\nMOV~R5,R0\nMOV~R9,0\nBL~FOO\nMOV~R0,0\nSTR~R5,[R4,0]\nSTRB~R9,[R4,0]\nSTRB~R6,[R4,0]\nBL~FOO\nLDR~R1,<STR>\nMOV~R2,0\nMOV~R5,R0\nBL~FOO\nMOV~R3,0\nMOV~R0,0\nSTRB~R3,[R4,0]\nSTR~R5,[R4,0]\nSTRB~R6,[R4,0]\nBL~FOO\nLDR~R1,<STR>\nMOV~R2,0\nMOV~R5,R0\nMOV~R10,0\nBL~FOO\nMOV~R0,0\nSTR~R5,[R4,0]\nSTRB~R10,[R4,0]\nSTRB~R6,[R4,0]\nBL~FOO\nLDR~R1,<STR>\nMOV~R2,0\nMOV~R5,R0\nMOV~R11,0\nBL~FOO\nMOV~R0,0\nSTR~R5,[R4,0]\nSTRB~R11,[R4,0]\nSTRB~R6,[R4,0]\nBL~FOO\nLDR~R1,<STR>\nMOV~R2,0\nMOV~R5,R0\nBL~FOO\nMOV~R3,0\nMOV~R0,0\nSTRB~R3,[R4,0]\nSTR~R5,[R4,0]\nSTRB~R6,[R4,0]\nBL~FOO\nLDR~R1,<STR>\nMOV~R2,0\nMOV~R5,R0\nBL~FOO\nMOV~R3,0\nMOV~R0,0\nSTRB~R3,[R4,0]\nSTR~R5,[R4,0]\nSTRB~R6,[R4,0]\nBL~FOO\nLDR~R1,<STR>\nMOV~R2,0\nMOV~R5,R0\nBL~FOO\nMOV~R3,0\nMOV~R0,0\nSTRB~R3,[R4,0]\nSTR~R5,[R4,0]\nSTRB~R6,[R4,0]\nBL~FOO\nLDR~R1,<STR>\nMOV~R2,0\nADD~R7,R7,0\nMOV~R5,R0\nBL~FOO\nMOV~R0,0\nSTR~R5,[R4,0]\nSTRB~R7,[R4,0]\nSTRB~R6,[R4,0]\nBL~FOO\nLDR~R1,<STR>\nMOV~R2,0\nMOV~R5,R0\nBL~FOO\nMOV~R3,0\nMOV~R0,0\nSTRB~R3,[R4,0]\nSTR~R5,[R4,0]\nSTRB~R6,[R4,0]\nBL~FOO\nLDR~R1,<STR>\nMOV~R2,0\nMOV~R5,R0\nBL~FOO\nMOV~R3,0\nMOV~R0,0\nSTRB~R3,[R4,0]\nSTR~R5,[R4,0]\nSTRB~R6,[R4,0]\nBL~FOO\nLDR~R1,<STR>\nMOV~R2,0\nMOV~R5,R0\nBL~FOO\nMOV~R3,0\nMOV~R0,0\nSTRB~R3,[R4,0]\nSTR~R5,[R4,0]\nSTRB~R6,[R4,0]\nBL~FOO\nLDR~R1,<STR>\nMOV~R2,0\nMOV~R5,R0\nBL~FOO\nMOV~R3,0\nMOV~R0,R7\nSTRB~R3,[R4,0]\nSTR~R5,[R4,0]\nSTRB~R6,[R4,0]\nBL~FOO\nMOV~R2,R7\nLDR~R1,<STR>\nMOV~R5,R0\nBL~FOO\nMOV~R0,R10\nSTR~R5,[R4,0]\nSTRB~R7,[R4,0]\nSTRB~R6,[R4,0]\nBL~FOO\nLDR~R1,<STR>\nMOV~R2,R10\nMOV~R5,R0\nBL~FOO\nMOV~R0,R8\nSTR~R5,[R4,0]\nSTRB~R10,[R4,0]\nSTRB~R6,[R4,0]\nBL~FOO\nLDR~R1,<STR>\nMOV~R2,R8\nMOV~R5,R0\nBL~FOO\nMOV~R0,R7\nSTR~R5,[R4,0]\nSTRB~R8,[R4,0]\nSTRB~R6,[R4,0]\nBL~FOO\nMOV~R2,R7\nLDR~R1,<STR>\nMOV~R5,R0\nBL~FOO\nMOV~R0,R11\nSTR~R5,[R4,0]\nSTRB~R7,[R4,0]\nSTRB~R6,[R4,0]\nBL~FOO\nLDR~R1,<STR>\nMOV~R2,R11\nMOV~R5,R0\nBL~FOO\nMOV~R0,R9\nSTR~R5,[R4,0]\nSTRB~R11,[R4,0]\nSTRB~R6,[R4,0]\nBL~FOO\nLDR~R1,<STR>\nMOV~R2,R9\nMOV~R5,R0\nBL~FOO\nMOV~R0,0\nSTR~R5,[R4,0]\nSTRB~R9,[R4,0]\nSTRB~R6,[R4,0]\nBL~FOO\nLDR~R1,<STR>\nMOV~R2,0\nMOV~R5,R0\nBL~FOO\nMOV~R3,0\nMOV~R0,0\nSTRB~R3,[R4,0]\nSTR~R5,[R4,0]\nSTRB~R6,[R4,0]\nBL~FOO\nLDR~R1,<STR>\nMOV~R2,0\nMOV~R5,R0\nBL~FOO\nMOV~R3,0\nMOV~R0,R7\nSTRB~R3,[R4,0]\nSTR~R5,[R4,0]\nSTRB~R6,[R4,0]\nBL~FOO\nMOV~R2,R7\nLDR~R1,<STR>\nMOV~R5,R0\nBL~FOO\nMOV~R0,0\nSTR~R5,[R4,0]\nSTRB~R7,[R4,0]\nSTRB~R6,[R4,0]\nBL~FOO\nLDR~R1,<STR>\nMOV~R2,0\nMOV~R5,R0\nBL~FOO\nMOV~R3,0\nMOV~R0,0\nSTRB~R3,[R4,0]\nSTR~R5,[R4,0]\nSTRB~R6,[R4,0]\nBL~FOO\nLDR~R1,<STR>\nMOV~R2,0\nMOV~R5,R0\nBL~FOO\nMOV~R3,0\nMOV~R0,0\nSTRB~R3,[R4,0]\nSTR~R5,[R4,0]\nSTRB~R6,[R4,0]\nBL~FOO\nMOV~R5,0\nMOV~R2,R5\nLDR~R1,<STR>\nMOV~R7,R0\nBL~FOO\nMOV~R0,R5\nSTR~R7,[R4,0]\nSTRB~R5,[R4,0]\nSTRB~R6,[R4,0]\nBL~FOO\nMOV~R2,R5\nLDR~R1,<STR>\nMOV~R7,R0\nBL~FOO\nMOV~R0,0\nSTR~R7,[R4,0]\nSTRB~R5,[R4,0]\nSTRB~R6,[R4,0]\nBL~FOO\nSUB~R5,R5,0\nMOV~R2,R5\nLDR~R1,<STR>\nMOV~R7,R0\nBL~FOO\nMOV~R0,R5\nSTR~R7,[R4,0]\nSTRB~R5,[R4,0]\nSTRB~R6,[R4,0]\nBL~FOO\nMOV~R2,R5\nLDR~R1,<STR>\nMOV~R7,R0\nBL~FOO\nMOV~R0,0\nSTRB~R5,[R4,0]\nSTR~R7,[R4,0]\nSTRB~R6,[R4,0]\nBL~FOO\nLDR~R1,<STR>\nMOV~R2,0\nMOV~R5,R0\nBL~FOO\nMOV~R3,0\nSTRB~R6,[R4,0]\nSTR~R5,[R4,0]\nSTRB~R3,[R4,0]\nLDMFD~SP!,{R4-R11,PC}"'
p137
L1956L
tp138
a(S'util_strlen'
p139
S'"MOV~R2,R0\nLDRB~R0,[R0]\nCMP~R0,0\nMOVEQ~PC,LR\nMOV~R0,0\nADD~R0,R0,0\nLDRB~R3,[R0,R2]\nCMP~R3,0\nBNE~FOO\nRET"'
p140
L40L
tp141
a(S'util_strcpy'
p142
S'"LDRB~R3,[R1]\nCMP~R3,0\nBEQ~FOO\nMOV~R12,0\nADD~R12,R12,0\nLDRB~R3,[R12,R1]\nCMP~R3,0\nBNE~FOO\nCMN~R12,0\nBEQ~FOO\nMOV~R2,R12\nSUB~R2,R2,0\nLDRB~R3,[R1]\nCMN~R2,0\nSTRB~R3,[R0]\nBNE~FOO\nMOV~R0,R12\nRET\nMOV~R12,R3\nMOV~R2,R3\nB~FOO"'
p143
L84L
tp144
a(S'util_memcpy'
p145
S'"CMP~R2,0\nMOVEQ~PC,LR\nMOV~R12,0\nLDRB~R3,[R12,R1]\nSTRB~R3,[R12,R0]\nADD~R12,R12,0\nCMP~R12,R2\nBNE~FOO\nRET"'
p146
L36L
tp147
a(S'util_zero'
p148
S'"CMP~R1,0\nMOVEQ~PC,LR\nMOV~R3,0\nMOV~R2,R3\nSTRB~R2,[R3,R0]\nADD~R3,R3,0\nCMP~R3,R1\nBNE~FOO\nRET"'
p149
L36L
tp150
a(S'util_memsearch'
p151
S'"CMP~R3,R1\nSTMFD~SP!,{R4,R5,LR}\nMOV~LR,R3\nMOV~R5,R0\nMOV~R4,R2\nBLE~FOO\nMOV~R0,0\nLDMFD~SP!,{R4,R5,PC}\nCMP~R1,0\nBLE~FOO\nMOV~R0,0\nMOV~R12,R0\nB~FOO\nADD~R0,R0,0\nCMP~R1,R0\nBEQ~FOO\nLDRB~R2,[R12,R4]\nLDRB~R3,[R0,R5]\nCMP~R3,R2\nADD~R12,R12,0\nMOVNE~R12,0\nBNE~FOO\nCMP~LR,R12\nBNE~FOO\nADD~R0,R0,0\nLDMFD~SP!,{R4,R5,PC}"'
p152
L104L
tp153
a(S'util_atoi'
p154
S'"STMFD~SP!,{R4-R8,R10,LR}\nMOV~R5,R0\nMOV~R6,R1\nLDRB~R2,[R5]\nAND~R3,R2,0\nCMP~R3,0\nCMPNE~R3,0\nMOV~R4,R2\nBEQ~FOO\nCMP~R3,0\nBEQ~FOO\nCMP~R2,0\nBEQ~FOO\nCMP~R2,0\nLDREQB~R4,[R5]\nMOV~R7,0\nMOV~R10,0\nMOV~R1,R6\nMOV~R0,R7\nBL~FOO\nMOV~R1,R6\nMOV~R8,R0\nMOV~R0,R7\nBL~FOO\nMOV~LR,R0\nMOV~R0,0\nMOV~R12,R0\nAND~R3,R4,0\nSUB~R2,R3,0\nCMP~R2,0\nSUB~R1,R3,0\nSUB~R2,R4,0\nSUB~R3,R3,0\nBLS~FOO\nCMP~R3,0\nMOVHI~R2,0\nMOVLS~R2,0\nCMP~R3,0\nCMPHI~R1,0\nBHI~FOO\nCMP~R2,0\nMOVEQ~R3,0\nMOVNE~R3,0\nRSB~R2,R3,R4\nCMP~R2,R6\nBGE~FOO\nCMP~R0,LR\nMOVLS~R3,0\nMOVHI~R3,0\nORRS~R12,R3,R12,LSR0\nMOV~R12,0\nBNE~FOO\nCMP~R0,LR\nMOVNE~R3,0\nMOVEQ~R3,0\nCMP~R2,R8\nMOVLE~R3,0\nCMP~R3,0\nMLAEQ~R0,R6,R0,R2\nADDEQ~R12,R12,0\nLDRB~R4,[R5]\nB~FOO\nCMP~R12,0\nBLT~FOO\nCMP~R10,0\nRSBNE~R0,R0,0\nLDMFD~SP!,{R4-R8,R10,PC}\nLDRB~R4,[R5]\nMOV~R7,0\nMOV~R10,0\nB~FOO\nCMP~R10,0\nMOVEQ~R0,0\nMOVNE~R0,0\nLDMFD~SP!,{R4-R8,R10,PC}"'
p155
L300L
tp156
a(S'util_fdgets'
p157
S'"STMFD~SP!,{R4-R8,LR}\nMOV~R8,R0\nMOV~R7,R1\nMOV~R6,R2\nMOV~R4,R0\nMOV~R5,0\nMOV~R1,R4\nMOV~R0,R6\nMOV~R2,0\nBL~FOO\nCMP~R0,0\nMOV~R3,R4\nADD~R4,R4,0\nBNE~FOO\nADD~R5,R5,0\nCMP~R7,R5\nBLE~FOO\nLDRB~R3,[R3]\nCMP~R3,0\nBNE~FOO\nCMP~R5,0\nMOVNE~R0,R8\nMOVEQ~R0,0\nLDMFD~SP!,{R4-R8,PC}"'
p158
L96L
tp159
a(S'util_local_addr'
p160
S'"STMFD~SP!,{R4-R7,LR}\nMOV~R4,0\nSUB~SP,SP,0\nSTR~R4,[SP,0]\nBL~FOO\nMOV~R6,0\nSTR~R6,[R0]\nMOV~R0,0\nMOV~R1,R0\nMOV~R2,R6\nBL~FOO\nMOV~R12,0\nCMN~R0,0\nMOV~R7,SP\nMOV~R5,R0\nORR~R12,R12,R12,LSLR4\nMOV~R2,R4\nMOV~R1,SP\nMOV~R3,R6\nBEQ~FOO\nMOV~R3,0\nSTRB~R3,[SP]\nADD~R3,R3,0\nSTRB~R3,[SP,0]\nSTR~R12,[SP,0]\nSTRB~R6,[SP,0]\nSTRB~R6,[SP,0]\nBL~FOO\nMOV~R1,SP\nADD~R2,SP,0\nMOV~R0,R5\nBL~FOO\nMOV~R0,R5\nBL~FOO\nLDR~R3,[SP,0]\nMOV~R0,R3\nADD~SP,SP,0\nLDMFD~SP!,{R4-R7,PC}"'
p161
L156L
tp162
a(S'util_stristr'
p163
S'"STMFD~SP!,{R4-R7,LR}\nLDRB~R3,[R2]\nCMP~R3,0\nMOV~R5,R2\nMOV~R7,R0\nMOVEQ~R6,R3\nBEQ~FOO\nMOV~R6,0\nADD~R6,R6,0\nLDRB~R3,[R6,R5]\nCMP~R3,0\nBNE~FOO\nMOV~R4,R7\nMOV~R0,0\nCMP~R1,0\nSUB~R1,R1,0\nBLE~FOO\nLDRB~LR,[R4]\nLDRB~R12,[R5,R0]\nSUB~R3,LR,0\nSUB~R2,R12,0\nCMP~R3,0\nORRLS~LR,LR,0\nCMP~R2,0\nORRLS~R12,R12,0\nCMP~LR,R12\nADD~R0,R0,0\nMOVNE~R0,0\nBNE~FOO\nCMP~R6,R0\nBNE~FOO\nRSB~R0,R7,R4\nLDMFD~SP!,{R4-R7,PC}\nMOV~R0,0\nLDMFD~SP!,{R4-R7,PC}"'
p164
L140L
tp165
a(S'util_strcmp'
p166
S'"LDRB~R3,[R0]\nCMP~R3,0\nMOVEQ~R12,R3\nBEQ~FOO\nMOV~R12,0\nADD~R12,R12,0\nLDRB~R3,[R12,R0]\nCMP~R3,0\nBNE~FOO\nLDRB~R3,[R1]\nCMP~R3,0\nMOVEQ~R2,R3\nBEQ~FOO\nMOV~R2,0\nADD~R2,R2,0\nLDRB~R3,[R2,R1]\nCMP~R3,0\nBNE~FOO\nCMP~R2,R12\nMOVEQ~R12,R2\nBEQ~FOO\nMOV~R0,0\nRET\nLDRB~R2,[R0]\nLDRB~R3,[R1]\nCMP~R2,R3\nBNE~FOO\nADD~R0,R0,0\nADD~R1,R1,0\nSUBS~R12,R12,0\nBCS~FOO\nMOV~R0,0\nRET"'
p167
L132L
tp168
a(S'util_strncmp'
p169
S'"STR~LR,[SP,-0]\nLDRB~R3,[R0]\nCMP~R3,0\nMOV~R12,R2\nMOVEQ~LR,R3\nBEQ~FOO\nMOV~LR,0\nADD~LR,LR,0\nLDRB~R3,[LR,R0]\nCMP~R3,0\nBNE~FOO\nLDRB~R3,[R1]\nCMP~R3,0\nMOVEQ~R2,R3\nBEQ~FOO\nMOV~R2,0\nADD~R2,R2,0\nLDRB~R3,[R2,R1]\nCMP~R3,0\nBNE~FOO\nCMP~R12,R2\nCMPLE~R12,LR\nBLE~FOO\nB~FOO\nADD~R0,R0,0\nADD~R1,R1,0\nSUBS~R12,R12,0\nBCC~FOO\nLDRB~R2,[R0]\nLDRB~R3,[R1]\nCMP~R2,R3\nBEQ~FOO\nMOV~R0,0\nLDR~PC,[SP]\nMOV~R0,0\nLDR~PC,[SP]"'
p170
L144L
tp171
a(S'util_itoa'
p172
S'"STMFD~SP!,{R4-R8,R10,LR}\nSUBS~R8,R2,0\nSUB~SP,SP,0\nMOV~R5,R1\nBEQ~FOO\nCMP~R0,0\nMOVEQ~R3,0\nSTREQB~R3,[R8]\nSTREQB~R0,[R8,0]\nBEQ~FOO\nMOV~R3,R0,LSR0\nCMP~R1,0\nMOVNE~R2,0\nANDEQ~R2,R3,0\nCMP~R2,0\nMOV~R3,0\nSTRB~R3,[SP,0]\nMOVEQ~R4,R0\nMOVEQ~R10,R2\nBEQ~FOO\nRSB~R4,R0,0\nCMP~R4,R3\nMOVNE~R10,0\nBEQ~FOO\nMOV~R6,0\nADD~R7,SP,0\nMOV~R0,R4\nMOV~R1,R5\nBL~FOO\nCMP~R0,0\nADD~R3,R0,0\nMOV~R1,R5\nADDGT~R3,R0,0\nMOV~R0,R4\nSTRB~R3,[R7]\nBL~FOO\nSUBS~R4,R0,0\nSUB~R6,R6,0\nBNE~FOO\nCMP~R10,0\nADDEQ~R6,R6,0\nBNE~FOO\nADD~R3,SP,0\nLDRB~R2,[R3,R6]\nCMP~R2,0\nADD~R1,R3,R6\nBEQ~FOO\nMOV~R2,0\nADD~R2,R2,0\nLDRB~R3,[R2,R1]\nCMP~R3,0\nBNE~FOO\nCMN~R2,0\nBEQ~FOO\nMOV~R0,R1\nMOV~R1,R8\nSUB~R2,R2,0\nLDRB~R3,[R0]\nCMN~R2,0\nSTRB~R3,[R1]\nBNE~FOO\nMOV~R0,R8\nADD~SP,SP,0\nLDMFD~SP!,{R4-R8,R10,PC}\nMOV~R6,0\nADD~R3,SP,0\nADD~R2,R3,R6\nMOV~R3,0\nSTRB~R3,[R2,-0]\nB~FOO"'
p173
L280L
tp174
a(S'__udivsi3'
p175
S'"SUBS~R2,R1,0\nMOVEQ~PC,LR\nBCC~FOO\nCMP~R0,R1\nBLS~FOO\nTST~R1,R2\nBEQ~FOO\nTST~R1,0\nMOVEQ~R1,R1,LSL0\nMOVEQ~R3,0\nMOVNE~R3,0\nCMP~R1,0\nCMPCC~R1,R0\nMOVCC~R1,R1,LSL0\nMOVCC~R3,R3,LSL0\nBCC~FOO\nCMP~R1,0\nCMPCC~R1,R0\nMOVCC~R1,R1,LSL0\nMOVCC~R3,R3,LSL0\nBCC~FOO\nMOV~R2,0\nCMP~R0,R1\nSUBCS~R0,R0,R1\nORRCS~R2,R2,R3\nCMP~R0,R1,LSR0\nSUBCS~R0,R0,R1,LSR0\nORRCS~R2,R2,R3,LSR0\nCMP~R0,R1,LSR0\nSUBCS~R0,R0,R1,LSR0\nORRCS~R2,R2,R3,LSR0\nCMP~R0,R1,LSR0\nSUBCS~R0,R0,R1,LSR0\nORRCS~R2,R2,R3,LSR0\nCMP~R0,0\nMOVNES~R3,R3,LSR0\nMOVNE~R1,R1,LSR0\nBNE~FOO\nMOV~R0,R2\nRET\nMOVEQ~R0,0\nMOVNE~R0,0\nRET\nCMP~R1,0\nMOVCS~R1,R1,LSR0\nMOVCS~R2,0\nMOVCC~R2,0\nCMP~R1,0\nMOVCS~R1,R1,LSR0\nADDCS~R2,R2,0\nCMP~R1,0\nMOVCS~R1,R1,LSR0\nADDCS~R2,R2,0\nCMP~R1,0\nADDHI~R2,R2,0\nADDLS~R2,R2,R1,LSR0\nMOV~R0,R0,LSRR2\nRET\nSTR~LR,[SP,-0]\nBL~FOO\nMOV~R0,0\nLDR~PC,[SP]"'
p176
L248L
tp177
a(S'__aeabi_uidivmod'
p178
S'"STMFD~SP!,{R0,R1,LR}\nBL~FOO\nLDMFD~SP!,{R1,R2,LR}\nMUL~R3,R2,R0\nSUB~R1,R1,R3\nRET"'
p179
L24L
tp180
a(S'__umodsi3'
p181
S'"SUBS~R2,R1,0\nBCC~FOO\nCMPNE~R0,R1\nMOVEQ~R0,0\nTSTHI~R1,R2\nANDEQ~R0,R0,R2\nMOVLS~PC,LR\nMOV~R2,0\nCMP~R1,0\nCMPCC~R1,R0\nMOVCC~R1,R1,LSL0\nADDCC~R2,R2,0\nBCC~FOO\nCMP~R1,0\nCMPCC~R1,R0\nMOVCC~R1,R1,LSL0\nADDCC~R2,R2,0\nBCC~FOO\nSUBS~R2,R2,0\nBLT~FOO\nCMP~R0,R1\nSUBCS~R0,R0,R1\nCMP~R0,R1,LSR0\nSUBCS~R0,R0,R1,LSR0\nCMP~R0,R1,LSR0\nSUBCS~R0,R0,R1,LSR0\nCMP~R0,R1,LSR0\nSUBCS~R0,R0,R1,LSR0\nCMP~R0,0\nMOV~R1,R1,LSR0\nSUBGES~R2,R2,0\nBGE~FOO\nTST~R2,0\nTEQNE~R0,0\nBEQ~FOO\nCMN~R2,0\nBLT~FOO\nBEQ~FOO\nCMP~R0,R1\nSUBCS~R0,R0,R1\nMOV~R1,R1,LSR0\nCMP~R0,R1\nSUBCS~R0,R0,R1\nMOV~R1,R1,LSR0\nCMP~R0,R1\nSUBCS~R0,R0,R1\nRET\nSTR~LR,[SP,-0]\nBL~FOO\nMOV~R0,0\nLDR~PC,[SP]"'
p182
L204L
tp183
a(S'__modsi3'
p184
S'"CMP~R1,0\nBEQ~FOO\nRSBMI~R1,R1,0\nMOVS~R12,R0\nRSBMI~R0,R0,0\nSUBS~R2,R1,0\nCMPNE~R0,R1\nMOVEQ~R0,0\nTSTHI~R1,R2\nANDEQ~R0,R0,R2\nBLS~FOO\nMOV~R2,0\nCMP~R1,0\nCMPCC~R1,R0\nMOVCC~R1,R1,LSL0\nADDCC~R2,R2,0\nBCC~FOO\nCMP~R1,0\nCMPCC~R1,R0\nMOVCC~R1,R1,LSL0\nADDCC~R2,R2,0\nBCC~FOO\nSUBS~R2,R2,0\nBLT~FOO\nCMP~R0,R1\nSUBCS~R0,R0,R1\nCMP~R0,R1,LSR0\nSUBCS~R0,R0,R1,LSR0\nCMP~R0,R1,LSR0\nSUBCS~R0,R0,R1,LSR0\nCMP~R0,R1,LSR0\nSUBCS~R0,R0,R1,LSR0\nCMP~R0,0\nMOV~R1,R1,LSR0\nSUBGES~R2,R2,0\nBGE~FOO\nTST~R2,0\nTEQNE~R0,0\nBEQ~FOO\nCMN~R2,0\nBLT~FOO\nBEQ~FOO\nCMP~R0,R1\nSUBCS~R0,R0,R1\nMOV~R1,R1,LSR0\nCMP~R0,R1\nSUBCS~R0,R0,R1\nMOV~R1,R1,LSR0\nCMP~R0,R1\nSUBCS~R0,R0,R1\nCMP~R12,0\nRSBMI~R0,R0,0\nRET\nSTR~LR,[SP,-0]\nBL~FOO\nMOV~R0,0\nLDR~PC,[SP]"'
p185
L228L
tp186
a(S'fcntl'
p187
S'"STMFD~SP!,{R1-R3}\nSTMFD~SP!,{R4,LR}\nSUB~SP,SP,0\nLDR~R12,[SP,0]\nSUB~R3,R12,0\nCMP~R3,0\nADD~R3,SP,0\nSTR~R3,[SP]\nLDR~R3,[SP,0]\nMOV~R1,R12\nMOV~R2,R3\nBHI~FOO\nBL~FOO\nB~FOO\nMOV~R2,R3\nMOV~R1,R12\nSVC~0\nCMN~R0,0\nMOV~R4,R0\nBLS~FOO\nBL~FOO\nRSB~R3,R4,0\nSTR~R3,[R0]\nMOV~R4,0\nMOV~R0,R4\nADD~SP,SP,0\nLDMFD~SP!,{R4,LR}\nADD~SP,SP,0\nRET"'
p188
L116L
tp189
a(S'fcntl64'
p190
S'"STMFD~SP!,{R1-R3}\nSTMFD~SP!,{R4,LR}\nSUB~SP,SP,0\nADD~R3,SP,0\nSTR~R3,[SP]\nADD~R1,SP,0\nLDMIA~R1,{R1,R2}\nSVC~0\nCMN~R0,0\nMOV~R4,R0\nBLS~FOO\nBL~FOO\nRSB~R3,R4,0\nSTR~R3,[R0]\nMOV~R4,0\nMOV~R0,R4\nADD~SP,SP,0\nLDMFD~SP!,{R4,LR}\nADD~SP,SP,0\nRET"'
p191
L80L
tp192
a(S'chdir'
p193
S'"STMFD~SP!,{R4,LR}\nSVC~0\nCMN~R0,0\nMOV~R4,R0\nBLS~FOO\nBL~FOO\nRSB~R3,R4,0\nSTR~R3,[R0]\nMOV~R4,0\nMOV~R0,R4\nLDMFD~SP!,{R4,PC}"'
p194
L44L
tp195
a(S'close'
p196
S'"STMFD~SP!,{R4,LR}\nSVC~0\nCMN~R0,0\nMOV~R4,R0\nBLS~FOO\nBL~FOO\nRSB~R3,R4,0\nSTR~R3,[R0]\nMOV~R4,0\nMOV~R0,R4\nLDMFD~SP!,{R4,PC}"'
p197
L44L
tp198
a(S'fork'
p199
S'"STMFD~SP!,{R4,LR}\nSVC~0\nCMN~R0,0\nMOV~R4,R0\nBLS~FOO\nBL~FOO\nRSB~R3,R4,0\nSTR~R3,[R0]\nMOV~R4,0\nMOV~R0,R4\nLDMFD~SP!,{R4,PC}"'
p200
L44L
tp201
a(S'getpid'
p202
S'"STMFD~SP!,{R4,LR}\nSVC~0\nCMN~R0,0\nMOV~R4,R0\nBLS~FOO\nBL~FOO\nRSB~R3,R4,0\nSTR~R3,[R0]\nMOV~R4,0\nMOV~R0,R4\nLDMFD~SP!,{R4,PC}"'
p203
L44L
tp204
a(S'getppid'
p205
S'"STMFD~SP!,{R4,LR}\nSVC~0\nCMN~R0,0\nMOV~R4,R0\nBLS~FOO\nBL~FOO\nRSB~R3,R4,0\nSTR~R3,[R0]\nMOV~R4,0\nMOV~R0,R4\nLDMFD~SP!,{R4,PC}"'
p206
L44L
tp207
a(S'ioctl'
p208
S'"STMFD~SP!,{R1-R3}\nSTMFD~SP!,{R4,LR}\nSUB~SP,SP,0\nADD~R3,SP,0\nSTR~R3,[SP]\nADD~R1,SP,0\nLDMIA~R1,{R1,R2}\nSVC~0\nCMN~R0,0\nMOV~R4,R0\nBLS~FOO\nBL~FOO\nRSB~R3,R4,0\nSTR~R3,[R0]\nMOV~R4,0\nMOV~R0,R4\nADD~SP,SP,0\nLDMFD~SP!,{R4,LR}\nADD~SP,SP,0\nRET"'
p209
L80L
tp210
a(S'kill'
p211
S'"STMFD~SP!,{R4,LR}\nSVC~0\nCMN~R0,0\nMOV~R4,R0\nBLS~FOO\nBL~FOO\nRSB~R3,R4,0\nSTR~R3,[R0]\nMOV~R4,0\nMOV~R0,R4\nLDMFD~SP!,{R4,PC}"'
p212
L44L
tp213
a(S'open'
p214
S'"STMFD~SP!,{R1-R3}\nSTMFD~SP!,{R4,LR}\nSUB~SP,SP,0\nLDR~R1,[SP,0]\nANDS~R3,R1,0\nADDNE~R3,SP,0\nSTRNE~R3,[SP]\nLDRNE~R3,[SP,0]\nMOV~R2,R3,LSL0\nMOV~R2,R2,LSR0\nSVC~0\nCMN~R0,0\nMOV~R4,R0\nBLS~FOO\nBL~FOO\nRSB~R3,R4,0\nSTR~R3,[R0]\nMOV~R4,0\nMOV~R0,R4\nADD~SP,SP,0\nLDMFD~SP!,{R4,LR}\nADD~SP,SP,0\nRET"'
p215
L92L
tp216
a(S'creat'
p217
S'"MOV~R2,R1\nLDR~R1,<STR>\nB~FOO"'
p218
L12L
tp219
a(S'prctl'
p220
S'"STMFD~SP!,{R4,LR}\nLDR~R4,[SP,0]\nSVC~0\nCMN~R0,0\nMOV~R4,R0\nBLS~FOO\nBL~FOO\nRSB~R3,R4,0\nSTR~R3,[R0]\nMOV~R4,0\nMOV~R0,R4\nLDMFD~SP!,{R4,PC}"'
p221
L48L
tp222
a(S'read'
p223
S'"STMFD~SP!,{R4,LR}\nSVC~0\nCMN~R0,0\nMOV~R4,R0\nBLS~FOO\nBL~FOO\nRSB~R3,R4,0\nSTR~R3,[R0]\nMOV~R4,0\nMOV~R0,R4\nLDMFD~SP!,{R4,PC}"'
p224
L44L
tp225
a(S'readlink'
p226
S'"STMFD~SP!,{R4,LR}\nSVC~0\nCMN~R0,0\nMOV~R4,R0\nBLS~FOO\nBL~FOO\nRSB~R3,R4,0\nSTR~R3,[R0]\nMOV~R4,0\nMOV~R0,R4\nLDMFD~SP!,{R4,PC}"'
p227
L44L
tp228
a(S'select'
p229
S'"STMFD~SP!,{R4,LR}\nLDR~R4,[SP,0]\nSVC~0\nCMN~R0,0\nMOV~R4,R0\nBLS~FOO\nBL~FOO\nRSB~R3,R4,0\nSTR~R3,[R0]\nMOV~R4,0\nMOV~R0,R4\nLDMFD~SP!,{R4,PC}"'
p230
L48L
tp231
a(S'setsid'
p232
S'"STMFD~SP!,{R4,LR}\nSVC~0\nCMN~R0,0\nMOV~R4,R0\nBLS~FOO\nBL~FOO\nRSB~R3,R4,0\nSTR~R3,[R0]\nMOV~R4,0\nMOV~R0,R4\nLDMFD~SP!,{R4,PC}"'
p233
L44L
tp234
a(S'sigprocmask'
p235
S'"CMP~R1,0\nCMPNE~R0,0\nSTMFD~SP!,{R4,LR}\nMOV~R3,0\nBLS~FOO\nBL~FOO\nMOV~R3,0\nMOV~R2,0\nSTR~R3,[R0]\nB~FOO\nSVC~0\nCMN~R0,0\nMOV~R4,R0\nBLS~FOO\nBL~FOO\nRSB~R3,R4,0\nSTR~R3,[R0]\nMOV~R4,0\nMOV~R2,R4\nMOV~R0,R2\nLDMFD~SP!,{R4,PC}"'
p236
L84L
tp237
a(S'time'
p238
S'"STMFD~SP!,{R4,LR}\nSVC~0\nCMN~R0,0\nMOV~R4,R0\nBLS~FOO\nBL~FOO\nRSB~R3,R4,0\nSTR~R3,[R0]\nMOV~R4,0\nMOV~R0,R4\nLDMFD~SP!,{R4,PC}"'
p239
L44L
tp240
a(S'unlink'
p241
S'"STMFD~SP!,{R4,LR}\nSVC~0\nCMN~R0,0\nMOV~R4,R0\nBLS~FOO\nBL~FOO\nRSB~R3,R4,0\nSTR~R3,[R0]\nMOV~R4,0\nMOV~R0,R4\nLDMFD~SP!,{R4,PC}"'
p242
L44L
tp243
a(S'write'
p244
S'"STMFD~SP!,{R4,LR}\nSVC~0\nCMN~R0,0\nMOV~R4,R0\nBLS~FOO\nBL~FOO\nRSB~R3,R4,0\nSTR~R3,[R0]\nMOV~R4,0\nMOV~R0,R4\nLDMFD~SP!,{R4,PC}"'
p245
L44L
tp246
a(S'closedir'
p247
S'"STMFD~SP!,{R4-R7,LR}\nMOV~R5,R0\nLDR~R4,[R5]\nSUB~SP,SP,0\nADD~R6,R0,0\nCMN~R4,0\nMOV~R7,SP\nLDR~R1,<STR>\nMOV~R2,R6\nMOV~R0,SP\nBNE~FOO\nBL~FOO\nMOV~R3,0\nMOV~R2,R4\nSTR~R3,[R0]\nB~FOO\nLDR~R3,<STR>\nMOV~LR,PC\nMOV~PC,R3\nLDR~R3,<STR>\nMOV~R0,R6\nMOV~LR,PC\nMOV~PC,R3\nMOV~R3,0\nMOV~R1,0\nLDR~R4,[R5]\nMOV~R0,SP\nSTR~R3,[R5]\nLDR~R3,<STR>\nMOV~LR,PC\nMOV~PC,R3\nLDR~R0,[R5,0]\nBL~FOO\nMOV~R0,R5\nBL~FOO\nMOV~R0,R4\nBL~FOO\nMOV~R2,R0\nMOV~R0,R2\nADD~SP,SP,0\nLDMFD~SP!,{R4-R7,PC}"'
p248
L164L
tp249
a(S'opendir'
p250
S'"STMFD~SP!,{R4-R7,LR}\nMOV~R1,0\nSUB~SP,SP,0\nBL~FOO\nSUBS~R7,R0,0\nMOVLT~R6,0\nBLT~FOO\nMOV~R1,SP\nBL~FOO\nCMP~R0,0\nBLT~FOO\nMOV~R0,R7\nMOV~R1,0\nMOV~R2,0\nBL~FOO\nCMP~R0,0\nBGE~FOO\nBL~FOO\nMOV~R5,R0\nMOV~R0,R7\nLDR~R4,[R5]\nBL~FOO\nMOV~R6,0\nSTR~R4,[R5]\nB~FOO\nMOV~R0,0\nBL~FOO\nSUBS~R6,R0,0\nBEQ~FOO\nMOV~R4,0\nSTR~R4,[R6,0]\nLDR~R3,[SP,0]\nCMP~R3,0\nSTR~R3,[R6,0]\nMOVCC~R3,0\nSTRCC~R3,[R6,0]\nSTR~R7,[R6]\nSTR~R4,[R6,0]\nSTR~R4,[R6,0]\nMOV~R0,0\nLDR~R1,[R6,0]\nBL~FOO\nCMP~R0,0\nSTR~R0,[R6,0]\nBNE~FOO\nMOV~R0,R6\nBL~FOO\nMOV~R0,R7\nBL~FOO\nBL~FOO\nMOV~R6,0\nMOV~R3,0\nSTR~R3,[R0]\nB~FOO\nMOV~R1,R4\nADD~R0,R6,0\nLDR~R3,<STR>\nMOV~LR,PC\nMOV~PC,R3\nMOV~R0,R6\nADD~SP,SP,0\nLDMFD~SP!,{R4-R7,PC}"'
p251
L248L
tp252
a(S'readdir'
p253
S'"STMFD~SP!,{R4,R5,LR}\nADD~R4,R0,0\nSUB~SP,SP,0\nLDR~R3,<STR>\nMOV~R5,R0\nLDR~R1,<STR>\nMOV~R0,SP\nMOV~R2,R4\nMOV~LR,PC\nMOV~PC,R3\nMOV~R0,R4\nLDR~R3,<STR>\nMOV~LR,PC\nMOV~PC,R3\nLDMIB~R5,{R2,R3}\nCMP~R3,R2\nBHI~FOO\nLDR~R0,[R5]\nLDR~R1,[R5,0]\nLDR~R2,[R5,0]\nBL~FOO\nCMP~R0,0\nMOVLE~R4,0\nBLE~FOO\nMOV~R3,0\nSTR~R3,[R5,0]\nSTR~R0,[R5,0]\nLDR~R2,[R5,0]\nLDR~R12,[R5,0]\nADD~R4,R2,R12\nLDR~R1,[R4,0]\nLDRB~R3,[R4,0]\nLDRB~R0,[R4,0]\nSTR~R1,[R5,0]\nLDR~R1,[R2,R12]\nORR~R3,R3,R0,LSL0\nADD~R2,R2,R3\nCMP~R1,0\nSTR~R2,[R5,0]\nBEQ~FOO\nMOV~R0,SP\nMOV~R1,0\nLDR~R3,<STR>\nMOV~LR,PC\nMOV~PC,R3\nMOV~R0,R4\nADD~SP,SP,0\nLDMFD~SP!,{R4,R5,PC}"'
p254
L192L
tp255
a(S'__errno_location'
p256
S'"LDR~R0,<STR>\nRET"'
p257
L8L
tp258
a(S'clock'
p259
S'"STR~LR,[SP,-0]\nSUB~SP,SP,0\nMOV~R0,SP\nBL~FOO\nLDR~R2,[SP,0]\nLDR~R3,[SP]\nADD~R3,R3,R2\nLDR~R2,<STR>\nMUL~R0,R3,R2\nBIC~R0,R0,0\nADD~SP,SP,0\nLDMFD~SP!,{PC}"'
p260
L48L
tp261
a(S'memset'
p262
S'"MOV~R3,R0\nCMP~R2,0\nBLT~FOO\nORR~R1,R1,R1,LSL0\nORR~R1,R1,R1,LSL0\nTST~R3,0\nSTRNEB~R1,[R3]\nSUBNE~R2,R2,0\nBNE~FOO\nMOV~R12,R1\nCMP~R2,0\nBLT~FOO\nSTMIA~R3!,{R1,R12}\nSUB~R2,R2,0\nCMP~R2,0\nBLT~FOO\nSTMIA~R3!,{R1,R12}\nSUB~R2,R2,0\nCMP~R2,0\nBLT~FOO\nSTMIA~R3!,{R1,R12}\nSUB~R2,R2,0\nCMP~R2,0\nSTMGEIA~R3!,{R1,R12}\nSUBGE~R2,R2,0\nBGE~FOO\nMOVS~R2,R2\nMOVEQ~PC,LR\nRSB~R2,R2,0\nADD~PC,PC,R2,LSL0"'
p263
L120L
tp264
a(S'inet_addr'
p265
S'"STR~LR,[SP,-0]\nSUB~SP,SP,0\nMOV~R1,SP\nBL~FOO\nCMP~R0,0\nMOV~R0,0\nLDRNE~R0,[SP]\nADD~SP,SP,0\nLDMFD~SP!,{PC}"'
p266
L36L
tp267
a(S'accept'
p268
S'"STMFD~SP!,{R4,LR}\nSVC~0\nCMN~R0,0\nMOV~R4,R0\nBLS~FOO\nBL~FOO\nRSB~R3,R4,0\nSTR~R3,[R0]\nMOV~R4,0\nMOV~R0,R4\nLDMFD~SP!,{R4,PC}"'
p269
L44L
tp270
a(S'bind'
p271
S'"STMFD~SP!,{R4,LR}\nSVC~0\nCMN~R0,0\nMOV~R4,R0\nBLS~FOO\nBL~FOO\nRSB~R3,R4,0\nSTR~R3,[R0]\nMOV~R4,0\nMOV~R0,R4\nLDMFD~SP!,{R4,PC}"'
p272
L44L
tp273
a(S'connect'
p274
S'"STMFD~SP!,{R4,LR}\nSVC~0\nCMN~R0,0\nMOV~R4,R0\nBLS~FOO\nBL~FOO\nRSB~R3,R4,0\nSTR~R3,[R0]\nMOV~R4,0\nMOV~R0,R4\nLDMFD~SP!,{R4,PC}"'
p275
L44L
tp276
a(S'getsockname'
p277
S'"STMFD~SP!,{R4,LR}\nSVC~0\nCMN~R0,0\nMOV~R4,R0\nBLS~FOO\nBL~FOO\nRSB~R3,R4,0\nSTR~R3,[R0]\nMOV~R4,0\nMOV~R0,R4\nLDMFD~SP!,{R4,PC}"'
p278
L44L
tp279
a(S'getsockopt'
p280
S'"STMFD~SP!,{R4,LR}\nLDR~R4,[SP,0]\nSVC~0\nCMN~R0,0\nMOV~R4,R0\nBLS~FOO\nBL~FOO\nRSB~R3,R4,0\nSTR~R3,[R0]\nMOV~R4,0\nMOV~R0,R4\nLDMFD~SP!,{R4,PC}"'
p281
L48L
tp282
a(S'listen'
p283
S'"STMFD~SP!,{R4,LR}\nSVC~0\nCMN~R0,0\nMOV~R4,R0\nBLS~FOO\nBL~FOO\nRSB~R3,R4,0\nSTR~R3,[R0]\nMOV~R4,0\nMOV~R0,R4\nLDMFD~SP!,{R4,PC}"'
p284
L44L
tp285
a(S'recv'
p286
S'"STMFD~SP!,{R4,LR}\nSVC~0\nCMN~R0,0\nMOV~R4,R0\nBLS~FOO\nBL~FOO\nRSB~R3,R4,0\nSTR~R3,[R0]\nMOV~R4,0\nMOV~R0,R4\nLDMFD~SP!,{R4,PC}"'
p287
L44L
tp288
a(S'recvfrom'
p289
S'"STMFD~SP!,{R4,R5,LR}\nADD~R4,SP,0\nLDMIA~R4,{R4,R5}\nSVC~0\nCMN~R0,0\nMOV~R4,R0\nBLS~FOO\nBL~FOO\nRSB~R3,R4,0\nSTR~R3,[R0]\nMOV~R4,0\nMOV~R0,R4\nLDMFD~SP!,{R4,R5,PC}"'
p290
L52L
tp291
a(S'send'
p292
S'"STMFD~SP!,{R4,LR}\nSVC~0\nCMN~R0,0\nMOV~R4,R0\nBLS~FOO\nBL~FOO\nRSB~R3,R4,0\nSTR~R3,[R0]\nMOV~R4,0\nMOV~R0,R4\nLDMFD~SP!,{R4,PC}"'
p293
L44L
tp294
a(S'sendto'
p295
S'"STMFD~SP!,{R4,R5,LR}\nADD~R4,SP,0\nLDMIA~R4,{R4,R5}\nSVC~0\nCMN~R0,0\nMOV~R4,R0\nBLS~FOO\nBL~FOO\nRSB~R3,R4,0\nSTR~R3,[R0]\nMOV~R4,0\nMOV~R0,R4\nLDMFD~SP!,{R4,R5,PC}"'
p296
L52L
tp297
a(S'setsockopt'
p298
S'"STMFD~SP!,{R4,LR}\nLDR~R4,[SP,0]\nSVC~0\nCMN~R0,0\nMOV~R4,R0\nBLS~FOO\nBL~FOO\nRSB~R3,R4,0\nSTR~R3,[R0]\nMOV~R4,0\nMOV~R0,R4\nLDMFD~SP!,{R4,PC}"'
p299
L48L
tp300
a(S'socket'
p301
S'"STMFD~SP!,{R4,LR}\nSVC~0\nCMN~R0,0\nMOV~R4,R0\nBLS~FOO\nBL~FOO\nRSB~R3,R4,0\nSTR~R3,[R0]\nMOV~R4,0\nMOV~R0,R4\nLDMFD~SP!,{R4,PC}"'
p302
L44L
tp303
a(S'raise'
p304
S'"STMFD~SP!,{R4,LR}\nMOV~R4,R0\nBL~FOO\nMOV~R1,R4\nLDMFD~SP!,{R4,LR}\nB~FOO"'
p305
L24L
tp306
a(S'sigaddset'
p307
S'"SUBS~R3,R1,0\nSTR~LR,[SP,-0]\nBLE~FOO\nCMP~R3,0\nBGT~FOO\nLDR~LR,[SP]\nB~FOO\nBL~FOO\nMOV~R3,0\nSTR~R3,[R0]\nMOV~R0,0\nLDR~PC,[SP]"'
p308
L48L
tp309
a(S'sigemptyset'
p310
S'"STR~LR,[SP,-0]\nMOV~R1,0\nMOV~R2,0\nBL~FOO\nMOV~R0,0\nLDR~PC,[SP]"'
p311
L24L
tp312
a(S'signal'
p313
S'"STMFD~SP!,{R4,R5,LR}\nCMN~R1,0\nCMPNE~R0,0\nSUB~SP,SP,0\nMOV~R4,R0\nBLE~FOO\nCMP~R0,0\nMOVLE~R0,0\nSTRLE~R1,[SP,0]\nBLE~FOO\nBL~FOO\nMOV~R3,0\nMOV~R2,0\nSTR~R3,[R0]\nB~FOO\nMOV~R3,0\nSTR~R3,[R2,-0]\nSUBS~R0,R0,0\nADD~R3,SP,0\nADD~R2,R3,R0,LSL0\nBPL~FOO\nADD~R5,SP,0\nADD~R0,R5,0\nMOV~R1,R4\nBL~FOO\nCMP~R0,0\nBLT~FOO\nMOV~R1,R4\nLDR~R0,<STR>\nBL~FOO\nCMP~R0,0\nMOVEQ~R3,0\nMOVNE~R3,0\nMOV~R2,SP\nMOV~R1,R5\nMOV~R0,R4\nSTR~R3,[SP,0]\nBL~FOO\nCMP~R0,0\nLDRGE~R2,[SP]\nBGE~FOO\nMOV~R2,0\nMOV~R0,R2\nADD~SP,SP,0\nLDMFD~SP!,{R4,R5,PC}"'
p314
L180L
tp315
a(S'__sigismember'
p316
S'"SUB~R1,R1,0\nMOV~R3,R1,LSR0\nLDR~R2,[R0,R3,LSL0]\nAND~R1,R1,0\nMOV~R3,0\nANDS~R3,R2,R3,LSLR1\nMOVEQ~R0,0\nMOVNE~R0,0\nRET"'
p317
L36L
tp318
a(S'__sigaddset'
p319
S'"SUB~R1,R1,0\nMOV~R12,R1,LSR0\nLDR~R3,[R0,R12,LSL0]\nAND~R1,R1,0\nMOV~R2,0\nORR~R3,R3,R2,LSLR1\nSTR~R3,[R0,R12,LSL0]\nMOV~R0,0\nRET"'
p320
L36L
tp321
a(S'__sigdelset'
p322
S'"SUB~R1,R1,0\nMOV~R12,R1,LSR0\nLDR~R3,[R0,R12,LSL0]\nAND~R1,R1,0\nMOV~R2,0\nBIC~R3,R3,R2,LSLR1\nSTR~R3,[R0,R12,LSL0]\nMOV~R0,0\nRET"'
p323
L36L
tp324
a(S'malloc'
p325
S'"STMFD~SP!,{R4-R6,LR}\nCMP~R0,0\nSUB~SP,SP,0\nMOVEQ~R0,0\nBEQ~FOO\nCMN~R0,0\nBHI~FOO\nADD~R3,R0,0\nADD~R4,SP,0\nSTR~R3,[R4,-0]\nLDR~R0,<STR>\nLDR~R5,<STR>\nMOV~LR,PC\nMOV~PC,R5\nMOV~R1,SP\nLDR~R0,<STR>\nBL~FOO\nLDR~R3,<STR>\nMOV~R4,R0\nLDR~R0,<STR>\nMOV~LR,PC\nMOV~PC,R3\nCMP~R4,0\nBNE~FOO\nLDR~R3,<STR>\nLDR~R4,[R3]\nLDR~R3,[SP]\nCMP~R3,R4\nADDCS~R3,R3,R4\nSUBCS~R3,R3,0\nRSBCS~R2,R4,0\nANDCS~R4,R3,R2\nLDR~R0,<STR>\nMOV~LR,PC\nMOV~PC,R5\nMOV~R0,R4\nBL~FOO\nCMN~R0,0\nMOVEQ~R5,R0\nBEQ~FOO\nADD~R3,R0,0\nBIC~R5,R3,0\nCMP~R0,R5\nRSBNE~R0,R0,R5\nBLNE~FOO\nLDR~R0,<STR>\nLDR~R6,<STR>\nMOV~LR,PC\nMOV~PC,R6\nCMN~R5,0\nBEQ~FOO\nLDR~R3,<STR>\nLDR~R0,<STR>\nMOV~LR,PC\nMOV~PC,R3\nMOV~R2,R4\nMOV~R1,R5\nLDR~R0,<STR>\nBL~FOO\nMOV~R1,SP\nLDR~R0,<STR>\nBL~FOO\nMOV~R4,R0\nLDR~R0,<STR>\nMOV~LR,PC\nMOV~PC,R6\nCMP~R4,0\nBEQ~FOO\nLDR~R3,[SP]\nSTR~R3,[R4]\nCMP~R4,0\nBNE~FOO\nBL~FOO\nMOV~R3,0\nSTR~R3,[R0]\nMOV~R4,0\nMOV~R0,R4\nADD~SP,SP,0\nLDMFD~SP!,{R4-R6,PC}"'
p326
L316L
tp327
a(S'calloc'
p328
S'"STMFD~SP!,{R4,R5,LR}\nMOV~R5,R1\nMUL~R4,R0,R5\nSUBS~R1,R0,0\nMOV~R0,R4\nBEQ~FOO\nBL~FOO\nCMP~R5,R0\nMOV~R5,0\nBEQ~FOO\nBL~FOO\nMOV~R3,0\nSTR~R3,[R0]\nB~FOO\nMOV~R0,R4\nBL~FOO\nSUBS~R5,R0,0\nMOV~R2,R4\nMOV~R1,0\nBLNE~FOO\nMOV~R0,R5\nLDMFD~SP!,{R4,R5,PC}"'
p329
L88L
tp330
a(S'free'
p331
S'"CMP~R0,0\nSTMFD~SP!,{R4-R8,LR}\nLDMEQFD~SP!,{R4-R8,PC}\nLDR~R5,[R0,-0]\nLDR~R8,<STR>\nSUB~R4,R0,0\nLDR~R7,<STR>\nLDR~R0,<STR>\nMOV~LR,PC\nMOV~PC,R7\nMOV~R1,R4\nMOV~R2,R5\nMOV~R0,R8\nBL~FOO\nLDR~R3,<STR>\nLDR~R6,[R0]\nLDR~R3,[R3]\nCMP~R6,R3,LSL0\nMOV~R4,R0\nBCC~FOO\nLDR~R0,<STR>\nMOV~LR,PC\nMOV~PC,R7\nMOV~R0,0\nBL~FOO\nADD~R5,R4,0\nCMP~R5,R0\nBEQ~FOO\nLDR~R0,<STR>\nLDR~R3,<STR>\nMOV~LR,PC\nMOV~PC,R3\nLDR~R0,<STR>\nLDMFD~SP!,{R4-R8,LR}\nB~FOO\nLDR~R2,[R4,0]\nCMP~R2,0\nLDRNE~R3,[R4,0]\nSTRNE~R3,[R2,0]\nLDR~R2,[R4,0]\nLDR~R3,[R4,0]\nCMP~R2,0\nSTRNE~R3,[R2,0]\nSTREQ~R3,[R8]\nLDR~R0,<STR>\nLDR~R3,<STR>\nMOV~LR,PC\nMOV~PC,R3\nRSB~R0,R6,R4\nADD~R0,R0,0\nRSB~R0,R5,R0\nBL~FOO\nLDR~R0,<STR>\nB~FOO"'
p332
L216L
tp333
a(S'realloc'
p334
S'"STMFD~SP!,{R4-R8,LR}\nSUBS~R4,R1,0\nMOV~R7,R0\nBNE~FOO\nBL~FOO\nB~FOO\nCMP~R0,0\nBNE~FOO\nMOV~R0,R4\nLDMFD~SP!,{R4-R8,LR}\nB~FOO\nADD~R3,R4,0\nBIC~R5,R3,0\nCMP~R5,0\nLDR~R6,[R0,-0]\nMOVLS~R5,0\nCMP~R5,R6\nSUB~R8,R0,0\nBLS~FOO\nLDR~R3,<STR>\nRSB~R4,R6,R5\nLDR~R0,<STR>\nMOV~LR,PC\nMOV~PC,R3\nMOV~R2,R4\nADD~R1,R8,R6\nLDR~R0,<STR>\nBL~FOO\nLDR~R3,<STR>\nMOV~R4,R0\nLDR~R0,<STR>\nMOV~LR,PC\nMOV~PC,R3\nCMP~R4,0\nADDNE~R3,R6,R4\nSTRNE~R3,[R7,-0]\nBNE~FOO\nSUB~R0,R5,0\nBL~FOO\nSUBS~R4,R0,0\nBEQ~FOO\nSUB~R2,R6,0\nMOV~R1,R7\nBL~FOO\nMOV~R0,R7\nBL~FOO\nMOV~R7,R4\nB~FOO\nADD~R3,R5,0\nCMP~R3,R6\nBHI~FOO\nLDR~R3,<STR>\nLDR~R0,<STR>\nMOV~LR,PC\nMOV~PC,R3\nADD~R1,R8,R5\nRSB~R2,R5,R6\nLDR~R0,<STR>\nBL~FOO\nLDR~R0,<STR>\nLDR~R3,<STR>\nMOV~LR,PC\nMOV~PC,R3\nSTR~R5,[R7,-0]\nMOV~R0,R7\nLDMFD~SP!,{R4-R8,PC}"'
p335
L264L
tp336
a(S'__heap_alloc'
p337
S'"LDR~R3,[R1]\nSTMFD~SP!,{R4,LR}\nADD~R3,R3,0\nBIC~R2,R3,0\nMOV~R4,R1\nCMP~R2,0\nMOV~R1,R0\nLDR~R0,[R0]\nMOVLS~R2,0\nB~FOO\nLDR~R12,[R0]\nCMP~R12,R2\nBCC~FOO\nADD~R3,R2,0\nCMP~R12,R3\nRSBCS~R3,R2,R12\nSTRCS~R3,[R0]\nBCS~FOO\nLDR~R2,[R0,0]\nCMP~R2,0\nLDRNE~R3,[R0,0]\nSTRNE~R3,[R2,0]\nLDR~R3,[R0,0]\nLDR~LR,[R0,0]\nCMP~R3,0\nSTRNE~LR,[R3,0]\nSTREQ~LR,[R1]\nMOVNE~R2,R12\nMOVEQ~R2,R12\nRSB~R3,R12,R0\nADD~R0,R3,0\nSTR~R2,[R4]\nLDMFD~SP!,{R4,PC}\nLDR~R0,[R0,0]\nCMP~R0,0\nBNE~FOO\nLDMFD~SP!,{R4,PC}"'
p338
L148L
tp339
a(S'__heap_alloc_at'
p340
S'"STR~LR,[SP,-0]\nLDR~R12,[R0]\nMOV~LR,R0\nB~FOO\nLDR~R0,[R12]\nRSB~R3,R0,R12\nADD~R3,R3,0\nCMP~R3,R1\nBHI~FOO\nBNE~FOO\nADD~R3,R2,0\nBIC~R2,R3,0\nCMP~R0,R2\nBCC~FOO\nADD~R3,R2,0\nCMP~R0,R3\nRSBCS~R3,R2,R0\nSTRCS~R3,[R12]\nMOVCS~R0,R2\nLDRCS~PC,[SP]\nLDR~R2,[R12,0]\nCMP~R2,0\nLDRNE~R3,[R12,0]\nSTRNE~R3,[R2,0]\nLDR~R2,[R12,0]\nLDR~R3,[R12,0]\nCMP~R2,0\nSTRNE~R3,[R2,0]\nSTREQ~R3,[LR]\nLDR~PC,[SP]\nLDR~R12,[R12,0]\nCMP~R12,0\nBNE~FOO\nMOV~R0,0\nLDR~PC,[SP]"'
p341
L140L
tp342
a(S'__heap_link_free_area'
p343
S'"CMP~R2,0\nSTR~R3,[R1,0]\nSTR~R2,[R1,0]\nSTRNE~R1,[R2,0]\nSTREQ~R1,[R0]\nCMP~R3,0\nSTRNE~R1,[R3,0]\nRET"'
p344
L32L
tp345
a(S'__heap_link_free_area_after'
p346
S'"CMP~R2,0\nSTREQ~R1,[R0]\nSTRNE~R1,[R2,0]\nSTR~R2,[R1,0]\nRET"'
p347
L20L
tp348
a(S'__heap_free'
p349
S'"STMFD~SP!,{R4-R7,LR}\nLDR~R4,[R0]\nADD~LR,R1,R2\nMOV~R6,0\nB~FOO\nCMP~R3,R1\nBCS~FOO\nMOV~R6,R4\nLDR~R4,[R4,0]\nCMP~R4,0\nADD~R3,R4,0\nBNE~FOO\nB~FOO\nLDR~R12,[R4]\nRSB~R3,R12,R4\nADD~R3,R3,0\nCMP~R3,LR\nBHI~FOO\nADD~R7,R12,R2\nBNE~FOO\nCMP~R6,0\nBEQ~FOO\nADD~R3,R6,0\nCMP~R1,R3\nBNE~FOO\nLDR~R3,[R6]\nLDR~R2,[R6,0]\nMOV~R1,R4\nADD~R7,R7,R3\nBL~FOO\nB~FOO\nLDR~R5,[R4,0]\nCMP~R5,0\nBEQ~FOO\nLDR~R12,[R5]\nRSB~R3,R12,R5\nADD~R3,R3,0\nCMP~LR,R3\nBNE~FOO\nMOV~R2,R6\nMOV~R1,R5\nADD~R7,R7,R12\nBL~FOO\nMOV~R4,R5\nB~FOO\nADD~R4,R4,R2\nMOV~R3,R5\nMOV~R2,R6\nMOV~R1,R4\nBL~FOO\nMOV~R5,R4\nSTR~R7,[R4]\nB~FOO\nSUB~R5,LR,0\nSTR~R2,[LR,-0]\nMOV~R3,R4\nMOV~R2,R6\nMOV~R1,R5\nBL~FOO\nMOV~R0,R5\nLDMFD~SP!,{R4-R7,PC}"'
p350
L244L
tp351
a(S'abort'
p352
S'"SUB~SP,SP,0\nLDR~R0,<STR>\nLDR~R3,<STR>\nMOV~LR,PC\nMOV~PC,R3\nMOV~R1,0\nB~FOO\nADD~R3,SP,0\nADD~R2,R3,R1,LSL0\nMOV~R3,0\nSTR~R3,[R2,-0]\nSUBS~R1,R1,0\nBPL~FOO\nADD~R4,SP,0\nMOV~R0,R4\nMOV~R1,0\nBL~FOO\nCMP~R0,0\nMOVEQ~R2,R0\nMOVEQ~R1,R4\nMOVEQ~R0,0\nBLEQ~FOO\nLDR~R2,<STR>\nLDR~R3,[R2]\nCMP~R3,0\nBNE~FOO\nADD~R3,R3,0\nSTR~R3,[R2]\nLDR~R3,<STR>\nLDR~R0,<STR>\nMOV~LR,PC\nMOV~PC,R3\nMOV~R0,0\nBL~FOO\nLDR~R0,<STR>\nLDR~R3,<STR>\nMOV~LR,PC\nMOV~PC,R3\nLDR~R12,<STR>\nLDR~R3,[R12]\nCMP~R3,0\nBNE~FOO\nADD~R3,R3,0\nMOV~R1,0\nMOV~R0,SP\nMOV~R2,0\nSTR~R3,[R12]\nBL~FOO\nMOV~R3,0\nMOV~R1,0\nSTR~R3,[SP]\nB~FOO\nADD~R3,SP,0\nADD~R2,R3,R1,LSL0\nMOV~R3,0\nSTR~R3,[R2,-0]\nSUBS~R1,R1,0\nBPL~FOO\nMOV~R3,0\nMOV~R2,R3\nMOV~R1,SP\nMOV~R0,0\nSTR~R3,[SP,0]\nBL~FOO\nB~FOO\nCMP~R3,0\nBNE~FOO\nADD~R3,R3,0\nSTR~R3,[R12]\nBL~FOO\nLDR~R3,[R12]\nCMP~R3,0\nADDEQ~R3,R3,0\nMOVEQ~R0,0\nSTREQ~R3,[R12]\nBLEQ~FOO\nBL~FOO"'
p353
L308L
tp354
a(S'atol'
p355
S'"MOV~R1,0\nMOV~R2,0\nB~FOO"'
p356
L12L
tp357
a(S'strtol'
p358
S'"MOV~R3,0\nB~FOO"'
p359
L8L
tp360
a(S'_stdlib_strto_l'
p361
S'"STMFD~SP!,{R4-R11,LR}\nMOV~R9,R1\nMOV~R5,R2\nMOV~R11,R3\nMOV~R4,R0\nB~FOO\nADD~R4,R4,0\nLDR~R3,<STR>\nLDRB~R2,[R4]\nLDR~R3,[R3]\nLDRB~R3,[R3,R2,LSL0]\nANDS~R3,R3,0\nBNE~FOO\nCMP~R2,0\nBEQ~FOO\nCMP~R2,0\nMOVNE~R7,R3\nMOVEQ~R7,0\nBEQ~FOO\nB~FOO\nMOV~R7,R3\nADD~R4,R4,0\nBICS~R3,R5,0\nMOVNE~R6,R0\nBNE~FOO\nLDRB~R3,[R4]\nCMP~R3,0\nADD~R5,R5,0\nMOVNE~R6,R0\nBNE~FOO\nLDRB~R3,[R4,0]\nORR~R3,R3,0\nCMP~R3,0\nSUB~R5,R5,0\nMOVEQ~R6,R4\nMOVNE~R6,R4\nMOVEQ~R5,R5,LSL0\nADDEQ~R4,R4,0\nCMP~R5,0\nMOVGE~R5,0\nSUB~R3,R5,0\nCMP~R3,0\nMOVHI~R12,0\nBHI~FOO\nMOV~R1,R5\nMOV~R0,0\nBL~FOO\nMOV~R1,R5\nMOV~R3,R0\nMOV~R0,0\nAND~R10,R3,0\nBL~FOO\nMOV~R12,0\nMOV~R8,R0\nB~FOO\nMOV~R6,R4\nLDRB~R2,[R4]\nSUB~R3,R2,0\nAND~R1,R3,0\nCMP~R1,0\nORR~R2,R2,0\nBLS~FOO\nCMP~R2,0\nSUB~R2,R2,0\nMOV~R1,0\nANDHI~R1,R2,0\nCMP~R1,R5\nADD~R4,R4,0\nBGE~FOO\nCMP~R12,R8\nMOVNE~R3,0\nMOVEQ~R3,0\nBHI~FOO\nCMP~R1,R10\nMOVLS~R3,0\nANDHI~R3,R3,0\nCMP~R3,0\nMLAEQ~R12,R5,R12,R1\nBEQ~FOO\nBL~FOO\nAND~R7,R7,R11\nMOV~R3,0\nMOV~R12,0\nSTR~R3,[R0]\nB~FOO\nCMP~R9,0\nSTRNE~R6,[R9]\nCMP~R7,0\nMOVNE~R4,0\nMOVEQ~R4,0\nCMP~R11,0\nCMPNE~R12,R4\nBLS~FOO\nBL~FOO\nMOV~R3,0\nSTR~R3,[R0]\nMOV~R12,R4\nCMP~R7,0\nRSBNE~R12,R12,0\nMOV~R0,R12\nLDMFD~SP!,{R4-R11,PC}"'
p362
L404L
tp363
a(S'exit'
p364
S'"SUB~SP,SP,0\nLDR~R1,<STR>\nLDR~R2,<STR>\nLDR~R3,<STR>\nMOV~R4,R0\nMOV~R0,SP\nMOV~LR,PC\nMOV~PC,R3\nLDR~R3,<STR>\nLDR~R0,<STR>\nMOV~LR,PC\nMOV~PC,R3\nLDR~R3,<STR>\nLDR~R3,[R3]\nCMP~R3,0\nMOVNE~R0,R4\nMOVNE~LR,PC\nMOVNE~PC,R3\nLDR~R3,<STR>\nMOV~R0,SP\nMOV~R1,0\nMOV~LR,PC\nMOV~PC,R3\nBL~FOO\nLDR~R3,<STR>\nCMP~R3,0\nMOVNE~LR,PC\nMOVNE~PC,R3\nMOV~R0,R4\nBL~FOO"'
p365
L120L
tp366
a(S'sleep'
p367
S'"STMFD~SP!,{R4-R7,LR}\nSUBS~R12,R0,0\nSUB~SP,SP,0\nMOVNE~R1,0\nBNE~FOO\nB~FOO\nMOV~R3,0\nSTR~R3,[R2,-0]\nSUBS~R1,R1,0\nADD~R3,SP,0\nADD~R2,R3,R1,LSL0\nBPL~FOO\nADD~R6,SP,0\nMOV~R5,0\nMOV~R0,R6\nMOV~R1,0\nSTR~R12,[SP,0]\nSTR~R5,[SP,0]\nBL~FOO\nCMP~R0,R5\nBLT~FOO\nADD~R4,SP,0\nMOV~R0,R5\nMOV~R1,R6\nMOV~R2,R4\nBL~FOO\nCMP~R0,R5\nBNE~FOO\nMOV~R1,0\nMOV~R0,R4\nBL~FOO\nCMP~R0,R5\nMOVEQ~R1,0\nBEQ~FOO\nB~FOO\nMOV~R3,0\nSTR~R3,[R2,-0]\nSUBS~R1,R1,0\nADD~R3,SP,0\nADD~R2,R3,R1,LSL0\nBPL~FOO\nADD~R0,SP,0\nMOV~R1,0\nBL~FOO\nCMP~R0,0\nBLT~FOO\nMOV~R0,0\nMOV~R1,0\nMOV~R2,SP\nBL~FOO\nCMP~R0,0\nBGE~FOO\nBL~FOO\nADD~R1,SP,0\nMOV~R5,R0\nMOV~R2,0\nMOV~R0,0\nLDR~R4,[R5]\nBL~FOO\nMOV~R0,0\nSTR~R4,[R5]\nB~FOO\nLDR~R3,[SP]\nCMP~R3,0\nADD~R7,SP,0\nADD~R4,SP,0\nBNE~FOO\nMOV~R1,R4\nMOV~R0,R4\nBL~FOO\nMOV~R6,R0\nBL~FOO\nMOV~R1,R7\nMOV~R5,R0\nMOV~R2,0\nMOV~R0,0\nLDR~R4,[R5]\nBL~FOO\nSTR~R4,[R5]\nB~FOO\nMOV~R1,R7\nMOV~R2,0\nMOV~R0,0\nBL~FOO\nMOV~R0,R4\nB~FOO\nADD~R0,SP,0\nMOV~R1,R0\nBL~FOO\nMOV~R6,R0\nCMP~R6,0\nBEQ~FOO\nLDR~R1,[SP,0]\nLDR~R2,<STR>\nLDR~R3,[SP,0]\nCMP~R1,R2\nMOVLE~R0,R3\nADDGT~R0,R3,0\nB~FOO\nMOV~R0,0\nB~FOO\nMOV~R0,0\nADD~SP,SP,0\nLDMFD~SP!,{R4-R7,PC}"'
p368
L416L
tp369
a(S'__uClibc_fini'
p370
S'"STMFD~SP!,{R4,LR}\nLDR~R3,<STR>\nLDR~R2,<STR>\nRSB~R3,R2,R3\nMOV~R4,R3,ASR0\nB~FOO\nLDR~R3,<STR>\nMOV~LR,PC\nLDR~PC,[R3,R4,LSL0]\nSUBS~R4,R4,0\nBCS~FOO\nLDR~R3,<STR>\nLDR~R3,[R3]\nCMP~R3,0\nMOVNE~LR,PC\nMOVNE~PC,R3\nLDR~R3,<STR>\nLDR~R3,[R3]\nCMP~R3,0\nLDMEQFD~SP!,{R4,PC}\nMOV~LR,PC\nMOV~PC,R3\nLDMFD~SP!,{R4,PC}"'
p371
L92L
tp372
a(S'__pthread_return_0'
p373
S'"MOV~R0,0\nRET"'
p374
L8L
tp375
a(S'__check_one_fd'
p376
S'"STMFD~SP!,{R4,R5,LR}\nMOV~R4,R1\nMOV~R1,0\nMOV~R5,R0\nBL~FOO\nCMN~R0,0\nLDMNEFD~SP!,{R4,R5,PC}\nMOV~R1,R4\nLDR~R0,<STR>\nBL~FOO\nCMP~R0,R5\nLDMEQFD~SP!,{R4,R5,PC}\nBL~FOO"'
p377
L52L
tp378
a(S'__uClibc_init'
p379
S'"LDR~R2,<STR>\nLDR~R3,[R2]\nCMP~R3,0\nSTR~LR,[SP,-0]\nLDR~R1,<STR>\nLDRNE~PC,[SP]\nADD~R3,R3,0\nSTR~R3,[R2]\nLDR~R3,<STR>\nMOV~R2,0\nCMP~R1,0\nSTR~R2,[R3]\nMOVNE~LR,PC\nMOVNE~PC,R1\nLDR~R3,<STR>\nCMP~R3,0\nLDREQ~PC,[SP]\nLDR~LR,[SP]\nB~FOO"'
p380
L76L
tp381
a(S'__uClibc_main'
p382
S'"MOV~R6,R2\nADD~LR,R2,R1,LSL0\nLDR~R2,[R2]\nSUB~SP,SP,0\nADD~R12,LR,0\nCMP~R12,R2\nMOV~R8,R1\nLDR~R2,<STR>\nLDR~R1,[SP,0]\nLDR~R4,<STR>\nSTR~R1,[R2]\nLDR~R1,[SP,0]\nLDR~R2,<STR>\nSTR~R12,[R4]\nSTR~R1,[R2]\nMOV~R10,R0\nMOV~R2,0\nSTREQ~LR,[R4]\nMOV~R0,SP\nMOV~R1,0\nMOV~R7,R3\nBL~FOO\nLDR~R2,[R4]\nB~FOO\nMOV~R2,R1\nLDR~R3,[R2]\nCMP~R3,0\nMOV~R1,R2\nBNE~FOO\nMOV~R4,R2\nB~FOO\nCMP~R3,0\nADDLS~R0,SP,R3,LSL0\nMOVLS~R1,R4\nMOVLS~R2,0\nBLLS~FOO\nADD~R4,R4,0\nLDR~R3,[R4]\nCMP~R3,0\nBNE~FOO\nMOV~R0,SP\nBL~FOO\nBL~FOO\nLDR~R3,[SP,0]\nLDR~R2,[SP,0]\nCMP~R3,0\nMOVEQ~R3,0\nCMN~R2,0\nLDR~R2,<STR>\nSTR~R3,[R2]\nBNE~FOO\nBL~FOO\nMOV~R4,R0\nBL~FOO\nCMP~R4,R0\nBNE~FOO\nBL~FOO\nMOV~R4,R0\nBL~FOO\nCMP~R4,R0\nBNE~FOO\nLDR~R2,[SP,0]\nCMN~R2,0\nBEQ~FOO\nLDR~R3,[SP,0]\nCMP~R2,R3\nBNE~FOO\nLDR~R2,[SP,0]\nLDR~R3,[SP,0]\nCMP~R2,R3\nBEQ~FOO\nMOV~R0,0\nMOV~R1,0\nBL~FOO\nMOV~R0,0\nLDR~R1,<STR>\nBL~FOO\nMOV~R0,0\nLDR~R1,<STR>\nBL~FOO\nLDR~R2,<STR>\nLDR~R3,<STR>\nRSB~R3,R2,R3\nLDR~R1,[R6]\nMOV~R5,R3,ASR0\nLDR~R3,<STR>\nLDR~R2,[SP,0]\nSTR~R1,[R3]\nLDR~R3,<STR>\nMOV~R4,0\nSTR~R2,[R3]\nB~FOO\nLDR~R3,<STR>\nMOV~LR,PC\nLDR~PC,[R3,R4,LSL0]\nADD~R4,R4,0\nCMP~R4,R5\nBCC~FOO\nCMP~R7,0\nMOVNE~LR,PC\nMOVNE~PC,R7\nLDR~R3,<STR>\nLDR~R2,<STR>\nRSB~R3,R2,R3\nMOV~R5,R3,ASR0\nMOV~R4,0\nB~FOO\nLDR~R3,<STR>\nMOV~LR,PC\nLDR~PC,[R3,R4,LSL0]\nADD~R4,R4,0\nCMP~R4,R5\nBCC~FOO\nLDR~R3,<STR>\nCMP~R3,0\nBEQ~FOO\nMOV~LR,PC\nMOV~PC,R3\nMOV~R3,0\nSTR~R3,[R0]\nLDR~R3,<STR>\nCMP~R3,0\nBEQ~FOO\nMOV~LR,PC\nMOV~PC,R3\nMOV~R3,0\nSTR~R3,[R0]\nLDR~R3,<STR>\nMOV~R1,R6\nLDR~R2,[R3]\nMOV~R0,R8\nMOV~LR,PC\nMOV~PC,R10\nBL~FOO"'
p383
L536L
tp384
a(S'sigaction'
p385
S'"STMFD~SP!,{R4-R6,LR}\nSUBS~R4,R1,0\nSUB~SP,SP,0\nMOV~R6,R0\nMOV~R5,R2\nBEQ~FOO\nMOV~R1,R4\nLDR~R3,[R1]\nADD~R0,SP,0\nMOV~R2,0\nSTR~R3,[SP,0]\nBL~FOO\nLDR~R1,[R4,0]\nTST~R1,0\nLDRNE~R3,[R4,0]\nSTR~R1,[SP,0]\nSTRNE~R3,[SP,0]\nBNE~FOO\nLDR~R2,<STR>\nLDR~R3,<STR>\nTST~R1,0\nMOVNE~R3,R2\nORR~R2,R1,0\nSTR~R3,[SP,0]\nSTR~R2,[SP,0]\nCMP~R4,0\nADDNE~R1,SP,0\nBNE~FOO\nMOV~R1,0\nCMP~R5,0\nMOVEQ~R2,R5\nMOVNE~R2,SP\nMOV~R3,0\nMOV~R0,R6\nBL~FOO\nSUBS~R3,R5,0\nMOVNE~R3,0\nCMP~R0,0\nMOVLT~R3,0\nCMP~R3,0\nMOV~R4,R0\nBEQ~FOO\nLDR~R3,[SP]\nMOV~R0,R5\nSTR~R3,[R0]\nADD~R1,SP,0\nMOV~R2,0\nBL~FOO\nLDR~R3,[SP,0]\nSTR~R3,[R5,0]\nLDR~R3,[SP,0]\nSTR~R3,[R5,0]\nMOV~R0,R4\nADD~SP,SP,0\nLDMFD~SP!,{R4-R6,PC}"'
p386
L220L
tp387
a(S'__syscall_rt_sigaction'
p388
S'"STMFD~SP!,{R4,LR}\nSVC~0\nCMN~R0,0\nMOV~R4,R0\nBLS~FOO\nBL~FOO\nRSB~R3,R4,0\nSTR~R3,[R0]\nMOV~R4,0\nMOV~R0,R4\nLDMFD~SP!,{R4,PC}"'
p389
L44L
tp390
a(S'_exit'
p391
S'"MOV~R5,R0\nMOV~R0,R5\nSVC~0\nCMN~R0,0\nMOV~R4,R0\nBLS~FOO\nBL~FOO\nRSB~R3,R4,0\nSTR~R3,[R0]\nB~FOO"'
p392
L40L
tp393
a(S'fstat'
p394
S'"STMFD~SP!,{R4,LR}\nSUB~SP,SP,0\nMOV~R3,R1\nMOV~R1,SP\nSVC~0\nCMN~R0,0\nMOV~R4,R0\nBLS~FOO\nBL~FOO\nRSB~R3,R4,0\nMOV~R4,0\nSTR~R3,[R0]\nB~FOO\nCMP~R0,0\nMOV~R1,R3\nMOV~R0,SP\nBLEQ~FOO\nMOV~R0,R4\nADD~SP,SP,0\nLDMFD~SP!,{R4,PC}"'
p395
L80L
tp396
a(S'__getdents'
p397
S'"STMFD~SP!,{R4-R7,LR}\nMOV~R4,R1\nBL~FOO\nSUBS~R6,R0,0\nADDGT~R7,R4,R6\nBGT~FOO\nB~FOO\nLDR~LR,[R4,0]\nLDR~R2,[R4,0]\nLDRB~R12,[R4,0]\nMOV~R3,LR,ASR0\nSTRB~LR,[R4,0]\nSTR~R2,[R4,0]\nSTRB~R12,[R4,0]\nSTRB~R3,[R4,0]\nLDRB~R2,[R4,0]\nLDRB~R3,[R5,0]\nORR~R2,R2,R3,LSL0\nSUB~R2,R2,0\nBL~FOO\nLDRB~R3,[R4,0]\nLDRB~R2,[R5,0]\nMOV~R0,R4\nORR~R2,R3,R2,LSL0\nMOV~R1,R4\nBL~FOO\nLDRB~R3,[R4,0]\nLDRB~R2,[R5,0]\nORR~R3,R3,R2,LSL0\nADD~R4,R4,R3\nCMP~R4,R7\nADD~R5,R4,0\nADD~R1,R4,0\nADD~R0,R4,0\nBCC~FOO\nMOV~R0,R6\nLDMFD~SP!,{R4-R7,PC}"'
p398
L148L
tp399
a(S'__getdents64'
p400
S'"MOV~R12,SP\nSTMFD~SP!,{R4-R12,LR,PC}\nADD~R3,R2,0\nSUB~R11,R12,0\nSUB~SP,SP,0\nBIC~R3,R3,0\nRSB~SP,R3,SP\nMOV~R8,R1\nSTR~R2,[R11,-0]\nMOV~R10,SP\nSTR~R0,[R11,-0]\nMOV~R1,SP\nSVC~0\nCMN~R0,0\nMOV~R6,R0\nBLS~FOO\nBL~FOO\nRSB~R3,R6,0\nMOV~R6,0\nSTR~R3,[R0]\nB~FOO\nCMN~R0,0\nBNE~FOO\nMOV~R1,R6\nB~FOO\nMOV~R2,0\nMOV~R3,0\nMOV~R5,R8\nMOV~R4,SP\nSTR~R2,[R11,-0]\nSTR~R3,[R11,-0]\nB~FOO\nLDRB~R2,[R7,0]\nLDRB~R3,[R4,0]\nORR~R3,R3,R2,LSL0\nADD~R3,R3,0\nBIC~R3,R3,0\nADD~R9,R5,R3\nCMP~R9,R12\nMOV~R2,R3,ASR0\nBLS~FOO\nLDR~R0,[R11,-0]\nSUB~R1,R11,0\nLDMIA~R1,{R1,R2}\nMOV~R3,0\nBL~FOO\nCMP~R5,R8\nBNE~FOO\nBL~FOO\nMOV~R3,0\nMOV~R1,0\nSTR~R3,[R0]\nB~FOO\nSTRB~R2,[R5,0]\nSTRB~R3,[R5,0]\nADD~R2,R4,0\nLDMIA~R2,{R2,R3}\nSTR~R2,[R11,-0]\nSTR~R3,[R11,-0]\nLDMIA~R4,{R2,R3}\nSTMIA~R5,{R2,R3}\nADD~R2,R4,0\nLDMIA~R2,{R2,R3}\nSTR~R2,[R5,0]\nSTR~R3,[R5,0]\nLDRB~R3,[R4,0]\nSTRB~R3,[R5,0]\nLDRB~R2,[R4,0]\nLDRB~R3,[R7,0]\nORR~R2,R2,R3,LSL0\nSUB~R2,R2,0\nBL~FOO\nLDRB~R3,[R4,0]\nLDRB~R2,[R7,0]\nORR~R3,R3,R2,LSL0\nADD~R4,R4,R3\nMOV~R5,R9\nADD~R3,R10,R6\nLDR~R2,[R11,-0]\nCMP~R4,R3\nADD~R7,R4,0\nADD~R0,R5,0\nADD~R1,R4,0\nADD~R12,R8,R2\nBCC~FOO\nRSB~R1,R8,R5\nMOV~R0,R1\nSUB~SP,R11,0\nLDMFD~SP,{R4-R11,SP,PC}"'
p401
L356L
tp402
a(S'getegid'
p403
S'"STMFD~SP!,{R4,LR}\nSVC~0\nCMN~R0,0\nMOV~R4,R0\nBLS~FOO\nBL~FOO\nRSB~R3,R4,0\nSTR~R3,[R0]\nMOV~R4,0\nMOV~R0,R4\nLDMFD~SP!,{R4,PC}"'
p404
L44L
tp405
a(S'geteuid'
p406
S'"STMFD~SP!,{R4,LR}\nSVC~0\nCMN~R0,0\nMOV~R4,R0\nBLS~FOO\nBL~FOO\nRSB~R3,R4,0\nSTR~R3,[R0]\nMOV~R4,0\nMOV~R0,R4\nLDMFD~SP!,{R4,PC}"'
p407
L44L
tp408
a(S'getgid'
p409
S'"STMFD~SP!,{R4,LR}\nSVC~0\nCMN~R0,0\nMOV~R4,R0\nBLS~FOO\nBL~FOO\nRSB~R3,R4,0\nSTR~R3,[R0]\nMOV~R4,0\nMOV~R0,R4\nLDMFD~SP!,{R4,PC}"'
p410
L44L
tp411
a(S'getuid'
p412
S'"STMFD~SP!,{R4,LR}\nSVC~0\nCMN~R0,0\nMOV~R4,R0\nBLS~FOO\nBL~FOO\nRSB~R3,R4,0\nSTR~R3,[R0]\nMOV~R4,0\nMOV~R0,R4\nLDMFD~SP!,{R4,PC}"'
p413
L44L
tp414
a(S'lseek64'
p415
S'"STMFD~SP!,{R4-R6,LR}\nMOV~R5,R1\nSUB~SP,SP,0\nMOV~R6,R2\nMOV~R1,R2\nMOV~R4,R3\nMOV~R2,R5\nMOV~R3,SP\nSVC~0\nCMN~R0,0\nMOV~R4,R0\nBLS~FOO\nBL~FOO\nRSB~R3,R4,0\nMOV~R4,0\nSTR~R3,[R0]\nB~FOO\nCMP~R0,0\nBEQ~FOO\nMOV~R0,R4\nMOV~R1,R0,ASR0\nB~FOO\nLDMFD~SP,{R0,R1}\nADD~SP,SP,0\nLDMFD~SP!,{R4-R6,PC}"'
p416
L100L
tp417
a(S'nanosleep'
p418
S'"STMFD~SP!,{R4,LR}\nSVC~0\nCMN~R0,0\nMOV~R4,R0\nBLS~FOO\nBL~FOO\nRSB~R3,R4,0\nSTR~R3,[R0]\nMOV~R4,0\nMOV~R0,R4\nLDMFD~SP!,{R4,PC}"'
p419
L44L
tp420
a(S'sbrk'
p421
S'"STMFD~SP!,{R4,R5,LR}\nLDR~R4,<STR>\nLDR~R3,[R4]\nCMP~R3,0\nMOV~R5,R0\nMOV~R0,R3\nBNE~FOO\nBL~FOO\nCMP~R0,0\nBLT~FOO\nLDR~R3,[R4]\nCMP~R5,0\nMOV~R4,R3\nADD~R0,R3,R5\nBEQ~FOO\nBL~FOO\nCMP~R0,0\nBGE~FOO\nMOV~R4,0\nMOV~R0,R4\nLDMFD~SP!,{R4,R5,PC}"'
p422
L84L
tp423
a(S'times'
p424
S'"STMFD~SP!,{R4,LR}\nSVC~0\nCMN~R0,0\nMOV~R4,R0\nBLS~FOO\nBL~FOO\nRSB~R3,R4,0\nSTR~R3,[R0]\nMOV~R4,0\nMOV~R0,R4\nLDMFD~SP!,{R4,PC}"'
p425
L44L
tp426
a(S'__xstat64_conv'
p427
S'"STMFD~SP!,{R4-R10,LR}\nMOV~R7,R1\nMOV~R4,R0\nSUB~SP,SP,0\nMOV~R1,0\nMOV~R2,0\nMOV~R0,R7\nBL~FOO\nLDRB~R12,[R4,0]\nLDRB~LR,[R4,0]\nLDRB~R0,[R4]\nLDRB~R1,[R4,0]\nLDRB~R9,[R4,0]\nLDRB~R10,[R4,0]\nLDRB~R8,[R4,0]\nORR~R0,R0,R12,LSL0\nORR~R1,R1,LR,LSL0\nLDRB~R12,[R4,0]\nORR~R0,R0,R9,LSL0\nORR~R1,R1,R10,LSL0\nORR~R2,R0,R8,LSL0\nORR~R3,R1,R12,LSL0\nSTMIA~R7,{R2,R3}\nLDRB~R1,[R4,0]\nLDRB~R0,[R4,0]\nLDRB~R2,[R4,0]\nLDRB~R3,[R4,0]\nLDRB~LR,[R4,0]\nLDRB~R8,[R4,0]\nLDRB~R12,[R4,0]\nORR~R2,R2,R1,LSL0\nORR~R3,R3,R0,LSL0\nLDRB~R1,[R4,0]\nORR~R3,R3,LR,LSL0\nORR~R2,R2,R8,LSL0\nORR~R5,R2,R12,LSL0\nORR~R6,R3,R1,LSL0\nSTR~R5,[R7,0]\nSTR~R6,[R7,0]\nLDRB~R2,[R4,0]\nLDRB~R3,[R4,0]\nLDRB~R1,[R4,0]\nORR~R3,R3,R2,LSL0\nLDRB~R2,[R4,0]\nORR~R3,R3,R1,LSL0\nORR~R3,R3,R2,LSL0\nSTR~R3,[R7,0]\nLDRB~R2,[R4,0]\nLDRB~R3,[R4,0]\nLDRB~R1,[R4,0]\nORR~R3,R3,R2,LSL0\nLDRB~R2,[R4,0]\nORR~R3,R3,R1,LSL0\nORR~R3,R3,R2,LSL0\nSTR~R3,[R7,0]\nLDRB~R2,[R4,0]\nLDRB~R3,[R4,0]\nLDRB~R1,[R4,0]\nORR~R3,R3,R2,LSL0\nLDRB~R2,[R4,0]\nORR~R3,R3,R1,LSL0\nORR~R3,R3,R2,LSL0\nSTR~R3,[R7,0]\nLDRB~R2,[R4,0]\nLDRB~R3,[R4,0]\nLDRB~R1,[R4,0]\nORR~R3,R3,R2,LSL0\nLDRB~R2,[R4,0]\nORR~R3,R3,R1,LSL0\nORR~R3,R3,R2,LSL0\nSTR~R3,[R7,0]\nLDRB~R2,[R4,0]\nLDRB~R3,[R4,0]\nLDRB~R1,[R4,0]\nORR~R3,R3,R2,LSL0\nLDRB~R2,[R4,0]\nORR~R3,R3,R1,LSL0\nORR~R3,R3,R2,LSL0\nSTR~R3,[R7,0]\nLDRB~R1,[R4,0]\nLDRB~R0,[R4,0]\nLDRB~R2,[R4,0]\nLDRB~R3,[R4,0]\nLDRB~R5,[R4,0]\nLDRB~LR,[R4,0]\nLDRB~R12,[R4,0]\nORR~R2,R2,R1,LSL0\nORR~R3,R3,R0,LSL0\nLDRB~R1,[R4,0]\nORR~R2,R2,R5,LSL0\nORR~R3,R3,LR,LSL0\nORR~R12,R2,R12,LSL0\nORR~R1,R3,R1,LSL0\nSTR~R12,[SP,0]\nSTR~R1,[SP,0]\nADD~R2,SP,0\nLDMIA~R2,{R2,R3}\nSTR~R2,[R7,0]\nSTR~R3,[R7,0]\nLDRB~R1,[R4,0]\nLDRB~R0,[R4,0]\nLDRB~R2,[R4,0]\nLDRB~R3,[R4,0]\nLDRB~R5,[R4,0]\nLDRB~LR,[R4,0]\nLDRB~R12,[R4,0]\nORR~R2,R2,R1,LSL0\nORR~R3,R3,R0,LSL0\nLDRB~R1,[R4,0]\nORR~R2,R2,R5,LSL0\nORR~R3,R3,LR,LSL0\nORR~R12,R2,R12,LSL0\nORR~R1,R3,R1,LSL0\nSTR~R12,[SP,0]\nSTR~R1,[SP,0]\nADD~R2,SP,0\nLDMIA~R2,{R2,R3}\nSTR~R2,[R7,0]\nSTR~R3,[R7,0]\nLDRB~R2,[R4,0]\nLDRB~R3,[R4,0]\nLDRB~R1,[R4,0]\nORR~R3,R3,R2,LSL0\nLDRB~R2,[R4,0]\nORR~R3,R3,R1,LSL0\nORR~R3,R3,R2,LSL0\nSTR~R3,[R7,0]\nLDRB~R1,[R4,0]\nLDRB~R2,[R4,0]\nLDRB~R3,[R4,0]\nLDRB~R0,[R4,0]\nLDRB~R5,[R4,0]\nLDRB~LR,[R4,0]\nLDRB~R12,[R4,0]\nORR~R2,R2,R1,LSL0\nORR~R3,R3,R0,LSL0\nLDRB~R1,[R4,0]\nORR~R2,R2,R5,LSL0\nORR~R3,R3,LR,LSL0\nORR~R1,R3,R1,LSL0\nORR~R12,R2,R12,LSL0\nSTR~R12,[SP]\nSTR~R1,[SP,0]\nLDMFD~SP,{R2,R3}\nSTR~R2,[R7,0]\nSTR~R3,[R7,0]\nLDRB~R2,[R4,0]\nLDRB~R3,[R4,0]\nLDRB~R1,[R4,0]\nORR~R3,R3,R2,LSL0\nLDRB~R2,[R4,0]\nORR~R3,R3,R1,LSL0\nORR~R3,R3,R2,LSL0\nSTR~R3,[R7,0]\nLDRB~R2,[R4,0]\nLDRB~R3,[R4,0]\nLDRB~R1,[R4,0]\nORR~R3,R3,R2,LSL0\nLDRB~R2,[R4,0]\nORR~R3,R3,R1,LSL0\nORR~R3,R3,R2,LSL0\nSTR~R3,[R7,0]\nLDRB~R2,[R4,0]\nLDRB~R3,[R4,0]\nLDRB~R1,[R4,0]\nORR~R3,R3,R2,LSL0\nLDRB~R2,[R4,0]\nORR~R3,R3,R1,LSL0\nORR~R3,R3,R2,LSL0\nSTR~R3,[R7,0]\nLDRB~R2,[R4,0]\nLDRB~R3,[R4,0]\nLDRB~R1,[R4,0]\nORR~R3,R3,R2,LSL0\nLDRB~R2,[R4,0]\nORR~R3,R3,R1,LSL0\nORR~R3,R3,R2,LSL0\nSTR~R3,[R7,0]\nLDRB~R2,[R4,0]\nLDRB~R3,[R4,0]\nLDRB~R1,[R4,0]\nORR~R3,R3,R2,LSL0\nLDRB~R2,[R4,0]\nORR~R3,R3,R1,LSL0\nORR~R3,R3,R2,LSL0\nSTR~R3,[R7,0]\nLDRB~R2,[R4,0]\nLDRB~R3,[R4,0]\nLDRB~R1,[R4,0]\nORR~R3,R3,R2,LSL0\nLDRB~R2,[R4,0]\nORR~R3,R3,R1,LSL0\nORR~R3,R3,R2,LSL0\nSTR~R3,[R7,0]\nADD~SP,SP,0\nLDMFD~SP!,{R4-R10,PC}"'
p428
L784L
tp429
a(S'__xstat_conv'
p430
S'"STMFD~SP!,{R4-R6,LR}\nMOV~R6,R1\nMOV~R5,R0\nMOV~R1,0\nMOV~R2,0\nMOV~R0,R6\nBL~FOO\nLDR~R3,[R5]\nLDR~R2,[R5,0]\nMOV~R4,0\nSTMIA~R6,{R3,R4}\nSTR~R2,[R6,0]\nLDRB~R2,[R5,0]\nLDRB~R3,[R5,0]\nORR~R3,R3,R2,LSL0\nSTR~R3,[R6,0]\nLDRB~R2,[R5,0]\nLDRB~R3,[R5,0]\nORR~R3,R3,R2,LSL0\nSTR~R3,[R6,0]\nLDRB~R2,[R5,0]\nLDRB~R3,[R5,0]\nORR~R3,R3,R2,LSL0\nSTR~R3,[R6,0]\nLDR~R3,[R5,0]\nLDRB~R0,[R5,0]\nLDRB~R12,[R5,0]\nLDR~R1,[R5,0]\nSTR~R3,[R6,0]\nLDR~R3,[R5,0]\nSTR~R3,[R6,0]\nLDR~R3,[R5,0]\nSTR~R3,[R6,0]\nLDR~R3,[R5,0]\nSTR~R3,[R6,0]\nLDR~R3,[R5,0]\nSTR~R3,[R6,0]\nLDR~R3,[R5,0]\nSTR~R3,[R6,0]\nLDR~R3,[R5,0]\nSTR~R3,[R6,0]\nLDR~R3,[R5,0]\nORR~R0,R0,R12,LSL0\nMOV~R2,0\nSTR~R0,[R6,0]\nSTR~R1,[R6,0]\nSTR~R2,[R6,0]\nSTR~R3,[R6,0]\nLDR~R3,[R5,0]\nSTR~R3,[R6,0]\nLDMFD~SP!,{R4-R6,PC}"'
p431
L204L
tp432
a(S'_memcpy'
p433
S'"CMP~R1,R0\nBCC~FOO\nMOVEQ~PC,LR\nSTMFD~SP!,{R0,LR}\nSUBS~R2,R2,0\nBLT~FOO\nANDS~R12,R0,0\nBNE~FOO\nANDS~R12,R1,0\nBNE~FOO\nSUBS~R2,R2,0\nBLT~FOO\nSUBS~R2,R2,0\nBLT~FOO\nSTR~R4,[SP,-0]\nLDMIA~R1!,{R3,R4,R12,LR}\nSTMIA~R0!,{R3,R4,R12,LR}\nLDMIA~R1!,{R3,R4,R12,LR}\nSTMIA~R0!,{R3,R4,R12,LR}\nSUBS~R2,R2,0\nBGE~FOO\nCMN~R2,0\nLDMGEIA~R1!,{R3,R4,R12,LR}\nSTMGEIA~R0!,{R3,R4,R12,LR}\nSUBGE~R2,R2,0\nLDR~R4,[SP]\nADDS~R2,R2,0\nLDMGEIA~R1!,{R3,R12,LR}\nSTMGEIA~R0!,{R3,R12,LR}\nSUBGES~R2,R2,0\nBGE~FOO\nADDS~R2,R2,0\nBLT~FOO\nSUBS~R2,R2,0\nLDRLT~R3,[R1]\nSTRLT~R3,[R0]\nLDMGEIA~R1!,{R3,R12}\nSTMGEIA~R0!,{R3,R12}\nSUBGE~R2,R2,0\nADDS~R2,R2,0\nLDMEQFD~SP!,{R0,PC}\nCMP~R2,0\nLDRB~R3,[R1]\nSTRB~R3,[R0]\nLDRGEB~R3,[R1]\nSTRGEB~R3,[R0]\nLDRGTB~R3,[R1]\nSTRGTB~R3,[R0]\nLDMFD~SP!,{R0,PC}\nRSB~R12,R12,0\nCMP~R12,0\nLDRB~R3,[R1]\nSTRB~R3,[R0]\nLDRGEB~R3,[R1]\nSTRGEB~R3,[R0]\nLDRGTB~R3,[R1]\nSTRGTB~R3,[R0]\nSUBS~R2,R2,R12\nBLT~FOO\nANDS~R12,R1,0\nBEQ~FOO\nBIC~R1,R1,0\nLDR~LR,[R1]\nCMP~R12,0\nBGT~FOO\nBEQ~FOO\nCMP~R2,0\nBLT~FOO\nSUB~R2,R2,0\nSTMFD~SP!,{R4,R5}\nMOV~R3,LR,LSR0\nLDMIA~R1!,{R4,R5,R12,LR}\nORR~R3,R3,R4,LSL0\nMOV~R4,R4,LSR0\nORR~R4,R4,R5,LSL0\nMOV~R5,R5,LSR0\nORR~R5,R5,R12,LSL0\nMOV~R12,R12,LSR0\nORR~R12,R12,LR,LSL0\nSTMIA~R0!,{R3-R5,R12}\nSUBS~R2,R2,0\nBGE~FOO\nLDMFD~SP!,{R4,R5}\nADDS~R2,R2,0\nBLT~FOO\nMOV~R12,LR,LSR0\nLDR~LR,[R1]\nORR~R12,R12,LR,LSL0\nSTR~R12,[R0]\nSUBS~R2,R2,0\nBGE~FOO\nSUB~R1,R1,0\nB~FOO\nCMP~R2,0\nBLT~FOO\nSUB~R2,R2,0\nSTMFD~SP!,{R4,R5}\nMOV~R3,LR,LSR0\nLDMIA~R1!,{R4,R5,R12,LR}\nORR~R3,R3,R4,LSL0\nMOV~R4,R4,LSR0\nORR~R4,R4,R5,LSL0\nMOV~R5,R5,LSR0\nORR~R5,R5,R12,LSL0\nMOV~R12,R12,LSR0\nORR~R12,R12,LR,LSL0\nSTMIA~R0!,{R3-R5,R12}\nSUBS~R2,R2,0\nBGE~FOO\nLDMFD~SP!,{R4,R5}\nADDS~R2,R2,0\nBLT~FOO\nMOV~R12,LR,LSR0\nLDR~LR,[R1]\nORR~R12,R12,LR,LSL0\nSTR~R12,[R0]\nSUBS~R2,R2,0\nBGE~FOO\nSUB~R1,R1,0\nB~FOO\nCMP~R2,0\nBLT~FOO\nSUB~R2,R2,0\nSTMFD~SP!,{R4,R5}\nMOV~R3,LR,LSR0\nLDMIA~R1!,{R4,R5,R12,LR}\nORR~R3,R3,R4,LSL0\nMOV~R4,R4,LSR0\nORR~R4,R4,R5,LSL0\nMOV~R5,R5,LSR0\nORR~R5,R5,R12,LSL0\nMOV~R12,R12,LSR0\nORR~R12,R12,LR,LSL0\nSTMIA~R0!,{R3-R5,R12}\nSUBS~R2,R2,0\nBGE~FOO\nLDMFD~SP!,{R4,R5}\nADDS~R2,R2,0\nBLT~FOO\nMOV~R12,LR,LSR0\nLDR~LR,[R1]\nORR~R12,R12,LR,LSL0\nSTR~R12,[R0]\nSUBS~R2,R2,0\nBGE~FOO\nSUB~R1,R1,0\nB~FOO\nADD~R1,R1,R2\nADD~R0,R0,R2\nSUBS~R2,R2,0\nBLT~FOO\nANDS~R12,R0,0\nBNE~FOO\nANDS~R12,R1,0\nBNE~FOO\nSUBS~R2,R2,0\nBLT~FOO\nSTMFD~SP!,{R4,LR}\nSUBS~R2,R2,0\nBLT~FOO\nLDMDB~R1!,{R3,R4,R12,LR}\nSTMDB~R0!,{R3,R4,R12,LR}\nLDMDB~R1!,{R3,R4,R12,LR}\nSTMDB~R0!,{R3,R4,R12,LR}\nSUBS~R2,R2,0\nBGE~FOO\nCMN~R2,0\nLDMGEDB~R1!,{R3,R4,R12,LR}\nSTMGEDB~R0!,{R3,R4,R12,LR}\nSUBGE~R2,R2,0\nADDS~R2,R2,0\nLDMGEDB~R1!,{R3,R12,LR}\nSTMGEDB~R0!,{R3,R12,LR}\nSUBGE~R2,R2,0\nLDMFD~SP!,{R4,LR}\nADDS~R2,R2,0\nBLT~FOO\nSUBS~R2,R2,0\nLDRLT~R3,[R1,-0]\nSTRLT~R3,[R0,-0]\nLDMGEDB~R1!,{R3,R12}\nSTMGEDB~R0!,{R3,R12}\nSUBGE~R2,R2,0\nADDS~R2,R2,0\nMOVEQ~PC,LR\nCMP~R2,0\nLDRB~R3,[R1,-0]\nSTRB~R3,[R0,-0]\nLDRGEB~R3,[R1,-0]\nSTRGEB~R3,[R0,-0]\nLDRGTB~R3,[R1,-0]\nSTRGTB~R3,[R0,-0]\nRET\nCMP~R12,0\nLDRB~R3,[R1,-0]\nSTRB~R3,[R0,-0]\nLDRGEB~R3,[R1,-0]\nSTRGEB~R3,[R0,-0]\nLDRGTB~R3,[R1,-0]\nSTRGTB~R3,[R0,-0]\nSUBS~R2,R2,R12\nBLT~FOO\nANDS~R12,R1,0\nBEQ~FOO\nBIC~R1,R1,0\nLDR~R3,[R1]\nCMP~R12,0\nBLT~FOO\nBEQ~FOO\nCMP~R2,0\nBLT~FOO\nSUB~R2,R2,0\nSTMFD~SP!,{R4,R5,LR}\nMOV~LR,R3,LSL0\nLDMDB~R1!,{R3-R5,R12}\nORR~LR,LR,R12,LSR0\nMOV~R12,R12,LSL0\nORR~R12,R12,R5,LSR0\nMOV~R5,R5,LSL0\nORR~R5,R5,R4,LSR0\nMOV~R4,R4,LSL0\nORR~R4,R4,R3,LSR0\nSTMDB~R0!,{R4,R5,R12,LR}\nSUBS~R2,R2,0\nBGE~FOO\nLDMFD~SP!,{R4,R5,LR}\nADDS~R2,R2,0\nBLT~FOO\nMOV~R12,R3,LSL0\nLDR~R3,[R1,-0]\nORR~R12,R12,R3,LSR0\nSTR~R12,[R0,-0]\nSUBS~R2,R2,0\nBGE~FOO\nADD~R1,R1,0\nB~FOO\nCMP~R2,0\nBLT~FOO\nSUB~R2,R2,0\nSTMFD~SP!,{R4,R5,LR}\nMOV~LR,R3,LSL0\nLDMDB~R1!,{R3-R5,R12}\nORR~LR,LR,R12,LSR0\nMOV~R12,R12,LSL0\nORR~R12,R12,R5,LSR0\nMOV~R5,R5,LSL0\nORR~R5,R5,R4,LSR0\nMOV~R4,R4,LSL0\nORR~R4,R4,R3,LSR0\nSTMDB~R0!,{R4,R5,R12,LR}\nSUBS~R2,R2,0\nBGE~FOO\nLDMFD~SP!,{R4,R5,LR}\nADDS~R2,R2,0\nBLT~FOO\nMOV~R12,R3,LSL0\nLDR~R3,[R1,-0]\nORR~R12,R12,R3,LSR0\nSTR~R12,[R0,-0]\nSUBS~R2,R2,0\nBGE~FOO\nADD~R1,R1,0\nB~FOO\nCMP~R2,0\nBLT~FOO\nSUB~R2,R2,0\nSTMFD~SP!,{R4,R5,LR}\nMOV~LR,R3,LSL0\nLDMDB~R1!,{R3-R5,R12}\nORR~LR,LR,R12,LSR0\nMOV~R12,R12,LSL0\nORR~R12,R12,R5,LSR0\nMOV~R5,R5,LSL0\nORR~R5,R5,R4,LSR0\nMOV~R4,R4,LSL0\nORR~R4,R4,R3,LSR0\nSTMDB~R0!,{R4,R5,R12,LR}\nSUBS~R2,R2,0\nBGE~FOO\nLDMFD~SP!,{R4,R5,LR}\nADDS~R2,R2,0\nBLT~FOO\nMOV~R12,R3,LSL0\nLDR~R3,[R1,-0]\nORR~R12,R12,R3,LSR0\nSTR~R12,[R0,-0]\nSUBS~R2,R2,0\nBGE~FOO\nADD~R1,R1,0\nB~FOO"'
p434
L1160L
tp435
a(S'inet_aton'
p436
S'"CMP~R0,0\nSTMFD~SP!,{R4-R7,LR}\nMOV~R7,R1\nMOVNE~R5,0\nMOVNE~R6,0\nBNE~FOO\nB~FOO\nLDR~R3,<STR>\nLDR~LR,[R3]\nLDRB~R3,[R0]\nLDRB~R3,[LR,R3,LSL0]\nTST~R3,0\nBEQ~FOO\nMOV~R4,0\nB~FOO\nMOV~R3,0\nMLA~R3,R4,R3,R12\nSUB~R4,R3,0\nCMP~R4,0\nBGT~FOO\nADD~R0,R0,0\nLDRB~R12,[R0]\nMOV~R3,R12,LSL0\nADD~R2,R3,LR\nLDRB~R1,[R3,LR]\nLDRB~R3,[R2,0]\nORR~R3,R1,R3,LSL0\nTST~R3,0\nBNE~FOO\nCMP~R6,0\nBGT~FOO\nCMP~R12,0\nBNE~FOO\nADD~R0,R0,0\nB~FOO\nCMP~R12,0\nADD~R0,R0,0\nBEQ~FOO\nTST~R3,0\nBEQ~FOO\nORR~R5,R4,R5,LSL0\nADD~R6,R6,0\nCMP~R6,0\nBLE~FOO\nCMP~R7,0\nANDNE~R3,R5,0\nANDNE~R2,R5,0\nMOVNE~R3,R3,LSR0\nMOVNE~R2,R2,LSL0\nORRNE~R3,R3,R5,LSR0\nORRNE~R2,R2,R5,LSL0\nORRNE~R3,R3,R2\nMOVEQ~R0,0\nMOVNE~R0,0\nSTRNE~R3,[R7]\nLDMFD~SP!,{R4-R7,PC}\nMOV~R0,0\nLDMFD~SP!,{R4-R7,PC}"'
p437
L232L
tp438
a(S'_dl_aux_init'
p439
S'"LDR~R2,[R0,0]\nLDR~R3,<STR>\nLDR~R1,[R0,0]\nSTR~R2,[R3]\nLDR~R3,<STR>\nSTR~R1,[R3]\nRET"'
p440
L28L
tp441
a(S'brk'
p442
S'"STR~LR,[SP,-0]\nMOV~R3,R0\nSVC~0\nCMP~R0,R3\nLDR~R3,<STR>\nMOV~R2,0\nSTR~R0,[R3]\nBCS~FOO\nBL~FOO\nMOV~R3,0\nSTR~R3,[R0]\nMOV~R2,0\nMOV~R0,R2\nLDR~PC,[SP]"'
p443
L56L
tp444
a(S'__do_global_ctors_aux'
p445
S'"LDR~R3,<STR>\nLDR~R2,[R3,-0]\nCMN~R2,0\nSTMFD~SP!,{R4,LR}\nSUB~R4,R3,0\nLDMEQFD~SP!,{R4,PC}\nMOV~LR,PC\nMOV~PC,R2\nLDR~R2,[R4,-0]\nCMN~R2,0\nBNE~FOO\nLDMFD~SP!,{R4,PC}"'
p446
L48L
tp447
a(S'call___do_global_ctors_aux'
p448
S'"STR~LR,[SP,-0]\nLDR~PC,[SP]"'
p449
L8L
tp450
a(S'_fini'
p451
S'"MOV~R12,SP\nSTMFD~SP!,{R4-R12,LR,PC}\nSUB~R11,R12,0\nBL~FOO\nLDMDB~R11,{R4-R11,SP,PC}"'
p452
L20L
tp453
a.