(lp0
(S'_init'
p1
S''
p2
L20L
tp3
a(S'__do_global_dtors_aux'
p4
S'86962f11e690612221'
p5
L76L
tp6
a(S'frame_dummy'
p7
S'e6122221110b00d46118110e896f4ff6410909090909090909090909e34ff600'
p8
L74L
tp9
a(S'_start'
p10
S'00f62f462f07d02f040406d1410905'
p11
L30L
tp12
a(S'attack_app_http'
p13
S'864c962f6c68b600'
p14
L5544L
tp15
a(S'attack_get_opt_str'
p16
S'4c736c081c60318f094332018f'
p17
L40L
tp18
a(S'attack_get_opt_ip'
p19
S'094c866c226808044f054103f600'
p20
L38L
tp21
a(S'attack_get_opt_int'
p22
S'094c866c22680805d1f6410a830b09'
p23
L40L
tp24
a(S'attack_start'
p25
S'86962f43692fd62f7322d8510b6cff2f894809ff068de7d162d11ea00b180b0017d0400916d1410032d3570bf5af09080361041061a07737f4'
p26
L152L
tp27
a(S'attack_parse'
p28
S'8603962f1635b6436a2fd62fe622'
p29
L442L
tp30
a(S'attack_kill_all'
p31
S'860a2248248de5d04009001206d1108b4f054109'
p32
L42L
tp33
a(S'add_attack'
p34
S'86962fa62f13b64c6b01226c0be5d9689004c2d02145a27561021c134286014f10f6f669'
p35
L84L
tp36
a(S'attack_init'
p37
S'861212224800110be4d54802100be4d54803d54804d548054806e4d54807e4d5480a4ff600'
p38
L74L
tp39
a(S'attack_gre_eth'
p40
S'864c962f6c68b6'
p41
L1140L
tp42
a(S'attack_gre_ip'
p43
S'864c962f6c68b6'
p44
L1062L
tp45
a(S'attack_tcp_stomp'
p46
S'864c962f6c68b6'
p47
L1504L
tp48
a(S'attack_tcp_ack'
p49
S'864c962f6c68b6'
p50
L1148L
tp51
a(S'attack_tcp_syn'
p52
S'864c962f6c68b6'
p53
L1164L
tp54
a(S'attack_udp_plain'
p55
S'864c962f6c68b6'
p56
L444L
tp57
a(S'attack_udp_generic'
p58
S'864c962f6c68b6'
p59
L854L
tp60
a(S'attack_udp_vse'
p61
S'864c962f73a62f6c694f6ed07f1f521f0be5dae7830be66069040be660938305e783000b6e93835ed70b6c0d97830b5ad1411de40b756be4e54011fffc7f52d0681f181200030b7788d040d309001f18699f510350c8b3080491426043627219'
p62
L812L
tp63
a(S'attack_udp_dns'
p64
S'864c962f73a62f6c6a2f'
p65
L1202L
tp66
a(S'checksum_generic'
p67
S'53600004014561'
p68
L50L
tp69
a(S'checksum_tcpudp'
p70
S'866d962f73435800445904015561'
p71
L100L
tp72
a(S'mem_exists'
p73
S'5737110063613c2002007004010b01015360ff0b09'
p74
L54L
tp75
a(S'killer_kill'
p76
S'02122b'
p77
L10L
tp78
a(S'killer_kill_by_port'
p79
S'8600962f4d692f2291d891fc3496bc349400b834960b349400b1fc34960b34979c615ad0e2370018e5492233a3310b24d040a3'
p80
L1020L
tp81
a(S'killer_init'
p82
S'8600962fa62fb6'
p83
L1286L
tp84
a(S'anti_gdb_entry'
p85
S'0203220b09'
p86
L10L
tp87
a(S'teardown_connection'
p88
S'8622d88d06d04009ff124f04f64101'
p89
L34L
tp90
a(S'ensure_single_instance'
p91
S'8601962f02a62f01b622d07f'
p92
L246L
tp93
a(S'main'
p94
S'86962fa62fb6'
p95
L1824L
tp96
a(S'resolve_cnc_addr'
p97
S'86962fa62fb622'
p98
L148L
tp99
a(S'rand_next'
p100
S'0c0b0c62d4617d0c1a4263607219526132ede1477a3a2a0200'
p101
L52L
tp102
a(S'rand_str'
p103
S'86536816a0068f40fc782988d141090104024100000148e7034ff668'
p104
L72L
tp105
a(S'rand_alphastr'
p106
S'8621962f5368dc69400315d10b0003636009406c0177600410198f7279a0'
p107
L122L
tp108
a(S'rand_init'
p109
g2
L64L
tp110
a(S'resolv_skip_name'
p111
S'860122100923011c1c7c045c348b0140614363736222'
p112
L76L
tp113
a(S'resolv_entries_free'
p114
S'8648244f0c436802094f048341094ff600'
p115
L42L
tp116
a(S'resolv_domain_to_hostname'
p117
S'156822405369a0888d200401286823000179'
p118
L86L
tp119
a(S'resolv_lookup'
p120
S'8608962f4368b6'
p121
L844L
tp122
a(S'consume_any_prompt'
p123
S'4651ff62a03a888d058d7171600188a0e800'
p124
L64L
tp125
a(S'can_consume'
p126
S'46511c6c350b29'
p127
L14L
tp128
a(S'scanner_kill'
p129
S'02122b'
p130
L10L
tp131
a(S'deobf'
p132
S'865368a62f22404369d0400103930301680aac07733a730a2a13710a4fa369'
p133
L88L
tp134
a(S'add_auth_entry'
p135
S'8604962fa62fb66d6b'
p136
L172L
tp137
a(S'setup_connection'
p138
S'8600962f00a62f436a2f2250'
p139
L152L
tp140
a(S'recv_strip_null'
p141
S'0a8622405368098c180101328b4ff60060'
p142
L44L
tp143
a(S'table_retrieve_val'
p144
S'0343601d250371611d600b09'
p145
L30L
tp146
a(S'toggle_obf'
p147
S'17d12f08613c15681c3341131904323162617c102221617c102221617c107722211d8b68'
p148
L94L
tp149
a(S'add_entry'
p150
S'864c680d2fb62240536ad16b031d38284ff66a69'
p151
L62L
tp152
a(S'table_init'
p153
S'8603d822481ee6e4d5480212630be6e4d548020261d548'
p154
L412L
tp155
a(S'util_strlen'
p156
S'004c01218f7000'
p157
L14L
tp158
a(S'util_memcpy'
p159
S'03107470888b00'
p160
L20L
tp161
a(S'util_strcpy'
p162
S'8600018318fa8f70d141034f830b09'
p163
L36L
tp164
a(S'util_zero'
p165
S'53600201ff09'
p166
L20L
tp167
a(S'util_itoa'
p168
S'86686822'
p169
L172L
tp170
a(S'util_memsearch'
p171
S'57378615e3a08c3301318f783873a00133'
p172
L56L
tp173
a(S'util_atoi'
p174
S'8643962fa62f536a2f'
p175
L236L
tp176
a(S'util_fdgets'
p177
S'864368a62f00b6'
p178
L80L
tp179
a(S'util_local_addr'
p180
S'8610962f22d07f61d42f11400900121402020be68869d1'
p181
L102L
tp182
a(S'util_stristr'
p183
S'86962f632f436a2f0043609c01218f7474a093606c0b7661bf628d60e123330bb005'
p184
L108L
tp185
a(S'util_strcmp'
p186
S'002301218f7272e001218f7070a0010132888be0000000'
p187
L58L
tp188
a(S'util_strncmp'
p189
S'63e2604c01218f7272e001218f707032'
p190
L68L
tp191
a(S'__sdivsi3_i4'
p192
S'5a442d230b'
p193
L14L
tp194
a(S'__udivsi3_i4'
p195
S'0116351a4406'
p196
L40L
tp197
a(S'fcntl'
p198
S'86f8e22f4ce04fc0e304296862737213aa04bb72729bf872727be34af12c5bf11312772271763304017253637362040216332705d04009a0407e60138230638f68098be32060407e6f4ff668'
p199
L164L
tp200
a(S'fcntl64'
p201
S'86f8e22f4ce04fc0e304296862737213aa04bb72729bf872727be34af12c5bf11312772271763304017218226012138230638f68098be320336f4ff668'
p202
L144L
tp203
a(S'chdir'
p204
S'860ce6334f6e118230638f68098be32060e34ff668'
p205
L50L
tp206
a(S'close'
p207
S'8606e32f334f6e118230638f68098be32060e34ff668'
p208
L50L
tp209
a(S'fork'
p210
S'8602e6334f6e108230638f68098be32060e34ff668'
p211
L50L
tp212
a(S'getpid'
p213
S'8614e6334f6e108230638f68098be32060e34ff668'
p214
L50L
tp215
a(S'getppid'
p216
S'8640e32f334f6e108230638f68098be32060e34ff668'
p217
L50L
tp218
a(S'ioctl'
p219
S'86f8e22f4ce04fc0e304296862737213aa04bb72729bf872727be34af12c5bf113127722717633040172e36013722712c38230638f68098be320336f4ff668'
p220
L144L
tp221
a(S'kill'
p222
S'862560226e128230638f68098be32060e34ff668'
p223
L50L
tp224
a(S'open'
p225
S'86f8e12f536883e30419686120711540c9bb71208a9bf1f87171f17b4a5b132c331172e07311333053110122120533c38230638f68098be320336f4ff668'
p226
L156L
tp227
a(S'creat'
p228
S'5304056ee3f64109'
p229
L18L
tp230
a(S'prctl'
p231
S'86e622936ee315308f68098b20e06f4ff668'
p232
L46L
tp233
a(S'read'
p234
S'8603e6334f6e138230638f68098be32060e34ff668'
p235
L50L
tp236
a(S'readlink'
p237
S'8655e32f334f6e138230638f68098be32060e34ff668'
p238
L50L
tp239
a(S'select'
p240
S'86e622936ee315308f68098b20e06f4ff668'
p241
L46L
tp242
a(S'setsid'
p243
S'8642e32f334f6e108230638f68098be32060e34ff668'
p244
L50L
tp245
a(S'sigprocmask'
p246
S'8658250a16348bd0400916e120a00833c38230638f68098be32060e34ff668'
p247
L76L
tp248
a(S'time'
p249
S'860d60226e118230638f68098be32060e34ff668'
p250
L50L
tp251
a(S'unlink'
p252
S'860ae6334f6e118230638f68098be32060e34ff668'
p253
L50L
tp254
a(S'write'
p255
S'8604e6334f6e138230638f68098be32060e34ff668'
p256
L50L
tp257
a(S'closedir'
p258
S'86962fa62f436a2f2260'
p259
L108L
tp260
a(S'opendir'
p261
S'86962fa62f00e622d0406e118f680b118be540011189ea230b007ed0403008178d6ae11052111229257110d0e4201a8fe5d141a30bea0c1205d0747e60e34ff66a69'
p262
L186L
tp263
a(S'readdir'
p264
S'864368e643697f6e1ae30b190b915292513117d0560b00e1a011915293582c816134'
p265
L122L
tp266
a(S'__errno_location'
p267
S'03e66ee3f600'
p268
L14L
tp269
a(S'clock'
p270
S'86e622d07f6e0be1e210d00819e34ff668'
p271
L46L
tp272
a(S'memcpy'
p273
S'632068c830e18d3175'
p274
L636L
tp275
a(S'memmove'
p276
S'864361962f58312f632f4368f87f6e411e02e1e1014b6063c903100120'
p277
L978L
tp278
a(S'memset'
p279
S'e607e16e638f5c63416b634303ff72600308f8'
p280
L124L
tp281
a(S'strcpy'
p282
S'436058302fff6e436221'
p283
L30L
tp284
a(S'inet_addr'
p285
S'e622d07f6e0b0803c45004e34ff600'
p286
L38L
tp287
a(S'accept'
p288
S'e622d07f6e42511e0540e30ce34ff600'
p289
L34L
tp290
a(S'bind'
p291
S'e622d07f6e42511e02620b0ce34ff600'
p292
L34L
tp293
a(S'connect'
p294
S'e622d07f6e42511e03620b0ce34ff600'
p295
L34L
tp296
a(S'getsockname'
p297
S'e622d07f6e42511e06e41e0b0ce34ff600'
p298
L34L
tp299
a(S'getsockopt'
p300
S'e622d07f6ee742e46273140b14e34ff600'
p301
L40L
tp302
a(S'listen'
p303
S'e622d07f6ee3c8e34e114004086f4ff600'
p304
L36L
tp305
a(S'recv'
p306
S'e622d07f6e42511e0a62730b106f4ff600'
p307
L36L
tp308
a(S'recvfrom'
p309
S'e6227fd06ee8e41ee91e7325186f4ff600'
p310
L44L
tp311
a(S'send'
p312
S'e622d07f6e42511e0962730b106f4ff600'
p313
L36L
tp314
a(S'sendto'
p315
S'e6227fd06ee8e41ee91e7325186f4ff600'
p316
L44L
tp317
a(S'setsockopt'
p318
S'e622d07f6ee7420ee41e6273140b14e34ff600'
p319
L40L
tp320
a(S'socket'
p321
S'e622d07f6e42511e01620b0ce34ff600'
p322
L34L
tp323
a(S'raise'
p324
S'86436822406e05e34ff668'
p325
L32L
tp326
a(S'sigaddset'
p327
S'e615'
p328
L50L
tp329
a(S'sigemptyset'
p330
S'e60005960b6e00e34ff600'
p331
L26L
tp332
a(S'signal'
p333
S'865360962fffe622911806'
p334
L156L
tp335
a(S'__sigismember'
p336
S'536373e1601d6108601fe701013de6606ee3f600'
p337
L44L
tp338
a(S'__sigaddset'
p339
S'5360ffe16242014c326e22c90d21226ff600'
p340
L40L
tp341
a(S'__sigdelset'
p342
S'5360ffe16343014c336e1fc9324200276221236ff600'
p343
L42L
tp344
a(S'malloc'
p345
S'8648242f43622f227f'
p346
L222L
tp347
a(S'calloc'
p348
S'8648242f5363e62208'
p349
L86L
tp350
a(S'free'
p351
S'8648242fa62fb6'
p352
L208L
tp353
a(S'realloc'
p354
S'865825b6436b53e622'
p355
L234L
tp356
a(S'__heap_alloc'
p357
S'52'
p358
L98L
tp359
a(S'__heap_alloc_at'
p360
S'4262762f25633156318d2019021b128901225218030d24a032055228d8336ff600'
p361
L102L
tp362
a(S'__heap_link_free_area'
p363
S'e668155116027800f600'
p364
L34L
tp365
a(S'__heap_link_free_area_after'
p366
S'e6686e511601620b09'
p367
L26L
tp368
a(S'__heap_free'
p369
S'865360962f6c302f0022685231892871a0830c06318d3169238d610c1032560d57780e8d72280c100873730ed1410905d10b9228a0037962930b9360e34ff669'
p370
L166L
tp371
a(S'abort'
p372
S'86e622913018305c980b6eec38e2a0'
p373
L200L
tp374
a(S'atol'
p375
S'0400e60a6ee3f64109'
p376
L18L
tp377
a(S'strtol'
p378
S'0301e66ee3f64109'
p379
L16L
tp380
a(S'_stdlib_strto_l'
p381
S'864368a62fb6'
p382
L304L
tp383
a(S'sleep'
p384
S'8648242fa62fb6e622911802009893200001ff611141f98d8d1148d032391f124093118fe49843d040836b0be520932001ff611141f98d94113534401c11'
p385
L332L
tp386
a(S'__uClibc_fini'
p387
S'86152f1822486e05d1601e014109'
p388
L86L
tp389
a(S'__pthread_return_0'
p390
S'e6006ee3f600'
p391
L14L
tp392
a(S'_pthread_cleanup_push_defer'
p393
S'e66ee3f600'
p394
L12L
tp395
a(S'__check_one_fd'
p396
S'865368e64369406eff090b903089d14109e34ff669'
p397
L56L
tp398
a(S'__uClibc_init'
p399
S'e622d26118120c121222010a1804e34ff64109e34ff600'
p400
L60L
tp401
a(S'sbrk'
p402
S'86962fa62f436a2f'
p403
L72L
tp404
a(S'__socketcall'
p405
S'86e32f334f6e128230638f68098be32060e34ff668'
p406
L50L
tp407
a(S'_exit'
p408
S'86962f43696e0c01931116308f68098b20af09'
p409
L40L
tp410
a(S'fstat'
p411
S'866ce32f332f53697f6ee3128230638f68098be3202333d10b407e60e34ff66a69'
p412
L80L
tp413
a(S'__getdents'
p414
S'865368b6'
p415
L120L
tp416
a(S'__getdents64'
p417
S'86632f06712f092f082f536b632f2293'
p418
L248L
tp419
a(S'getegid'
p420
S'86e622936e33c38230638f68098be32060e34ff668'
p421
L50L
tp422
a(S'geteuid'
p423
S'86e622936e33c38230638f68098be32060e34ff668'
p424
L50L
tp425
a(S'getgid'
p426
S'86e622936e33c38230638f68098be32060e34ff668'
p427
L50L
tp428
a(S'getuid'
p429
S'86e622936e33c38230638f68098be32060e34ff668'
p430
L50L
tp431
a(S'lseek64'
p432
S'86632f73e653227fe9e323c31c16308f68098b20a003041ae3c81f51086f4ff669'
p433
L86L
tp434
a(S'nanosleep'
p435
S'86e622936e33c38230638f68098be32060e34ff668'
p436
L50L
tp437
a(S'times'
p438
S'862be6334f6e118230638f68098be32060e34ff668'
p439
L50L
tp440
a(S'__xstat64_conv'
p441
S'8660e62f5368b683e5d04f0b6e9d5193635b8340761872500010916121619455122d187754181816799b529551349c531516b6a718180e186f4ff66bf668'
p442
L128L
tp443
a(S'__xstat_conv'
p444
S'8658e62f5368b683e5d06e0b7b519363187793601b0c9651936a731c0e7a512d1d51000118621b612d6154181b7627181841186f4ff66bf668'
p445
L138L
tp446
a(S'inet_aton'
p447
S'8648242fa62f536a2f'
p448
L194L
tp449
a(S'sigaction'
p450
S'865825a62f00b6632f436b3b6e385661ec38123393617c13121818e614b30be72a8d690ed06104180b7553a37111119793607ce34ff66bf668'
p451
L144L
tp452
a(S'_dl_aux_init'
p453
S'475205536e220332e3f600'
p454
L24L
tp455
a(S'_brk'
p456
S'862d60226e118230638f68098be32060e34ff668'
p457
L50L
tp458
a(S'__init_brk'
p459
S'860d612221d040000802068bd040090c1201e34ff668'
p460
L56L
tp461
a(S'__syscall_rt_sigaction'
p462
S'86e622936e33c38230638f68098be32060e34ff668'
p463
L50L
tp464
a(S'__do_global_ctors_aux'
p465
S'8609e6'
p466
L38L
tp467
a(S'_fini'
p468
g2
L20L
tp469
a.