(lp0
(S'_init'
p1
S'08e9'
p2
L12L
tp3
a(S'_Unwind_GetDataRelBase'
p4
S'10e9'
p5
L8L
tp6
a(S'_Unwind_GetTextRelBase'
p7
S'10e9'
p8
L8L
tp9
a(S'abort'
p10
S'48529fe532e5402deb6d40e2de0093e5000c'
p11
L592L
tp12
a(S'fini'
p13
S'009fe56e01'
p14
L8L
tp15
a(S'_start'
p16
S'00a0e420e500e5c00c9fe55200'
p17
L44L
tp18
a(S'deregister_tm_clones'
p19
S'189fe530e1ff0130e3ff01ff'
p20
L32L
tp21
a(S'register_tm_clones'
p22
S'249fe510e011e0100130e3ff01ff'
p23
L44L
tp24
a(S'__do_global_dtors_aux'
p25
S'10e900d40053e3801c9fe5000100149fe500e330e5'
p26
L56L
tp27
a(S'frame_dummy'
p28
S'209fe50005402de500e140bd'
p29
L40L
tp30
a(S'_Z15attack_app_httphP13attack_targethP13attack_option'
p31
S'30e9f4d000a0e211e510e231e5'
p32
L20248L
tp33
a(S'_Z11attack_initv'
p34
S'10e904'
p35
L224L
tp36
a(S'_Z15attack_kill_allv'
p37
S'042de230e530e300ca9fe530e531e3000ae530e531e300eb30e020e311e530e5'
p38
L132L
tp39
a(S'_Z12attack_parsePci'
p40
S'10e90c'
p41
L1048L
tp42
a(S'_Z12attack_startihhP13attack_targethP13attack_option'
p43
S'10e90c'
p44
L324L
tp45
a(S'_Z18attack_get_opt_strhP13attack_optionhPc'
p46
S'184de210e530e530e530e530e520e100aa149de531e530e520e5000530e120e030ea8330eaa0e2ff'
p47
L140L
tp48
a(S'_Z18attack_get_opt_inthP13attack_optionhi'
p49
S'042de210e530e530e520e500e530e5'
p50
L108L
tp51
a(S'_Z17attack_get_opt_iphP13attack_optionhj'
p52
S'042de210e530e530e520e500e530e5'
p53
L104L
tp54
a(S'_ZL10add_attackhPFvhP13attack_targethP13attack_optionE'
p55
S'042de230e530e510e3900000a0e530e520e530e520e530e530e030e530e110e18feb20e530e530e020e530e510e210e000e531e020e500e2'
p56
L196L
tp57
a(S'_ZL9free_optsP13attack_optioni'
p58
S'042de200e530e3000a30e520e500110083e120e030e3000a9de531e530e500eb30e230ea00000000a0e2'
p59
L148L
tp60
a(S'_Z13attack_gre_iphP13attack_targethP13attack_option'
p61
S'10e910'
p62
L2184L
tp63
a(S'_Z14attack_gre_ethhP13attack_targethP13attack_option'
p64
S'10e910'
p65
L2404L
tp66
a(S'_Z14attack_tcp_synhP13attack_targethP13attack_option'
p67
S'10e910'
p68
L2408L
tp69
a(S'_Z14attack_tcp_ackhP13attack_targethP13attack_option'
p70
S'10e910'
p71
L2256L
tp72
a(S'_Z16attack_tcp_stomphP13attack_targethP13attack_option'
p73
S'30e910'
p74
L2872L
tp75
a(S'_Z18attack_udp_generichP13attack_targethP13attack_option'
p76
S'10e910'
p77
L1608L
tp78
a(S'_Z14attack_udp_vsehP13attack_targethP13attack_option'
p79
S'30e910'
p80
L1536L
tp81
a(S'_Z14attack_udp_dnshP13attack_targethP13attack_option'
p82
S'30e910'
p83
L1964L
tp84
a(S'_Z16attack_udp_plainhP13attack_targethP13attack_option'
p85
S'10e908'
p86
L1008L
tp87
a(S'_ZL16get_dns_resolverv'
p88
S'042de2d01e00eb10e31f0000a0e300eb30e500eb38e300ba0843e22be108eb30e508eb00eb10e31f0000a0e230289de500eb30e500eb38e3000a30e530e538e528e50039000843e228e030e538e538e50007001a38e500280023dd0953e3000a30e538e5000538e50007009a53e3008a38e228e1001a9de530e210e538e030e200eb28e53083e220e020e530e500ea9de530e5'
p89
L616L
tp90
a(S'_Z16checksum_genericPtj'
p91
S'042de200e540a0e330e3009a8320e14084009de53000'
p92
L160L
tp93
a(S'_Z15checksum_tcpudpP5iphdrPvti'
p94
S'042de200e530e130e130e530e530e530e530e530e530e300da9de530e120e530e530e230e53000'
p95
L408L
tp96
a(S'_Z11killer_initv'
p97
S'10e919a0e220e500eb3d8300e32d8230'
p98
L64L
tp99
a(S'_Z11killer_killv'
p100
S'10e903'
p101
L36L
tp102
a(S'_Z19killer_kill_by_portt'
p103
S'10e9284de220e243e230b0c3e13d833001a0e300eb3f'
p104
L3288L
tp105
a(S'_ZL14has_exe_accessv'
p106
S'042de2d020'
p107
L568L
tp108
a(S'_ZL17memory_scan_matchPc'
p109
S'042de2d04030e530e220e530e300e587eb30e220e53ae230e3301330e200010000a0ea000d18eb00eb00eb00eb30e210e318eb30e220e530e210e318eb30e220e530e210e318eb30e220e530e210e318eb30e220e530e210e318eb30e220e530e22ae13ae200eb30e220e53ae230e330d330e2004e000a'
p110
L816L
tp111
a(S'_ZL10mem_existsPciS_i'
p112
S'184de200e520e530e520e500010000a0ea43e220e3300330e2001d30e220e530e530e50001a01330e2000c00149de530e520e50001a01330e200'
p113
L224L
tp114
a(S'main'
p115
S'30e90c4de200e54c9fe540'
p116
L3328L
tp117
a(S'_ZL14anti_gdb_entryi'
p118
S'084de200e530e520e500e2ff'
p119
L40L
tp120
a(S'_ZL16resolve_cnc_addrv'
p121
S'10e903a0eb10e313eb30e103eb30e500eb30e3000a9de54093e501eb20e530e510e1170001a0e1304c30e020e505a0eb10e313eb30e130e020e100eb00ea'
p122
L204L
tp123
a(S'_ZL20establish_connectionv'
p124
S'10e901a0e38deb20e530e530e030e3301330e2002530e04093e530e030e310e18300a0e320e300eb30e030e3000a9fe530e5ffe130e020e530e030e310e000eb80'
p125
L232L
tp126
a(S'_ZL19teardown_connectionv'
p127
S'10e903'
p128
L68L
tp129
a(S'_ZL22ensure_single_instancev'
p130
S'30e92c9fe540'
p131
L572L
tp132
a(S'_ZL21unlock_tbl_if_nodebugPc'
p133
S'042de200e530e2e0e100e8b0cce130e530e530e330e532e0c0'
p134
L588L
tp135
a(S'_Z9rand_initv'
p136
S'10e9780000a0e130e020eb40a0eb30e020e530e57ceb30e130e020e530e530e030e030e020e1'
p137
L140L
tp138
a(S'_Z9rand_nextv'
p139
S'084de230e030e530e120e030e534e120e030e530e530e020e530e530e020e530e530e020e530e529e530e520e030e020e530e530e030e020e530e500e2ff'
p140
L232L
tp141
a(S'_Z8rand_strPci'
p142
S'042de200e530e300da30e300da20e520e530e530e230ea53e300da30e128e520e130e230e53000'
p143
L204L
tp144
a(S'_Z13rand_alphastrPhi'
p145
S'042de200e531e0c0'
p146
L288L
tp147
a(S'_Z25resolv_domain_to_hostnamePcS_'
p148
S'042de200e500eb30e230e530e530e530e530e220e330d330e2001d30e220e530e530e50002000add0053e3001a30e520e530e220e530e500ea8330e530e220e520e5'
p149
L244L
tp150
a(S'_ZL16resolv_skip_namePhS_Pi'
p151
S'184de200e520e330e520e530e5001f000a9de530e5000f9ad303e120e220e530e230e530089de530e530e530e230e500e1ff049de530e230e5'
p152
L224L
tp153
a(S'_Z13resolv_lookupPc'
p154
S'10e9384de230e510e36f0000a0e220e53d8330432d8230e230e530e220e530e53d8300eb3d8300eb30e22d8220e02d8230e23000a0e520e520e230e511eb30e22d8230e32d8230e220e330e530e220e5'
p155
L2668L
tp156
a(S'_Z19resolv_entries_freeP14resolv_entries'
p157
S'042de200e5000a00049de530e3000a9de530e16aeb00eb00ea'
p158
L80L
tp159
a(S'_Z15recv_strip_nulliPvii'
p160
S'042de200e520e520e510e587eb30e530e300da30e530e520e5000e00aa149de520e030e5000400149de520e020e530e230eaa0e2'
p161
L172L
tp162
a(S'_Z12scanner_initv'
p163
S'30e9044de24f9fe540'
p164
L8144L
tp165
a(S'_Z12scanner_killv'
p166
S'10e903'
p167
L36L
tp168
a(S'_ZL16setup_connectionP18scanner_connection'
p169
S'10e904'
p170
L324L
tp171
a(S'_ZL13get_random_ipv'
p172
S'042de2'
p173
L544L
tp174
a(S'_ZL12consume_iacsP18scanner_connection'
p175
S'042de200e330e530e530e520e100aa209de530e5008b00209de530e500'
p176
L672L
tp177
a(S'_ZL18consume_any_promptP18scanner_connection'
p178
S'104de200e330e530e230e5002a00049de530e030e5001b00049de530e030e5001400049de530e030e5000d20e530e230e50006000a9de530e030e50003000c9de530e500ea43e230ea73010000a0eaa0e2ff'
p179
L252L
tp180
a(S'_ZL19consume_user_promptP18scanner_connection'
p181
S'042de200e330e530e230e5002a00049de530e030e5001b00049de530e030e5001400049de530e030e5000d20e530e230e50006000a9de530e030e5000300149de530e500ea43e230ea73001a9de500e510e320e0060000a0e530e3300330e20002000c9de530ea8330e530e520eb30e530e3300330e20001000c9de530e500010000a0eaa0e2'
p182
L424L
tp183
a(S'_ZL19consume_pass_promptP18scanner_connection'
p184
S'042de200e330e530e230e5002300049de530e030e5001400049de530e030e5000d20e530e230e50006000a9de530e030e5000300149de530e500ea43e230ea731200049de500e510e320e005a0e530e3300330e20001000c9de530e500010000a0eaa0e2'
p185
L316L
tp186
a(S'_ZL19consume_resp_promptP18scanner_connection'
p187
S'042de200e303eb30e100eb30e530e230e530e220eb30e3300330e20003001aa0eb30e300ea0019a0eb30e100eb30e530e230e530e220eb30e500eb30e3001a30eaa0e2'
p188
L244L
tp189
a(S'_ZL14add_auth_entryPcS_t'
p190
S'10e90c'
p191
L464L
tp192
a(S'_ZL17random_auth_entryv'
p193
S'042de2'
p194
L224L
tp195
a(S'_ZL14report_workingjtP12scanner_auth'
p196
S'10e90c'
p197
L28L
tp198
a(S'_ZL5deobfPcPi'
p199
S'042de200e500eb20e520e530e200eb30e530e530e110e502eb30e530e520e100aa0c9de520e030e520e520e230e130e230e530e530e520e520e230e130e230e530e530e520e520e230e130e230e530e530e520e520e230e130e230e530e230eaa0e2'
p200
L328L
tp201
a(S'_ZL11can_consumeP18scanner_connectionPhi'
p202
S'184de200e520e530e520e030e520e020e13093ff0303a0e2ff'
p203
L84L
tp204
a(S'_Z10table_initv'
p205
S'10e9ac34e530e100eb20e530e100eb20e530e100eb20e530e100eb20e530e100eb20e530e100eb20e530e100eb20e530e100eb20e530e100eb20e530e100eb20e530e100eb20e530e100eb20e530e100eb20e530e100eb20e530e100eb20e530e100eb20e530e100eb20e530e100eb20e530e100eb20e530e100eb20e530e100eb20e530e100eb20e530e100eb20e530e100eb20e530e100eb20e530e100eb20e530e100eb20e530e100eb20e530e100eb20e530e100eb20e530e100eb20e530e100eb20e530e100eb20e530e100eb20e530e100eb20e530e100eb20e530e100eb20e530e100eb20e530e100eb20e530e100eb20e530e100eb20e530e100eb20e530e100eb20e530e100eb20e530e100eb20e530e100eb20e530e100eb20e530e100eb20e530e100eb20e530e100eb00'
p206
L1212L
tp207
a(S'_Z16table_unlock_valh'
p208
S'042de230e530e531e520e030e500eb00e2'
p209
L64L
tp210
a(S'_Z14table_lock_valh'
p211
S'042de230e530e531e520e030e500eb00e2'
p212
L64L
tp213
a(S'_Z18table_retrieve_valiPi'
p214
S'104de200e530e120e030e530e3000a9de530e120e520e530e1d0'
p215
L88L
tp216
a(S'_ZL9add_entryhPci'
p217
S'042de230e520e530e15a0000a0e520e500eb20e530e010e730e520e128e510e130e220e100e2'
p218
L132L
tp219
a(S'_ZL10toggle_obfh'
p220
S'184de230e530e531e520e030e530e530e531e030e130e531e030e130e531e030e130e530e530e120e5003700aa109de520e530e530e530e020e520e020e220e530e530e010e530e530e020e520e020e220e530e530e010e530e530e020e520e020e220e530e530e010e530e530e020e520e020e220e530e230ea'
p221
L380L
tp222
a(S'_Z11util_strlenPc'
p223
S'104de200e330e520e530e50001a00330e20003000c9de530e5'
p224
L88L
tp225
a(S'_Z12util_strncmpPcS_i'
p226
S'042de200e520e5'
p227
L200L
tp228
a(S'_Z11util_strcmpPcS_'
p229
S'042de200e500eb00e5'
p230
L180L
tp231
a(S'_Z11util_strcpyPcS_'
p232
S'042de200e500eb00e530e110e500eb30e1d0'
p233
L68L
tp234
a(S'_Z11util_memcpyPvS_i'
p235
S'184de200e520e530e530e52004'
p236
L116L
tp237
a(S'_Z9util_zeroPvi'
p238
S'104de200e530e530e220e3300330e2000530e220e320e5'
p239
L92L
tp240
a(S'_Z9util_atoiPci'
p241
S'042de200e530e530e530e220e530e530e200eb30e3300330e2000000ee'
p242
L676L
tp243
a(S'_Z9util_itoaiiPc'
p244
S'042de200e520e500010000a0ea53e3000a30e530e530e3001a9de5000530e530e230ea'
p245
L400L
tp246
a(S'_Z14util_memsearchPciS_i'
p247
S'184de200e520e530e520e500010000e0240000a0e520e5001d30e530e530e530e5000d30e230e530e1301330e2000400149de530ea'
p248
L212L
tp249
a(S'_Z12util_stristrPciS_'
p250
S'042de200e520e530e5fd'
p251
L324L
tp252
a(S'_Z15util_local_addrv'
p253
S'042de230e509'
p254
L20L
tp255
a(S'_Z11util_fdgetsPcii'
p256
S'042de200e520e330e330e520e020e100eb30e530e3001a9de530ea'
p257
L200L
tp258
a(S'_ZL12util_isupperc'
p259
S'084de230e530e50004005a000100000000a0e1d0'
p260
L60L
tp261
a(S'_ZL12util_isalphac'
p262
S'084de230e530e50002005a000530e50004007a53e3008a30eaa0e2ff'
p263
L84L
tp264
a(S'_ZL12util_isspacec'
p265
S'084de230e530e50008000730e5000530e50002000730e500010001a0eaa0e2ff'
p266
L84L
tp267
a(S'_ZL12util_isdigitc'
p268
S'084de230e530e50004003953e3008a30eaa0e2ff'
p269
L60L
tp270
a(S'__udivsi3'
p271
S'0151e2ff013a006b9a00106fe12f6fe1301f308310201000e120205002a22020200e50e1202020200da22020200ce1202020200b02a22020200a02a22020200902a22020200802a22020200750e1202020200650e12020202005a220202004e1202020200302a22020200202a22020200102a22020200002a22000e10013ffe12f6fe12030a0e10000e09700'
p272
L492L
tp273
a(S'__aeabi_uidivmod'
p274
S'0051e3'
p275
L32L
tp276
a(S'__divsi3'
p277
S'0051e300'
p278
L8L
tp279
a(S'.divsi3_skip_div0_test'
p280
S'01200061420151e2000a30420153e1009a00136fe16f0240e020'
p281
L520L
tp282
a(S'__aeabi_idivmod'
p283
S'0051e3'
p284
L32L
tp285
a(S'__aeabi_ldiv0'
p286
S'02e9a3'
p287
L16L
tp288
a(S'selfrel_offset31'
p289
S'0090e501e3310300'
p290
L24L
tp291
a(S'search_EIT_table'
p292
S'0051e3000a472de260a0e190a0e04f84c4e151a0e000eb0000a0e2000a0008000140e200ec'
p293
L152L
tp294
a(S'__gnu_unwind_get_pr_addr'
p295
S'4430e3300a0009000050e3000a00e120e7ffe100e0ffe120e7ff'
p296
L76L
tp297
a(S'get_eit_entry'
p298
S'189fe531e0402de7d00053e340a0e2000a'
p299
L288L
tp300
a(S'restore_non_core_regs'
p301
S'0090e5402de340a01a00e3000a300a0008130d00e38010e887000094e500e3'
p302
L136L
tp303
a(S'_Unwind_decode_typeinfo_ptr.isra.0'
p304
S'0090e50003901703a0'
p305
L20L
tp306
a(S'__gnu_unwind_24bit.isra.1'
p307
S'09a0'
p308
L8L
tp309
a(S'unwind_phase2'
p310
S'702de150a0e500eb6050e2001a95e5301094e510e3ffe100f1'
p311
L100L
tp312
a(S'unwind_phase2_forced'
p313
S''
p314
L340L
tp315
a(S'_Unwind_GetCFA'
p316
S'4400'
p317
L8L
tp318
a(S'__gnu_Unwind_RaiseException'
p319
g314
L168L
tp320
a(S'__gnu_Unwind_ForcedUnwind'
p321
S'042de510e510e520e4'
p322
L36L
tp323
a(S'__gnu_Unwind_Resume'
p324
S'702de530e3301a30e140a0e110e3ffe10004000850e3001a00eb00e5'
p325
L116L
tp326
a(S'__gnu_Unwind_Resume_or_Rethrow'
p327
S'0c90e50003003c91e520e3'
p328
L32L
tp329
a(S'_Unwind_DeleteException'
p330
S'0890e5001eff0110e3ff'
p331
L24L
tp332
a(S'_Unwind_VRS_Get'
p333
S'0451e3f1'
p334
L104L
tp335
a(S'_Unwind_GetGR'
p336
S'042de230e110e510eb00e2'
p337
L44L
tp338
a(S'_Unwind_VRS_Set'
p339
S'0451e3f1'
p340
L104L
tp341
a(S'_Unwind_SetGR'
p342
S'042de230e520e520e1'
p343
L44L
tp344
a(S'__gnu_Unwind_Backtrace'
p345
g314
L200L
tp346
a(S'__gnu_unwind_pr_common'
p347
g314
L1136L
tp348
a(S'__aeabi_unwind_cpp_pr0'
p349
S'00a0'
p350
L8L
tp351
a(S'__aeabi_unwind_cpp_pr1'
p352
S'01a0'
p353
L8L
tp354
a(S'__aeabi_unwind_cpp_pr2'
p355
S'02a0'
p356
L8L
tp357
a(S'_Unwind_VRS_Pop'
p358
g314
L1016L
tp359
a(S'restore_core_regs'
p360
S'348000e9009d'
p361
L20L
tp362
a(S'__gnu_Unwind_Restore_VFP'
p363
S'2190ec1eff'
p364
L8L
tp365
a(S'__gnu_Unwind_Save_VFP'
p366
S'2180ff'
p367
L8L
tp368
a(S'__gnu_Unwind_Restore_VFP_D'
p369
S'2090ec1eff'
p370
L8L
tp371
a(S'__gnu_Unwind_Save_VFP_D'
p372
S'2080ff'
p373
L8L
tp374
a(S'__gnu_Unwind_Restore_VFP_D_16_to_31'
p375
S'20d01eff'
p376
L8L
tp377
a(S'__gnu_Unwind_Save_VFP_D_16_to_31'
p378
S'20c0ff'
p379
L8L
tp380
a(S'__gnu_Unwind_Restore_WMMXD'
p381
S'02'
p382
L68L
tp383
a(S'__gnu_Unwind_Save_WMMXD'
p384
S'02e002e002e002e002ec02ec02ec02ec02e002e002e002e002e002e01eff'
p385
L68L
tp386
a(S'__gnu_Unwind_Restore_WMMXC'
p387
S'01b001b01eff'
p388
L20L
tp389
a(S'__gnu_Unwind_Save_WMMXC'
p390
S'01a0fc012f'
p391
L20L
tp392
a(S'___Unwind_RaiseException'
p393
S'002de90c2de2fc'
p394
L36L
tp395
a(S'___Unwind_Resume'
p396
S'002de90c2de2fc'
p397
L24L
tp398
a(S'___Unwind_Resume_or_Rethrow'
p399
S'002de90c2de2fc'
p400
L36L
tp401
a(S'___Unwind_ForcedUnwind'
p402
S'002de90c2de2fc'
p403
L36L
tp404
a(S'___Unwind_Backtrace'
p405
S'002de90c2de2fd'
p406
L36L
tp407
a(S'next_unwind_byte'
p408
S'08d00052e3001a30e5000f0a90e530048210e5c008c024e120e1ffe1200090e520e5'
p409
L96L
tp410
a(S'_Unwind_GetGR.constprop.0'
p411
S'042de230e220e120eb00e2'
p412
L44L
tp413
a(S'__gnu_unwind_execute'
p414
g314
L972L
tp415
a(S'__gnu_unwind_frame'
p416
S'4c20e530e2c003e1c00720e510e520e5c014'
p417
L68L
tp418
a(S'_Unwind_GetRegionStart'
p419
S'10e94800'
p420
L16L
tp421
a(S'_Unwind_GetLanguageSpecificData'
p422
S'10e94c00e530e0'
p423
L28L
tp424
a(S'__libc_start_main'
p425
S'804adf149fe500e5e0e50000e222e101150082c2e83f6f111111300490e400fc'
p426
L804L
tp427
a(S'check_one_fd'
p428
g314
L48L
tp429
a(S'__libc_check_standard_fds'
p430
S'10e900a0eb19e3'
p431
L44L
tp432
a(S'__libc_setup_tls'
p433
S'3c9fe522e54f2de3d000e5000a9fe510e000030000ea53e1002a20e3'
p434
L580L
tp435
a(S'__tls_get_addr'
p436
S'042de100'
p437
L12L
tp438
a(S'__libc_csu_init'
p439
g314
L144L
tp440
a(S'__libc_csu_fini'
p441
S'702de5509fe5304331e3000a4043e2518501e230e100'
p442
L64L
tp443
a(S'__errno_location'
p444
S'109fe5e0e500'
p445
L12L
tp446
a(S'__aeabi_read_tp'
p447
g314
L8L
tp448
a(S'__assert_fail_base'
p449
S'80789fe5e1e5d0009ce50000e160a0e18030e5000a10e300e511e5c110e50001a0010040a00100e500e501e100eb003520e500eb30e51ceb30e530e3c0030c00e000'
p450
L388L
tp451
a(S'__assert_fail'
p452
S'8000e170e1d001e160a0e520e500eb70e530e110'
p453
L60L
tp454
a(S'dcgettext'
p455
S'042de3d004'
p456
L36L
tp457
a(S'plural_eval'
p458
g314
L460L
tp459
a(S'transcmp'
p460
S'1090e5402de330e140a01295051c8154000050e3800095e554000050e3800895e554000050e330034000'
p461
L108L
tp462
a(S'plural_lookup.isra.2'
p463
g314
L96L
tp464
a(S'_nl_find_msg'
p465
g314
L2924L
tp466
a(S'__dcigettext'
p467
g314
L1756L
tp468
a(S'_nl_find_domain'
p469
g314
L668L
tp470
a(S'_nl_load_domain'
p471
g314
L5708L
tp472
a(S'alias_compare'
p473
S'0091e500e54e00'
p474
L16L
tp475
a(S'read_alias_file'
p476
S'154f2de3b0e2df034de034e540a0e520e100e54e000e20e54e0004a0e510eb9050e2910b0099e529e22005e40009a0e34bd8000050e3000a10e248008c9fe531029fe74f4be260a0eb10e120e3000a30e520e10ae3'
p477
L1056L
tp478
a(S'_nl_expand_alias'
p479
S'f84f2de360a0e540a0e5000500e3e0e1'
p480
L452L
tp481
a(S'_nl_make_l10nflist'
p482
g314
L1196L
tp483
a(S'_nl_normalize_codeset'
p484
g314
L296L
tp485
a(S'_nl_explode_name'
p486
g314
L528L
tp487
a(S'__gettext_free_exp'
p488
S'10e91094e50008000353e3000a0006000aa0e81094e5'
p489
L88L
tp490
a(S'new_exp'
p491
S'0140e200'
p492
L192L
tp493
a(S'__gettextparse'
p494
g314
L2328L
tp495
a(S'__gettext_extract_plural'
p496
g314
L276L
tp497
a(S'__hash_string'
p498
S'0140e200e5001eff0102e312e20c10'
p499
L40L
tp500
a(S'_setjmp'
p501
S'00a0'
p502
L8L
tp503
a(S'__bsd_signal.part.0'
p504
S'10e9124de2e0e530e220e5e1e520e500fc'
p505
L164L
tp506
a(S'ssignal'
p507
S'017100a003c00030e3000a30e5ed'
p508
L80L
tp509
a(S'raise'
p510
S'b02de5df0095e540a0e300e531eb21e330e320e510e200e370e300ef14a0efe0a0e100ef437fe310e100ef017000e1008a'
p511
L216L
tp512
a(S'__libc_sigaction'
p513
g314
L284L
tp514
a(S'sigaction'
p515
S'0140e200008a300153e3009a9fe5e0e5ec'
p516
L40L
tp517
a(S'sigprocmask'
p518
g314
L192L
tp519
a(S'kill'
p520
S'042de300ef049de40a1eff316100'
p521
L28L
tp522
a(S'sigemptyset'
p523
S'0050e3402d0a10eb30e1801610e7ec'
p524
L52L
tp525
a(S'sigaddset'
p526
S'0141e20000a08350e330e3e0e5001a100151e3009a90e720e2e0e322e700e420e320'
p527
L96L
tp528
a(S'__default_sa_restorer'
p529
S'77a0ef00a0'
p530
L16L
tp531
a(S'__default_rt_sa_restorer'
p532
S'ad70e300ef'
p533
L8L
tp534
a(S'atoi'
p535
S'0aa0e303'
p536
L12L
tp537
a(S'msort_with_tmp.part.0'
p538
g314
L672L
tp539
a(S'qsort_r'
p540
g314
L736L
tp541
a(S'qsort'
p542
S'042de3d000'
p543
L28L
tp544
a(S'getenv'
p545
S'009fe5472de5003a0000d000e1000201000a70e590a0e34095e5001a002ce3001a00ea54e3000a10e530e534e138e100f5'
p546
L264L
tp547
a(S'__run_exit_handlers'
p548
S'0c9fe5482de3d00c'
p549
L788L
tp550
a(S'exit'
p551
S'01a0e9009fe5'
p552
L20L
tp553
a(S'__new_exitfn'
p554
S'289fe530e5003400702de540a0e3000a00e1e0e120e3000a30038e0891e5000f1ac00143e2120a0002a0e3'
p555
L304L
tp556
a(S'__internal_atexit'
p557
g314
L364L
tp558
a(S'__cxa_atexit'
p559
S'009fe5'
p560
L8L
tp561
a(S'__strtol_internal'
p562
S'30e90c4de2409fe750a0'
p563
L24L
tp564
a(S'strtol'
p565
S'2c9fe5402de7d000e1'
p566
L24L
tp567
a(S'__strtoul_internal'
p568
S'30e90c4de2409fe750a0'
p569
L24L
tp570
a(S'strtoul'
p571
S'2c9fe5402de7d000e1'
p572
L24L
tp573
a(S'____strtol_l_internal'
p574
g314
L1288L
tp575
a(S'strtol_l'
p576
S'042de230e3'
p577
L28L
tp578
a(S'____strtoul_l_internal'
p579
g314
L1196L
tp580
a(S'strtoul_l'
p581
S'042de230e3'
p582
L28L
tp583
a(S'__correctly_grouped_prefixmb'
p584
g314
L668L
tp585
a(S'asprintf'
p586
S'0e00e90c4de230e1c030e509eb20e50003000c'
p587
L80L
tp588
a(S'locked_vfxprintf'
p589
g314
L248L
tp590
a(S'__fxprintf'
p591
S'0e00e9084de25050e230e531e550930500e530e2001a95e5e5eb30e2000e000a10e130e1001aa0e3e0e1'
p592
L364L
tp593
a(S'__fxprintf_nocancel'
p594
S'0e00e9084de25050e230e531e550930500e530e2001a95e5e4eb30e2000e000a10e130e1001aa0e3e0e1'
p595
L380L
tp596
a(S'fclose'
p597
S'0090e5472de350a01a29e2000a60130013006b0a9fe54095e533e0300153e1009aa0e1ffe130e300da95e510e540a0e5000500e3e0e1'
p598
L684L
tp599
a(S'fflush'
p600
g314
L344L
tp601
a(S'__fopen_maybe_mmap'
p602
S'3c90e500e3ff0130e3ff01e520e330d510d510e5ff'
p603
L64L
tp604
a(S'__fopen_internal'
p605
g314
L224L
tp606
a(S'fopen'
p607
S'01a0'
p608
L8L
tp609
a(S'adjust_wide_data'
p610
g314
L276L
tp611
a(S'_IO_wfile_underflow'
p612
S'0090e5279fe54f2de5d0101334'
p613
L1656L
tp614
a(S'_IO_wfile_seekoff'
p615
g314
L2464L
tp616
a(S'_IO_wfile_underflow_maybe_mmap'
p617
S'10e9060001701094e500e540bde5ff'
p618
L44L
tp619
a(S'_IO_wfile_underflow_mmap'
p620
g314
L392L
tp621
a(S'_IO_wdo_write'
p622
S'ac31e9344de25052e230e1000a30e540a0e18043000ab0e2a000149de5000443e05145e0000a9059e290a0e190890059e3001a0023001496e570e540a0e00020968520925c10e9188d00'
p623
L436L
tp624
a(S'_IO_wfile_overflow'
p625
S'0090e5412de340a01a0be350a01ae510e3000a10e5001c940504921500a0010004'
p626
L672L
tp627
a(S'_IO_wfile_sync'
p628
S'5c30e90c93e5d00152e140a09a53e300da204221eb0013005c300093e500e1000a94e5201096e500e1ffe1001e00da21e531e0300153e1009a'
p629
L416L
tp630
a(S'_IO_wfile_xsputn'
p631
g314
L348L
tp632
a(S'vasprintf'
p633
g314
L332L
tp634
a(S'__libc_message'
p635
S'0e00e9204de230e500e390a0e530e5609be5001a800154e350a0110004a0e100eaa0eb30e500040025'
p636
L676L
tp637
a(S'__libc_fatal'
p638
S'18e5402de120e100eb'
p639
L32L
tp640
a(S'_IO_vtable_check'
p641
S'109fe5001eff11402de5'
p642
L24L
tp643
a(S'fgets_unlocked'
p644
S'0051e300da002a000092e5402de340a0e260a0e30000'
p645
L200L
tp646
a(S'_IO_file_seekoff_maybe_mmap'
p647
S'702de55090e540a0e5d00045e0100c51e1609de5009aa0e5ffe10000d10600ba10'
p648
L112L
tp649
a(S'_IO_file_close'
p650
S'3890e54000'
p651
L8L
tp652
a(S'_IO_new_file_setbuf'
p653
S'10e9980d50e38004a0e5300c8404840884'
p654
L56L
tp655
a(S'_IO_file_setbuf_mmap'
p656
S'5c30e954509fe55080c08550e3000a94e500e5300c840484088470bde55085109fe55084b083'
p657
L100L
tp658
a(S'new_do_write'
p659
S'0090e5432de56090e5519fe50ae38000e190a0e05045e0000a20e330e32555e1009aa0e100e134e10000501350a01ae5300c8404840884148410841b002094e5300c'
p660
L332L
tp661
a(S'_IO_new_file_underflow'
p662
S'f84f2de500e3001a13b2000490e510e130351c90e550a0e3000a9fe500e1000a9fe570e530e2001a97e5d9eb20e2008f0001a0e130e1001aa0e3e0e1'
p663
L764L
tp664
a(S'_IO_file_close_mmap'
p665
S'1c90e510e900e100eb30e53010e8'
p666
L52L
tp667
a(S'mmap_remap_check'
p668
g314
L600L
tp669
a(S'_IO_file_seek'
p670
S'3890e53b'
p671
L8L
tp672
a(S'_IO_file_sync_mmap'
p673
S'0c90e900e100e120084de23fa00a10e50000a0e1000140e01fa0e10006001a94e500e11008'
p674
L136L
tp675
a(S'decide_maybe_mmap'
p676
g314
L464L
tp677
a(S'_IO_file_underflow_maybe_mmap'
p678
S'702de1'
p679
L64L
tp680
a(S'_IO_file_xsgetn_maybe_mmap'
p681
g314
L80L
tp682
a(S'_IO_new_file_seekoff'
p683
g314
L1700L
tp684
a(S'_IO_file_stat'
p685
S'01a0e500'
p686
L16L
tp687
a(S'_IO_new_file_write'
p688
g314
L156L
tp689
a(S'_IO_file_xsgetn_mmap'
p690
g314
L288L
tp691
a(S'_IO_file_xsgetn'
p692
S'1c90e54f2de3d000e150a0e1000a0049000a94e9060068b1e5919fe5a04be000ea1339001c94e5003d100a51e1008a51e330088414841084188437009a'
p693
L544L
tp694
a(S'_IO_file_seekoff_mmap'
p695
g314
L360L
tp696
a(S'_IO_file_underflow_mmap'
p697
S'0490e510e1002a00e5ffe1402de1fb'
p698
L132L
tp699
a(S'_IO_file_read'
p700
S'3c90e500e3001a00403b'
p701
L24L
tp702
a(S'_IO_new_file_xsputn'
p703
g314
L420L
tp704
a(S'_IO_new_file_init_internal'
p705
S'0090e5402de330e370e330e140a0eb30e330'
p706
L52L
tp707
a(S'_IO_new_file_init'
p708
S'0090e5402de330e370e330e140a0eb30e330'
p709
L52L
tp710
a(S'_IO_file_open'
p711
S'3c90e5402de3d000e1609de500e1201a0002811d50a0e300bac8c801c3e330e320e010e130e530a89fe56094e530e0300153e1009a'
p712
L284L
tp713
a(S'_IO_new_file_attach'
p714
S'3890e5432de3d0001a30e540a0e500e530e330e390e0008438840240e085e12005d3eb0005009aa0e530e330e500e130e320e300025001000a9fe5d3eb30e700e28377'
p715
L232L
tp716
a(S'_IO_new_do_write'
p717
S'0052e2001a00e1402de1f9'
p718
L40L
tp719
a(S'_IO_new_file_close_it'
p720
S'702de50044000a9fe520e130e00b0013000aa0eb300013001a21e531e0300153e1009aa0e150a0e50012005c300053e3000aa0eb30e110e1ad005c30088320e520e520e320e100eb30e130088414841084188404a00100e320e330e300'
p721
L384L
tp722
a(S'_IO_new_file_fopen'
p723
g314
L1028L
tp724
a(S'_IO_new_file_finish'
p725
S'3890e5402de340a00ae5001700dae530e510e021eb3009005020e530e0300153e1009aa0e100e340bdea90e510e0'
p726
L160L
tp727
a(S'_IO_new_file_overflow'
p728
S'0090e5402de3001a0be350a0e1201a0057000a90e50ce3001a000250e12002a005028320188404840c8400841c00017515302530e550c2301520126fe122e0001a5005e1802f000a001490e5'
p729
L512L
tp730
a(S'_IO_new_file_sync'
p731
S'1490e510e9084de240a09a53e300dae530e510e021eb00130028002494e91400a06094e530e0300153e1009a'
p732
L264L
tp733
a(S'flush_cleanup'
p734
g314
L280L
tp735
a(S'save_for_backup'
p736
g314
L444L
tp737
a(S'_IO_un_link.part.1'
p738
g314
L744L
tp739
a(S'_IO_un_link'
p740
S'0090e500e3ff01'
p741
L16L
tp742
a(S'_IO_link_in'
p743
g314
L680L
tp744
a(S'_IO_least_marker'
p745
S'3090e500e3001eff0120e50002a0e3'
p746
L48L
tp747
a(S'_IO_switch_to_main_get_area'
p748
S'0090e520e510e53ce3e0e530e5c00c8020'
p749
L56L
tp750
a(S'_IO_switch_to_backup_area'
p751
S'0090e520e5c001e3e0e530e520e5c0049d'
p752
L56L
tp753
a(S'_IO_switch_to_get_mode'
p754
S'd0c0402de140a09a90e530e0300153e1009ae004a0e10070bde5200a000894e5100c84088400a0e13070bde5109c'
p755
L152L
tp756
a(S'_IO_free_backup_area'
p757
S'0090e5402de340a0e5000a94e53ce3002c94e500e52000a0e530'
p758
L80L
tp759
a(S'__overflow'
p760
S'6c30e900e06c30e54090e530e0300c53e1d0030008'
p761
L84L
tp762
a(S'__underflow'
p763
S'6c30e330030501733b000090e5402de340a01a94e52027003a300b002494e50001e300008408842c8404840c8424841f008a300f0a107c'
p764
L276L
tp765
a(S'__uflow'
p766
S'6c30e330030501733f001a30e900e1001a94e52027003a300b002494e50001e300008408842c840c84248404843094e5000f0a10350017001a5094e530e0300153e1009aa0e82494e500f1'
p767
L292L
tp768
a(S'_IO_setb'
p769
g314
L84L
tp770
a(S'_IO_doallocbuf'
p771
S'1c90e5001eff1130e900e1000ae50018007c9fe55094e530e0300153e1009aa0e10070bde560840050e350840094e5000a00e3000a30e5608420e580485080'
p772
L176L
tp773
a(S'_IO_default_underflow'
p774
S'00e01eff'
p775
L8L
tp776
a(S'_IO_default_uflow'
p777
S'702de55090e530e0300153e140a09aa0e100049415048470bdeb'
p778
L80L
tp779
a(S'_IO_default_xsputn'
p780
g314
L224L
tp781
a(S'_IO_sgetn'
p782
S'10e9984090e530e0300e00104de2009a'
p783
L68L
tp784
a(S'_IO_default_xsgetn'
p785
g314
L176L
tp786
a(S'_IO_default_setbuf'
p787
g314
L256L
tp788
a(S'_IO_default_seekpos'
p789
S'30e9984090e510e0101c4de20028e5009a'
p790
L88L
tp791
a(S'_IO_default_doallocate'
p792
S'702de10aeb5050e2000a94e56ae2000094e5000a00e3000a30e33020e500e80094e5'
p793
L96L
tp794
a(S'_IO_enable_locks'
p795
S'3c9fe530e3ff1130e330e5001eff0193e520e530e3'
p796
L68L
tp797
a(S'_IO_old_init'
p798
S'749fe514e320e3003c8020138000ad18e530e530e530e530e530e530e530e130151eff'
p799
L124L
tp800
a(S'_IO_init_internal'
p801
S'10e9dc'
p802
L36L
tp803
a(S'_IO_no_init'
p804
S'702de140a0e1'
p805
L112L
tp806
a(S'_IO_default_sync'
p807
S'00a0'
p808
L8L
tp809
a(S'_IO_default_finish'
p810
S'702de100e3000a3013003094e500040000a0e530e3'
p811
L128L
tp812
a(S'_IO_default_seekoff'
p813
S'00e000e01eff'
p814
L12L
tp815
a(S'_IO_sputbackc'
p816
S'0490e520e90c4de240a09a010250e13004844c20e530e0300053e1009aa0e10002000094e530e33030'
p817
L136L
tp818
a(S'_IO_sungetc'
p819
S'0490e520e900e1009a80000094e530e330389fe55090e530e0300153e1009ae004a0e10070bdea'
p820
L116L
tp821
a(S'_IO_adjust_column'
p822
S'042de0000900015ee5300a5ce3001a00ea5ce3000a00fa'
p823
L84L
tp824
a(S'_IO_flush_all_lockp'
p825
S'249fe523e9244de20000'
p826
L812L
tp827
a(S'_IO_cleanup'
p828
g314
L852L
tp829
a(S'_IO_flush_all'
p830
S'01a0'
p831
L8L
tp832
a(S'_flushlbf'
p833
S'd49fe522e91c4de20014'
p834
L732L
tp835
a(S'_IO_init_marker'
p836
S'0091e5402de340a0e1101a0ce3200494e5303094e520e5508470bde1fa'
p837
L84L
tp838
a(S'_IO_remove_marker'
p839
S'0490e520e3ff01000100080003a0e5001eff0100f9'
p840
L72L
tp841
a(S'_IO_marker_difference'
p842
S'0890e530e0ff'
p843
L16L
tp844
a(S'_IO_marker_delta'
p845
S'0490e50007000a00e50ce330050340e0ffe100e3ff'
p846
L52L
tp847
a(S'_IO_seekmark'
p848
S'0491e50024000891e530e3e0e51ce200ba0c90e5000a90e53ce3e0e510e510e5c0088020e500e4000890e5'
p849
L168L
tp850
a(S'_IO_unsave_markers'
p851
S'3090e50000a0150053e3ff01'
p852
L32L
tp853
a(S'_IO_default_pbackfail'
p854
g314
L316L
tp855
a(S'_IO_default_seek'
p856
S'00e000e01eff'
p857
L12L
tp858
a(S'_IO_default_stat'
p859
S'00e01eff'
p860
L8L
tp861
a(S'_IO_default_read'
p862
S'00e01eff'
p863
L8L
tp864
a(S'_IO_default_write'
p865
S'00a0'
p866
L8L
tp867
a(S'_IO_default_showmanyc'
p868
S'00e01eff'
p869
L8L
tp870
a(S'_IO_iter_begin'
p871
S'049fe500'
p872
L12L
tp873
a(S'_IO_iter_end'
p874
S'00a0'
p875
L8L
tp876
a(S'_IO_iter_next'
p877
S'3490e5ff'
p878
L8L
tp879
a(S'_IO_list_lock'
p880
S'702deb509fe56d40e230e1000a10e240a0e5000500e3e0e1'
p881
L116L
tp882
a(S'_IO_list_unlock'
p883
g314
L132L
tp884
a(S'_IO_list_resetlock'
p885
S'109fe520e520e5ff'
p886
L24L
tp887
a(S'_IO_str_underflow'
p888
S'1490e520e500030108800b30050a80c000d31eff'
p889
L68L
tp890
a(S'_IO_str_overflow'
p891
S'0090e500e3001a2be20b028310e920e5300504800001e16046e0100310e00000e1008a30e2001a90868956e1008a00eb80000a000520e122eb00eba049e010e022eb20e310e1fa'
p892
L344L
tp893
a(S'enlarge_userbuf'
p894
g314
L444L
tp895
a(S'_IO_str_seekoff'
p896
g314
L696L
tp897
a(S'_IO_str_pbackfail'
p898
S'0191e22013001afd'
p899
L32L
tp900
a(S'_IO_str_finish'
p901
S'10e91c90e50002000094e500e3000a10e500e87d00f8'
p902
L60L
tp903
a(S'_IO_str_init_static_internal'
p904
S'0052e3412de150a0e1001a10e121eb60a0e320e100eb0000a0e550840484148408151805a081e160a023'
p905
L132L
tp906
a(S'_IO_str_init_static'
p907
S'c2e1'
p908
L8L
tp909
a(S'_IO_str_init_readonly'
p910
S'10e900e12f82'
p911
L36L
tp912
a(S'_IO_str_count'
p913
S'0890e520e500016020001eff'
p914
L28L
tp915
a(S'_dl_tunable_set_mmap_threshold'
p916
S'0090e50753e3209308'
p917
L28L
tp918
a(S'_dl_tunable_set_mmaps_max'
p919
S'109fe510e310e5ff'
p920
L24L
tp921
a(S'_dl_tunable_set_top_pad'
p922
S'109fe510e310e5ff'
p923
L24L
tp924
a(S'_dl_tunable_set_perturb_byte'
p925
S'089fe520e5ff'
p926
L16L
tp927
a(S'_dl_tunable_set_trim_threshold'
p928
S'109fe510e310e5ff'
p929
L24L
tp930
a(S'_dl_tunable_set_arena_max'
p931
S'089fe520e5ff'
p932
L16L
tp933
a(S'_dl_tunable_set_arena_test'
p934
S'089fe520e5ff'
p935
L16L
tp936
a(S'_dl_tunable_set_tcache_max'
p937
S'0090e5521eff810007308343'
p938
L56L
tp939
a(S'_dl_tunable_set_tcache_count'
p940
S'089fe520e5ff'
p941
L16L
tp942
a(S'_dl_tunable_set_tcache_unsorted_limit'
p943
S'089fe520e5ff'
p944
L16L
tp945
a(S'mem2mem_check'
p946
S'0050e3ff0130a3c1c020e500c00720e320044202200152e1009a53e330e13030e7200251e1'
p947
L108L
tp948
a(S'mem2chunk_check'
p949
g314
L536L
tp950
a(S'int_mallinfo'
p951
S'3490e5412de560a0e3c00650a0e5000500e220e30002e0'
p952
L276L
tp953
a(S'__malloc_assert'
p954
S'4cc0009ce540a0e5d0005ee3e015309f050e30e520e500'
p955
L68L
tp956
a(S'detach_arena'
p957
S'0050e3ff01e50002000143e234e5ffe1402de520e500'
p958
L56L
tp959
a(S'get_free_list'
p960
g314
L384L
tp961
a(S'new_heap'
p962
S'018031e3412de5d03d0651e3008a9fe55043e200e0300050e350050a60a0e330e520e516a0eb6087017000e1000a34e3c3e300180001a0eb60a0e330e360'
p963
L408L
tp964
a(S'mremap_chunk'
p965
g314
L412L
tp966
a(S'ptmalloc_init'
p967
S'702de5519fe524e5d00095e50004'
p968
L336L
tp969
a(S'arena_get2.part.2'
p970
S'f84f2de585e5a053e370e14498e5001a30e3300a9fe550890143e200685096e50058559f0501a0e140a0e5000500e3e0e1'
p971
L1444L
tp972
a(S'arena_get_retry'
p973
S'4431e900e180200000e510e120e5000500e3e0e1'
p974
L332L
tp975
a(S'_dl_tunable_set_mallopt_check'
p976
S'0090e5001eff019fe5e0e520e3e0e5c0309fe530e5e0e500e5e0e500e5'
p977
L80L
tp978
a(S'__malloc_info.part.6'
p979
S'cc24e54f2de2d000a0e514e530e510e530e530e530e528e114e530e530e37feb10e530e1001aa0e3e0e1'
p980
L1236L
tp981
a(S'systrim.isra.1.constprop.7'
p982
g314
L196L
tp983
a(S'_int_free'
p984
g314
L2928L
tp985
a(S'sysmalloc'
p986
g314
L1952L
tp987
a(S'_int_malloc'
p988
S'0b81'
p989
L3884L
tp990
a(S'malloc_check'
p991
S'0170'
p992
L252L
tp993
a(S'tcache_init.part.3'
p994
S'68412deb30e700000a10e140a0e5000500e3e0e1'
p995
L368L
tp996
a(S'_int_memalign'
p997
g314
L464L
tp998
a(S'memalign_check'
p999
S'0850e3009a2d8a001093008a60a0e510e330e1001aa0e3e0e1'
p1000
L384L
tp1001
a(S'_int_realloc'
p1002
g314
L868L
tp1003
a(S'__malloc_fork_lock_parent'
p1004
S'ac30e5001effd12de320e330e1001aa0e3e0e1'
p1005
L180L
tp1006
a(S'__malloc_fork_unlock_parent'
p1007
g314
L240L
tp1008
a(S'__malloc_fork_unlock_child'
p1009
S'889fe534e5001effd1402deb409fe530e3206800e30001a0150520e150840350e1141503a0e534e5e01353e1'
p1010
L144L
tp1011
a(S'__malloc_check_init'
p1012
S'3c9fe5e0e520e3e0e5c0309fe530e5e0e500e5e0e500e5'
p1013
L68L
tp1014
a(S'malloc'
p1015
S'109fe530e3001a20e3412d9300e1008a30e3001a62eb60860496e54042e200a471e1000a22e50029000093e50041001a10e1f7eb6050e2000a16e500e3001a1327000a3023a0e130e1000a9fe522e502eb20e30000a083'
p1016
L792L
tp1017
a(S'malloc_hook_ini'
p1018
S'1c9fe5402de340a0e5ee'
p1019
L36L
tp1020
a(S'_mid_memalign'
p1021
S'd89fe5412de50041001a0000a0e1009a003c000042e00027003a2000128e001050e3000a60a0e100fc'
p1022
L736L
tp1023
a(S'memalign_hook_ini'
p1024
S'2c9fe5402de360a0e150a0e5ed'
p1025
L52L
tp1026
a(S'free'
p1027
S'd89fe530e3001a0000a001100840e200e3001a402deb409fe5d000840490e500000a1321a011201508'
p1028
L212L
tp1029
a(S'__malloc_arena_thread_freeres'
p1030
S'6031e900835090e500120000a0e340854f6f85048030e5000530e5'
p1031
L360L
tp1032
a(S'realloc_hook_ini'
p1033
S'2c9fe520e900e150a0e530eb10e140bd'
p1034
L52L
tp1035
a(S'memalign'
p1036
S'042de1e0e4fd'
p1037
L16L
tp1038
a(S'valloc'
p1039
S'349fe5402de550a0e340a0ba0510e540bdea'
p1040
L60L
tp1041
a(S'pvalloc'
p1042
S'709fe5402de550a0e340a0ba10e00093e5c05ce1003a1004810510e000e8249fe520e7ae'
p1043
L120L
tp1044
a(S'calloc'
p1045
S'f84f2de100e330230000a0e360a0e0001a93e5005d001a9fe5ae'
p1046
L956L
tp1047
a(S'malloc_trim'
p1048
S'709fe54f2de5d00053e300ba00a0e130e320e330e1001aa0e3e0e1'
p1049
L632L
tp1050
a(S'mallinfo'
p1051
S'3c9fe5472de5919fe5d00099e50000'
p1052
L324L
tp1053
a(S'malloc_stats'
p1054
S'ec11e524e54f2de5d00052e330e500baccb1e530e120e520e180000001a0e300eb40a0e320e5000500e3e0e1'
p1055
L500L
tp1056
a(S'mallopt'
p1057
g314
L464L
tp1058
a(S'posix_memalign'
p1059
S'21a0e230e0c00c93e1402d1340a0e340a0e3001a30e120e110eb000400008504a0e870bde3'
p1060
L108L
tp1061
a(S'malloc_info'
p1062
S'0050e3001a30e901e1000700ba209fe581e140bdea2fe1e8'
p1063
L72L
tp1064
a(S'__default_morecore'
p1065
S'10e9017000a0'
p1066
L20L
tp1067
a(S'strchr'
p1068
S'0310ff010f0a30e5001eff01003b00018000ea80001eff01002b00031303a01a2de5409fe506e060860668000352e50020000053e3000a300c53e1000a0015300c53e1000a00100002a0e1e0e450e010e010e030e030e030e3'
p1069
L280L
tp1070
a(S'strcmp'
p1071
S'01d001d10053e3000a00f9'
p1072
L40L
tp1073
a(S'strcpy'
p1074
S'702de100e100eb10e200e8'
p1075
L40L
tp1076
a(S'strcspn'
p1077
g314
L352L
tp1078
a(S'strdup'
p1079
S'702de100eb408000eb0070bde110e8'
p1080
L48L
tp1081
a(S'strlen'
p1082
S'03c020e2000400ff8230ffc30153e228e30c130813041380201a00e30013001300'
p1083
L96L
tp1084
a(S'strncmp'
p1085
S'0352e3402d9ac2e0e250851b00035ce5605ee54053e040a0e340a0e3001a30605ee54053e040a0e340a0e3001a30405ee5c0e0130001a0e3001ae0e2000a5ce5405ee500e010e310e3100a43e08004a0e3'
p1086
L316L
tp1087
a(S'critical_factorization'
p1088
g314
L272L
tp1089
a(S'two_way_long_needle'
p1090
g314
L1016L
tp1091
a(S'strstr'
p1092
g314
L1120L
tp1093
a(S'memcmp'
p1094
g314
L1060L
tp1095
a(S'memmove'
p1096
S'0150e0000c0002810452e200ba0451f53000031139001c52e201ba60202051f5020060'
p1097
L832L
tp1098
a(S'memset'
p1099
S'00a0e3003a00e3101420fb'
p1100
L124L
tp1101
a(S'mempcpy'
p1102
S'10e91d00'
p1103
L20L
tp1104
a(S'stpcpy'
p1105
S'702de100e1fb'
p1106
L48L
tp1107
a(S'strcasecmp_l'
p1108
S'0150e1000a2de5c020e530e401e700049d1400f7ff049de400'
p1109
L64L
tp1110
a(S'memcpy'
p1111
S'11e92b0000d1300003113a001c52e201ba60201cd102005c'
p1112
L816L
tp1113
a(S'rawmemchr'
p1114
S'0051e3001a402de1fa'
p1115
L36L
tp1116
a(S'strchrnul'
p1117
S'0310ff010c0000d0035ce1001eff0130ea52e1001eff0100e3001a2de5409fe506e060860668000251e5000c5311000a300c53e10017000a00e1e0e450e030e030e020e020e020e3'
p1118
L228L
tp1119
a(S'wmempcpy'
p1120
S'02a0'
p1121
L8L
tp1122
a(S'mbsrtowcs'
p1123
S'702de5509fe5409fe7d000e1a4'
p1124
L28L
tp1125
a(S'_nl_cleanup_ctype'
p1126
S'10e90054e380148030e5000394e804a0e8'
p1127
L60L
tp1128
a(S'__wcsmbs_getfct'
p1129
g314
L116L
tp1130
a(S'__wcsmbs_load_conv'
p1131
g314
L464L
tp1132
a(S'__wcsmbs_clone_conv'
p1133
S'7c9fe5402de740a0'
p1134
L20L
tp1135
a(S'__wcsmbs_named_conv'
p1136
S'702de240a0e550a0eb0000840800052032'
p1137
L96L
tp1138
a(S'__mbsrtowcs_l'
p1139
g314
L856L
tp1140
a(S'clock'
p1141
S'10e9104de23002a0e511eb000f1a30e520e0120161e0a0e121e003e530030010'
p1142
L116L
tp1143
a(S'time'
p1144
S'30e9144de250a0e510e230eb20e50000e0049d050085010014'
p1145
L84L
tp1146
a(S'gettimeofday'
p1147
S'804e70e300ef017000a08a00e80060e220'
p1148
L48L
tp1149
a(S'__alloc_dir'
p1150
g314
L172L
tp1151
a(S'opendir_tail'
p1152
S'30e9744de2306c30ba0500eb001300'
p1153
L160L
tp1154
a(S'__opendirat'
p1155
S'10e90053e3000a9fe508eb40bdeaa0e7'
p1156
L48L
tp1157
a(S'opendir'
p1158
S'10e90053e3000a9fe5070010e8189fe510e7'
p1159
L48L
tp1160
a(S'closedir'
p1161
S'0050e2402d0a4093e5f1'
p1162
L48L
tp1163
a(S'readdir'
p1164
S'6031e9048050a0e1a1a0e740a0e5000500e3e0e1'
p1165
L360L
tp1166
a(S'__getdents'
p1167
g314
L388L
tp1168
a(S'sleep'
p1169
S'702de530e220e530e340a0e5a090e730ea00049de5012083e230e130e000eb00f1'
p1170
L172L
tp1171
a(S'nanosleep'
p1172
S'9830e90053e3001a00ef017000e1008aa0e801e10e00a210e100ef017000e1008a00eb'
p1173
L120L
tp1174
a(S'fork'
p1175
g314
L376L
tp1176
a(S'_exit'
p1177
S'8000a0e300ef01700a0001e300ef017004000060e220eb30e710e210'
p1178
L84L
tp1179
a(S'getpid'
p1180
S'042de300ef049de4ff'
p1181
L20L
tp1182
a(S'getppid'
p1183
S'042de300ef049de4ff'
p1184
L20L
tp1185
a(S'setsid'
p1186
S'042de300ef049de40a1eff3100'
p1187
L28L
tp1188
a(S'sysconf'
p1189
g314
L1796L
tp1190
a(S'sched_yield'
p1191
S'042de300ef049de40a1eff'
p1192
L28L
tp1193
a(S'__get_child_max'
p1194
S'10e9104de2300600e504eb20e500049d050352e1001ad0e8'
p1195
L72L
tp1196
a(S'__fxstat64'
p1197
S'8001a0e310ef017000a08a00e80060e220'
p1198
L56L
tp1199
a(S'open'
p1200
S'0e00e908e520e530e210e5001a00e1000a00e5001500e370e500ef017000e1008a9de530e100290010'
p1201
L284L
tp1202
a(S'read'
p1203
S'a0412de50006001a70e300ef017000e1008aa0e801e140a0eb70e310e130e100ef017000e1008a00eb'
p1204
L128L
tp1205
a(S'write'
p1206
S'a0412de50006001aa0ef017000e1008aa0e801e140a0eb70e310e130e100ef017000e1008a00eb'
p1207
L128L
tp1208
a(S'lseek64'
p1209
S'b02de5d003a0e530e530e300ef01700800c01100019de530e1001ad0e80060e220eb10e330e3'
p1210
L120L
tp1211
a(S'fcntl'
p1212
S'0e00e90c9fe510e520e260a0e520e500039f976f00ea03e8e400e400e400e40003e8e400e400e400e400e400e400e400e400e400e400e400e400e400e400e400e400e400e400e400032c03a8036032e530e500b0d4b2d40c94e51fa0e13fa0e1e1e1c053001a00e210e300ef017000000095e500e1001a'
p1213
L800L
tp1214
a(S'close'
p1215
S'9030e90053e3001a70e300ef017000e1008aa0e8c80670e330e100ef017000e1008a00eb'
p1216
L112L
tp1217
a(S'chdir'
p1218
S'042de300ef049de40a1eff'
p1219
L28L
tp1220
a(S'getcwd'
p1221
S'149fe54f2de5d000a0e5001a009d001a03eb0a00a0b300e5ea00e2001a000aa011'
p1222
L1756L
tp1223
a(S'readlink'
p1224
S'042de300ef049de40a1eff'
p1225
L28L
tp1226
a(S'unlink'
p1227
S'042de300ef049de40a1eff'
p1228
L28L
tp1229
a(S'__close_nocancel'
p1230
S'800670e300ef017000a08a00e80060e220'
p1231
L48L
tp1232
a(S'__fcntl64_nocancel_adjusted'
p1233
S'a89fe5402de5d00951e3c0dde300ef017000a08a9de530e100190014'
p1234
L176L
tp1235
a(S'__fcntl64_nocancel'
p1236
S'0e00e90c4de230e520e530e5'
p1237
L80L
tp1238
a(S'__open_nocancel'
p1239
S'0e00e98ce520e530e210e5001ae500e1000ae06800ef017000a08a9de5200251e1001ad0e81effe100e500ea60e220eb30e310'
p1240
L160L
tp1241
a(S'__openat_nocancel'
p1242
S'0c2de984e520e530e2c0709fe5c00d70e500ef017000a08a9de5200251e1001a'
p1243
L152L
tp1244
a(S'__openat64_nocancel'
p1245
S'0c2de988e520e530e2c0749fe5c00e000a28e500ef017000a08a9de5200251e1001a'
p1246
L156L
tp1247
a(S'__read_nocancel'
p1248
S'8003e300ef017000a08a00e80060e220'
p1249
L48L
tp1250
a(S'__write_nocancel'
p1251
S'8004a0ef017000a08a00e80060e220'
p1252
L48L
tp1253
a(S'getrlimit'
p1254
S'80bf00ef017000a08a00e80060e220'
p1255
L48L
tp1256
a(S'sbrk'
p1257
S'702de550a0e500000a93e5000f1a000b001400053033001530e330e398'
p1258
L184L
tp1259
a(S'ioctl'
p1260
S'042de300ef049de40a1eff31'
p1261
L28L
tp1262
a(S'getpagesize'
p1263
S'209fe500e3ff11402de520e500'
p1264
L40L
tp1265
a(S'getdtablesize'
p1266
S'10e9104de2300700e5'
p1267
L72L
tp1268
a(S'select'
p1269
S'b09fe5412de500001a409de570e300ef017000e1008aa0e801e150a0e1060004a0e120e580'
p1270
L144L
tp1271
a(S'mmap'
p1272
S'b02de5ca2ca0e3001a409de570e300ef01700a0003a0e81610e730e398'
p1273
L108L
tp1274
a(S'mmap64'
p1275
S'b02de5e0e54aa0e34aa0e34094e1001aa0e1409de570e300ef01700a0003a0e81610e730e398'
p1276
L124L
tp1277
a(S'munmap'
p1278
S'042de300ef049de40a1eff31'
p1279
L28L
tp1280
a(S'mprotect'
p1281
S'042de300ef049de40a1eff'
p1282
L28L
tp1283
a(S'madvise'
p1284
S'042de300ef049de40a1eff'
p1285
L28L
tp1286
a(S'trecurse'
p1287
S'0490e5402de340a0e160a01a30e3000aa0e110e100140004a0e110e10009000620e130e340bde130e340bde120e1'
p1288
L168L
tp1289
a(S'tdestroy_recurse'
p1290
S'702de100e100e3001a0008000094e5ffe100e8'
p1291
L84L
tp1292
a(S'maybe_split_for_insert.isra.0'
p1293
g314
L408L
tp1294
a(S'tsearch'
p1295
g314
L336L
tp1296
a(S'tfind'
p1297
S'0051e3402de160a01a00ea2fe1100050e3000a840540d4f4'
p1298
L80L
tp1299
a(S'tdelete'
p1300
S'5c352de2d000e230e230e5000a5096e550d5280002a0e130e370e3a0000096e5000550c230a501c3b360850053e3408414000093e500e13018000457e151a01a870721e220e3d00aa0e120e5f1'
p1301
L1380L
tp1302
a(S'twalk'
p1303
S'0050e3001eff0120'
p1304
L20L
tp1305
a(S'tdestroy'
p1306
S'0050e3ff'
p1307
L12L
tp1308
a(S'next_line'
p1309
S'f84f2de54093e570e180a0e120e110e176eb00080001e240870096e5004a003a000a'
p1310
L404L
tp1311
a(S'sysinfo_mempages'
p1312
S'702de150a0eb00015483a09aa0e300fa'
p1313
L84L
tp1314
a(S'get_nprocs'
p1315
S'ac32e9244de200e530e5'
p1316
L692L
tp1317
a(S'get_nprocs_conf'
p1318
g314
L216L
tp1319
a(S'get_phys_pages'
p1320
S'10e948d00094e500e500eb20e5000400389de500e240bd'
p1321
L68L
tp1322
a(S'get_avphys_pages'
p1323
S'10e948d00094e500e500eb20e5000400389de500e240bd'
p1324
L68L
tp1325
a(S'__getclktck'
p1326
S'0c9fe500e300'
p1327
L20L
tp1328
a(S'__init_misc'
p1329
S'702de2800055e3802f10eb30e3508050832070'
p1330
L64L
tp1331
a(S'mremap'
p1332
S'9000e570e300ef9000e3ff'
p1333
L32L
tp1334
a(S'prctl'
p1335
S'9000e570e300ef9000e3ff'
p1336
L32L
tp1337
a(S'sysinfo'
p1338
S'042de300ef049de40a1eff'
p1339
L28L
tp1340
a(S'accept'
p1341
S'a0412de50006001a00ef017000e1008aa0e801e140a0eb70e510e130e100ef017000e1008a00eb'
p1342
L128L
tp1343
a(S'bind'
p1344
S'042de500ef049de40a1eff31'
p1345
L28L
tp1346
a(S'connect'
p1347
S'a0412de50006001a00ef017000e1008aa0e801e140a0eb70e510e130e100ef017000e1008a00eb'
p1348
L128L
tp1349
a(S'getsockname'
p1350
S'042de500ef049de40a1eff3100'
p1351
L28L
tp1352
a(S'getsockopt'
p1353
S'9000e570e500ef9000e3ff3109'
p1354
L32L
tp1355
a(S'listen'
p1356
S'042de300ef049de40a1eff3109'
p1357
L28L
tp1358
a(S'recv'
p1359
S'a89fe5412de500001a00ef017000e1008aa0e801e150a0e100eb10e130e100e500ef017000e1008a00eb'
p1360
L136L
tp1361
a(S'recvfrom'
p1362
S'b8412de500001a409de5509de57fe300ef017000e1008aa0e801e150a0e100eb20e110e5509de580497fe300ef017000e1008a00eb'
p1363
L152L
tp1364
a(S'send'
p1365
S'a89fe5412de500001a00ef017000e1008aa0e801e150a0e100eb10e130e100e500ef017000e1008a00eb'
p1366
L136L
tp1367
a(S'sendto'
p1368
S'b8412de500001a409de5509de570e500ef017000e1008aa0e801e150a0e100eb20e110e5509de5805470e500ef017000e1008a00eb'
p1369
L152L
tp1370
a(S'setsockopt'
p1371
S'9000e570e500ef9000e3ff3108'
p1372
L32L
tp1373
a(S'socket'
p1374
S'042de500ef049de40a1eff3100'
p1375
L28L
tp1376
a(S'__libc_alloca_cutoff'
p1377
S'042de192'
p1378
L12L
tp1379
a(S'__lll_lock_wait_private'
p1380
g314
L140L
tp1381
a(S'__libc_enable_asynccancel'
p1382
g314
L188L
tp1383
a(S'__libc_disable_asynccancel'
p1384
S'02101eff11412deb6e40e254100046e270e310e140a0e5000500e3e0e1'
p1385
L188L
tp1386
a(S'__register_atfork'
p1387
g314
L400L
tp1388
a(S'__unregister_atfork'
p1389
g314
L380L
tp1390
a(S'__run_fork_handlers'
p1391
g314
L368L
tp1392
a(S'clock_gettime'
p1393
S'0150e3402de5009a7000a08a00e8017000a09a60e220eb30e310ea60e220'
p1394
L100L
tp1395
a(S'__stack_chk_fail_local'
p1396
S'10e900a0'
p1397
L16L
tp1398
a(S'__fortify_fail_abort'
p1399
S'80488048609fe550a0e100eaa0eb0001a001'
p1400
L84L
tp1401
a(S'__fortify_fail'
p1402
S'00a0e9e3'
p1403
L16L
tp1404
a(S'ntohl'
p1405
S'6038e034e13ce304e0ff'
p1406
L20L
tp1407
a(S'ntohs'
p1408
S'20e104e108e1ff'
p1409
L20L
tp1410
a(S'inet_aton'
p1411
g314
L48L
tp1412
a(S'inet_addr'
p1413
S'10e9084de23004'
p1414
L28L
tp1415
a(S'_dl_debug_initialize'
p1416
S'0051e331155c301093e5000c000050e3000a20e520e010e720e500e1ffe120e32005'
p1417
L112L
tp1418
a(S'do_tunable_update_val'
p1419
S'0890e500000a0000e160c141c0000a00000a0001a0330002560130920053e3301130151effe1000510b3000730e030a201a0113015050001a0330002560130920053e3'
p1420
L216L
tp1421
a(S'tunable_initialize'
p1422
S'0890e5402de320e240a0e1200501a0e395000d00e110e1'
p1423
L76L
tp1424
a(S'__tunable_set_val'
p1425
S'089fe50180e0'
p1426
L16L
tp1427
a(S'__tunables_init'
p1428
S'5c352de5d00053e3b0e1011a004f000a409be500000a00e5608b3d800058e3010aa0e2800053e300fa'
p1429
L1380L
tp1430
a(S'__tunable_get_val'
p1431
S'80e1c00043e0e1e0e0e5000ef19f9703001404581e04140414040043e0e1e0e0e5e0e53083e1100052e3101200308300122fe1e0e0e1e042cee140c1'
p1432
L140L
tp1433
a(S'_dl_aux_init'
p1434
S'0090e523e300019fe54f2de5d030'
p1435
L948L
tp1436
a(S'_dl_non_dynamic_init'
p1437
g314
L2044L
tp1438
a(S'__libc_init_secure'
p1439
S'4830e5001eff11402deb40a0eb00000a30e58000e16e000054e000'
p1440
L80L
tp1441
a(S'_dl_mcount_wrapper'
p1442
S'042de100e49200'
p1443
L20L
tp1444
a(S'_dl_mcount_wrapper_check'
p1445
S'1c9fe5e0e530e3'
p1446
L36L
tp1447
a(S'_dl_discover_osversion'
p1448
S'30e94000eb00c202001a40a0e130e530ff030952e3008ac00181ff02095ee3008ac0038330e2e0e200f8'
p1449
L264L
tp1450
a(S'__libc_init_first'
p1451
g314
L148L
tp1452
a(S'__syscall_error'
p1453
S'0060e210e10ae3e0e1'
p1454
L48L
tp1455
a(S'__gconv_open'
p1456
g314
L1116L
tp1457
a(S'__gconv'
p1458
g314
L476L
tp1459
a(S'__gconv_alias_compare'
p1460
S'0091e500'
p1461
L12L
tp1462
a(S'derivation_compare'
p1463
S'702de150a0e510eb0070bde50017de'
p1464
L48L
tp1465
a(S'__gconv_get_modules_db'
p1466
S'049fe500'
p1467
L12L
tp1468
a(S'__gconv_get_alias_db'
p1469
S'049fe500'
p1470
L12L
tp1471
a(S'__gconv_release_step'
p1472
S'702de100e3000a300053e3305420e55092e500055025e1fd'
p1473
L132L
tp1474
a(S'find_derivation'
p1475
g314
L2540L
tp1476
a(S'__gconv_compare_alias'
p1477
g314
L252L
tp1478
a(S'__gconv_find_transform'
p1479
g314
L904L
tp1480
a(S'__gconv_close_transform'
p1481
g314
L248L
tp1482
a(S'insert_module'
p1483
g314
L232L
tp1484
a(S'detect_conflict'
p1485
S'4830e90054e3000a50a0ea94a50054e3000a10b0'
p1486
L80L
tp1487
a(S'add_module.isra.0'
p1488
g314
L900L
tp1489
a(S'add_alias2.isra.1.part.2'
p1490
g314
L108L
tp1491
a(S'__gconv_get_path'
p1492
S'684f2de2d00093e530e523e340a0e5000500e3e0e1'
p1493
L880L
tp1494
a(S'__gconv_read_conf'
p1495
S'4424e54f2debb0e234e5d00092e520e530e130e519eb00f60a34e530e3000a20e500f79fe520080b0493e510e530e3d00d00e5dceb20e5dceb13e19f'
p1496
L1100L
tp1497
a(S'__gconv_get_builtin_trans'
p1498
g314
L160L
tp1499
a(S'__gconv_btwoc_ascii'
p1500
S'80e30013ff'
p1501
L16L
tp1502
a(S'__gconv_transform_internal_ucs4'
p1503
g314
L1124L
tp1504
a(S'__gconv_transform_ucs4_internal'
p1505
g314
L1440L
tp1506
a(S'__gconv_transform_internal_ucs4le'
p1507
g314
L1096L
tp1508
a(S'__gconv_transform_ucs4le_internal'
p1509
g314
L1452L
tp1510
a(S'__gconv_transform_ascii_internal'
p1511
g314
L736L
tp1512
a(S'__gconv_transform_internal_ascii'
p1513
g314
L1900L
tp1514
a(S'__gconv_transform_internal_utf8'
p1515
g314
L2820L
tp1516
a(S'__gconv_transform_utf8_internal'
p1517
g314
L3196L
tp1518
a(S'__gconv_transform_ucs2_internal'
p1519
g314
L1740L
tp1520
a(S'__gconv_transform_internal_ucs2'
p1521
g314
L2496L
tp1522
a(S'__gconv_transform_ucs2reverse_internal'
p1523
g314
L1776L
tp1524
a(S'__gconv_transform_internal_ucs2reverse'
p1525
g314
L2560L
tp1526
a(S'__gconv_transliterate'
p1527
g314
L1092L
tp1528
a(S'find_module_idx'
p1529
g314
L232L
tp1530
a(S'find_module'
p1531
g314
L244L
tp1532
a(S'__gconv_get_cache'
p1533
S'049fe500'
p1534
L12L
tp1535
a(S'__gconv_load_cache'
p1536
g314
L464L
tp1537
a(S'__gconv_compare_alias_cache'
p1538
S'9c30e994409fe5d00094e500300a50a0e260a0e1'
p1539
L164L
tp1540
a(S'__gconv_lookup_cache'
p1541
g314
L1136L
tp1542
a(S'__gconv_release_cache'
p1543
S'0c9fe530e3ff01b7'
p1544
L20L
tp1545
a(S'known_compare'
p1546
S'0091e500'
p1547
L12L
tp1548
a(S'do_release_shlib'
p1549
S'702de240a0e340a0e38000e520e5000c0002830070bde200048570bde50070bdeb408570bde300da30048280aa20e500'
p1550
L144L
tp1551
a(S'__gconv_find_shlib'
p1552
g314
L400L
tp1553
a(S'__gconv_release_shlib'
p1554
S'0c9fe510e500'
p1555
L20L
tp1556
a(S'_nl_postload_ctype'
p1557
S'68402d'
p1558
L12L
tp1559
a(S'__current_locale_name'
p1560
S'1c9fe5e0e520e1'
p1561
L20L
tp1562
a(S'__ctype_b_loc'
p1563
S'109fe5e0e5'
p1564
L12L
tp1565
a(S'__ctype_toupper_loc'
p1566
S'149fe5e0e5'
p1567
L12L
tp1568
a(S'__ctype_tolower_loc'
p1569
S'149fe5e0e5'
p1570
L12L
tp1571
a(S'__ctype_init'
p1572
S'4030e5'
p1573
L12L
tp1574
a(S'__setfpucw'
p1575
S'389fe530e520e230012aee209fe50ae300e330e000e1ff012aee1eff'
p1576
L64L
tp1577
a(S'__sigsetjmp'
p1578
S'6cc0c0009ce5c00223048c02e0304430e530e720e3000a8b05a1ecec02ecec02ecec02ecec02ecec0300'
p1579
L116L
tp1580
a(S'__sigjmp_save'
p1581
S'0051e3402de1001a1110a0e12f844579eb1f6fe112'
p1582
L56L
tp1583
a(S'_quicksort'
p1584
S'ecc39fe54f2de5df0051e300e5519de5000a70e10000a0e221e040a0e120e5009a'
p1585
L1012L
tp1586
a(S'__add_to_environ'
p1587
g314
L1092L
tp1588
a(S'setenv'
p1589
S'0050e2402d0a30e5000b0001e110e140a0eb2004000630e100e8149fe520e763'
p1590
L88L
tp1591
a(S'unsetenv'
p1592
g314
L344L
tp1593
a(S'clearenv'
p1594
g314
L252L
tp1595
a(S'secure_getenv'
p1596
S'149fe530e3001a'
p1597
L28L
tp1598
a(S'read_int'
p1599
S'0090e5402de5509fe541e03041e220e530e5300953e3008a00f7'
p1600
L104L
tp1601
a(S'group_number'
p1602
S'f84f2de570e100ff00fd0001e1909de5009abde1b0e0a0a0eb10e18085e000018a06202ae0e2000152e20001e2001a00e6ff0144e00014000245e200e0c0c002e1200285005ce3'
p1603
L260L
tp1604
a(S'_i18n_number_rewrite'
p1605
g314
L596L
tp1606
a(S'_IO_helper_overflow'
p1607
S'd0c0402de0d000e150a00a10e530e0300c53e1009aa0e1ffe130037300e1008a000610eb3014841894e500e1208550c385009abde587eb20e2'
p1608
L204L
tp1609
a(S'printf_positional'
p1610
g314
L8116L
tp1611
a(S'vfprintf'
p1612
g314
L8532L
tp1613
a(S'buffered_vfprintf'
p1614
g314
L616L
tp1615
a(S'hack_digit'
p1616
S'0090e5402de3d002000490e5004a000a30e1001090e55090e5000a002700ca90e510e510e100e160001094e5200243e001e56091e500108439000c94e5310395e760860051e3311a10030004330141e20009000051e310f7ff01a0e13070bde330e100eb0004001094e5201084038200e2800aa0e210e16195e763eb608604850600e2800053e330088060a0da00e280d4'
p1617
L376L
tp1618
a(S'_i18n_number_rewrite_0'
p1619
g314
L596L
tp1620
a(S'__guess_grouping.part.0'
p1621
S'10e900d10530e54084ff53e3000a00050003a0e0'
p1622
L88L
tp1623
a(S'__printf_fp_l'
p1624
g314
L8624L
tp1625
a(S'__printf_fp'
p1626
S'30e900e1409fe747'
p1627
L20L
tp1628
a(S'__guess_grouping'
p1629
S'00d10143e230e200000000a0'
p1630
L32L
tp1631
a(S'__printf_fphex'
p1632
S'0d4f2de331e2b0e130e21f9fe530e510e530e110e5001a46'
p1633
L5280L
tp1634
a(S'register_printf_modifier'
p1635
S'0090e5412de20000910200ff54e3008ab50054e3'
p1636
L436L
tp1637
a(S'__handle_registered_modifier_mb'
p1638
g314
L228L
tp1639
a(S'__handle_registered_modifier_wc'
p1640
g314
L232L
tp1641
a(S'fprintf'
p1642
S'0e00e90c4de230e1c030e5e6'
p1643
L44L
tp1644
a(S'read_int_0'
p1645
S'0090e5c030e902e00492e54082100951e3008a001a000600ca8330e00003810892e54082300953e3008ab23043e2000530e3'
p1646
L168L
tp1647
a(S'group_number_0'
p1648
g314
L188L
tp1649
a(S'_i18n_number_rewrite_1'
p1650
g314
L324L
tp1651
a(S'_IO_helper_overflow_0'
p1652
S'5c30e90c93e5d00455e160a0e1000ae520e530e0300153e1109aa0e520e130037300a08ae541a0e520048020eb30e54042e0408320e120070085009abde100e241bdea'
p1653
L236L
tp1654
a(S'printf_positional_0'
p1655
g314
L8492L
tp1656
a(S'vfwprintf'
p1657
g314
L8816L
tp1658
a(S'buffered_vfprintf_0'
p1659
g314
L640L
tp1660
a(S'funlockfile'
p1661
g314
L128L
tp1662
a(S'read_int_1'
p1663
S'0090e5402de5509fe541e03041e220e530e5300953e3008a00f7'
p1664
L104L
tp1665
a(S'__parse_one_specmb'
p1666
g314
L2080L
tp1667
a(S'read_int_2'
p1668
S'0090e5c030e902e00492e54082100951e3008a001a000600ca8330e00003810892e54082300953e3008ab23043e2000530e3'
p1669
L168L
tp1670
a(S'__parse_one_specwc'
p1671
g314
L2096L
tp1672
a(S'_IO_file_doallocate'
p1673
g314
L324L
tp1674
a(S'fputs'
p1675
g314
L388L
tp1676
a(S'_IO_wfile_doallocate'
p1677
S'1c90e5402de350a00a10e500e32003'
p1678
L108L
tp1679
a(S'fwrite'
p1680
S'f84f2de0000a4093e550a0e270e18017001a93e528eb30e2000e000a10e130e1001aa0e3e0e1'
p1681
L488L
tp1682
a(S'getdelim'
p1683
S'0051e300'
p1684
L740L
tp1685
a(S'_IO_getline_info'
p1686
g314
L372L
tp1687
a(S'_IO_getline'
p1688
S'042de2e0e5c004'
p1689
L36L
tp1690
a(S'_IO_padn'
p1691
g314
L288L
tp1692
a(S'_IO_wpadn'
p1693
g314
L284L
tp1694
a(S'save_for_wbackup.isra.0'
p1695
S'0091e54f2de1b0e530e5a0a0e000014ae011e251a011200ae0e520e140a0e3'
p1696
L468L
tp1697
a(S'_IO_least_wmarker'
p1698
S'5c20e500e30040010120e50002a0e3'
p1699
L56L
tp1700
a(S'_IO_switch_to_main_wget_area'
p1701
S'0090e530e3e0e5c00893e520e5e0e5c0088320'
p1702
L60L
tp1703
a(S'_IO_switch_to_wbackup_area'
p1704
S'0090e530e3e0e510e5c02093e5e0e510e520e5'
p1705
L60L
tp1706
a(S'_IO_wsetb'
p1707
g314
L92L
tp1708
a(S'_IO_wdefault_pbackfail'
p1709
g314
L360L
tp1710
a(S'_IO_wdefault_finish'
p1711
S'5c10e91891e50002003c94e5501311003094e500040000a0e530e3'
p1712
L128L
tp1713
a(S'_IO_wdefault_uflow'
p1714
S'702de55090e530e0300153e140a09aa0e1005c2004831015ba'
p1715
L84L
tp1716
a(S'__woverflow'
p1717
S'6c30e900e160a00a9fe55094e530e0300153e1009aa0e140bde110eb'
p1718
L92L
tp1719
a(S'_IO_wdefault_xsputn'
p1720
g314
L216L
tp1721
a(S'_IO_wdoallocbuf'
p1722
S'5c10e5001eff1130e900e1001a30e1001094e500e230e240bd'
p1723
L84L
tp1724
a(S'_IO_wdefault_doallocate'
p1725
S'10e902a0eb100500e329eb00e8'
p1726
L56L
tp1727
a(S'_IO_switch_to_wget_mode'
p1728
S'5c30e90c93e540a0e1009ae00c93e5ffe1001094e520e50ce3001a93e500e10035008320e500e5800883'
p1729
L132L
tp1730
a(S'_IO_free_wbackup_area'
p1731
S'0090e530e3402de1000a10e3202893e500e500e5c0f6eb30208320e5'
p1732
L100L
tp1733
a(S'__wuflow'
p1734
S'6c30e300ba00e1000a3027001ae520e50028000094e50ce3000a00e52ce3200893e5c00883209528000052e3000a93e510e6'
p1735
L336L
tp1736
a(S'__wunderflow'
p1737
S'6c30e300ba00e1000a3027001ae520e50028000094e50ce3000a00e52ce3200893e5c0008300e5008a202520e2000050e3001a5094e530e0300153e1009aa0e804a0eb00d3ff00e070bde580f501eb00f7ff6c30'
p1738
L320L
tp1739
a(S'_IO_wdefault_xsgetn'
p1740
g314
L204L
tp1741
a(S'_IO_sputbackwc'
p1742
S'5c30e900e100e20004000150e120008320e530e0300053e1009aa0e100009415008430'
p1743
L132L
tp1744
a(S'_IO_sungetwc'
p1745
S'5c30e90893e540a0e1009a42e210e3300084309fe55090e530e0300153e1009ae004a0e1'
p1746
L116L
tp1747
a(S'_IO_adjust_wcolumn'
p1748
S'042de0000900041ee5300a5ce3001a00ea5ce3000a00fa'
p1749
L88L
tp1750
a(S'_IO_init_wmarker'
p1751
S'0091e5402de340a0e1101ae50ce330150243e031e520e5508470bde1'
p1752
L92L
tp1753
a(S'_IO_wmarker_delta'
p1754
S'0490e5000a000093e520e330150890e5304331e0ffe100e3ff'
p1755
L64L
tp1756
a(S'_IO_seekwmark'
p1757
S'0491e5002500e500042de230ba0893e5000ae0e51ce310e520e5c0288320e000e3'
p1758
L172L
tp1759
a(S'_IO_unsave_wmarkers'
p1760
S'3090e50000a0150053e3ff01'
p1761
L32L
tp1762
a(S'do_encoding'
p1763
S'2490e520e3001a00e50000a0e100e3ff'
p1764
L44L
tp1765
a(S'do_always_noconv'
p1766
S'00a0'
p1767
L8L
tp1768
a(S'do_max_length'
p1769
S'2490e500'
p1770
L12L
tp1771
a(S'do_in'
p1772
g314
L248L
tp1773
a(S'do_unshift'
p1774
g314
L216L
tp1775
a(S'do_out'
p1776
g314
L248L
tp1777
a(S'do_length'
p1778
g314
L192L
tp1779
a(S'_IO_fwide'
p1780
g314
L388L
tp1781
a(S'__libc_scratch_buffer_grow_preserve'
p1782
g314
L156L
tp1783
a(S'__libc_scratch_buffer_set_array_size'
p1784
S'702de120e1c00051e3c001a0e10112000495e50001a02a00e1000a00eb3001a018300503a0e8ce17'
p1785
L196L
tp1786
a(S'__libc_dynarray_at_failure'
p1787
S'2c9fe5e0e5d000'
p1788
L44L
tp1789
a(S'__libc_dynarray_emplace_enlarge'
p1790
S'0490e5412de3001a0012009642850055e3001aa0e100e10001e1000a10eb80000a30e9'
p1791
L228L
tp1792
a(S'strerror_r'
p1793
g314
L372L
tp1794
a(S'strnlen'
p1795
S'0051e3000a102300e3000a30e5000180001a00ea8300000a00e3201a003000c8c802a0e4c0000a53e500000ac000000ac000000ac000000a0003a08a0010a0e120e1000260802fe10002a0ea51e110ea51e110ea51e110ea'
p1796
L292L
tp1797
a(S'strrchr'
p1798
S'702de20000e160a01a00eaa0e110eb00f8'
p1799
L80L
tp1800
a(S'strtok_r'
p1801
g314
L116L
tp1802
a(S'memchr'
p1803
S'0052e3000a00e3402de2000a30e50070bde200ea0000d00183008003a01a00e80352e344040e4084048416009a9fe530e010e530e100e1001a8000ea8c04230610e100e1001a42e2000ca08a00e0ff00d00e0070bde030ea830070bde1001a'
p1804
L268L
tp1805
a(S'wcslen'
p1806
S'0090e5001e000a90e5001d30e3000a30e300ea820000a00a93e500e3ff0110e2001eff0193e530e3101a00e100e100e100e100'
p1807
L160L
tp1808
a(S'wmemcpy'
p1809
S'02a0'
p1810
L8L
tp1811
a(S'wmemmove'
p1812
S'02a0'
p1813
L8L
tp1814
a(S'wmemset'
p1815
S'0352e3009aa0e20010e510e510e510e5308a42e231e230e33201000083ff0100048310e10000a001'
p1816
L120L
tp1817
a(S'btowc'
p1818
g314
L404L
tp1819
a(S'wcrtomb'
p1820
S'bc00'
p1821
L88L
tp1822
a(S'wcsrtombs'
p1823
S'90c2'
p1824
L664L
tp1825
a(S'wcsnlen'
p1826
S'0051e3000a30e3000a0022000490e50023000251e3000a30e300ea2f0193e500ff0151e20001c01eff01000382ff0193e520e3ff01001083000ac0005ce3'
p1827
L192L
tp1828
a(S'wcschrnul'
p1829
S'0090e500035111ff01b00053e300fb'
p1830
L36L
tp1831
a(S'rewinddir'
p1832
g314
L212L
tp1833
a(S'readdir64'
p1834
S'6031e9048050a0e11ceb10e740a0e5000500e3e0e1'
p1835
L360L
tp1836
a(S'fdopendir'
p1837
S'30e9744de230e140a0e100e57eeb001800'
p1838
L216L
tp1839
a(S'uname'
p1840
S'042de300ef049de40a1eff3191'
p1841
L28L
tp1842
a(S'getuid'
p1843
S'042de300ef049de4ff'
p1844
L20L
tp1845
a(S'geteuid'
p1846
S'042de300ef049de4ff'
p1847
L20L
tp1848
a(S'getgid'
p1849
S'042de300ef049de4ff'
p1850
L20L
tp1851
a(S'getegid'
p1852
S'042de300ef049de4ff'
p1853
L20L
tp1854
a(S'__lxstat64'
p1855
S'8001a0e310ef017000a08a00e80060e220'
p1856
L56L
tp1857
a(S'__fxstatat64'
p1858
S'0350e3402d1a00e510e130ef01700e009a60e220e31ceb30e1801620e71beb10e320ea'
p1859
L112L
tp1860
a(S'lseek'
p1861
g314
L184L
tp1862
a(S'isatty'
p1863
S'10e940d00094e510e500eb20e5000300106fe102e280'
p1864
L64L
tp1865
a(S'__open64_nocancel'
p1866
S'0e00e990409fe520e530e210e5001a9fe500e1000a28e370e500ef017000a08a9de5200251e1001ad0e81effe100e500ea60e220eb30e310'
p1867
L164L
tp1868
a(S'tcgetattr'
p1869
S'b02de5d00095e530e510e170e300ef017000e1008a001400089de520e520e0c0348310e520e500e520e510e3c004'
p1870
L204L
tp1871
a(S'brk'
p1872
S'90402de170e300ef017006008a9fe5000082308a00e8389fe520e240e038'
p1873
L108L
tp1874
a(S'wctrans'
p1875
S'789fe5412de760a0eb30e54097e530e500120000e300ea85018030e7000a0004a0e170eb0004a01ae550850500e8'
p1876
L128L
tp1877
a(S'towctrans'
p1878
S'0051e3ff0130e533e1ff2121e3ff01c030e031e70010911502810380ff'
p1879
L92L
tp1880
a(S'__readonly_area'
p1881
g314
L476L
tp1882
a(S'is_dst'
p1883
S'702de100e170eb30e50000e1000a20e100eb00020000e300e820c2301953e3'
p1884
L168L
tp1885
a(S'is_trusted_path_normalize'
p1886
S'0051e3000a10e34b2de2d00d30e500eaa0e3000a0001d00180'
p1887
L368L
tp1888
a(S'add_name_to_object.isra.4'
p1889
g314
L188L
tp1890
a(S'lose.isra.6'
p1891
S'80017100e170e18010e5000a00eb00000a700000b0'
p1892
L120L
tp1893
a(S'_dl_map_object_from_fd.constprop.13'
p1894
g314
L3436L
tp1895
a(S'check_arm_attributes_hfabi.constprop.15'
p1896
g314
L768L
tp1897
a(S'open_verify.isra.9.constprop.14'
p1898
g314
L1560L
tp1899
a(S'open_path.isra.10'
p1900
g314
L1308L
tp1901
a(S'add_path.isra.3.constprop.16'
p1902
S'01711eff01412de550a0e170e300ea93e500e310328310e50081e500109ce5'
p1903
L196L
tp1904
a(S'_dl_dst_count'
p1905
g314
L144L
tp1906
a(S'_dl_dst_substitute'
p1907
g314
L360L
tp1908
a(S'expand_dynamic_string_token'
p1909
g314
L200L
tp1910
a(S'fillin_rpath'
p1911
g314
L700L
tp1912
a(S'cache_rpath.part.12'
p1913
S'088221e3000ac13490e5c0509ee500d00790850490e5001a20e700040000e000a0e5d0e809a0e150a0eb70e2000a30e50048000a20e30001e500e3'
p1914
L476L
tp1915
a(S'_dl_init_paths'
p1916
g314
L624L
tp1917
a(S'_dl_map_object'
p1918
g314
L2148L
tp1919
a(S'_dl_rtld_di_serinfo'
p1920
g314
L436L
tp1921
a(S'check_match'
p1922
g314
L416L
tp1923
a(S'do_lookup_x'
p1924
g314
L2752L
tp1925
a(S'_dl_lookup_symbol_x'
p1926
g314
L2892L
tp1927
a(S'_dl_setup_hash'
p1928
S'5031e3000a93e5402de521e54091e5c000140010810442e0c10c91e511e531e5800053e3ff0193e520e521e531e130e310e507'
p1929
L152L
tp1930
a(S'_dl_add_to_namespace_list'
p1931
S'b49fe5402de350a0e1000a00e130e000e120e3001a00ea92e500fb'
p1932
L188L
tp1933
a(S'_dl_new_object'
p1934
g314
L600L
tp1935
a(S'relocate_pc24.13574.isra.0'
p1936
g314
L296L
tp1937
a(S'_dl_try_allocate_static_tls'
p1938
S'4432e3000a90e530e10020008c9fe5c200e56061e23030e0509fe530e012e0c0015ce1003a90e532e531e510e2000a9fe530e100e803a0e331e5801effe100e3'
p1939
L184L
tp1940
a(S'_dl_allocate_static_tls'
p1941
S'4432e900e1000a'
p1942
L52L
tp1943
a(S'_dl_nothread_init_static_tls'
p1944
S'4432e93494e512'
p1945
L24L
tp1946
a(S'_dl_protect_relro'
p1947
S'6830e512e530e020020102030153e1ff01402de040a0e300eb00109fe5'
p1948
L88L
tp1949
a(S'_dl_reloc_bad_type'
p1950
S'5030e5d001e150a0e000eb20e130e2400403d204d200a0e110e5c002c000'
p1951
L88L
tp1952
a(S'_dl_relocate_object'
p1953
g314
L7392L
tp1954
a(S'_dl_important_hwcaps'
p1955
g314
L2128L
tp1956
a(S'_dl_debug_vdprintf'
p1957
g314
L976L
tp1958
a(S'_dl_sysdep_read_whole_file'
p1959
S'702de1d002a0e1deeb5050e240e0020070'
p1960
L144L
tp1961
a(S'_dl_debug_printf'
p1962
S'0fe5e0e5d014'
p1963
L60L
tp1964
a(S'_dl_debug_printf_c'
p1965
S'0fe5e0e5d014'
p1966
L60L
tp1967
a(S'_dl_dprintf'
p1968
S'0e00e5d010'
p1969
L52L
tp1970
a(S'_dl_name_match_p'
p1971
S'702de110e14f'
p1972
L92L
tp1973
a(S'_dl_higher_prime_number'
p1974
S'7c9fe5c04111e010e711e1009a92e731e1003a10e031e000c3301a00e1c00c52e1'
p1975
L132L
tp1976
a(S'_dl_strtoul'
p1977
g314
L484L
tp1978
a(S'_dl_start_profile'
p1979
S'249fe54f2de2df0093e53f8020e131e0005b012a15e000e520e220e350e210e24044e2e0e3c0208300120020130152e3'
p1980
L1580L
tp1981
a(S'_dl_mcount'
p1982
g314
L944L
tp1983
a(S'allocate_dtv'
p1984
S'309fe5402de550a0e300e248'
p1985
L56L
tp1986
a(S'oom'
p1987
S'02a0e99bfc'
p1988
L24L
tp1989
a(S'_dl_next_tls_modid'
p1990
S'702de510e54091e500020001840081a89fe500e2001a0000a0e560840092e5300e000b0083e030e3000a00e1'
p1991
L208L
tp1992
a(S'_dl_count_modids'
p1993
S'709fe530e500020030e5ffe130e5e0e50000a00a10e33012210052e300e1'
p1994
L120L
tp1995
a(S'_dl_get_tls_static_info'
p1996
S'149fe530e520e530'
p1997
L28L
tp1998
a(S'_dl_allocate_tls_storage'
p1999
S'849fe530e900e500e200eb5050e2000a0d8010e0ed'
p2000
L140L
tp2001
a(S'_dl_allocate_tls_init'
p2002
g314
L572L
tp2003
a(S'_dl_allocate_tls'
p2004
S'0050e3402d0a40bdeabd'
p2005
L36L
tp2006
a(S'_dl_deallocate_tls'
p2007
g314
L100L
tp2008
a(S'_dl_tls_get_addr_soft'
p2009
S'4832e3000a2deb10e510e5000501e300e400e110e5000e002a9fe500e1c004000490e5100090e500'
p2010
L148L
tp2011
a(S'_dl_add_to_slotinfo'
p2012
S'c49fe5412de15290e54093e500ea45e0000a0002e130f7ff00e5608685e070e56084'
p2013
L204L
tp2014
a(S'_dl_get_origin'
p2015
g314
L404L
tp2016
a(S'_dl_scope_free'
p2017
S'702de1f4'
p2018
L204L
tp2019
a(S'_dl_make_stack_executable'
p2020
S'5430e900e130e52002000093e55c'
p2021
L80L
tp2022
a(S'_dl_runtime_resolve'
p2023
S'1f00e51010018100a0e8'
p2024
L36L
tp2025
a(S'_dl_runtime_profile'
p2026
g314
L192L
tp2027
a(S'length_mismatch'
p2028
S'02a0e9f4f9'
p2029
L24L
tp2030
a(S'_dl_exception_create'
p2031
g314
L128L
tp2032
a(S'_dl_exception_create_format'
p2033
S'0c2de9084de260a0e5000a00eb8000e530e3300a00ea000aa0e340e5908903ff7354e3908902e5'
p2034
L480L
tp2035
a(S'_dl_exception_free'
p2036
S'10e90890e543'
p2037
L36L
tp2038
a(S'_dl_cache_libcmp'
p2039
S'10e900d1005ee3000a30ff030952e32040020b00280028000180e0e510e3c0ef'
p2040
L240L
tp2041
a(S'_dl_load_cache_lookup'
p2042
S'209fe54f2de2d00093e540a0e3011a9fe580310001784d010a95e906300a4be220e380'
p2043
L1576L
tp2044
a(S'_dl_unload_cache'
p2045
S'10e90094e53003731094e559'
p2046
L44L
tp2047
a(S'_dl_tlsdesc_return'
p2048
S'0090e5ff'
p2049
L8L
tp2050
a(S'_dl_tlsdesc_undefweak'
p2051
S'0e10e3e0e1'
p2052
L28L
tp2053
a(S'do_dlopen'
p2054
S'4010e530e9104de220e530e110e530e300'
p2055
L60L
tp2056
a(S'dlerror_run'
p2057
S'30e91c4de230e510e300e210e2c0'
p2058
L52L
tp2059
a(S'__libc_dlclose'
p2060
S'00a0e5'
p2061
L12L
tp2062
a(S'__libc_dlsym'
p2063
S'10e9184de200e510e530'
p2064
L36L
tp2065
a(S'__libc_dlvsym'
p2066
S'30e900d22c4de2c00053e300e510e5000a10e5001b0000e310e530e5'
p2067
L284L
tp2068
a(S'do_dlsym_private'
p2069
S'702de1509fe5d00c92e4c00095e500e5e0e5c0c001'
p2070
L128L
tp2071
a(S'do_dlsym'
p2072
S'00a0e4402de3d000e100e53f8104'
p2073
L72L
tp2074
a(S'do_dlvsym'
p2075
S'00a0e4402de2d000e100e53f810c'
p2076
L72L
tp2077
a(S'__libc_dlsym_private'
p2078
S'10e9184de200e510e530'
p2079
L36L
tp2080
a(S'__libc_register_dl_open_hook'
p2081
S'10e900e1'
p2082
L16L
tp2083
a(S'__libc_dlopen_mode'
p2084
S'10e9184de200e510e5e0e530'
p2085
L40L
tp2086
a(S'fatal_error'
p2087
S'9cc001e11000e5e0e50080849fe540a0e350a0010042de6c609fe5c00003'
p2088
L164L
tp2089
a(S'_dl_signal_exception'
p2090
S'4030e900e1'
p2091
L20L
tp2092
a(S'_dl_signal_error'
p2093
S'10e900e1409fe7'
p2094
L20L
tp2095
a(S'_dl_catch_exception'
p2096
S'ccc0c81b4de2e0e1c0c118'
p2097
L52L
tp2098
a(S'_dl_catch_error'
p2099
g314
L48L
tp2100
a(S'__longjmp'
p2101
S'00a0e4409fe520e04094e720049ce4402403a0e1bc4c20e520e730e3000a8b05a1fcec02fcec02fcec02fcec02fcec01b001a0'
p2102
L128L
tp2103
a(S'__mpn_cmp'
p2104
S'0152e2004a0391e7e0e5e1e700072102a000100a00ea310c5ee1001a30f9'
p2105
L104L
tp2106
a(S'__mpn_divrem'
p2107
g314
L1744L
tp2108
a(S'__mpn_lshift'
p2109
S'0142e2402de750630252e260800500e1e2e1e1408104343ca0e10020e570e1'
p2110
L100L
tp2111
a(S'__mpn_rshift'
p2112
S'0052e300'
p2113
L132L
tp2114
a(S'__mpn_mul'
p2115
g314
L860L
tp2116
a(S'__mpn_mul_1'
p2117
S'02'
p2118
L60L
tp2119
a(S'__mpn_impn_mul_n_basecase'
p2120
g314
L260L
tp2121
a(S'__mpn_impn_mul_n'
p2122
S'0113'
p2123
L972L
tp2124
a(S'__mpn_impn_sqr_n_basecase'
p2125
S'0091e5472de38002e1008a000a0002c1c28320daa3e1'
p2126
L256L
tp2127
a(S'__mpn_impn_sqr_n'
p2128
S'0112'
p2129
L808L
tp2130
a(S'__mpn_mul_n'
p2131
S'10e9084de2000094e5c003a00a000b000dc1d0e2c0101b0094e5000f1ad010'
p2132
L152L
tp2133
a(S'__mpn_sub_n'
p2134
g314
L128L
tp2135
a(S'__mpn_submul_1'
p2136
S'00e470e540a0ea95e040ace25057e070e540840480538c0152e2'
p2137
L92L
tp2138
a(S'__mpn_extract_double'
p2139
S'30e9d0e5c001e05fa0e214e316c100c083e0e5c001810480000f1a0000'
p2140
L224L
tp2141
a(S'_itoa_word'
p2142
S'c0e500'
p2143
L200L
tp2144
a(S'_itoa'
p2145
g314
L1264L
tp2146
a(S'_fitoa_word'
p2147
S'702de5d014'
p2148
L112L
tp2149
a(S'_fitoa'
p2150
S'702de5d040e0e540'
p2151
L120L
tp2152
a(S'_itowa'
p2153
g314
L1224L
tp2154
a(S'snprintf'
p2155
S'0c2de9084de2c00ca0e520e500'
p2156
L44L
tp2157
a(S'_IO_strn_overflow'
p2158
S'1c90e5412de20000e170e1000a90e5608030e510e119eb608410e550840484148418e500'
p2159
L88L
tp2160
a(S'vsnprintf'
p2161
g314
L140L
tp2162
a(S'init'
p2163
S'389fe500080010e92c9fe500e3301220e8048320'
p2164
L64L
tp2165
a(S'__dlerror'
p2166
g314
L496L
tp2167
a(S'check_free.isra.0'
p2168
S'702de50070bde110e13beb0070bde1'
p2169
L60L
tp2170
a(S'_dlerror_run'
p2171
S'4431e90c4de260a0e570e1000a9fe500e14095e500000a00040008d40053e3001a30e530e5200c84d5'
p2172
L332L
tp2173
a(S'__libc_register_dlfcn_hook'
p2174
S'10e9b1'
p2175
L12L
tp2176
a(S'__dladdr'
p2177
S'00a0e10a'
p2178
L12L
tp2179
a(S'__dladdr1'
p2180
S'0153e3000a0000a00a20ea'
p2181
L36L
tp2182
a(S'dlinfo_doit'
p2183
S'10e90990e90953e3f19f972700ea0600c18000c1c8c8b00600060090e50003a00a301094e520e58000a0e80c94e520e8ac11e540bdeaa0e522e58002a0e130'
p2184
L208L
tp2185
a(S'__dlinfo'
p2186
S'10e9184de200e5c000e520e5'
p2187
L48L
tp2188
a(S'dlmopen_doit'
p2189
S'0090e5402de3d014006020e5c00092e500e5c010e51000'
p2190
L124L
tp2191
a(S'__dlmopen'
p2192
S'10e9184de200e1c000e530e5'
p2193
L44L
tp2194
a(S'strerror'
p2195
S'00a0e900e1'
p2196
L104L
tp2197
a(S'strspn'
p2198
g314
L364L
tp2199
a(S'strsep'
p2200
S'702de500000a50a0e139eb30e72001'
p2201
L68L
tp2202
a(S'__getdents64'
p2203
S'80d9e300ef017000a08a00e80060e220'
p2204
L48L
tp2205
a(S'__xstat64'
p2206
S'8001a0e310ef017000a08a00e80060e220'
p2207
L56L
tp2208
a(S'profil_counter'
p2209
S'4410e500e9a330e020e138e11031203100'
p2210
L76L
tp2211
a(S'profil'
p2212
g314
L360L
tp2213
a(S'__profile_frequency'
p2214
S'049fe500'
p2215
L12L
tp2216
a(S'_dl_fixup'
p2217
S'7c90e5432de100e520e530e7c004e1201600008330e0100d003a00e80009000492e500e101a222e50000a0eb60a0e50001a01a00e330e500e5c004a0e520eb34e5000000149de50003a00a11e10001a0e5200320e530e2002f000a30e50000851c'
p2218
L532L
tp2219
a(S'_dl_profile_fixup'
p2220
g314
L600L
tp2221
a(S'add_to_global'
p2222
g314
L608L
tp2223
a(S'_dl_find_dso_for_object'
p2224
S'9830e90053e3000a50a0e500000a000a0005009a130a000500eb00054094e500'
p2225
L160L
tp2226
a(S'_dl_open'
p2227
g314
L420L
tp2228
a(S'_dl_show_scope'
p2229
S'f84f2de5b0e120e590a0e3001a30e530e50002a0e120e5e6eb31e3000a31e100000aa09fe570e5609fe510e1e6eb31e720e3000a40a0e500e710e50003000098e510e310eb31e230e500ed'
p2230
L284L
tp2231
a(S'dl_open_worker'
p2232
g314
L1600L
tp2233
a(S'remove_slotinfo'
p2234
S'702de120e00040a03a91e500190005'
p2235
L284L
tp2236
a(S'_dl_close_worker'
p2237
g314
L3452L
tp2238
a(S'_dl_close'
p2239
S'849fe5402de340a00ae500e510e2001a53e3000aa0eb30e38010e8389fe500f9'
p2240
L140L
tp2241
a(S'_dl_sort_maps'
p2242
S'0151e3ff91'
p2243
L644L
tp2244
a(S'_dl_unmap'
p2245
S'b090e511e1109b42'
p2246
L20L
tp2247
a(S'_dl_addr'
p2248
S'309fe54f2de3d000e170e160a0e5000a03e100eb000001000490e521e530e500af000a20e5b0e510e5000491e520e110e5000ae5002d4190e5929fe5110444e210ea0004b40052e3'
p2249
L824L
tp2250
a(S'_dl_addr_inside_object'
p2251
S'0090e52f8010b0d20153e2003a402dea005421e722e3'
p2252
L104L
tp2253
a(S'__mpn_add_n'
p2254
g314
L128L
tp2255
a(S'__mpn_addmul_1'
p2256
S'00e45090e540a0ea94e05090e540ace270e4c00152e2'
p2257
L76L
tp2258
a(S'dlopen_doit'
p2259
S'0490e5402de331e300104de2001a40a0e520e500e5c0005020e3c00281be0010a0e500eb20e130e1'
p2260
L144L
tp2261
a(S'__dlopen'
p2262
S'10e9184de200e510e520e5'
p2263
L40L
tp2264
a(S'__dlclose'
p2265
S'00a0e979'
p2266
L16L
tp2267
a(S'dlsym_doit'
p2268
S'10e90700eb00'
p2269
L24L
tp2270
a(S'__dlsym'
p2271
S'30e96c409fe5d00094e50000e5000ae500e200'
p2272
L56L
tp2273
a(S'dlvsym_doit'
p2274
S'10e90feb00'
p2275
L24L
tp2276
a(S'__dlvsym'
p2277
S'30e9709fe5d000'
p2278
L60L
tp2279
a(S'setitimer'
p2280
S'042de300ef049de40a1eff'
p2281
L28L
tp2282
a(S'_dl_build_local_scope'
p2283
S'702de110f85191e530e330e331e5000a95e560a0e350850c009831e500e3000ab50051e3'
p2284
L120L
tp2285
a(S'openaux'
p2286
S'10e90090e5d09821e530031204'
p2287
L68L
tp2288
a(S'_dl_map_object_deps'
p2289
S'82e04f2de1b0e2de0c4de2c0c09801e5d00d00e300e2e0e3006c34e501e514e948020a41e2418104b10c03040308039801e50000e300e201e5'
p2290
L3220L
tp2291
a(S'call_init.part.0'
p2292
S'98c1'
p2293
L288L
tp2294
a(S'_dl_init'
p2295
g314
L272L
tp2296
a(S'_dl_check_map_versions'
p2297
S'3490e50053010a4f2de220e520e50002a0e510e1200a20e510e000008d0a001895e520e521e09fe54192e730e36083001a000c94e500000aa0e1'
p2298
L1680L
tp2299
a(S'_dl_check_all_versions'
p2300
g314
L108L
tp2301
a(S'call_dl_lookup'
p2302
S'10e900e1d00894e500e331e520e50004'
p2303
L72L
tp2304
a(S'do_sym'
p2305
g314
L636L
tp2306
a(S'_dl_vsym'
p2307
S'702de5c0204de25094e5e0e30020e5e0e5000ae0e5000c0000a0e1e0e530e5e0e5'
p2308
L216L
tp2309
a(S'_dl_sym'
p2310
S'042de3d000'
p2311
L32L
tp2312
a(S'__gtdf2'
p2313
S'00e00200'
p2314
L8L
tp2315
a(S'__ltdf2'
p2316
S'01a0'
p2317
L8L
tp2318
a(S'__nedf2'
p2319
S'01a0e5c083e1ca0e000a'
p2320
L136L
tp2321
a(S'__aeabi_cdrcmple'
p2322
S'00a0e120e110e1'
p2323
L28L
tp2324
a(S'__aeabi_cdcmple'
p2325
S'01e90050e300'
p2326
L20L
tp2327
a(S'__aeabi_dcmpeq'
p2328
S'082deb0013'
p2329
L20L
tp2330
a(S'__aeabi_dcmplt'
p2331
S'082deb0023'
p2332
L20L
tp2333
a(S'__aeabi_dcmple'
p2334
S'082deb00839d'
p2335
L20L
tp2336
a(S'__aeabi_dcmpge'
p2337
S'082deb00839d'
p2338
L20L
tp2339
a(S'__aeabi_dcmpgt'
p2340
S'082deb0023'
p2341
L20L
tp2342
a(S'__unorddf2'
p2343
S'81'
p2344
L56L
tp2345
a(S'__aeabi_uldivmod'
p2346
S'0053e30004000051e30000e000e007ca084de2602debe0e5d0e8'
p2347
L60L
tp2348
a(S'__udivmoddi4'
p2349
S'0351e100'
p2350
L300L
tp2351
a(S'read_uleb128'
p2352
S'00a0e130e400e330e2c207201ac0'
p2353
L40L
tp2354
a(S'read_sleb128'
p2355
S'00a0e1e0e520e4e0e200e3c38c07301a00020000e0128c0081'
p2356
L64L
tp2357
a(S'base_of_encoded_value'
p2358
S'ff50e3000a002053e3000a009a00500007000a000b0001a0ea001053e3001a00e100ea'
p2359
L104L
tp2360
a(S'read_encoded_value_with_base'
p2361
S'500027000a402de110e2d000e10001'
p2362
L340L
tp2363
a(S'read_encoded_value'
p2364
S'702de110e150a0e1'
p2365
L52L
tp2366
a(S'parse_lsda_header'
p2367
S'702de2d001e150a001000ace'
p2368
L168L
tp2369
a(S'_Unwind_SetGR_0'
p2370
S'042de230e520e520e1ca14'
p2371
L44L
tp2372
a(S'_Unwind_GetGR.constprop.0_0'
p2373
S'042de230e220e120eb00e2'
p2374
L44L
tp2375
a(S'__gcc_personality_v0'
p2376
S'03000150e3472de1d002e1000a00eb0008a013d0e80510eb00eb10ef'
p2377
L368L
tp2378
a(S'_fini'
p2379
S'08e9'
p2380
L8L
tp2381
a.