(lp0
(S'_init'
p1
S'08e9'
p2
L12L
tp3
a(S'_Unwind_GetDataRelBase'
p4
S'10e9'
p5
L8L
tp6
a(S'_Unwind_GetTextRelBase'
p7
S'10e9'
p8
L8L
tp9
a(S'abort'
p10
S'48529fe532e5402deb6d40e2de0093e5000c'
p11
L592L
tp12
a(S'fini'
p13
S'009fe54e01'
p14
L8L
tp15
a(S'main'
p16
S''
p17
L2436L
tp18
a(S'_start'
p19
S'00a0e420e500e5c00c9fe52f00'
p20
L44L
tp21
a(S'deregister_tm_clones'
p22
S'189fe530e1ff0130e3ff01ff'
p23
L32L
tp24
a(S'register_tm_clones'
p25
S'249fe510e011e0100130e3ff01ff'
p26
L44L
tp27
a(S'__do_global_dtors_aux'
p28
S'10e900d40053e3801c9fe5000100149fe500e330e5'
p29
L56L
tp30
a(S'frame_dummy'
p31
S'209fe50005402de500e140bd'
p32
L40L
tp33
a(S'_Z15attack_app_httphP13attack_targethP13attack_option'
p34
g17
L7620L
tp35
a(S'_Z11attack_initv'
p36
g17
L836L
tp37
a(S'_Z15attack_kill_allv'
p38
S'4831e90050e3001a31e330e520e1001a31e330e520e1001a31e330e520e1001a30e330e520e1001a30e330e520e1001a30e330e520e1001a20e000e50008009030e330e8ee14ea00'
p39
L336L
tp40
a(S'_Z12attack_startihhP13attack_targethP13attack_option'
p41
g17
L232L
tp42
a(S'_Z12attack_parsePci'
p43
S'05ff91'
p44
L548L
tp45
a(S'_Z18attack_get_opt_strhP13attack_optionhPc'
p46
S'30e90d00e500088103000900045ce500000ae0e2000ca0e2'
p47
L88L
tp48
a(S'_Z18attack_get_opt_inthP13attack_optionhi'
p49
S'0050e3000ad1025ce1000a402de2e0e300ea54e1000ae0e2000ca0e2'
p50
L128L
tp51
a(S'_Z17attack_get_opt_iphP13attack_optionhj'
p52
S'0050e3000ad1025ce1000a402de2e0e300ea54e1000ae0e2000ca0e2'
p53
L120L
tp54
a(S'_Z13attack_gre_iphP13attack_targethP13attack_option'
p55
g17
L1524L
tp56
a(S'_Z14attack_gre_ethhP13attack_targethP13attack_option'
p57
g17
L1688L
tp58
a(S'_Z14attack_tcp_synhP13attack_targethP13attack_option'
p59
g17
L1552L
tp60
a(S'_Z14attack_tcp_ackhP13attack_targethP13attack_option'
p61
g17
L1664L
tp62
a(S'_Z16attack_tcp_stomphP13attack_targethP13attack_option'
p63
g17
L1696L
tp64
a(S'_ZL16get_dns_resolverv'
p65
S'702de3ded714eb10e315a0eb60a0e314eb00330002a0e100eb40a0e1831f00eb10e315a0e100eb60a0e314eb001d0000da30e500205213000630e200095113008a10002f000a20e100da30e5c000095c13008a000182000a00'
p66
L408L
tp67
a(S'_Z18attack_udp_generichP13attack_targethP13attack_option'
p68
g17
L1196L
tp69
a(S'_Z14attack_udp_vsehP13attack_targethP13attack_option'
p70
g17
L1008L
tp71
a(S'_Z14attack_udp_dnshP13attack_targethP13attack_option'
p72
g17
L1304L
tp73
a(S'_Z16attack_udp_plainhP13attack_targethP13attack_option'
p74
g17
L680L
tp75
a(S'_Z16checksum_genericPtj'
p76
S'0151e3009acce3c030e0000283'
p77
L104L
tp78
a(S'_Z15checksum_tcpudpP5iphdrPvti'
p79
S'0153e3402de56090e500da30a3408584e0c00451e1c05fe030e33005038c0107e038e500e06006e000e004e0380a20e000e1'
p80
L172L
tp81
a(S'_Z11killer_killv'
p82
S'0c9fe510e000'
p83
L20L
tp84
a(S'_Z19killer_kill_by_portt'
p85
g17
L1320L
tp86
a(S'_Z11killer_initv'
p87
g17
L1836L
tp88
a(S'_ZL14anti_gdb_entryi'
p89
S'109fe520e020e5ff'
p90
L24L
tp91
a(S'_ZL19teardown_connectionv'
p92
S'2c9fe5402de7000000b000189fe520e330e340bde577'
p93
L52L
tp94
a(S'_ZL16resolve_cnc_addrv'
p95
S'702de30ceb10e30d0000e100eb00809200eb10e50f38e500e031e502eb00eb10e30dd0b2'
p96
L128L
tp97
a(S'_ZL22ensure_single_instancev'
p98
g17
L360L
tp99
a(S'_Z9rand_initv'
p100
S'702de375eb30e530e000eb40a0eb00e000eb20e530e030e020e5'
p101
L92L
tp102
a(S'_Z9rand_nextv'
p103
S'10e94c10e0e0e5000091e5e0e0359fe500e509e0c000e504e0408e008c0081'
p104
L88L
tp105
a(S'_Z8rand_strPci'
p106
S'0051e3ffd1402de5e1e521e5e0e0c003'
p107
L348L
tp108
a(S'_Z13rand_alphastrPhi'
p109
g17
L328L
tp110
a(S'_Z13resolv_lookupPc'
p111
g17
L1372L
tp112
a(S'_Z19resolv_entries_freeP14resolv_entries'
p113
S'10e91094e5000000f90004a0e8'
p114
L40L
tp115
a(S'_ZL16setup_connectionP18scanner_connection'
p116
g17
L208L
tp117
a(S'_ZL14add_auth_entryPcS_t'
p118
S'f84f2de5529fe560'
p119
L528L
tp120
a(S'_Z12scanner_initv'
p121
g17
L7104L
tp122
a(S'_Z12scanner_killv'
p123
S'0c9fe510e000'
p124
L20L
tp125
a(S'_Z10table_initv'
p126
g17
L2056L
tp127
a(S'_Z16table_unlock_valh'
p128
S'9020e520e010e130e33001402de148a0e21ce1e0e2400400a0e750d7e75025e771e750d7e75025e771e750d7e75025e771e750d7e75025e750dc018300ebff'
p129
L152L
tp130
a(S'_Z14table_lock_valh'
p131
S'9020e520e010e130e33001402de148a0e21ce1e0e2400400a0e750d7e75025e771e750d7e75025e771e750d7e75025e771e750d7e75025e750dc018300ebff'
p132
L152L
tp133
a(S'_Z18table_retrieve_valiPi'
p134
S'0051e3000a9fe530e030e130e530e7ff'
p135
L44L
tp136
a(S'_Z11util_strlenPc'
p137
S'01d00053e3000a30e430e3'
p138
L40L
tp139
a(S'_Z12util_strncmpPcS_i'
p140
S'00a0e9005ce3c001d3018c005ee3'
p141
L136L
tp142
a(S'_Z11util_strcmpPcS_'
p143
S'10e901de01a0e320e4000a30e430e3'
p144
L148L
tp145
a(S'_Z11util_strcpyPcS_'
p146
S'702de54081330004a0e300eadc018200fa'
p147
L276L
tp148
a(S'_Z11util_memcpyPvS_i'
p149
S'0052e3ff0180c00351313033402de15042e20000a0'
p150
L196L
tp151
a(S'_Z9util_zeroPvi'
p152
S'0051e2ff0110'
p153
L16L
tp154
a(S'_Z9util_atoiPci'
p155
g17
L288L
tp156
a(S'_Z9util_itoaiiPc'
p157
g17
L260L
tp158
a(S'_Z14util_memsearchPciS_i'
p159
S'0153e100ca51e300dac0402de00000a0ea000e40d20c8050fce50000a01ae0e200f4'
p160
L108L
tp161
a(S'_Z12util_stristrPciS_'
p162
S'02a0e90057e37013000ac001e200'
p163
L136L
tp164
a(S'_Z15util_local_addrv'
p165
S'702de3d004'
p166
L20L
tp167
a(S'_Z11util_fdgetsPcii'
p168
g17
L100L
tp169
a(S'__udivsi3'
p170
S'0151e2ff013a006b9a00106fe12f6fe1301f308310201000e120205002a22020200e50e1202020200da22020200ce1202020200b02a22020200a02a22020200902a22020200802a22020200750e1202020200650e12020202005a220202004e1202020200302a22020200202a22020200102a22020200002a22000e10013ffe12f6fe12030a0e10000e09700'
p171
L492L
tp172
a(S'__aeabi_uidivmod'
p173
S'0051e3'
p174
L32L
tp175
a(S'__divsi3'
p176
S'0051e300'
p177
L8L
tp178
a(S'.divsi3_skip_div0_test'
p179
S'01200061420151e2000a30420153e1009a00136fe16f0240e020'
p180
L520L
tp181
a(S'__aeabi_idivmod'
p182
S'0051e3'
p183
L32L
tp184
a(S'__aeabi_ldiv0'
p185
S'02e9a41aeb'
p186
L16L
tp187
a(S'selfrel_offset31'
p188
S'0090e501e3310300'
p189
L24L
tp190
a(S'search_EIT_table'
p191
S'0051e3000a472de260a0e190a0e04f84c4e151a0e000eb0000a0e2000a0008000140e200ec'
p192
L152L
tp193
a(S'__gnu_unwind_get_pr_addr'
p194
S'4430e3300a0009000050e3000a00e120e7ffe100e0ffe120e7ff'
p195
L76L
tp196
a(S'get_eit_entry'
p197
S'189fe531e0402de7d00053e340a0e2000a'
p198
L288L
tp199
a(S'restore_non_core_regs'
p200
S'0090e5402de340a01a00e3000a300a0008130d00e38010e887000094e500e3'
p201
L136L
tp202
a(S'_Unwind_decode_typeinfo_ptr.isra.0'
p203
S'0090e50003901703a0'
p204
L20L
tp205
a(S'__gnu_unwind_24bit.isra.1'
p206
S'09a0'
p207
L8L
tp208
a(S'unwind_phase2'
p209
S'702de150a0e500eb6050e2001a95e5301094e510e3ffe100f1'
p210
L100L
tp211
a(S'unwind_phase2_forced'
p212
g17
L340L
tp213
a(S'_Unwind_GetCFA'
p214
S'4400'
p215
L8L
tp216
a(S'__gnu_Unwind_RaiseException'
p217
g17
L168L
tp218
a(S'__gnu_Unwind_ForcedUnwind'
p219
S'042de510e510e520e4'
p220
L36L
tp221
a(S'__gnu_Unwind_Resume'
p222
S'702de530e3301a30e140a0e110e3ffe10004000850e3001a00eb00e5'
p223
L116L
tp224
a(S'__gnu_Unwind_Resume_or_Rethrow'
p225
S'0c90e50003003c91e520e3'
p226
L32L
tp227
a(S'_Unwind_DeleteException'
p228
S'0890e5001eff0110e3ff'
p229
L24L
tp230
a(S'_Unwind_VRS_Get'
p231
S'0451e3f1'
p232
L104L
tp233
a(S'_Unwind_GetGR'
p234
S'042de230e110e510eb00e2'
p235
L44L
tp236
a(S'_Unwind_VRS_Set'
p237
S'0451e3f1'
p238
L104L
tp239
a(S'_Unwind_SetGR'
p240
S'042de230e520e520e1'
p241
L44L
tp242
a(S'__gnu_Unwind_Backtrace'
p243
g17
L200L
tp244
a(S'__gnu_unwind_pr_common'
p245
g17
L1136L
tp246
a(S'__aeabi_unwind_cpp_pr0'
p247
S'00a0'
p248
L8L
tp249
a(S'__aeabi_unwind_cpp_pr1'
p250
S'01a0'
p251
L8L
tp252
a(S'__aeabi_unwind_cpp_pr2'
p253
S'02a0'
p254
L8L
tp255
a(S'_Unwind_VRS_Pop'
p256
g17
L1016L
tp257
a(S'restore_core_regs'
p258
S'348000e9009d'
p259
L20L
tp260
a(S'__gnu_Unwind_Restore_VFP'
p261
S'2190ec1eff'
p262
L8L
tp263
a(S'__gnu_Unwind_Save_VFP'
p264
S'2180ff'
p265
L8L
tp266
a(S'__gnu_Unwind_Restore_VFP_D'
p267
S'2090ec1eff'
p268
L8L
tp269
a(S'__gnu_Unwind_Save_VFP_D'
p270
S'2080ff'
p271
L8L
tp272
a(S'__gnu_Unwind_Restore_VFP_D_16_to_31'
p273
S'20d01eff'
p274
L8L
tp275
a(S'__gnu_Unwind_Save_VFP_D_16_to_31'
p276
S'20c0ff'
p277
L8L
tp278
a(S'__gnu_Unwind_Restore_WMMXD'
p279
S'02'
p280
L68L
tp281
a(S'__gnu_Unwind_Save_WMMXD'
p282
S'02e002e002e002e002ec02ec02ec02ec02e002e002e002e002e002e01eff'
p283
L68L
tp284
a(S'__gnu_Unwind_Restore_WMMXC'
p285
S'01b001b01eff'
p286
L20L
tp287
a(S'__gnu_Unwind_Save_WMMXC'
p288
S'01a0fc012f'
p289
L20L
tp290
a(S'___Unwind_RaiseException'
p291
S'002de90c2de2fc'
p292
L36L
tp293
a(S'___Unwind_Resume'
p294
S'002de90c2de2fc'
p295
L24L
tp296
a(S'___Unwind_Resume_or_Rethrow'
p297
S'002de90c2de2fc'
p298
L36L
tp299
a(S'___Unwind_ForcedUnwind'
p300
S'002de90c2de2fc'
p301
L36L
tp302
a(S'___Unwind_Backtrace'
p303
S'002de90c2de2fd'
p304
L36L
tp305
a(S'next_unwind_byte'
p306
S'08d00052e3001a30e5000f0a90e530048210e5c008c024e120e1ffe1200090e520e5'
p307
L96L
tp308
a(S'_Unwind_GetGR.constprop.0'
p309
S'042de230e220e120eb00e2'
p310
L44L
tp311
a(S'__gnu_unwind_execute'
p312
g17
L972L
tp313
a(S'__gnu_unwind_frame'
p314
S'4c20e530e2c003e1c00720e510e520e5c014'
p315
L68L
tp316
a(S'_Unwind_GetRegionStart'
p317
S'10e94800'
p318
L16L
tp319
a(S'_Unwind_GetLanguageSpecificData'
p320
S'10e94c00e530e0'
p321
L28L
tp322
a(S'__libc_start_main'
p323
S'804adf149fe500e5e0e50000e222e101150082c2e83f6f111111300490e400fc'
p324
L804L
tp325
a(S'check_one_fd'
p326
g17
L48L
tp327
a(S'__libc_check_standard_fds'
p328
S'10e900a0eb19e3'
p329
L44L
tp330
a(S'__libc_setup_tls'
p331
S'3c9fe522e54f2de3d000e5000a9fe510e000030000ea53e1002a20e3'
p332
L580L
tp333
a(S'__tls_get_addr'
p334
S'042de100'
p335
L12L
tp336
a(S'__libc_csu_init'
p337
g17
L144L
tp338
a(S'__libc_csu_fini'
p339
S'702de5509fe5304331e3000a4043e2518501e230e100'
p340
L64L
tp341
a(S'__errno_location'
p342
S'109fe5e0e500'
p343
L12L
tp344
a(S'__aeabi_read_tp'
p345
g17
L8L
tp346
a(S'__assert_fail_base'
p347
S'80789fe5e1e5d0009ce50000e160a0e18030e5000a10e300e511e5c110e50001a0010040a00100e500e501e100eb003520e500eb30e51ceb30e530e3c0030c00e000'
p348
L388L
tp349
a(S'__assert_fail'
p350
S'8000e170e1d001e160a0e520e500eb70e530e110'
p351
L60L
tp352
a(S'dcgettext'
p353
S'042de3d004'
p354
L36L
tp355
a(S'plural_eval'
p356
g17
L460L
tp357
a(S'transcmp'
p358
S'1090e5402de330e140a01295051c816154000050e3800095e554000050e3800895e554000050e330034000'
p359
L108L
tp360
a(S'plural_lookup.isra.2'
p361
g17
L96L
tp362
a(S'_nl_find_msg'
p363
g17
L2924L
tp364
a(S'__dcigettext'
p365
g17
L1756L
tp366
a(S'_nl_find_domain'
p367
g17
L668L
tp368
a(S'_nl_load_domain'
p369
g17
L5708L
tp370
a(S'alias_compare'
p371
S'0091e500e54e00'
p372
L16L
tp373
a(S'read_alias_file'
p374
S'154f2de3b0e2df034de034e540a0e520e100e54e000e20e54e0004a0e510eb9050e2910b0099e529e22005e40009a0e34bd5000050e3000a10e248008c9fe531029fe74f4be260a0eb10e120e3000a30e520e10ae3'
p375
L1056L
tp376
a(S'_nl_expand_alias'
p377
S'f84f2de360a0e540a0e5000500e3e0e1'
p378
L452L
tp379
a(S'_nl_make_l10nflist'
p380
g17
L1196L
tp381
a(S'_nl_normalize_codeset'
p382
g17
L296L
tp383
a(S'_nl_explode_name'
p384
g17
L528L
tp385
a(S'__gettext_free_exp'
p386
S'10e91094e50008000353e3000a0006000aa0e81094e5'
p387
L88L
tp388
a(S'new_exp'
p389
S'0140e200'
p390
L192L
tp391
a(S'__gettextparse'
p392
g17
L2328L
tp393
a(S'__gettext_extract_plural'
p394
g17
L276L
tp395
a(S'__hash_string'
p396
S'0140e200e5001eff0102e312e20c10'
p397
L40L
tp398
a(S'_setjmp'
p399
S'00a0'
p400
L8L
tp401
a(S'__bsd_signal.part.0'
p402
S'10e9124de2e0e530e220e5e1e520e500fc'
p403
L164L
tp404
a(S'ssignal'
p405
S'017100a003c00030e3000a30e5ed'
p406
L80L
tp407
a(S'raise'
p408
S'b02de5df0095e540a0e300e531eb21e330e320e510e200e370e300ef14a0efe0a0e100ef437fe310e100ef017000e1008a'
p409
L216L
tp410
a(S'__libc_sigaction'
p411
g17
L284L
tp412
a(S'sigaction'
p413
S'0140e200008a300153e3009a9fe5e0e5ec'
p414
L40L
tp415
a(S'sigprocmask'
p416
g17
L192L
tp417
a(S'kill'
p418
S'042de300ef049de40a1eff316100'
p419
L28L
tp420
a(S'sigemptyset'
p421
S'0050e3402d0a10eb30e1801610e7ec'
p422
L52L
tp423
a(S'sigaddset'
p424
S'0141e20000a08350e330e3e0e5001a100151e3009a90e720e2e0e322e700e420e320'
p425
L96L
tp426
a(S'__default_sa_restorer'
p427
S'77a0ef00a0'
p428
L16L
tp429
a(S'__default_rt_sa_restorer'
p430
S'ad70e300ef'
p431
L8L
tp432
a(S'msort_with_tmp.part.0'
p433
g17
L672L
tp434
a(S'qsort_r'
p435
g17
L736L
tp436
a(S'qsort'
p437
S'042de3d000'
p438
L28L
tp439
a(S'getenv'
p440
S'009fe5472de5003a0000d000e1000201000a70e590a0e34095e5001a002ce3001a00ea54e3000a10e530e534e138e100f5'
p441
L264L
tp442
a(S'__run_exit_handlers'
p443
S'0c9fe5482de3d00c'
p444
L788L
tp445
a(S'exit'
p446
S'01a0e9009fe5'
p447
L20L
tp448
a(S'__new_exitfn'
p449
S'289fe530e5003400702de540a0e3000a00e1e0e120e3000a30038e0891e5000f1ac00143e2120a0002a0e3'
p450
L304L
tp451
a(S'__internal_atexit'
p452
g17
L364L
tp453
a(S'__cxa_atexit'
p454
S'009fe5'
p455
L8L
tp456
a(S'__strtol_internal'
p457
S'30e90c4de2409fe750a0'
p458
L24L
tp459
a(S'strtol'
p460
S'2c9fe5402de7d000e1'
p461
L24L
tp462
a(S'__strtoul_internal'
p463
S'30e90c4de2409fe750a0'
p464
L24L
tp465
a(S'strtoul'
p466
S'2c9fe5402de7d000e1'
p467
L24L
tp468
a(S'____strtol_l_internal'
p469
g17
L1288L
tp470
a(S'strtol_l'
p471
S'042de230e3'
p472
L28L
tp473
a(S'____strtoul_l_internal'
p474
g17
L1196L
tp475
a(S'strtoul_l'
p476
S'042de230e3'
p477
L28L
tp478
a(S'__correctly_grouped_prefixmb'
p479
g17
L668L
tp480
a(S'asprintf'
p481
S'0e00e90c4de230e1c030e509eb20e50003000c'
p482
L80L
tp483
a(S'locked_vfxprintf'
p484
g17
L248L
tp485
a(S'__fxprintf'
p486
S'0e00e9084de25050e230e531e550930500e530e2001a95e5e5eb30e2000e000a10e130e1001aa0e3e0e1'
p487
L364L
tp488
a(S'__fxprintf_nocancel'
p489
S'0e00e9084de25050e230e531e550930500e530e2001a95e5e4eb30e2000e000a10e130e1001aa0e3e0e1'
p490
L380L
tp491
a(S'fclose'
p492
S'0090e5472de350a01a29e2000a60130013006b0a9fe54095e533e0300153e1009aa0e1ffe130e300da95e510e540a0e5000500e3e0e1'
p493
L684L
tp494
a(S'fflush'
p495
g17
L344L
tp496
a(S'__fopen_maybe_mmap'
p497
S'3c90e500e3ff0130e3ff01e520e330d510d510e5ff'
p498
L64L
tp499
a(S'__fopen_internal'
p500
g17
L224L
tp501
a(S'fopen'
p502
S'01a0'
p503
L8L
tp504
a(S'adjust_wide_data'
p505
g17
L276L
tp506
a(S'_IO_wfile_underflow'
p507
S'0090e5279fe54f2de5d0101334'
p508
L1656L
tp509
a(S'_IO_wfile_seekoff'
p510
g17
L2464L
tp511
a(S'_IO_wfile_underflow_maybe_mmap'
p512
S'10e9060001701094e500e540bde5ff'
p513
L44L
tp514
a(S'_IO_wfile_underflow_mmap'
p515
g17
L392L
tp516
a(S'_IO_wdo_write'
p517
S'ac31e9344de25052e230e1000a30e540a0e18043000ab0e2a000149de5000443e05145e0000a9059e290a0e190890059e3001a0023001496e570e540a0e00020968520925c10e9188d00'
p518
L436L
tp519
a(S'_IO_wfile_overflow'
p520
S'0090e5412de340a01a0be350a01ae510e3000a10e5001c940504921500a0010004'
p521
L672L
tp522
a(S'_IO_wfile_sync'
p523
S'5c30e90c93e5d00152e140a09a53e300da204221eb0013005c300093e500e1000a94e5201096e500e1ffe1001e00da21e531e0300153e1009a'
p524
L416L
tp525
a(S'_IO_wfile_xsputn'
p526
g17
L348L
tp527
a(S'vasprintf'
p528
g17
L332L
tp529
a(S'__libc_message'
p530
S'0e00e9204de230e500e390a0e530e5609be5001a800154e350a0110004a0e100eaa0eb30e500040025'
p531
L676L
tp532
a(S'__libc_fatal'
p533
S'18e5402de120e100eb'
p534
L32L
tp535
a(S'_IO_vtable_check'
p536
S'109fe5001eff11402de5'
p537
L24L
tp538
a(S'fgets_unlocked'
p539
S'0051e300da002a000092e5402de340a0e260a0e30000'
p540
L200L
tp541
a(S'_IO_file_seekoff_maybe_mmap'
p542
S'702de55090e540a0e5d00045e0100c51e1609de5009aa0e5ffe10000d10600ba10'
p543
L112L
tp544
a(S'_IO_file_close'
p545
S'3890e54000'
p546
L8L
tp547
a(S'_IO_new_file_setbuf'
p548
S'10e9980d50e38004a0e5300c8404840884'
p549
L56L
tp550
a(S'_IO_file_setbuf_mmap'
p551
S'5c30e954509fe55080c08550e3000a94e500e5300c840484088470bde55085109fe55084b083'
p552
L100L
tp553
a(S'new_do_write'
p554
S'0090e5432de56090e5519fe50ae38000e190a0e05045e0000a20e330e32555e1009aa0e100e134e10000501350a01ae5300c8404840884148410841b002094e5300c'
p555
L332L
tp556
a(S'_IO_new_file_underflow'
p557
S'f84f2de500e3001a13b2000490e510e130351c90e550a0e3000a9fe500e1000a9fe570e530e2001a97e5d9eb20e2008f0001a0e130e1001aa0e3e0e1'
p558
L764L
tp559
a(S'_IO_file_close_mmap'
p560
S'1c90e510e900e100eb30e53010e8'
p561
L52L
tp562
a(S'mmap_remap_check'
p563
g17
L600L
tp564
a(S'_IO_file_seek'
p565
S'3890e53b'
p566
L8L
tp567
a(S'_IO_file_sync_mmap'
p568
S'0c90e900e100e120084de23fa00a10e50000a0e1000140e01fa0e10006001a94e500e11008'
p569
L136L
tp570
a(S'decide_maybe_mmap'
p571
g17
L464L
tp572
a(S'_IO_file_underflow_maybe_mmap'
p573
S'702de1'
p574
L64L
tp575
a(S'_IO_file_xsgetn_maybe_mmap'
p576
g17
L80L
tp577
a(S'_IO_new_file_seekoff'
p578
g17
L1700L
tp579
a(S'_IO_file_stat'
p580
S'01a0e500'
p581
L16L
tp582
a(S'_IO_new_file_write'
p583
g17
L156L
tp584
a(S'_IO_file_xsgetn_mmap'
p585
g17
L288L
tp586
a(S'_IO_file_xsgetn'
p587
S'1c90e54f2de3d000e150a0e1000a0049000a94e9060068b1e5919fe5a04be000ea1339001c94e5003d100a51e1008a51e330088414841084188437009a'
p588
L544L
tp589
a(S'_IO_file_seekoff_mmap'
p590
g17
L360L
tp591
a(S'_IO_file_underflow_mmap'
p592
S'0490e510e1002a00e5ffe1402de1fb'
p593
L132L
tp594
a(S'_IO_file_read'
p595
S'3c90e500e3001a3700433b'
p596
L24L
tp597
a(S'_IO_new_file_xsputn'
p598
g17
L420L
tp599
a(S'_IO_new_file_init_internal'
p600
S'0090e5402de330e370e330e140a0eb30e330'
p601
L52L
tp602
a(S'_IO_new_file_init'
p603
S'0090e5402de330e370e330e140a0eb30e330'
p604
L52L
tp605
a(S'_IO_file_open'
p606
S'3c90e5402de3d000e1609de500e1201a000281200000e10000a0bac8c801c3e330e320e010e130e530a89fe56094e530e0300153e1009a'
p607
L284L
tp608
a(S'_IO_new_file_attach'
p609
S'3890e5432de3d0001a30e540a0e500e530e330e390e0008438840240e085e12005d3eb0005009aa0e530e330e500e130e320e300025001000a9fe5d3eb30e700e2837a'
p610
L232L
tp611
a(S'_IO_new_do_write'
p612
S'0052e2001a00e1402de1f9'
p613
L40L
tp614
a(S'_IO_new_file_close_it'
p615
S'702de50044000a9fe520e130e00b0013000aa0eb300013001a21e531e0300153e1009aa0e150a0e50012005c300053e3000aa0eb30e110e1ad005c30088320e520e520e320e100eb30e130088414841084188404a00100e320e330e300'
p616
L384L
tp617
a(S'_IO_new_file_fopen'
p618
g17
L1028L
tp619
a(S'_IO_new_file_finish'
p620
S'3890e5402de340a00ae5001700dae530e510e021eb3009005020e530e0300153e1009aa0e100e340bdea90e510e0'
p621
L160L
tp622
a(S'_IO_new_file_overflow'
p623
S'0090e5402de3001a0be350a0e1201a0057000a90e50ce3001a000250e12002a005028320188404840c8400841c00017515302530e550c2301520126fe122e0001a5005e1802f000a001490e5'
p624
L512L
tp625
a(S'_IO_new_file_sync'
p626
S'1490e510e9084de240a09a53e300dae530e510e021eb00130028002494e91400a06094e530e0300153e1009a'
p627
L264L
tp628
a(S'flush_cleanup'
p629
g17
L280L
tp630
a(S'save_for_backup'
p631
g17
L444L
tp632
a(S'_IO_un_link.part.1'
p633
g17
L744L
tp634
a(S'_IO_un_link'
p635
S'0090e500e3ff01'
p636
L16L
tp637
a(S'_IO_link_in'
p638
g17
L680L
tp639
a(S'_IO_least_marker'
p640
S'3090e500e3001eff0120e50002a0e3'
p641
L48L
tp642
a(S'_IO_switch_to_main_get_area'
p643
S'0090e520e510e53ce3e0e530e5c00c8020'
p644
L56L
tp645
a(S'_IO_switch_to_backup_area'
p646
S'0090e520e5c001e3e0e530e520e5c0049d'
p647
L56L
tp648
a(S'_IO_switch_to_get_mode'
p649
S'd0c0402de140a09a90e530e0300153e1009ae004a0e10070bde5200a000894e5100c84088400a0e13070bde5109c'
p650
L152L
tp651
a(S'_IO_free_backup_area'
p652
S'0090e5402de340a0e5000a94e53ce3002c94e500e52000a0e530'
p653
L80L
tp654
a(S'__overflow'
p655
S'6c30e900e06c30e54090e530e0300c53e1d0030008'
p656
L84L
tp657
a(S'__underflow'
p658
S'6c30e330030501733b000090e5402de340a01a94e52027003a300b002494e50001e300008408842c8404840c8424841f008a300f0a107c'
p659
L276L
tp660
a(S'__uflow'
p661
S'6c30e330030501733f001a30e900e1001a94e52027003a300b002494e50001e300008408842c840c84248404843094e5000f0a10350017001a5094e530e0300153e1009aa0e82494e500f1'
p662
L292L
tp663
a(S'_IO_setb'
p664
g17
L84L
tp665
a(S'_IO_doallocbuf'
p666
S'1c90e5001eff1130e900e1000ae50018007c9fe55094e530e0300153e1009aa0e10070bde560840050e350840094e5000a00e3000a30e5608420e580485080'
p667
L176L
tp668
a(S'_IO_default_underflow'
p669
S'00e01eff'
p670
L8L
tp671
a(S'_IO_default_uflow'
p672
S'702de55090e530e0300153e140a09aa0e100049415048470bdeb'
p673
L80L
tp674
a(S'_IO_default_xsputn'
p675
g17
L224L
tp676
a(S'_IO_sgetn'
p677
S'10e9984090e530e0300e00104de2009a'
p678
L68L
tp679
a(S'_IO_default_xsgetn'
p680
g17
L176L
tp681
a(S'_IO_default_setbuf'
p682
g17
L256L
tp683
a(S'_IO_default_seekpos'
p684
S'30e9984090e510e0101c4de20028e5009a'
p685
L88L
tp686
a(S'_IO_default_doallocate'
p687
S'702de10aeb5050e2000a94e56ae2000094e5000a00e3000a30e33020e500e80094e5'
p688
L96L
tp689
a(S'_IO_enable_locks'
p690
S'3c9fe530e3ff1130e330e5001eff0193e520e530e3'
p691
L68L
tp692
a(S'_IO_old_init'
p693
S'749fe514e320e3003c8020138000ad18e530e530e530e530e530e530e530e130151eff'
p694
L124L
tp695
a(S'_IO_init_internal'
p696
S'10e9dc'
p697
L36L
tp698
a(S'_IO_no_init'
p699
S'702de140a0e1'
p700
L112L
tp701
a(S'_IO_default_sync'
p702
S'00a0'
p703
L8L
tp704
a(S'_IO_default_finish'
p705
S'702de100e3000a3013003094e500040000a0e530e3'
p706
L128L
tp707
a(S'_IO_default_seekoff'
p708
S'00e000e01eff'
p709
L12L
tp710
a(S'_IO_sputbackc'
p711
S'0490e520e90c4de240a09a010250e13004844c20e530e0300053e1009aa0e10002000094e530e33030'
p712
L136L
tp713
a(S'_IO_sungetc'
p714
S'0490e520e900e1009a80000094e530e330389fe55090e530e0300153e1009ae004a0e10070bdea'
p715
L116L
tp716
a(S'_IO_adjust_column'
p717
S'042de0000900015ee5300a5ce3001a00ea5ce3000a00fa'
p718
L84L
tp719
a(S'_IO_flush_all_lockp'
p720
S'249fe523e9244de20000'
p721
L812L
tp722
a(S'_IO_cleanup'
p723
g17
L852L
tp724
a(S'_IO_flush_all'
p725
S'01a0'
p726
L8L
tp727
a(S'_flushlbf'
p728
S'd49fe522e91c4de20014'
p729
L732L
tp730
a(S'_IO_init_marker'
p731
S'0091e5402de340a0e1101a0ce3200494e5303094e520e5508470bde1fa'
p732
L84L
tp733
a(S'_IO_remove_marker'
p734
S'0490e520e3ff01000100080003a0e5001eff0100f9'
p735
L72L
tp736
a(S'_IO_marker_difference'
p737
S'0890e530e0ff'
p738
L16L
tp739
a(S'_IO_marker_delta'
p740
S'0490e50007000a00e50ce330050340e0ffe100e3ff'
p741
L52L
tp742
a(S'_IO_seekmark'
p743
S'0491e50024000891e530e3e0e51ce200ba0c90e5000a90e53ce3e0e510e510e5c0088020e500e4000890e5'
p744
L168L
tp745
a(S'_IO_unsave_markers'
p746
S'3090e50000a0150053e3ff01'
p747
L32L
tp748
a(S'_IO_default_pbackfail'
p749
g17
L316L
tp750
a(S'_IO_default_seek'
p751
S'00e000e01eff'
p752
L12L
tp753
a(S'_IO_default_stat'
p754
S'00e01eff'
p755
L8L
tp756
a(S'_IO_default_read'
p757
S'00e01eff'
p758
L8L
tp759
a(S'_IO_default_write'
p760
S'00a0'
p761
L8L
tp762
a(S'_IO_default_showmanyc'
p763
S'00e01eff'
p764
L8L
tp765
a(S'_IO_iter_begin'
p766
S'049fe500'
p767
L12L
tp768
a(S'_IO_iter_end'
p769
S'00a0'
p770
L8L
tp771
a(S'_IO_iter_next'
p772
S'3490e5ff'
p773
L8L
tp774
a(S'_IO_list_lock'
p775
S'702deb509fe56d40e230e1000a10e240a0e5000500e3e0e1'
p776
L116L
tp777
a(S'_IO_list_unlock'
p778
g17
L132L
tp779
a(S'_IO_list_resetlock'
p780
S'109fe520e520e5ff'
p781
L24L
tp782
a(S'_IO_str_underflow'
p783
S'1490e520e500030108800b30050a80c000d31eff'
p784
L68L
tp785
a(S'_IO_str_overflow'
p786
S'0090e500e3001a2be20b028310e920e5300504800001e16046e0100310e00000e1008a30e2001a90868956e1008a00eb80000a000520e122eb00eba049e010e022eb20e310e1fa'
p787
L344L
tp788
a(S'enlarge_userbuf'
p789
g17
L444L
tp790
a(S'_IO_str_seekoff'
p791
g17
L696L
tp792
a(S'_IO_str_pbackfail'
p793
S'0191e22013001afd'
p794
L32L
tp795
a(S'_IO_str_finish'
p796
S'10e91c90e50002000094e500e3000a10e500e87d00f8'
p797
L60L
tp798
a(S'_IO_str_init_static_internal'
p799
S'0052e3412de150a0e1001a10e122eb60a0e320e100eb0000a0e550840484148408151805a081e160a023'
p800
L132L
tp801
a(S'_IO_str_init_static'
p802
S'c2e1'
p803
L8L
tp804
a(S'_IO_str_init_readonly'
p805
S'10e900e12f82'
p806
L36L
tp807
a(S'_IO_str_count'
p808
S'0890e520e500016020001eff'
p809
L28L
tp810
a(S'_dl_tunable_set_mmap_threshold'
p811
S'0090e50753e3209308'
p812
L28L
tp813
a(S'_dl_tunable_set_mmaps_max'
p814
S'109fe510e310e5ff'
p815
L24L
tp816
a(S'_dl_tunable_set_top_pad'
p817
S'109fe510e310e5ff'
p818
L24L
tp819
a(S'_dl_tunable_set_perturb_byte'
p820
S'089fe520e5ff'
p821
L16L
tp822
a(S'_dl_tunable_set_trim_threshold'
p823
S'109fe510e310e5ff'
p824
L24L
tp825
a(S'_dl_tunable_set_arena_max'
p826
S'089fe520e5ff'
p827
L16L
tp828
a(S'_dl_tunable_set_arena_test'
p829
S'089fe520e5ff'
p830
L16L
tp831
a(S'_dl_tunable_set_tcache_max'
p832
S'0090e5521eff810007308343'
p833
L56L
tp834
a(S'_dl_tunable_set_tcache_count'
p835
S'089fe520e5ff'
p836
L16L
tp837
a(S'_dl_tunable_set_tcache_unsorted_limit'
p838
S'089fe520e5ff'
p839
L16L
tp840
a(S'mem2mem_check'
p841
S'0050e3ff0130a3c1c020e500c00720e320044202200152e1009a53e330e13030e7200251e1'
p842
L108L
tp843
a(S'mem2chunk_check'
p844
g17
L536L
tp845
a(S'int_mallinfo'
p846
S'3490e5412de560a0e3c00650a0e5000500e220e30002e0'
p847
L276L
tp848
a(S'__malloc_assert'
p849
S'4cc0009ce540a0e5d0005ee3e015309f050e30e520e500'
p850
L68L
tp851
a(S'detach_arena'
p852
S'0050e3ff01e50002000143e234e5ffe1402de520e500'
p853
L56L
tp854
a(S'get_free_list'
p855
g17
L384L
tp856
a(S'new_heap'
p857
S'018031e3412de5d03d0651e3008a9fe55043e200e0300050e350050a60a0e330e520e516a0eb6087017000e1000a34e3c3e300180001a0eb60a0e330e360'
p858
L408L
tp859
a(S'mremap_chunk'
p860
g17
L412L
tp861
a(S'ptmalloc_init'
p862
S'702de5519fe524e5d00095e50004'
p863
L336L
tp864
a(S'arena_get2.part.2'
p865
S'f84f2de585e5a053e370e14498e5001a30e3300a9fe550890143e200685096e50058559f0501a0e140a0e5000500e3e0e1'
p866
L1444L
tp867
a(S'arena_get_retry'
p868
S'4431e900e180200000e510e120e5000500e3e0e1'
p869
L332L
tp870
a(S'_dl_tunable_set_mallopt_check'
p871
S'0090e5001eff019fe5e0e520e3e0e5c0309fe530e5e0e500e5e0e500e5'
p872
L80L
tp873
a(S'__malloc_info.part.6'
p874
S'cc24e54f2de2d000a0e514e530e510e530e530e530e528e114e530e530e37feb10e530e1001aa0e3e0e1'
p875
L1236L
tp876
a(S'systrim.isra.1.constprop.7'
p877
g17
L196L
tp878
a(S'_int_free'
p879
g17
L2928L
tp880
a(S'sysmalloc'
p881
g17
L1952L
tp882
a(S'_int_malloc'
p883
S'0b81'
p884
L3884L
tp885
a(S'malloc_check'
p886
S'0170'
p887
L252L
tp888
a(S'tcache_init.part.3'
p889
S'68412deb30e700000a10e140a0e5000500e3e0e1'
p890
L368L
tp891
a(S'_int_memalign'
p892
g17
L464L
tp893
a(S'memalign_check'
p894
S'0850e3009a2d8a001093008a60a0e510e330e1001aa0e3e0e1'
p895
L384L
tp896
a(S'_int_realloc'
p897
g17
L868L
tp898
a(S'__malloc_fork_lock_parent'
p899
S'ac30e5001effd12de320e330e1001aa0e3e0e1'
p900
L180L
tp901
a(S'__malloc_fork_unlock_parent'
p902
g17
L240L
tp903
a(S'__malloc_fork_unlock_child'
p904
S'889fe534e5001effd1402deb409fe530e3206800e30001a0150520e150840350e1141503a0e534e5e01353e1'
p905
L144L
tp906
a(S'__malloc_check_init'
p907
S'3c9fe5e0e520e3e0e5c0309fe530e5e0e500e5e0e500e5'
p908
L68L
tp909
a(S'malloc'
p910
S'109fe530e3001a20e3412d9300e1008a30e3001a62eb60860496e54042e200a471e1000a22e50029000093e50041001a10e1f7eb6050e2000a16e500e3001a1327000a3023a0e130e1000a9fe522e502eb20e30000a083'
p911
L792L
tp912
a(S'malloc_hook_ini'
p913
S'1c9fe5402de340a0e5ee'
p914
L36L
tp915
a(S'_mid_memalign'
p916
S'd89fe5412de50041001a0000a0e1009a003c000042e00027003a2000128e001050e3000a60a0e100fc'
p917
L736L
tp918
a(S'memalign_hook_ini'
p919
S'2c9fe5402de360a0e150a0e5ed'
p920
L52L
tp921
a(S'free'
p922
S'd89fe530e3001a0000a001100840e200e3001a402deb409fe5d000840490e500000a1321a011201508'
p923
L212L
tp924
a(S'__malloc_arena_thread_freeres'
p925
S'6031e900835090e500120000a0e340854f6f85048030e5000530e5'
p926
L360L
tp927
a(S'realloc_hook_ini'
p928
S'2c9fe520e900e150a0e530eb10e140bd'
p929
L52L
tp930
a(S'memalign'
p931
S'042de1e0e4fd'
p932
L16L
tp933
a(S'valloc'
p934
S'349fe5402de550a0e340a0ba0510e540bdea'
p935
L60L
tp936
a(S'pvalloc'
p937
S'709fe5402de550a0e340a0ba10e00093e5c05ce1003a1004810510e000e8249fe520e7ae'
p938
L120L
tp939
a(S'calloc'
p940
S'f84f2de100e330230000a0e360a0e0001a93e5005d001a9fe5ae'
p941
L956L
tp942
a(S'malloc_trim'
p943
S'709fe54f2de5d00053e300ba00a0e130e320e330e1001aa0e3e0e1'
p944
L632L
tp945
a(S'mallinfo'
p946
S'3c9fe5472de5919fe5d00099e50000'
p947
L324L
tp948
a(S'malloc_stats'
p949
S'ec11e524e54f2de5d00052e330e500baccb1e530e120e520e180000001a0e300eb40a0e320e5000500e3e0e1'
p950
L500L
tp951
a(S'mallopt'
p952
g17
L464L
tp953
a(S'posix_memalign'
p954
S'21a0e230e0c00c93e1402d1340a0e340a0e3001a30e120e110eb000400008504a0e870bde3'
p955
L108L
tp956
a(S'malloc_info'
p957
S'0050e3001a30e901e1000700ba209fe581e140bdea2fe1e8'
p958
L72L
tp959
a(S'__default_morecore'
p960
S'10e9017000a0'
p961
L20L
tp962
a(S'strchr'
p963
S'0310ff010f0a30e5001eff01003b00018000ea80001eff01002b00031303a01a2de5409fe506e060860668000352e50020000053e3000a300c53e1000a0015300c53e1000a00100002a0e1e0e450e010e010e030e030e030e3'
p964
L280L
tp965
a(S'strcmp'
p966
S'01d001d10053e3000a00f9'
p967
L40L
tp968
a(S'strcpy'
p969
S'702de100e100eb10e200e8'
p970
L40L
tp971
a(S'strcspn'
p972
g17
L352L
tp973
a(S'strdup'
p974
S'702de100eb408000eb0070bde110e8'
p975
L48L
tp976
a(S'strlen'
p977
S'03c020e2000400ff8230ffc30153e228e30c130813041380201a00e30013001300'
p978
L96L
tp979
a(S'strncmp'
p980
S'0352e3402d9ac2e0e250851b00035ce5605ee54053e040a0e340a0e3001a30605ee54053e040a0e340a0e3001a30405ee5c0e0130001a0e3001ae0e2000a5ce5405ee500e010e310e3100a43e08004a0e3'
p981
L316L
tp982
a(S'critical_factorization'
p983
g17
L272L
tp984
a(S'two_way_long_needle'
p985
g17
L1016L
tp986
a(S'strstr'
p987
g17
L1120L
tp988
a(S'memcmp'
p989
g17
L1060L
tp990
a(S'memmove'
p991
S'0150e0000c0002810452e200ba0451f53000031139001c52e201ba60202051f5020060'
p992
L832L
tp993
a(S'memset'
p994
S'00a0e3003a00e3101420fb'
p995
L124L
tp996
a(S'mempcpy'
p997
S'10e91d00'
p998
L20L
tp999
a(S'stpcpy'
p1000
S'702de100e1fb'
p1001
L48L
tp1002
a(S'strcasecmp_l'
p1003
S'0150e1000a2de5c020e530e401e700049d1400f7ff049de400'
p1004
L64L
tp1005
a(S'memcpy'
p1006
S'11e92b0000d1300003113a001c52e201ba60201cd102005c'
p1007
L816L
tp1008
a(S'rawmemchr'
p1009
S'0051e3001a402de1fa'
p1010
L36L
tp1011
a(S'strchrnul'
p1012
S'0310ff010c0000d0035ce1001eff0130ea52e1001eff0100e3001a2de5409fe506e060860668000251e5000c5311000a300c53e10017000a00e1e0e450e030e030e020e020e020e3'
p1013
L228L
tp1014
a(S'wmempcpy'
p1015
S'02a0'
p1016
L8L
tp1017
a(S'mbsrtowcs'
p1018
S'702de5509fe5409fe7d000e1a4'
p1019
L28L
tp1020
a(S'_nl_cleanup_ctype'
p1021
S'10e90054e380148030e5000394e804a0e8'
p1022
L60L
tp1023
a(S'__wcsmbs_getfct'
p1024
g17
L116L
tp1025
a(S'__wcsmbs_load_conv'
p1026
g17
L464L
tp1027
a(S'__wcsmbs_clone_conv'
p1028
S'7c9fe5402de740a0'
p1029
L20L
tp1030
a(S'__wcsmbs_named_conv'
p1031
S'702de240a0e550a0eb0000840800052032'
p1032
L96L
tp1033
a(S'__mbsrtowcs_l'
p1034
g17
L856L
tp1035
a(S'clock'
p1036
S'10e9104de23002a0e511eb000f1a30e520e0120161e0a0e121e003e530030010'
p1037
L116L
tp1038
a(S'time'
p1039
S'30e9144de250a0e510e230eb20e50000e0049d050085010014'
p1040
L84L
tp1041
a(S'gettimeofday'
p1042
S'804e70e300ef017000a08a00e80060e220'
p1043
L48L
tp1044
a(S'__alloc_dir'
p1045
g17
L172L
tp1046
a(S'opendir_tail'
p1047
S'30e9744de2306c30ba0500eb001300'
p1048
L160L
tp1049
a(S'__opendirat'
p1050
S'10e90053e3000a9fe508eb40bdeaa0e7'
p1051
L48L
tp1052
a(S'opendir'
p1053
S'10e90053e3000a9fe5070010e8189fe510e7'
p1054
L48L
tp1055
a(S'closedir'
p1056
S'0050e2402d0a4093e5f1'
p1057
L48L
tp1058
a(S'readdir'
p1059
S'6031e9048050a0e1a1a0e740a0e5000500e3e0e1'
p1060
L360L
tp1061
a(S'__getdents'
p1062
g17
L388L
tp1063
a(S'sleep'
p1064
S'702de530e220e530e340a0e5a090e730ea00049de5012083e230e130e000eb00f1'
p1065
L172L
tp1066
a(S'nanosleep'
p1067
S'9830e90053e3001a00ef017000e1008aa0e801e10e00a210e100ef017000e1008a00eb'
p1068
L120L
tp1069
a(S'fork'
p1070
g17
L376L
tp1071
a(S'_exit'
p1072
S'8000a0e300ef01700a0001e300ef017004000060e220eb30e710e210'
p1073
L84L
tp1074
a(S'getpid'
p1075
S'042de300ef049de4ff'
p1076
L20L
tp1077
a(S'getppid'
p1078
S'042de300ef049de4ff'
p1079
L20L
tp1080
a(S'setsid'
p1081
S'042de300ef049de40a1eff3100'
p1082
L28L
tp1083
a(S'sysconf'
p1084
g17
L1796L
tp1085
a(S'sched_yield'
p1086
S'042de300ef049de40a1eff31'
p1087
L28L
tp1088
a(S'__get_child_max'
p1089
S'10e9104de2300600e504eb20e500049d050352e1001ad0e8'
p1090
L72L
tp1091
a(S'__fxstat64'
p1092
S'8001a0e310ef017000a08a00e80060e220'
p1093
L56L
tp1094
a(S'open'
p1095
S'0e00e908e520e530e210e5001a00e1000a00e5001500e370e500ef017000e1008a9de530e100290010'
p1096
L284L
tp1097
a(S'read'
p1098
S'a0412de50006001a70e300ef017000e1008aa0e801e140a0eb70e310e130e100ef017000e1008a00eb'
p1099
L128L
tp1100
a(S'write'
p1101
S'a0412de50006001aa0ef017000e1008aa0e801e140a0eb70e310e130e100ef017000e1008a00eb'
p1102
L128L
tp1103
a(S'lseek64'
p1104
S'b02de5d003a0e530e530e300ef01700800c01100019de530e1001ad0e80060e220eb10e330e3'
p1105
L120L
tp1106
a(S'fcntl'
p1107
S'0e00e90c9fe510e520e260a0e520e500039f976f00ea03e8630063006300630003e86300630063006300630063006300630063006300630063006300630063006300630063006300032c03a8036032e530e500b0d4b2d40c94e51fa0e13fa0e1e1e1c053001a00e210e300ef017000000095e500e1001a'
p1108
L800L
tp1109
a(S'close'
p1110
S'9030e90053e3001a70e300ef017000e1008aa0e8c80670e330e100ef017000e1008a00eb'
p1111
L112L
tp1112
a(S'chdir'
p1113
S'042de300ef049de40a1eff'
p1114
L28L
tp1115
a(S'getcwd'
p1116
S'149fe54f2de5d000a0e5001a009d001a03eb0a00a0b300e5ea00e2001a000aa011'
p1117
L1756L
tp1118
a(S'readlink'
p1119
S'042de300ef049de40a1eff'
p1120
L28L
tp1121
a(S'unlink'
p1122
S'042de300ef049de40a1eff'
p1123
L28L
tp1124
a(S'__close_nocancel'
p1125
S'800670e300ef017000a08a00e80060e220'
p1126
L48L
tp1127
a(S'__fcntl64_nocancel_adjusted'
p1128
S'a89fe5402de5d00951e3c0dde300ef017000a08a9de530e100190014'
p1129
L176L
tp1130
a(S'__fcntl64_nocancel'
p1131
S'0e00e90c4de230e520e530e5'
p1132
L80L
tp1133
a(S'__open_nocancel'
p1134
S'0e00e98ce520e530e210e5001ae500e1000ae06800ef017000a08a9de5200251e1001ad0e81effe100e500ea60e220eb30e310'
p1135
L160L
tp1136
a(S'__openat_nocancel'
p1137
S'0c2de984e520e530e2c0709fe5c00d70e500ef017000a08a9de5200251e1001a'
p1138
L152L
tp1139
a(S'__openat64_nocancel'
p1140
S'0c2de988e520e530e2c0749fe5c00e000a28e500ef017000a08a9de5200251e1001a'
p1141
L156L
tp1142
a(S'__read_nocancel'
p1143
S'8003e300ef017000a08a00e80060e220'
p1144
L48L
tp1145
a(S'__write_nocancel'
p1146
S'8004a0ef017000a08a00e80060e220'
p1147
L48L
tp1148
a(S'getrlimit'
p1149
S'80bf00ef017000a08a00e80060e220'
p1150
L48L
tp1151
a(S'sbrk'
p1152
S'702de550a0e500000a93e5000f1a000b001400053033001530e330e398'
p1153
L184L
tp1154
a(S'ioctl'
p1155
S'042de300ef049de40a1eff31'
p1156
L28L
tp1157
a(S'getpagesize'
p1158
S'209fe500e3ff11402de520e500'
p1159
L40L
tp1160
a(S'getdtablesize'
p1161
S'10e9104de2300700e5'
p1162
L72L
tp1163
a(S'select'
p1164
S'b09fe5412de500001a409de570e300ef017000e1008aa0e801e150a0e1060004a0e120e580'
p1165
L144L
tp1166
a(S'mmap'
p1167
S'b02de5ca2ca0e3001a409de570e300ef01700a0003a0e81610e730e398'
p1168
L108L
tp1169
a(S'mmap64'
p1170
S'b02de5e0e54aa0e34aa0e34094e1001aa0e1409de570e300ef01700a0003a0e81610e730e398'
p1171
L124L
tp1172
a(S'munmap'
p1173
S'042de300ef049de40a1eff'
p1174
L28L
tp1175
a(S'mprotect'
p1176
S'042de300ef049de40a1eff'
p1177
L28L
tp1178
a(S'madvise'
p1179
S'042de300ef049de40a1eff'
p1180
L28L
tp1181
a(S'trecurse'
p1182
S'0490e5402de340a0e160a01a30e3000aa0e110e100140004a0e110e10009000620e130e340bde130e340bde120e1'
p1183
L168L
tp1184
a(S'tdestroy_recurse'
p1185
S'702de100e100e3001a0008000094e5ffe100e8'
p1186
L84L
tp1187
a(S'maybe_split_for_insert.isra.0'
p1188
g17
L408L
tp1189
a(S'tsearch'
p1190
g17
L336L
tp1191
a(S'tfind'
p1192
S'0051e3402de160a01a00ea2fe1100050e3000a840540d4f4'
p1193
L80L
tp1194
a(S'tdelete'
p1195
S'5c352de2d000e230e230e5000a5096e550d5280002a0e130e370e3a0000096e5000550c230a501c3b360850053e3408414000093e500e13018000457e151a01a870721e220e3d00aa0e120e5f1'
p1196
L1380L
tp1197
a(S'twalk'
p1198
S'0050e3001eff0120'
p1199
L20L
tp1200
a(S'tdestroy'
p1201
S'0050e3ff'
p1202
L12L
tp1203
a(S'next_line'
p1204
S'f84f2de54093e570e180a0e120e110e176eb00080001e240870096e5004a003a000a'
p1205
L404L
tp1206
a(S'sysinfo_mempages'
p1207
S'702de150a0eb00015483a09aa0e300fa'
p1208
L84L
tp1209
a(S'get_nprocs'
p1210
S'ac32e9244de200e530e5'
p1211
L692L
tp1212
a(S'get_nprocs_conf'
p1213
g17
L216L
tp1214
a(S'get_phys_pages'
p1215
S'10e948d00094e500e500eb20e5000400389de500e240bd'
p1216
L68L
tp1217
a(S'get_avphys_pages'
p1218
S'10e948d00094e500e500eb20e5000400389de500e240bd'
p1219
L68L
tp1220
a(S'__getclktck'
p1221
S'0c9fe500e300'
p1222
L20L
tp1223
a(S'__init_misc'
p1224
S'702de2800055e3802f10eb30e3508050832070'
p1225
L64L
tp1226
a(S'mremap'
p1227
S'9000e570e300ef9000e3ff'
p1228
L32L
tp1229
a(S'prctl'
p1230
S'9000e570e300ef9000e3ff'
p1231
L32L
tp1232
a(S'sysinfo'
p1233
S'042de300ef049de40a1eff31'
p1234
L28L
tp1235
a(S'accept'
p1236
S'a0412de50006001a00ef017000e1008aa0e801e140a0eb70e510e130e100ef017000e1008a00eb'
p1237
L128L
tp1238
a(S'bind'
p1239
S'042de500ef049de40a1eff31'
p1240
L28L
tp1241
a(S'connect'
p1242
S'a0412de50006001a00ef017000e1008aa0e801e140a0eb70e510e130e100ef017000e1008a00eb'
p1243
L128L
tp1244
a(S'getsockname'
p1245
S'042de500ef049de40a1eff3100'
p1246
L28L
tp1247
a(S'getsockopt'
p1248
S'9000e570e500ef9000e3ff3109'
p1249
L32L
tp1250
a(S'listen'
p1251
S'042de300ef049de40a1eff3108'
p1252
L28L
tp1253
a(S'recv'
p1254
S'a89fe5412de500001a00ef017000e1008aa0e801e150a0e100eb10e130e100e500ef017000e1008a00eb'
p1255
L136L
tp1256
a(S'recvfrom'
p1257
S'b8412de500001a409de5509de57fe300ef017000e1008aa0e801e150a0e100eb20e110e5509de580497fe300ef017000e1008a00eb'
p1258
L152L
tp1259
a(S'send'
p1260
S'a89fe5412de500001a00ef017000e1008aa0e801e150a0e100eb10e130e100e500ef017000e1008a00eb'
p1261
L136L
tp1262
a(S'sendto'
p1263
S'b8412de500001a409de5509de570e500ef017000e1008aa0e801e150a0e100eb20e110e5509de5805470e500ef017000e1008a00eb'
p1264
L152L
tp1265
a(S'setsockopt'
p1266
S'9000e570e500ef9000e3ff3108'
p1267
L32L
tp1268
a(S'socket'
p1269
S'042de500ef049de40a1eff3100'
p1270
L28L
tp1271
a(S'__libc_alloca_cutoff'
p1272
S'042de192'
p1273
L12L
tp1274
a(S'__lll_lock_wait_private'
p1275
g17
L140L
tp1276
a(S'__libc_enable_asynccancel'
p1277
g17
L188L
tp1278
a(S'__libc_disable_asynccancel'
p1279
S'02101eff11412deb6e40e254100046e270e310e140a0e5000500e3e0e1'
p1280
L188L
tp1281
a(S'__register_atfork'
p1282
g17
L400L
tp1283
a(S'__unregister_atfork'
p1284
g17
L380L
tp1285
a(S'__run_fork_handlers'
p1286
g17
L368L
tp1287
a(S'clock_gettime'
p1288
S'0150e3402de5009a7000a08a00e8017000a09a60e220eb30e310ea60e220'
p1289
L100L
tp1290
a(S'__stack_chk_fail_local'
p1291
S'10e900a0'
p1292
L16L
tp1293
a(S'__fortify_fail_abort'
p1294
S'80488048609fe550a0e100eaa0eb0001a001'
p1295
L84L
tp1296
a(S'__fortify_fail'
p1297
S'00a0e9e3'
p1298
L16L
tp1299
a(S'inet_aton'
p1300
g17
L48L
tp1301
a(S'inet_addr'
p1302
S'10e9084de23004'
p1303
L28L
tp1304
a(S'_dl_debug_initialize'
p1305
S'0051e331155c301093e5000c000050e3000a20e520e010e720e500e1ffe120e32005'
p1306
L112L
tp1307
a(S'do_tunable_update_val'
p1308
S'0890e500000a0000e160c141c0000a00000a0001a0330002560130920053e3301130151effe1000510b3000730e030a201a0113015050001a0330002560130920053e3'
p1309
L216L
tp1310
a(S'tunable_initialize'
p1311
S'0890e5402de320e240a0e1200501a0e395000d00e110e1'
p1312
L76L
tp1313
a(S'__tunable_set_val'
p1314
S'089fe50180e0'
p1315
L16L
tp1316
a(S'__tunables_init'
p1317
S'5c352de5d00053e3b0e1011a004f000a409be500000a00e5608b3d800058e3010aa0e2800053e300fa'
p1318
L1380L
tp1319
a(S'__tunable_get_val'
p1320
S'80e1c00043e0e1e0e0e5000ef19f970300ec9c033003ec9c030043e0e1e0e0e5e0e53083e1100052e3101200308300122fe1e0e0e1e042cee140c1'
p1321
L140L
tp1322
a(S'_dl_aux_init'
p1323
S'0090e523e300019fe54f2de5d030'
p1324
L948L
tp1325
a(S'_dl_non_dynamic_init'
p1326
g17
L2044L
tp1327
a(S'__libc_init_secure'
p1328
S'4830e5001eff11402deb40a0eb00000a30e58000e16e000054e000'
p1329
L80L
tp1330
a(S'_dl_mcount_wrapper'
p1331
S'042de100e49200'
p1332
L20L
tp1333
a(S'_dl_mcount_wrapper_check'
p1334
S'1c9fe5e0e530e3'
p1335
L36L
tp1336
a(S'_dl_discover_osversion'
p1337
S'30e94000eb00c202001a40a0e130e530ff030952e3008ac00181ff02095ee3008ac0038330e2e0e200f8'
p1338
L264L
tp1339
a(S'__libc_init_first'
p1340
g17
L148L
tp1341
a(S'__syscall_error'
p1342
S'0060e210e10ae3e0e1'
p1343
L48L
tp1344
a(S'__gconv_open'
p1345
g17
L1116L
tp1346
a(S'__gconv'
p1347
g17
L476L
tp1348
a(S'__gconv_alias_compare'
p1349
S'0091e500'
p1350
L12L
tp1351
a(S'derivation_compare'
p1352
S'702de150a0e510eb0070bde5001c'
p1353
L48L
tp1354
a(S'__gconv_get_modules_db'
p1355
S'049fe500'
p1356
L12L
tp1357
a(S'__gconv_get_alias_db'
p1358
S'049fe500'
p1359
L12L
tp1360
a(S'__gconv_release_step'
p1361
S'702de100e3000a300053e3305420e55092e500055025e1fd'
p1362
L132L
tp1363
a(S'find_derivation'
p1364
g17
L2540L
tp1365
a(S'__gconv_compare_alias'
p1366
g17
L252L
tp1367
a(S'__gconv_find_transform'
p1368
g17
L904L
tp1369
a(S'__gconv_close_transform'
p1370
g17
L248L
tp1371
a(S'insert_module'
p1372
g17
L232L
tp1373
a(S'detect_conflict'
p1374
S'4830e90054e3000a50a0ea94a50054e3000a10b5'
p1375
L80L
tp1376
a(S'add_module.isra.0'
p1377
g17
L900L
tp1378
a(S'add_alias2.isra.1.part.2'
p1379
g17
L108L
tp1380
a(S'__gconv_get_path'
p1381
S'684f2de2d00093e530e523e340a0e5000500e3e0e1'
p1382
L880L
tp1383
a(S'__gconv_read_conf'
p1384
S'4424e54f2debb0e234e5d00092e520e530e130e519eb00f60a34e530e3000a20e500f79fe520080b0493e510e530e3d00d00e5dceb20e5dceb13e19f'
p1385
L1100L
tp1386
a(S'__gconv_get_builtin_trans'
p1387
g17
L160L
tp1388
a(S'__gconv_btwoc_ascii'
p1389
S'80e30013ff'
p1390
L16L
tp1391
a(S'__gconv_transform_internal_ucs4'
p1392
g17
L1124L
tp1393
a(S'__gconv_transform_ucs4_internal'
p1394
g17
L1440L
tp1395
a(S'__gconv_transform_internal_ucs4le'
p1396
g17
L1096L
tp1397
a(S'__gconv_transform_ucs4le_internal'
p1398
g17
L1452L
tp1399
a(S'__gconv_transform_ascii_internal'
p1400
g17
L736L
tp1401
a(S'__gconv_transform_internal_ascii'
p1402
g17
L1900L
tp1403
a(S'__gconv_transform_internal_utf8'
p1404
g17
L2820L
tp1405
a(S'__gconv_transform_utf8_internal'
p1406
g17
L3196L
tp1407
a(S'__gconv_transform_ucs2_internal'
p1408
g17
L1740L
tp1409
a(S'__gconv_transform_internal_ucs2'
p1410
g17
L2496L
tp1411
a(S'__gconv_transform_ucs2reverse_internal'
p1412
g17
L1776L
tp1413
a(S'__gconv_transform_internal_ucs2reverse'
p1414
g17
L2560L
tp1415
a(S'__gconv_transliterate'
p1416
g17
L1092L
tp1417
a(S'find_module_idx'
p1418
g17
L232L
tp1419
a(S'find_module'
p1420
g17
L244L
tp1421
a(S'__gconv_get_cache'
p1422
S'049fe500'
p1423
L12L
tp1424
a(S'__gconv_load_cache'
p1425
g17
L464L
tp1426
a(S'__gconv_compare_alias_cache'
p1427
S'9c30e994409fe5d00094e500300a50a0e260a0e1'
p1428
L164L
tp1429
a(S'__gconv_lookup_cache'
p1430
g17
L1136L
tp1431
a(S'__gconv_release_cache'
p1432
S'0c9fe530e3ff01b7'
p1433
L20L
tp1434
a(S'known_compare'
p1435
S'0091e500'
p1436
L12L
tp1437
a(S'do_release_shlib'
p1438
S'702de240a0e340a0e38000e520e5000c0002830070bde200048570bde50070bdeb408570bde300da30048280aa20e500'
p1439
L144L
tp1440
a(S'__gconv_find_shlib'
p1441
g17
L400L
tp1442
a(S'__gconv_release_shlib'
p1443
S'0c9fe510e500'
p1444
L20L
tp1445
a(S'_nl_postload_ctype'
p1446
S'68402d'
p1447
L12L
tp1448
a(S'__current_locale_name'
p1449
S'1c9fe5e0e520e1'
p1450
L20L
tp1451
a(S'__ctype_b_loc'
p1452
S'109fe5e0e5'
p1453
L12L
tp1454
a(S'__ctype_toupper_loc'
p1455
S'149fe5e0e5'
p1456
L12L
tp1457
a(S'__ctype_tolower_loc'
p1458
S'149fe5e0e5'
p1459
L12L
tp1460
a(S'__ctype_init'
p1461
S'4030e5'
p1462
L12L
tp1463
a(S'__setfpucw'
p1464
S'389fe530e520e230012aee209fe50ae300e330e000e1ff012aee1eff'
p1465
L64L
tp1466
a(S'__sigsetjmp'
p1467
S'6cc0c0009ce5c00223048c02e0304430e530e720e3000a8b05a1ecec02ecec02ecec02ecec02ecec0300'
p1468
L116L
tp1469
a(S'__sigjmp_save'
p1470
S'0051e3402de1001a1110a0e12f844d79eb1f6fe112'
p1471
L56L
tp1472
a(S'_quicksort'
p1473
S'ecc39fe54f2de5df0051e300e5519de5000a70e10000a0e221e040a0e120e5009a'
p1474
L1012L
tp1475
a(S'__add_to_environ'
p1476
g17
L1092L
tp1477
a(S'setenv'
p1478
S'0050e2402d0a30e5000b0001e110e140a0eb2004000630e100e8149fe520e763'
p1479
L88L
tp1480
a(S'unsetenv'
p1481
g17
L344L
tp1482
a(S'clearenv'
p1483
g17
L252L
tp1484
a(S'secure_getenv'
p1485
S'149fe530e3001a'
p1486
L28L
tp1487
a(S'read_int'
p1488
S'0090e5402de5509fe541e03041e220e530e5300953e3008a00f7'
p1489
L104L
tp1490
a(S'group_number'
p1491
S'f84f2de570e100ff00fd0001e1909de5009abde1b0e0a0a0eb10e1808de000018a06202ae0e2000152e20001e2001a00e6ff0144e00014000245e200e0c0c002e1200285005ce3'
p1492
L260L
tp1493
a(S'_i18n_number_rewrite'
p1494
g17
L596L
tp1495
a(S'_IO_helper_overflow'
p1496
S'd0c0402de0d000e150a00a10e530e0300c53e1009aa0e1ffe130037300e1008a000610eb3014841894e500e1208550c385009abde587eb20e2'
p1497
L204L
tp1498
a(S'printf_positional'
p1499
g17
L8116L
tp1500
a(S'vfprintf'
p1501
g17
L8532L
tp1502
a(S'buffered_vfprintf'
p1503
g17
L616L
tp1504
a(S'hack_digit'
p1505
S'0090e5402de3d002000490e5004a000a30e1001090e55090e5000a002700ca90e510e510e100e160001094e5200243e001e56091e500108439000c94e5310395e760860051e3311a10030004330141e20009000051e310f7ff01a0e13070bde330e100eb0004001094e5201084038200e2800aa0e210e16195e763eb608604850600e2800053e330088060a0da00e280d4'
p1506
L376L
tp1507
a(S'_i18n_number_rewrite_0'
p1508
g17
L596L
tp1509
a(S'__guess_grouping.part.0'
p1510
S'10e900d10530e54084ff53e3000a00050003a0e0'
p1511
L88L
tp1512
a(S'__printf_fp_l'
p1513
g17
L8624L
tp1514
a(S'__printf_fp'
p1515
S'30e900e1409fe747'
p1516
L20L
tp1517
a(S'__guess_grouping'
p1518
S'00d10143e230e200000000a0'
p1519
L32L
tp1520
a(S'__printf_fphex'
p1521
S'0d4f2de331e2b0e130e21f9fe530e510e530e110e5001a46'
p1522
L5280L
tp1523
a(S'register_printf_modifier'
p1524
S'0090e5412de20000910200ff54e3008ab50054e3'
p1525
L436L
tp1526
a(S'__handle_registered_modifier_mb'
p1527
g17
L228L
tp1528
a(S'__handle_registered_modifier_wc'
p1529
g17
L232L
tp1530
a(S'fprintf'
p1531
S'0e00e90c4de230e1c030e5e6'
p1532
L44L
tp1533
a(S'read_int_0'
p1534
S'0090e5c030e902e00492e54082100951e3008a001a000600ca8330e00003810892e54082300953e3008ab23043e2000530e3'
p1535
L168L
tp1536
a(S'group_number_0'
p1537
g17
L188L
tp1538
a(S'_i18n_number_rewrite_1'
p1539
g17
L324L
tp1540
a(S'_IO_helper_overflow_0'
p1541
S'5c30e90c93e5d00455e160a0e1000ae520e530e0300153e1109aa0e520e130037300a08ae541a0e520048020eb30e54042e0408320e120070085009abde100e241bdea'
p1542
L236L
tp1543
a(S'printf_positional_0'
p1544
g17
L8492L
tp1545
a(S'vfwprintf'
p1546
g17
L8816L
tp1547
a(S'buffered_vfprintf_0'
p1548
g17
L640L
tp1549
a(S'funlockfile'
p1550
g17
L128L
tp1551
a(S'read_int_1'
p1552
S'0090e5402de5509fe541e03041e220e530e5300953e3008a00f7'
p1553
L104L
tp1554
a(S'__parse_one_specmb'
p1555
g17
L2080L
tp1556
a(S'read_int_2'
p1557
S'0090e5c030e902e00492e54082100951e3008a001a000600ca8330e00003810892e54082300953e3008ab23043e2000530e3'
p1558
L168L
tp1559
a(S'__parse_one_specwc'
p1560
g17
L2096L
tp1561
a(S'_IO_file_doallocate'
p1562
g17
L324L
tp1563
a(S'fputs'
p1564
g17
L388L
tp1565
a(S'_IO_wfile_doallocate'
p1566
S'1c90e5402de350a00a10e500e32003'
p1567
L108L
tp1568
a(S'fwrite'
p1569
S'f84f2de0000a4093e550a0e270e18017001a93e528eb30e2000e000a10e130e1001aa0e3e0e1'
p1570
L488L
tp1571
a(S'getdelim'
p1572
S'0051e300'
p1573
L740L
tp1574
a(S'_IO_getline_info'
p1575
g17
L372L
tp1576
a(S'_IO_getline'
p1577
S'042de2e0e5c004'
p1578
L36L
tp1579
a(S'_IO_padn'
p1580
g17
L288L
tp1581
a(S'_IO_wpadn'
p1582
g17
L284L
tp1583
a(S'save_for_wbackup.isra.0'
p1584
S'0091e54f2de1b0e530e5a0a0e000014ae011e251a011200ae0e520e140a0e3'
p1585
L468L
tp1586
a(S'_IO_least_wmarker'
p1587
S'5c20e500e30040010120e50002a0e3'
p1588
L56L
tp1589
a(S'_IO_switch_to_main_wget_area'
p1590
S'0090e530e3e0e5c00893e520e5e0e5c0088320'
p1591
L60L
tp1592
a(S'_IO_switch_to_wbackup_area'
p1593
S'0090e530e3e0e510e5c02093e5e0e510e520e5'
p1594
L60L
tp1595
a(S'_IO_wsetb'
p1596
g17
L92L
tp1597
a(S'_IO_wdefault_pbackfail'
p1598
g17
L360L
tp1599
a(S'_IO_wdefault_finish'
p1600
S'5c10e91891e50002003c94e5501311003094e500040000a0e530e3'
p1601
L128L
tp1602
a(S'_IO_wdefault_uflow'
p1603
S'702de55090e530e0300153e140a09aa0e1005c2004831015bf'
p1604
L84L
tp1605
a(S'__woverflow'
p1606
S'6c30e900e160a00a9fe55094e530e0300153e1009aa0e140bde110eb'
p1607
L92L
tp1608
a(S'_IO_wdefault_xsputn'
p1609
g17
L216L
tp1610
a(S'_IO_wdoallocbuf'
p1611
S'5c10e5001eff1130e900e1001a30e1001094e500e230e240bd'
p1612
L84L
tp1613
a(S'_IO_wdefault_doallocate'
p1614
S'10e902a0eb100500e329eb00e8'
p1615
L56L
tp1616
a(S'_IO_switch_to_wget_mode'
p1617
S'5c30e90c93e540a0e1009ae00c93e5ffe1001094e520e50ce3001a93e500e10035008320e500e5800883'
p1618
L132L
tp1619
a(S'_IO_free_wbackup_area'
p1620
S'0090e530e3402de1000a10e3202893e500e500e5c0fb73eb30208320e5'
p1621
L100L
tp1622
a(S'__wuflow'
p1623
S'6c30e300ba00e1000a3027001ae520e50028000094e50ce3000a00e52ce3200893e5c00883209528000052e3000a93e510e6'
p1624
L336L
tp1625
a(S'__wunderflow'
p1626
S'6c30e300ba00e1000a3027001ae520e50028000094e50ce3000a00e52ce3200893e5c0008300e5008a202520e2000050e3001a5094e530e0300153e1009aa0e804a0eb00d3ff00e070bde580f501eb00f7ff6c30'
p1627
L320L
tp1628
a(S'_IO_wdefault_xsgetn'
p1629
g17
L204L
tp1630
a(S'_IO_sputbackwc'
p1631
S'5c30e900e100e20004000150e120008320e530e0300053e1009aa0e100009415008430'
p1632
L132L
tp1633
a(S'_IO_sungetwc'
p1634
S'5c30e90893e540a0e1009a42e210e3300084309fe55090e530e0300153e1009ae004a0e1'
p1635
L116L
tp1636
a(S'_IO_adjust_wcolumn'
p1637
S'042de0000900041ee5300a5ce3001a00ea5ce3000a00fa'
p1638
L88L
tp1639
a(S'_IO_init_wmarker'
p1640
S'0091e5402de340a0e1101ae50ce330150243e031e520e5508470bde1'
p1641
L92L
tp1642
a(S'_IO_wmarker_delta'
p1643
S'0490e5000a000093e520e330150890e5304331e0ffe100e3ff'
p1644
L64L
tp1645
a(S'_IO_seekwmark'
p1646
S'0491e5002500e500042de230ba0893e5000ae0e51ce310e520e5c0288320e000e3'
p1647
L172L
tp1648
a(S'_IO_unsave_wmarkers'
p1649
S'3090e50000a0150053e3ff01'
p1650
L32L
tp1651
a(S'do_encoding'
p1652
S'2490e520e3001a00e50000a0e100e3ff'
p1653
L44L
tp1654
a(S'do_always_noconv'
p1655
S'00a0'
p1656
L8L
tp1657
a(S'do_max_length'
p1658
S'2490e500'
p1659
L12L
tp1660
a(S'do_in'
p1661
g17
L248L
tp1662
a(S'do_unshift'
p1663
g17
L216L
tp1664
a(S'do_out'
p1665
g17
L248L
tp1666
a(S'do_length'
p1667
g17
L192L
tp1668
a(S'_IO_fwide'
p1669
g17
L388L
tp1670
a(S'__libc_scratch_buffer_grow_preserve'
p1671
g17
L156L
tp1672
a(S'__libc_scratch_buffer_set_array_size'
p1673
S'702de120e1c00051e3c001a0e10112000495e50001a02a00e1000a70eb00eb3001a018300503a0e8d5'
p1674
L196L
tp1675
a(S'__libc_dynarray_at_failure'
p1676
S'2c9fe5e0e5d000'
p1677
L44L
tp1678
a(S'__libc_dynarray_emplace_enlarge'
p1679
S'0490e5412de3001a0012009642850055e3001aa0e100e10001e1000a10eb80000a30e9'
p1680
L228L
tp1681
a(S'strerror_r'
p1682
g17
L372L
tp1683
a(S'strnlen'
p1684
S'0051e3000a102300e3000a30e5000180001a00ea8300000a00e3201a003000c8c802a0e4c0000a53e500000ac000000ac000000ac000000a0003a08a0010a0e120e1000260802fe10002a0ea51e110ea51e110ea51e110ea'
p1685
L292L
tp1686
a(S'strrchr'
p1687
S'702de20000e160a01a00eaa0e110eb00f8'
p1688
L80L
tp1689
a(S'strtok_r'
p1690
g17
L116L
tp1691
a(S'memchr'
p1692
S'0052e3000a00e3402de2000a30e50070bde200ea0000d00183008003a01a00e80352e344040e4084048416009a9fe530e010e530e100e1001a8000ea8c04230610e100e1001a42e2000ca08a00e0ff00d00e0070bde030ea830070bde1001a'
p1693
L268L
tp1694
a(S'wcslen'
p1695
S'0090e5001e000a90e5001d30e3000a30e300ea820000a00a93e500e3ff0110e2001eff0193e530e3101a00e100e100e100e100'
p1696
L160L
tp1697
a(S'wmemcpy'
p1698
S'02a0'
p1699
L8L
tp1700
a(S'wmemmove'
p1701
S'02a0'
p1702
L8L
tp1703
a(S'wmemset'
p1704
S'0352e3009aa0e20010e510e510e510e5308a42e231e230e33201000083ff0100048310e10000a001'
p1705
L120L
tp1706
a(S'btowc'
p1707
g17
L404L
tp1708
a(S'wcrtomb'
p1709
S'bc00'
p1710
L88L
tp1711
a(S'wcsrtombs'
p1712
S'90c2'
p1713
L664L
tp1714
a(S'wcsnlen'
p1715
S'0051e3000a30e3000a0022000490e50023000251e3000a30e300ea2f0193e500ff0151e20001c01eff01000382ff0193e520e3ff01001083000ac0005ce3'
p1716
L192L
tp1717
a(S'wcschrnul'
p1718
S'0090e500035111ff01b00053e300fb'
p1719
L36L
tp1720
a(S'rewinddir'
p1721
g17
L212L
tp1722
a(S'readdir64'
p1723
S'6031e9048050a0e11ceb10e740a0e5000500e3e0e1'
p1724
L360L
tp1725
a(S'fdopendir'
p1726
S'30e9744de230e140a0e100e57eeb001800'
p1727
L216L
tp1728
a(S'uname'
p1729
S'042de300ef049de40a1eff3191'
p1730
L28L
tp1731
a(S'getuid'
p1732
S'042de300ef049de4ff'
p1733
L20L
tp1734
a(S'geteuid'
p1735
S'042de300ef049de4ff'
p1736
L20L
tp1737
a(S'getgid'
p1738
S'042de300ef049de4ff'
p1739
L20L
tp1740
a(S'getegid'
p1741
S'042de300ef049de4ff'
p1742
L20L
tp1743
a(S'__lxstat64'
p1744
S'8001a0e310ef017000a08a00e80060e220'
p1745
L56L
tp1746
a(S'__fxstatat64'
p1747
S'0350e3402d1a00e510e130ef01700e009a60e220e31ceb30e1801620e71ceb10e320ea'
p1748
L112L
tp1749
a(S'lseek'
p1750
g17
L184L
tp1751
a(S'isatty'
p1752
S'10e940d00094e510e500eb20e5000300106fe102e280'
p1753
L64L
tp1754
a(S'__open64_nocancel'
p1755
S'0e00e990409fe520e530e210e5001a9fe500e1000a28e370e500ef017000a08a9de5200251e1001ad0e81effe100e500ea60e220eb30e310'
p1756
L164L
tp1757
a(S'tcgetattr'
p1758
S'b02de5d00095e530e510e170e300ef017000e1008a001400089de520e520e0c0348310e520e500e520e510e3c00c'
p1759
L204L
tp1760
a(S'brk'
p1761
S'90402de170e300ef017006008a9fe5000082308a00e8389fe520e240e0401beb408100a0eaa0e71b'
p1762
L108L
tp1763
a(S'wctrans'
p1764
S'789fe5412de760a0eb30e54097e530e500120000e300ea85018030e7000a0004a0e170eb0004a01ae550850500e8'
p1765
L128L
tp1766
a(S'towctrans'
p1767
S'0051e3ff0130e533e1ff2121e3ff01c030e031e70010911502810380ff'
p1768
L92L
tp1769
a(S'__readonly_area'
p1770
g17
L476L
tp1771
a(S'is_dst'
p1772
S'702de100e170eb30e50000e1000a20e100eb00020000e300e820c2301953e3'
p1773
L168L
tp1774
a(S'is_trusted_path_normalize'
p1775
S'0051e3000a10e34b2de2d00d30e500eaa0e3000a0001d00180'
p1776
L368L
tp1777
a(S'add_name_to_object.isra.4'
p1778
g17
L188L
tp1779
a(S'lose.isra.6'
p1780
S'80017100e170e18010e5000a00eb00000a700000b5'
p1781
L120L
tp1782
a(S'_dl_map_object_from_fd.constprop.13'
p1783
g17
L3436L
tp1784
a(S'check_arm_attributes_hfabi.constprop.15'
p1785
g17
L768L
tp1786
a(S'open_verify.isra.9.constprop.14'
p1787
g17
L1560L
tp1788
a(S'open_path.isra.10'
p1789
g17
L1308L
tp1790
a(S'add_path.isra.3.constprop.16'
p1791
S'01711eff01412de550a0e170e300ea93e500e310328310e50081e500109ce5'
p1792
L196L
tp1793
a(S'_dl_dst_count'
p1794
g17
L144L
tp1795
a(S'_dl_dst_substitute'
p1796
g17
L360L
tp1797
a(S'expand_dynamic_string_token'
p1798
g17
L200L
tp1799
a(S'fillin_rpath'
p1800
g17
L700L
tp1801
a(S'cache_rpath.part.12'
p1802
S'088221e3000ac13490e5c0509ee500d00790850490e5001a20e700040000e000a0e5d0e809a0e150a0eb70e2000a30e50048000a20e30001e500e3'
p1803
L476L
tp1804
a(S'_dl_init_paths'
p1805
g17
L624L
tp1806
a(S'_dl_map_object'
p1807
g17
L2148L
tp1808
a(S'_dl_rtld_di_serinfo'
p1809
g17
L436L
tp1810
a(S'check_match'
p1811
g17
L416L
tp1812
a(S'do_lookup_x'
p1813
g17
L2752L
tp1814
a(S'_dl_lookup_symbol_x'
p1815
g17
L2892L
tp1816
a(S'_dl_setup_hash'
p1817
S'5031e3000a93e5402de521e54091e5c000140010810442e0c10c91e511e531e5800053e3ff0193e520e521e531e130e310e507'
p1818
L152L
tp1819
a(S'_dl_add_to_namespace_list'
p1820
S'b49fe5402de350a0e1000a00e130e000e120e3001a00ea92e500fb'
p1821
L188L
tp1822
a(S'_dl_new_object'
p1823
g17
L600L
tp1824
a(S'relocate_pc24.13574.isra.0'
p1825
g17
L296L
tp1826
a(S'_dl_try_allocate_static_tls'
p1827
S'4432e3000a90e530e10020008c9fe5c200e56061e23030e0509fe530e012e0c0015ce1003a90e532e531e510e2000a9fe530e100e803a0e331e5801effe100e3'
p1828
L184L
tp1829
a(S'_dl_allocate_static_tls'
p1830
S'4432e900e1000a'
p1831
L52L
tp1832
a(S'_dl_nothread_init_static_tls'
p1833
S'4432e93494e512'
p1834
L24L
tp1835
a(S'_dl_protect_relro'
p1836
S'6830e512e530e020020102030153e1ff01402de040a0e300eb00109fe5'
p1837
L88L
tp1838
a(S'_dl_reloc_bad_type'
p1839
S'5030e5d001e150a0e000eb20e130e2400403d204d200a0e110e5c002c000'
p1840
L88L
tp1841
a(S'_dl_relocate_object'
p1842
g17
L7392L
tp1843
a(S'_dl_important_hwcaps'
p1844
g17
L2128L
tp1845
a(S'_dl_debug_vdprintf'
p1846
g17
L976L
tp1847
a(S'_dl_sysdep_read_whole_file'
p1848
S'702de1d002a0e1deeb5050e240e0020070'
p1849
L144L
tp1850
a(S'_dl_debug_printf'
p1851
S'0fe5e0e5d014'
p1852
L60L
tp1853
a(S'_dl_debug_printf_c'
p1854
S'0fe5e0e5d014'
p1855
L60L
tp1856
a(S'_dl_dprintf'
p1857
S'0e00e5d010'
p1858
L52L
tp1859
a(S'_dl_name_match_p'
p1860
S'702de110e14f'
p1861
L92L
tp1862
a(S'_dl_higher_prime_number'
p1863
S'7c9fe5c04111e010e711e1009a92e731e1003a10e031e000c3301a00e1c00c52e1'
p1864
L132L
tp1865
a(S'_dl_strtoul'
p1866
g17
L484L
tp1867
a(S'_dl_start_profile'
p1868
S'249fe54f2de2df0093e53f8020e131e0005b012a15e000e520e220e350e210e24044e2e0e3c0208300120020130152e3'
p1869
L1580L
tp1870
a(S'_dl_mcount'
p1871
g17
L944L
tp1872
a(S'allocate_dtv'
p1873
S'309fe5402de550a0e300e248'
p1874
L56L
tp1875
a(S'oom'
p1876
S'02a0e99bfc'
p1877
L24L
tp1878
a(S'_dl_next_tls_modid'
p1879
S'702de510e54091e500020001840081a89fe500e2001a0000a0e560840092e5300e000b0083e030e3000a00e1'
p1880
L208L
tp1881
a(S'_dl_count_modids'
p1882
S'709fe530e500020030e5ffe130e5e0e50000a00a10e33012210052e300e1'
p1883
L120L
tp1884
a(S'_dl_get_tls_static_info'
p1885
S'149fe530e520e530'
p1886
L28L
tp1887
a(S'_dl_allocate_tls_storage'
p1888
S'849fe530e900e500e200eb5050e2000a0d8010e0ed'
p1889
L140L
tp1890
a(S'_dl_allocate_tls_init'
p1891
g17
L572L
tp1892
a(S'_dl_allocate_tls'
p1893
S'0050e3402d0a40bdeabd'
p1894
L36L
tp1895
a(S'_dl_deallocate_tls'
p1896
g17
L100L
tp1897
a(S'_dl_tls_get_addr_soft'
p1898
S'4832e3000a2deb10e510e5000501e300e400e110e5000e002a9fe500e1c004000490e5100090e500'
p1899
L148L
tp1900
a(S'_dl_add_to_slotinfo'
p1901
S'c49fe5412de15290e54093e500ea45e0000a0002e130f7ff00e5608685e070e56084'
p1902
L204L
tp1903
a(S'_dl_get_origin'
p1904
g17
L404L
tp1905
a(S'_dl_scope_free'
p1906
S'702de1f4'
p1907
L204L
tp1908
a(S'_dl_make_stack_executable'
p1909
S'5430e900e130e52002000093e55c'
p1910
L80L
tp1911
a(S'_dl_runtime_resolve'
p1912
S'1f00e51010018100a0e8'
p1913
L36L
tp1914
a(S'_dl_runtime_profile'
p1915
g17
L192L
tp1916
a(S'length_mismatch'
p1917
S'02a0e9f4f9'
p1918
L24L
tp1919
a(S'_dl_exception_create'
p1920
g17
L128L
tp1921
a(S'_dl_exception_create_format'
p1922
S'0c2de9084de260a0e5000a00eb8000e530e3300a00ea000aa0e340e5908903ff7354e3908902e5'
p1923
L480L
tp1924
a(S'_dl_exception_free'
p1925
S'10e90890e543'
p1926
L36L
tp1927
a(S'_dl_cache_libcmp'
p1928
S'10e900d1005ee3000a30ff030952e32040020b00280028000180e0e510e3c0ef'
p1929
L240L
tp1930
a(S'_dl_load_cache_lookup'
p1931
S'209fe54f2de2d00093e540a0e3011a9fe580310001784d010a95e906300a4be220e380'
p1932
L1576L
tp1933
a(S'_dl_unload_cache'
p1934
S'10e90094e53003731094e559'
p1935
L44L
tp1936
a(S'_dl_tlsdesc_return'
p1937
S'0090e5ff'
p1938
L8L
tp1939
a(S'_dl_tlsdesc_undefweak'
p1940
S'0e10e3e0e1'
p1941
L28L
tp1942
a(S'do_dlopen'
p1943
S'4010e530e9104de220e530e110e530e300'
p1944
L60L
tp1945
a(S'dlerror_run'
p1946
S'30e91c4de230e510e300e210e2c0'
p1947
L52L
tp1948
a(S'__libc_dlclose'
p1949
S'00a0e5'
p1950
L12L
tp1951
a(S'__libc_dlsym'
p1952
S'10e9184de200e510e530'
p1953
L36L
tp1954
a(S'__libc_dlvsym'
p1955
S'30e900d22c4de2c00053e300e510e5000a10e5001b0000e310e530e5'
p1956
L284L
tp1957
a(S'do_dlsym_private'
p1958
S'702de1509fe5d00c92e4c00095e500e5e0e5c0c001'
p1959
L128L
tp1960
a(S'do_dlsym'
p1961
S'00a0e4402de3d000e100e53f8104'
p1962
L72L
tp1963
a(S'do_dlvsym'
p1964
S'00a0e4402de2d000e100e53f810c'
p1965
L72L
tp1966
a(S'__libc_dlsym_private'
p1967
S'10e9184de200e510e530'
p1968
L36L
tp1969
a(S'__libc_register_dl_open_hook'
p1970
S'10e900e1'
p1971
L16L
tp1972
a(S'__libc_dlopen_mode'
p1973
S'10e9184de200e510e5e0e530'
p1974
L40L
tp1975
a(S'fatal_error'
p1976
S'9cc001e11000e5e0e50080849fe540a0e350a0010042de6c609fe5c00003'
p1977
L164L
tp1978
a(S'_dl_signal_exception'
p1979
S'4030e900e1'
p1980
L20L
tp1981
a(S'_dl_signal_error'
p1982
S'10e900e1409fe7'
p1983
L20L
tp1984
a(S'_dl_catch_exception'
p1985
S'ccc0c81b4de2e0e1c0c118'
p1986
L52L
tp1987
a(S'_dl_catch_error'
p1988
g17
L48L
tp1989
a(S'__longjmp'
p1990
S'00a0e4409fe520e04094e720049ce4402403a0e1bc4c20e520e730e3000a8b05a1fcec02fcec02fcec02fcec02fcec01b001a0'
p1991
L128L
tp1992
a(S'__mpn_cmp'
p1993
S'0152e2004a0391e7e0e5e1e700072102a000100a00ea310c5ee1001a30f9'
p1994
L104L
tp1995
a(S'__mpn_divrem'
p1996
g17
L1744L
tp1997
a(S'__mpn_lshift'
p1998
S'0142e2402de750630252e260800500e1e2e1e1408104343ca0e10020e570e1'
p1999
L100L
tp2000
a(S'__mpn_rshift'
p2001
S'0052e300'
p2002
L132L
tp2003
a(S'__mpn_mul'
p2004
g17
L860L
tp2005
a(S'__mpn_mul_1'
p2006
S'02'
p2007
L60L
tp2008
a(S'__mpn_impn_mul_n_basecase'
p2009
g17
L260L
tp2010
a(S'__mpn_impn_mul_n'
p2011
S'0113'
p2012
L972L
tp2013
a(S'__mpn_impn_sqr_n_basecase'
p2014
S'0091e5472de38002e1008a000a0002c1c28320daa3e1'
p2015
L256L
tp2016
a(S'__mpn_impn_sqr_n'
p2017
S'0112'
p2018
L808L
tp2019
a(S'__mpn_mul_n'
p2020
S'10e9084de2000094e5c003a00a000b000dc1d0e2c0101b0094e5000f1ad010'
p2021
L152L
tp2022
a(S'__mpn_sub_n'
p2023
g17
L128L
tp2024
a(S'__mpn_submul_1'
p2025
S'00e470e540a0ea95e040ace25057e070e540840480538c0152e2'
p2026
L92L
tp2027
a(S'__mpn_extract_double'
p2028
S'30e9d0e5c001e05fa0e214e316c100c083e0e5c001810480000f1a0000'
p2029
L224L
tp2030
a(S'_itoa_word'
p2031
S'c0e500'
p2032
L200L
tp2033
a(S'_itoa'
p2034
g17
L1264L
tp2035
a(S'_fitoa_word'
p2036
S'702de5d014'
p2037
L112L
tp2038
a(S'_fitoa'
p2039
S'702de5d040e0e540'
p2040
L120L
tp2041
a(S'_itowa'
p2042
g17
L1224L
tp2043
a(S'snprintf'
p2044
S'0c2de9084de2c00ca0e520e500'
p2045
L44L
tp2046
a(S'_IO_strn_overflow'
p2047
S'1c90e5412de20000e170e1000a90e5608030e510e119eb608410e550840484148418e500'
p2048
L88L
tp2049
a(S'vsnprintf'
p2050
g17
L140L
tp2051
a(S'init'
p2052
S'389fe500080010e92c9fe500e3301220e8048320'
p2053
L64L
tp2054
a(S'__dlerror'
p2055
g17
L496L
tp2056
a(S'check_free.isra.0'
p2057
S'702de50070bde110e13beb0070bde1'
p2058
L60L
tp2059
a(S'_dlerror_run'
p2060
S'4431e90c4de260a0e570e1000a9fe500e14095e500000a00040008d40053e3001a30e530e5200c84d5'
p2061
L332L
tp2062
a(S'__libc_register_dlfcn_hook'
p2063
S'10e9b1'
p2064
L12L
tp2065
a(S'__dladdr'
p2066
S'00a0e10a'
p2067
L12L
tp2068
a(S'__dladdr1'
p2069
S'0153e3000a0000a00a20ea'
p2070
L36L
tp2071
a(S'dlinfo_doit'
p2072
S'10e90990e90953e3f19f972700ea0600400600060040060040060040060090e50003a00a301094e520e58000a0e80c94e520e8ac11e540bdeaa0e522e58002a0e130'
p2073
L208L
tp2074
a(S'__dlinfo'
p2075
S'10e9184de200e5c000e520e5'
p2076
L48L
tp2077
a(S'dlmopen_doit'
p2078
S'0090e5402de3d014006020e5c00092e500e5c010e51000'
p2079
L124L
tp2080
a(S'__dlmopen'
p2081
S'10e9184de200e1c000e530e5'
p2082
L44L
tp2083
a(S'strerror'
p2084
S'00a0e900e1'
p2085
L104L
tp2086
a(S'strspn'
p2087
g17
L364L
tp2088
a(S'strsep'
p2089
S'702de500000a50a0e139eb30e72001'
p2090
L68L
tp2091
a(S'__getdents64'
p2092
S'80d9e300ef017000a08a00e80060e220'
p2093
L48L
tp2094
a(S'__xstat64'
p2095
S'8001a0e310ef017000a08a00e80060e220'
p2096
L56L
tp2097
a(S'profil_counter'
p2098
S'4410e500e9a330e020e138e11031203100'
p2099
L76L
tp2100
a(S'profil'
p2101
g17
L360L
tp2102
a(S'__profile_frequency'
p2103
S'049fe500'
p2104
L12L
tp2105
a(S'_dl_fixup'
p2106
S'7c90e5432de100e520e530e7c004e1201600008330e0100d003a00e80009000492e500e101a222e50000a0eb60a0e50001a01a00e330e500e5c004a0e520eb34e5000000149de50003a00a11e10001a0e5200320e530e2002f000a30e50000851c'
p2107
L532L
tp2108
a(S'_dl_profile_fixup'
p2109
g17
L600L
tp2110
a(S'add_to_global'
p2111
g17
L608L
tp2112
a(S'_dl_find_dso_for_object'
p2113
S'9830e90053e3000a50a0e500000a000a0005009a130a000500eb00054094e500'
p2114
L160L
tp2115
a(S'_dl_open'
p2116
g17
L420L
tp2117
a(S'_dl_show_scope'
p2118
S'f84f2de5b0e120e590a0e3001a30e530e50002a0e120e5e6eb31e3000a31e100000aa09fe570e5609fe510e1e6eb31e720e3000a40a0e500e710e50003000098e510e310eb31e230e500ed'
p2119
L284L
tp2120
a(S'dl_open_worker'
p2121
g17
L1600L
tp2122
a(S'remove_slotinfo'
p2123
S'702de120e00040a03a91e500190005'
p2124
L284L
tp2125
a(S'_dl_close_worker'
p2126
g17
L3452L
tp2127
a(S'_dl_close'
p2128
S'849fe5402de340a00ae500e510e2001a53e3000aa0eb30e38010e8389fe500f9'
p2129
L140L
tp2130
a(S'_dl_sort_maps'
p2131
S'0151e3ff91'
p2132
L644L
tp2133
a(S'_dl_unmap'
p2134
S'b090e511e110'
p2135
L20L
tp2136
a(S'_dl_addr'
p2137
S'309fe54f2de3d000e170e160a0e5000a03e100eb000001000490e521e530e500af000a20e5b0e510e5000491e520e110e5000ae5002d4190e5929fe5110444e210ea0004b40052e3'
p2138
L824L
tp2139
a(S'_dl_addr_inside_object'
p2140
S'0090e52f8010b0d20153e2003a402dea005421e722e3'
p2141
L104L
tp2142
a(S'__mpn_add_n'
p2143
g17
L128L
tp2144
a(S'__mpn_addmul_1'
p2145
S'00e45090e540a0ea94e05090e540ace270e4c00152e2'
p2146
L76L
tp2147
a(S'dlopen_doit'
p2148
S'0490e5402de331e300104de2001a40a0e520e500e5c0005020e3c00281be0010a0e500eb20e130e1'
p2149
L144L
tp2150
a(S'__dlopen'
p2151
S'10e9184de200e510e520e5'
p2152
L40L
tp2153
a(S'__dlclose'
p2154
S'00a0e979'
p2155
L16L
tp2156
a(S'dlsym_doit'
p2157
S'10e90700eb00'
p2158
L24L
tp2159
a(S'__dlsym'
p2160
S'30e96c409fe5d00094e50000e5000ae500e200'
p2161
L56L
tp2162
a(S'dlvsym_doit'
p2163
S'10e90feb00'
p2164
L24L
tp2165
a(S'__dlvsym'
p2166
S'30e9709fe5d000'
p2167
L60L
tp2168
a(S'setitimer'
p2169
S'042de300ef049de40a1eff'
p2170
L28L
tp2171
a(S'_dl_build_local_scope'
p2172
S'702de110f85191e530e330e331e5000a95e560a0e350850c009831e500e3000ab50051e3'
p2173
L120L
tp2174
a(S'openaux'
p2175
S'10e90090e5d09821e530031204'
p2176
L68L
tp2177
a(S'_dl_map_object_deps'
p2178
S'82e04f2de1b0e2de0c4de2c0c09801e5d00d00e300e2e0e3006c34e501e514e948020a41e2418104b10c03040308039801e50000e300e201e5'
p2179
L3220L
tp2180
a(S'call_init.part.0'
p2181
S'98c1'
p2182
L288L
tp2183
a(S'_dl_init'
p2184
g17
L272L
tp2185
a(S'_dl_check_map_versions'
p2186
S'3490e50053010a4f2de220e520e50002a0e510e1200a20e510e000008d0a001895e520e521e09fe54192e730e36083001a000c94e500000aa0e1'
p2187
L1680L
tp2188
a(S'_dl_check_all_versions'
p2189
g17
L108L
tp2190
a(S'call_dl_lookup'
p2191
S'10e900e1d00894e500e331e520e50004'
p2192
L72L
tp2193
a(S'do_sym'
p2194
g17
L636L
tp2195
a(S'_dl_vsym'
p2196
S'702de5c0204de25094e5e0e30020e5e0e5000ae0e5000c0000a0e1e0e530e5e0e5'
p2197
L216L
tp2198
a(S'_dl_sym'
p2199
S'042de3d000'
p2200
L32L
tp2201
a(S'__gtdf2'
p2202
S'00e00200'
p2203
L8L
tp2204
a(S'__ltdf2'
p2205
S'01a0'
p2206
L8L
tp2207
a(S'__nedf2'
p2208
S'01a0e5c083e1ca0e000a'
p2209
L136L
tp2210
a(S'__aeabi_cdrcmple'
p2211
S'00a0e120e110e1'
p2212
L28L
tp2213
a(S'__aeabi_cdcmple'
p2214
S'01e90050e300'
p2215
L20L
tp2216
a(S'__aeabi_dcmpeq'
p2217
S'082deb0013'
p2218
L20L
tp2219
a(S'__aeabi_dcmplt'
p2220
S'082deb0023'
p2221
L20L
tp2222
a(S'__aeabi_dcmple'
p2223
S'082deb00839d'
p2224
L20L
tp2225
a(S'__aeabi_dcmpge'
p2226
S'082deb00839d'
p2227
L20L
tp2228
a(S'__aeabi_dcmpgt'
p2229
S'082deb0023'
p2230
L20L
tp2231
a(S'__unorddf2'
p2232
S'81'
p2233
L56L
tp2234
a(S'__aeabi_uldivmod'
p2235
S'0053e30004000051e30000e000e00eca084de2602debe0e5d0e8'
p2236
L60L
tp2237
a(S'__udivmoddi4'
p2238
S'0351e100'
p2239
L300L
tp2240
a(S'read_uleb128'
p2241
S'00a0e130e400e330e2c207201ac0'
p2242
L40L
tp2243
a(S'read_sleb128'
p2244
S'00a0e1e0e520e4e0e200e3c38c07301a00020000e0128c0081'
p2245
L64L
tp2246
a(S'base_of_encoded_value'
p2247
S'ff50e3000a002053e3000a009a00500007000a000b0001a0ea001053e3001a00e100ea'
p2248
L104L
tp2249
a(S'read_encoded_value_with_base'
p2250
S'500027000a402de110e2d000e10001'
p2251
L340L
tp2252
a(S'read_encoded_value'
p2253
S'702de110e150a0e1'
p2254
L52L
tp2255
a(S'parse_lsda_header'
p2256
S'702de2d001e150a001000ace'
p2257
L168L
tp2258
a(S'_Unwind_SetGR_0'
p2259
S'042de230e520e520e1ca14'
p2260
L44L
tp2261
a(S'_Unwind_GetGR.constprop.0_0'
p2262
S'042de230e220e120eb00e2'
p2263
L44L
tp2264
a(S'__gcc_personality_v0'
p2265
S'03000150e3472de1d002e1000a00eb0008a013d0e80510eb00eb10ef'
p2266
L368L
tp2267
a(S'_fini'
p2268
S'08e9'
p2269
L8L
tp2270
a.