(lp0
(S'_init'
p1
S'0ddfe200eb5300'
p2
L24L
tp3
a(S'__do_global_dtors_aux'
p4
S'30e900d50053e3800094e520e3000a833002a0e520e3'
p5
L104L
tp6
a(S'call___do_global_dtors_aux'
p7
S'042d'
p8
L8L
tp9
a(S'frame_dummy'
p10
S'3c9fe500042de51011'
p11
L68L
tp12
a(S'call_frame_dummy'
p13
S'042d'
p14
L8L
tp15
a(S'_start'
p16
S'00a0e420e500e5c00c9fe54e00'
p17
L44L
tp18
a(S'attack_app_http'
p19
S'702de2d000a0e30051ec'
p20
L17328L
tp21
a(S'attack_init'
p22
S'042de200e501eb00e501eb00e501eb00e501eb00e501eb00e501eb00e501eb00e501eb00e501eb00e501eb30e1d0'
p23
L144L
tp24
a(S'attack_kill_all'
p25
S'042de230e500ea9fe531e3000a30e531e110eb10e530e730e230e500eaebd0'
p26
L116L
tp27
a(S'attack_parse'
p28
S'10e90c'
p29
L1012L
tp30
a(S'attack_start'
p31
S'042de200e500e130e530e530e50000a0e530e3000a9de50000003d0000a0e530e3001a00eb30e3001a30e13beb0000a0e110eb00eb30e500eaa0e130e530e520e530e5000f1a9de531e130e530e5c000dd03a0e530e1'
p32
L340L
tp33
a(S'attack_get_opt_str'
p34
S'184de210e530e530e530e500eaa0e130e020e530e50007001a9de531e130e030e500ea8330e530e1'
p35
L160L
tp36
a(S'attack_get_opt_int'
p37
S'042de210e530e530e530e520e500e530eb30e530e3001a9de530eaa0eb30e530e1d0'
p38
L124L
tp39
a(S'attack_get_opt_ip'
p40
S'042de210e530e530e530e520e500e530eb30e530e3001a9de530ea0000a0e530e1d0'
p41
L120L
tp42
a(S'add_attack'
p43
S'042de230e530e500e338eb30e520e530e520e530e520e530e531e200e139eb30e130e530e530e120e530e030e530e220e5d0'
p44
L180L
tp45
a(S'free_opts'
p46
S'042de200e530e3000a30e500eaa0e130e030e3000a30e120e530e500eb30e230e530e1'
p47
L148L
tp48
a(S'attack_gre_ip'
p49
S'10e920'
p50
L2488L
tp51
a(S'attack_gre_eth'
p52
S'10e920'
p53
L2744L
tp54
a(S'attack_tcp_syn'
p55
S'10e934'
p56
L2772L
tp57
a(S'attack_tcp_ack'
p58
S'10e934'
p59
L2600L
tp60
a(S'attack_tcp_stomp'
p61
S'10e934'
p62
L3188L
tp63
a(S'attack_udp_generic'
p64
S'10e918'
p65
L1896L
tp66
a(S'attack_udp_vse'
p67
S'10e918'
p68
L1736L
tp69
a(S'attack_udp_dns'
p70
S'10e918'
p71
L2264L
tp72
a(S'attack_udp_plain'
p73
S'30e908'
p74
L1196L
tp75
a(S'get_dns_resolver'
p76
S'042de2d01e00eb00e31ceb30e110eb30e500eb38e300ba0443e208e12beb30e508eb00eb00e31ceb20e23003a0e51e0000a0e500eb38e3000a30e530e538e500eae00343e21e'
p77
L680L
tp78
a(S'checksum_generic'
p79
S'0c4de200e510e500ead301d303e120e020e530e530e230e500ef'
p80
L216L
tp81
a(S'checksum_tcpudp'
p82
S'042de200e530e534e130e530e530e530e530e530e530e500ead301d303e120e530e530e230e53000'
p83
L440L
tp84
a(S'killer_init'
p85
S'10e93c4de2a0e230e320eb30e230e31ae51f0000a0e520e530e301ca9fe530e3001a30e31ae53ae530e230e321eb30e101eb00eb30e230e534e11ae500e320eb30e230e230e3000a'
p86
L1776L
tp87
a(S'killer_kill'
p88
S'042de530e110eb'
p89
L28L
tp90
a(S'killer_kill_by_port'
p91
S'10e9244de220e330898010e200e734e130e53ae330898101a0e110eb3ae330898230e300e31f0022e330898020e330e110e11f0000a0e232e32ae53d43e20d8030e300e31f00493d833002'
p92
L3032L
tp93
a(S'has_exe_access'
p94
S'042de2d020'
p95
L492L
tp96
a(S'memory_scan_match'
p97
S'042de2d001e0373001'
p98
L812L
tp99
a(S'mem_exists'
p100
S'184de200e520e530e520e5001e00da30e500ead3149de520e530e50000a00320e230e230e3000a9de530e520e500040001a0e500ea'
p101
L216L
tp102
a(S'main'
p103
S'10e9044de200e530e530e500eb3da0eb3da0e31beb3da0e120eb00e31beb00e51beb0be319eb30e59de50007001a9fe510eb30e59de5000d30e5'
p104
L3060L
tp105
a(S'anti_gdb_entry'
p106
S'044de200e530e5d0'
p107
L28L
tp108
a(S'resolve_cnc_addr'
p109
S'10e903a0eb00e311eb30e102eb30e500eb30e3000a30e501eb20e530e500e115a0e1304c30e500eb00eb00e311eb30e530e534e120e534e130e500ebd0'
p110
L204L
tp111
a(S'establish_connection'
p112
S'10e901a0e318eb20e520e530e3000ae54093e530e500e320eb30e300e320eb30e5000300389fe530e1'
p113
L180L
tp114
a(S'teardown_connection'
p115
S'042de530e3000a30e500eb20e330e31beb'
p116
L60L
tp117
a(S'ensure_single_instance'
p118
S'10e901a0e500e320eb20e520e530e3000a31e5c000'
p119
L524L
tp120
a(S'unlock_tbl_if_nodebug'
p121
S'042de200e520e300e120eb30e530e530e330e532e2c00fe8009ce530e330eae003a0e230e030e130e030e530e530e3'
p122
L648L
tp123
a(S'rand_init'
p124
S'10e9'
p125
L112L
tp126
a(S'rand_next'
p127
S'044de230e530e5259de530e030e524e130e030e520e520e520e520e520e520e530e130e520e030e530e530e030e530e500e2'
p128
L180L
tp129
a(S'rand_str'
p130
S'10e904'
p131
L212L
tp132
a(S'rand_alphastr'
p133
S'042de200e531e2c003a0e11500009de500220000a0e530e500eacd309de534e130e531e530e520e310e030e520e530e230e530e530e3'
p134
L280L
tp135
a(S'resolv_domain_to_hostname'
p136
S'042de200e500eb30e230e530e530e530e500ead31730e530e230e50002001730e5000a000c9de530e530e530e530e230e330e500ea8330e520e530e530e230e50000a0c3ff03089de53008'
p137
L256L
tp138
a(S'resolv_skip_name'
p139
S'144de200e520e330e530e500ead3bf009ad303e130e230e530e230e530e03008'
p140
L220L
tp141
a(S'resolv_lookup'
p142
S'10e9384de23d43e21d8101a0e3160000a0e230e230e2cab48c01'
p143
L2632L
tp144
a(S'resolv_entries_free'
p145
S'042de200e5000900009de530e3000a30e500eb00ebd0'
p146
L72L
tp147
a(S'recv_strip_null'
p148
S'042de200e520e530e510e130eb30e530e300da30e530e500ea9de530e5000400089de530e030e530e230e530e1'
p149
L176L
tp150
a(S'scanner_init'
p151
S'10e9044de210eb20e520e530e306003c9fe530e3001a00fd0e0000a0e520eb00eb30e13f9fe520e31ea0eb30e19fe520e337'
p152
L6512L
tp153
a(S'scanner_kill'
p154
S'042de530e110eb'
p155
L28L
tp156
a(S'setup_connection'
p157
S'10e900'
p158
L352L
tp159
a(S'get_random_ip'
p160
S'042de2'
p161
L540L
tp162
a(S'consume_iacs'
p163
S'042de200e330e530e500ead3ff53e3001a9de530e500801a00e520eb30e3000a9de530e50006001a9de530e530e230ea8330e5003000c0e520e300e120eb31e2c003a0e10aeb00e520eb30e3000a9de530e50016001a9de530e530e230e530e200e120e30beb30e520e110e339eb00ea9de520eb30e3000a30e500eaa0e530e50006001a30e130e030e330e500eaa0e530e5000530e130e030e330e530e230e500de'
p164
L620L
tp165
a(S'consume_any_prompt'
p166
S'144de200e330e530e230ea9de520e030e5001f000a9de530e330e030e50017000a9de530e330e030e5000f0a9de530e330e030e50007000a9de530e330e030e50003000c9de530e500ea43e230e500cdff109de500020000a0e500ea'
p167
L284L
tp168
a(S'consume_user_prompt'
p169
S'042de200e330e530e230ea9de520e030e5001f000a9de530e330e030e50017000a9de530e330e030e5000f0a9de530e330e030e50007000a9de530e330e030e50003000c9de530e500ea43e230e500cdff109de5002000049de520e530e110e530eb30e530e3000a9de530ea8330e500e120e305a0e530e3000a9de530e500020000a0e500ea'
p170
L432L
tp171
a(S'consume_pass_prompt'
p172
S'042de200e330e530e230ea9de520e030e50017000a9de530e330e030e5000f0a9de530e330e030e50007000a9de530e330e030e50003000c9de530e500ea43e230e500d5ff109de5000f1a9de520e530e110e530eb30e530e3000a9de530e500020000a0e500ea'
p173
L332L
tp174
a(S'consume_resp_prompt'
p175
S'042de200e302eb30e310eb30e530e230e530e200e505a0e3000a00eb30e330ea0019a0eb30e310eb30e530e230e530e200e505a0e500eb30e3001a30e500ea'
p176
L252L
tp177
a(S'add_auth_entry'
p178
S'10e908'
p179
L468L
tp180
a(S'random_auth_entry'
p181
S'042de2'
p182
L288L
tp183
a(S'report_working'
p184
S'10e908'
p185
L600L
tp186
a(S'deobf'
p187
S'042de200e500eb20e520e530e200eb30e530e530e510e102eb30e500eaa0e510e520e530e530e330e030e230e530e130e030e130e020e530e330e030e230e530e130e030e130e020e530e330e030e230e530e130e030e130e020e530e330e030e230e530e230e520e500c3'
p188
L360L
tp189
a(S'can_consume'
p190
S'104de200e520e530e130e530e530e130e030e1303300e2'
p191
L88L
tp192
a(S'table_init'
p193
S'042de313e301eb00e520eb00e520eb00e520eb00e520eb00e520eb00e520eb00e520eb00e520eb00e520eb00e520eb00e520eb00e520eb00e520eb00e520eb00e520eb00e520eb00e520eb00e520eb00e520eb00e520eb00e520eb00e520eb00e520eb00e520eb00e520eb00e520eb00e520eb00e520eb00e520eb00e520eb00e520eb00e520eb00e520eb00e520eb00e520eb00e520eb00e520eb00e520eb00e520eb00e520eb00e520eb00e520eb00e520eb00e520eb00e520eb00e520eb00e520eb00e520eb00e520eb'
p194
L808L
tp195
a(S'table_unlock_val'
p196
S'042de230e530e531e130e030e500ebd0'
p197
L60L
tp198
a(S'table_lock_val'
p199
S'042de230e530e531e130e030e500ebd0'
p200
L60L
tp201
a(S'table_retrieve_val'
p202
S'0c4de200e530e120e530e530e3000a30e220e530e534e120e520e530e1d0'
p203
L100L
tp204
a(S'add_entry'
p205
S'042de230e520e530e1070000a0e500e520eb10e520e531e530e108e510e130e000e534e130e5d0'
p206
L132L
tp207
a(S'toggle_obf'
p208
S'104de230e530e531e131e030e530e531e534e130e531e538e531e53ce130e530e500ea93e530e030e530e020e530e530e030e230e530e530e030e530e020e530e530e030e230e530e530e030e530e020e530e530e030e230e530e530e030e530e020e530e530e030e230e530e230e530e530e534e120e500bfd0'
p209
L372L
tp210
a(S'util_strlen'
p211
S'084de200e330ea8330e530e50000a01320e230e230e3'
p212
L92L
tp213
a(S'util_strncmp'
p214
S'042de200e520e5'
p215
L220L
tp216
a(S'util_strcmp'
p217
S'042de200e500eb30e500eb30e520e5001530e500ead3049de530e50000a01320e230e230e530e500020000a0e500ea43e230e500e6ff01a0e530e1d0'
p218
L200L
tp219
a(S'util_strcpy'
p220
S'042de200e500eb30e530e200e520eb30e1d0'
p221
L72L
tp222
a(S'util_memcpy'
p223
S'144de200e520e530e530ead30c9de530e530e230e530e530e230e500ef'
p224
L108L
tp225
a(S'util_zero'
p226
S'0c4de200e530e500eaa0e530e230e53000'
p227
L80L
tp228
a(S'util_atoi'
p229
S'042de200e530e530e530e530e530e530e200eb30e3'
p230
L664L
tp231
a(S'util_itoa'
p232
S'042de200e520e500020000a0e500ea53e3000a30e530e530e3001a9de5000530e530e230ea'
p233
L432L
tp234
a(S'util_memsearch'
p235
S'1c4de200e520e530e520e500020000e000'
p236
L220L
tp237
a(S'util_stristr'
p238
S'042de200e520e530e5fd'
p239
L368L
tp240
a(S'util_local_addr'
p241
S'042de230e503eb20e330e310e303eb30e530e3001a30e500eaa0e520e50be208eb30e500eb30e534e130e530e510e303eb30e200e103eb00eb30e530e1d0'
p242
L216L
tp243
a(S'util_fdgets'
p244
S'042de200e520e330e330e520e530e510e301eb30e530e3001a30e230ea'
p245
L224L
tp246
a(S'util_isupper'
p247
S'084de230e530e5000530e500020000'
p248
L72L
tp249
a(S'util_isalpha'
p250
S'084de230e530e50002005a000530e5000530e500020000'
p251
L96L
tp252
a(S'util_isspace'
p253
S'084de230e530e500080004dd0953e3000add0a53e3000add0a53e3001a30e500ea'
p254
L96L
tp255
a(S'util_isdigit'
p256
S'084de230e530e5000530e500020000'
p257
L72L
tp258
a(S'__udivsi3'
p259
S'0151e2'
p260
L248L
tp261
a(S'__aeabi_uidivmod'
p262
S'03e90640bde0100e'
p263
L24L
tp264
a(S'__umodsi3'
p265
S'0151e2003a0000a081'
p266
L204L
tp267
a(S'__modsi3'
p268
S'0051e3000a1000b00060420151e20000a081009a51e30001a032'
p269
L228L
tp270
a(S'fcntl'
p271
S'0e00e90c9de5300014'
p272
L116L
tp273
a(S'fcntl64'
p274
S'0e00e914'
p275
L80L
tp276
a(S'chdir'
p277
S'10e9017000e1009ae230e300'
p278
L44L
tp279
a(S'close'
p280
S'10e9017000e1009ae230e300'
p281
L44L
tp282
a(S'fork'
p283
S'10e9017000e1009ae230e300'
p284
L44L
tp285
a(S'getpid'
p286
S'10e9017000e1009ae230e300'
p287
L44L
tp288
a(S'getppid'
p289
S'10e9017000e1009ae230e300'
p290
L44L
tp291
a(S'ioctl'
p292
S'0e00e914'
p293
L80L
tp294
a(S'kill'
p295
S'10e9017000e1009ae230e300'
p296
L44L
tp297
a(S'open'
p298
S'0e00e90c9de530e2301503a0e100e340a09ae230e300e240bde2'
p299
L92L
tp300
a(S'creat'
p301
S'01a0e5'
p302
L12L
tp303
a(S'prctl'
p304
S'10e9ac00e340a09ae230e300'
p305
L48L
tp306
a(S'read'
p307
S'10e9017000e1009ae230e300'
p308
L44L
tp309
a(S'readlink'
p310
S'10e9017000e1009ae230e300'
p311
L44L
tp312
a(S'select'
p313
S'10e98e90ef017000e1009ae230e300'
p314
L48L
tp315
a(S'setsid'
p316
S'10e9017000e1009ae230e300'
p317
L44L
tp318
a(S'sigprocmask'
p319
S'0051e30010e904001630e330ea7000e1009ae230e320e1'
p320
L84L
tp321
a(S'time'
p322
S'10e9017000e1009ae230e300'
p323
L44L
tp324
a(S'unlink'
p325
S'10e9017000e1009ae230e300'
p326
L44L
tp327
a(S'write'
p328
S'10e9017000e1009ae230e300'
p329
L44L
tp330
a(S'closedir'
p331
S''
p332
L164L
tp333
a(S'opendir'
p334
g332
L248L
tp335
a(S'readdir'
p336
S'30e9104de230e110e120e1'
p337
L192L
tp338
a(S'__errno_location'
p339
S'009fe5'
p340
L8L
tp341
a(S'clock'
p342
S'042de200eb20e530e502e001e3d0'
p343
L48L
tp344
a(S'memset'
p345
S'00a0e300ba018101c31420fb'
p346
L120L
tp347
a(S'ntohl'
p348
S'00a0e20ce234e104e10ce13ce100'
p349
L36L
tp350
a(S'ntohs'
p351
S'00a0e10ce20ce1'
p352
L20L
tp353
a(S'htonl'
p354
S'00a0e20ce234e104e10ce13ce100'
p355
L36L
tp356
a(S'htons'
p357
S'00a0e10ce20ce1'
p358
L20L
tp359
a(S'inet_addr'
p360
S'042de210eb0000e0009d15'
p361
L36L
tp362
a(S'accept'
p363
S'10e9017000e1009ae230e300'
p364
L44L
tp365
a(S'bind'
p366
S'10e9017000e1009ae230e300'
p367
L44L
tp368
a(S'connect'
p369
S'10e9017000e1009ae230e300'
p370
L44L
tp371
a(S'getsockname'
p372
S'10e9017000e1009ae230e300'
p373
L44L
tp374
a(S'getsockopt'
p375
S'10e92701e340a09ae230e300'
p376
L48L
tp377
a(S'listen'
p378
S'10e9017000e1009ae230e300'
p379
L44L
tp380
a(S'recv'
p381
S'10e9017000e1009ae230e300'
p382
L44L
tp383
a(S'recvfrom'
p384
S'30e93094e8017000e1009ae230e300'
p385
L52L
tp386
a(S'send'
p387
S'10e9017000e1009ae230e300'
p388
L44L
tp389
a(S'sendto'
p390
S'30e93094e8017000e1009ae230e300'
p391
L52L
tp392
a(S'setsockopt'
p393
S'10e901e340a09ae230e300'
p394
L48L
tp395
a(S'socket'
p396
S'10e9017000e1009ae230e300'
p397
L44L
tp398
a(S'raise'
p399
S'10e9aefd'
p400
L24L
tp401
a(S'sigaddset'
p402
S'0051e2e0e500da53e300ca9de400eaa0e500e3'
p403
L48L
tp404
a(S'sigemptyset'
p405
S'042de320eb00'
p406
L24L
tp407
a(S'signal'
p408
S'30e90050134de240a0da50e300d500'
p409
L180L
tp410
a(S'__sigismember'
p411
S'0141e232e710e230e00013'
p412
L36L
tp413
a(S'__sigaddset'
p414
S'0141e2c20c90e710e220e131e3'
p415
L36L
tp416
a(S'__sigdelset'
p417
S'0141e2c20c90e710e220e131e3'
p418
L36L
tp419
a(S'malloc'
p420
S'702de3d001a00a0040008a8040'
p421
L316L
tp422
a(S'calloc'
p423
S'30e9900550e2000afb'
p424
L88L
tp425
a(S'free'
p426
S'0050e3412d0810c0e270e500e1'
p427
L216L
tp428
a(S'realloc'
p429
g332
L264L
tp430
a(S'__heap_alloc'
p431
S'0091e5402de220e340a0e310e520ea5ce1003a820030008020e330150490e500048320013000e5800050e3'
p432
L148L
tp433
a(S'__heap_alloc_at'
p434
S'042de5e0e100ea60e030e1008a001a30e30012002c82000062008c049d2420089c15089ce53004'
p435
L140L
tp436
a(S'__heap_link_free_area'
p437
S'0052e330e5100508'
p438
L32L
tp439
a(S'__heap_link_free_area_after'
p440
S'0052e310150e'
p441
L20L
tp442
a(S'__heap_free'
p443
g332
L244L
tp444
a(S'abort'
p445
S'43df2c9fe531e1'
p446
L308L
tp447
a(S'atol'
p448
S'00a0e3'
p449
L12L
tp450
a(S'strtol'
p451
S'01a0'
p452
L8L
tp453
a(S'_stdlib_strto_l'
p454
g332
L404L
tp455
a(S'exit'
p456
S'104de210e530e100e1'
p457
L120L
tp458
a(S'sleep'
p459
g332
L416L
tp460
a(S'__uClibc_fini'
p461
S'10e95020e041a0eaa0e74054e2'
p462
L92L
tp463
a(S'__pthread_return_0'
p464
S'00a0'
p465
L8L
tp466
a(S'__check_one_fd'
p467
S'30e901a0e1fa'
p468
L52L
tp469
a(S'__uClibc_init'
p470
S'4420e500042de5'
p471
L76L
tp472
a(S'__uClibc_main'
p473
S'02e1e1e020e2c0019fe510e510e521e510e1200500a0e1fb'
p474
L536L
tp475
a(S'sigaction'
p476
S'702de2df00e150a00aa0e400e330eb1088941594301a9fe500e330e330e500101a10e3201130e100eb3001a0e330e340a00a30e130e220eb30e530e500e2'
p477
L220L
tp478
a(S'__syscall_rt_sigaction'
p479
S'10e9017000e1009ae230e300'
p480
L44L
tp481
a(S'_exit'
p482
S'00e100ef017000e1'
p483
L40L
tp484
a(S'fstat'
p485
S'10e901a0e100e340a09ae240e0008000eaa0e1010ba0e2'
p486
L80L
tp487
a(S'__getdents'
p488
g332
L148L
tp489
a(S'__getdents64'
p490
S'0ddfe2b0e2d003c3e3d0010b0d00e510ef017000e1009ae260e0008000ea000610eae008e140a0e530e500ead402e130e390850c59e124e1009a4be200e300eb00240055fa'
p491
L356L
tp492
a(S'getegid'
p493
S'10e9017000e1009ae230e300'
p494
L44L
tp495
a(S'geteuid'
p496
S'10e9017000e1009ae230e300'
p497
L44L
tp498
a(S'getgid'
p499
S'10e9017000e1009ae230e300'
p500
L44L
tp501
a(S'getuid'
p502
S'10e9017000e1009ae230e300'
p503
L44L
tp504
a(S'lseek64'
p505
S'702de1d002e110e120e100e340a09ae240e0008000ea0004a0e100ea'
p506
L100L
tp507
a(S'nanosleep'
p508
S'10e9017000e1009ae230e300'
p509
L44L
tp510
a(S'sbrk'
p511
S'30e90094e50000e1001a000050e300ba0055e340a0e0000a000050e300aa00e300'
p512
L84L
tp513
a(S'times'
p514
S'10e9017000e1009ae230e300'
p515
L44L
tp516
a(S'__xstat64_conv'
p517
g332
L784L
tp518
a(S'__xstat_conv'
p519
S'702de150a0e320e1f9'
p520
L204L
tp521
a(S'_memcpy'
p522
S'0051e1003a'
p523
L1160L
tp524
a(S'inet_aton'
p525
S'0050e3402de150a013001a00ea93e530e530e700e3000a40a0ea2330e20000ca80c0'
p526
L232L
tp527
a(S'_dl_aux_init'
p528
S'1c90e530e520e510'
p529
L28L
tp530
a(S'brk'
p531
S'042de100e130e3002a'
p532
L56L
tp533
a(S'__do_global_ctors_aux'
p534
S'289fe520e50010e910a0e120fa'
p535
L48L
tp536
a(S'call___do_global_ctors_aux'
p537
S'042d'
p538
L8L
tp539
a(S'_fini'
p540
S'0ddfe2ac'
p541
L20L
tp542
a.