(lp0
(S'_init'
p1
S'06007c9c27219903'
p2
L140L
tp3
a(S'_ftext'
p4
S'0600'
p5
L188L
tp6
a(S'frame_dummy'
p7
S'0600349c27219903'
p8
L128L
tp9
a(S'__start'
p10
S'21e00111000000a4959c27219f03f800c08fa627f8ff24e8bd8f000000af18bd8f0000f8200000'
p11
L100L
tp12
a(S'attack_app_http'
p13
S'060040959c27219903bdaf9851beaf9051b68caf88af84af807cb178b018bc'
p14
L9544L
tp15
a(S'attack_get_opt_str'
p16
S'ff84ff'
p17
L72L
tp18
a(S'attack_get_opt_ip'
p19
S'056f9c27219903'
p20
L108L
tp21
a(S'attack_get_opt_int'
p22
S'056f9c27219903'
p23
L108L
tp24
a(S'attack_start'
p25
S'056e9c27219903'
p26
L372L
tp27
a(S'attack_parse'
p28
S'056d9c2721990300af4c00af4400af3cb338b234b130b018bc2c90a01488'
p29
L772L
tp30
a(S'attack_kill_all'
p31
S'056a27219903'
p32
L116L
tp33
a(S'add_attack'
p34
S'05692cbfaf24b320b21cb118b010bc'
p35
L180L
tp36
a(S'attack_init'
p37
S'05691cbfaf10bc'
p38
L256L
tp39
a(S'attack_gre_eth'
p40
S'0568990300af6c00af00af5c00af5400af18bc'
p41
L1988L
tp42
a(S'attack_gre_ip'
p43
S'05609c2721990300af00af5c00af5400af4c00af18bc'
p44
L1800L
tp45
a(S'attack_tcp_stomp'
p46
S'05599c27219903bdaf9801af9001af88b484b380af7cb178b018bc'
p47
L2340L
tp48
a(S'attack_tcp_ack'
p49
S'05509c27219903bdaf80af7cb778b674b570b46c00af00af18bc'
p50
L2068L
tp51
a(S'attack_tcp_syn'
p52
S'05489c27219903bdaf80af7cb778b674b570b46c00af00af18bc'
p53
L2040L
tp54
a(S'attack_udp_plain'
p55
S'05409c2721990300af5400af4c00af4400af3cb138b010bc'
p56
L852L
tp57
a(S'attack_udp_generic'
p58
S'053c2721990300af5c00af5400af4c00af4400af18bc'
p59
L1464L
tp60
a(S'attack_udp_vse'
p61
S'05379c2721990300af4c00af4400af3cb338b234b130b018bc'
p62
L1328L
tp63
a(S'attack_udp_dns'
p64
S'053270bdaf88beaf80af7cb578b474b370b26c08af18bc'
p65
L2004L
tp66
a(S'checksum_generic'
p67
S'05300000240002a2100024003000003000ff301400100200102710000003ff'
p68
L88L
tp69
a(S'checksum_tcpudp'
p70
S'0c89ff30400000a22400010028ff010200141c00000040020984214300ff020018011000042100100200216221831c00ff'
p71
L144L
tp72
a(S'mem_exists'
p73
S'2aa700002100ff240000'
p74
L92L
tp75
a(S'killer_kill'
p76
S'052848818c0003'
p77
L32L
tp78
a(S'killer_kill_by_port'
p79
S'052898ddaf6022af5822af50224822af4022afc8'
p80
L2164L
tp81
a(S'killer_init'
p82
S'0520f8deaf00beaff820af20e820af10bc8f0000f820210010bc008103a800004881ac'
p83
L2820L
tp84
a(S'anti_gdb_entry'
p85
S'05159903'
p86
L32L
tp87
a(S'teardown_connection'
p88
S'05159903'
p89
L100L
tp90
a(S'ensure_single_instance'
p91
S'05142721990300af3cb138b018bc8f00248020a224f820210021400000'
p92
L548L
tp93
a(S'main'
p94
S'051288bdaf6c06b76806b56006b45c06b35806b25406b15006b018bc'
p95
L3256L
tp96
a(S'resolve_cnc_addr'
p97
S'05059903'
p98
L324L
tp99
a(S'rand_next'
p100
S'05042721990380'
p101
L92L
tp102
a(S'rand_str'
p103
S'050427219903'
p104
L164L
tp105
a(S'rand_alphastr'
p106
S'0503b0bdaf4400af10bc'
p107
L284L
tp108
a(S'rand_init'
p109
S'0502d8bdaf1cb118b010bc8f0000f820210010bc008000000920'
p110
L176L
tp111
a(S'resolv_skip_name'
p112
S''
p113
L132L
tp114
a(S'resolv_entries_free'
p115
S'0501e0bdaf18b010bc1080b0998f00214000f820000010bc002002bf'
p116
L108L
tp117
a(S'resolv_domain_to_hostname'
p118
S'0500d8bdaf1cb118b010bc'
p119
L176L
tp120
a(S'resolv_lookup'
p121
S'050018bdafe0beafd8b6d4b5d0b4cc10afc4b1c0af18bc'
p122
L1304L
tp123
a(S'consume_any_prompt'
p124
S'18'
p125
L128L
tp126
a(S'can_consume'
p127
S'1883a6001008e02b'
p128
L24L
tp129
a(S'scanner_kill'
p130
S'05fa9c27219903818c0003'
p131
L32L
tp132
a(S'deobf'
p133
S'05fa9c27219903'
p134
L204L
tp135
a(S'add_auth_entry'
p136
S'05f99c2721990300af38b634b530b42cb328b224b120b010bc'
p137
L332L
tp138
a(S'setup_connection'
p139
S'05f89c27219903'
p140
L304L
tp141
a(S'recv_strip_null'
p142
S'05f7e0bdaf18b010bc8f0000f82021bc1818210021020700100624000000000000a6a0f9ff1cbf'
p143
L124L
tp144
a(S'scanner_init'
p145
S'05f688bdaf70beaf6807b56007b45c07b35807b25407b15007b018bc8f0000f820000018bc0081ac'
p146
L7696L
tp147
a(S'table_retrieve_val'
p148
S'05d8840404a000'
p149
L52L
tp150
a(S'toggle_obf'
p151
S'05d8088400438c0402030200203000304e03ff68103800000018000000001001000083e3006210a0000021e300621000000083e3006210010004'
p152
L208L
tp153
a(S'table_lock_val'
p154
S'05d79c27219903998f00000003'
p155
L32L
tp156
a(S'table_unlock_val'
p157
S'05d79c27219903998f00000003'
p158
L32L
tp159
a(S'add_entry'
p160
S'05d79c27219903'
p161
L148L
tp162
a(S'table_init'
p163
S'05d69c27219903'
p164
L1444L
tp165
a(S'util_strlen'
p166
S'0200210001630000ff0184000310'
p167
L36L
tp168
a(S'util_memcpy'
p169
S'05ff2400240024ff24ff140000000300'
p170
L44L
tp171
a(S'util_strcpy'
p172
S'05d0e0bdaf18b010bc000010802162fcff01638103000010020018b008e020'
p173
L100L
tp174
a(S'util_zero'
p175
S'0300'
p176
L36L
tp177
a(S'util_itoa'
p178
S'05d0b800af10bc10802a80002400240000000020010800240010001400001800000500370002a00010a01200ff000021a60300100001'
p179
L236L
tp180
a(S'util_memsearch'
p181
S'2aa700401440000d500000630000060000000600010808e001020108210018140008e0'
p182
L96L
tp183
a(S'util_atoi'
p184
S'2009002400240024ff216000ff0000f9ff2d0010000000240010002400240000000087018400003000400010005000ffe3d062000a422c00bf0010ff24001a422c00370024ffff42300016005700241800101240100000000a40140000ca00001005000000241000001030'
p185
L364L
tp186
a(S'util_fdgets'
p187
S'05cd27219903'
p188
L184L
tp189
a(S'util_local_addr'
p190
S'05cc9c27219903'
p191
L228L
tp192
a(S'util_stristr'
p193
S'21c000105800016b0000ff0163001048800081ff25ff4230001a422cff251a6300350000600034001505180000031021001800ff25'
p194
L148L
tp195
a(S'util_strcmp'
p196
S'2180001038000024000000fcff0163181030000024000000fcff01630014ff240010ff24008000070001840024ff14002400030000000310'
p197
L132L
tp198
a(S'util_strncmp'
p199
S'21800010400001080000fcff0163181038000024000000fcff016310010000002ae60e00'
p200
L148L
tp201
a(S'fcntl'
p202
S'05ca219903'
p203
L136L
tp204
a(S'fcntl64'
p205
S'05c99c27219903'
p206
L104L
tp207
a(S'chdir'
p208
S'05c99c27219903'
p209
L88L
tp210
a(S'close'
p211
S'05c8e003'
p212
L84L
tp213
a(S'fork'
p214
S'05c8e003'
p215
L84L
tp216
a(S'getpid'
p217
S'05c8e003'
p218
L84L
tp219
a(S'getppid'
p220
S'05'
p221
L84L
tp222
a(S'ioctl'
p223
S'05'
p224
L104L
tp225
a(S'kill'
p226
S'05'
p227
L88L
tp228
a(S'open'
p229
S'05'
p230
L124L
tp231
a(S'creat'
p232
S'05'
p233
L28L
tp234
a(S'prctl'
p235
S'05c5d8bdaf21a0af18b010bc2738c2'
p236
L120L
tp237
a(S'read'
p238
S'05c5e0bdaf18b010bc2400008100f820000010bcac'
p239
L84L
tp240
a(S'readlink'
p241
S'05c5e0bdaf18b010bc2400008100f820000010bcac'
p242
L84L
tp243
a(S'select'
p244
S'05c4d8bdaf21a0af18b010bc2738c2'
p245
L120L
tp246
a(S'setsid'
p247
S'05c4e0bdaf18b010bc2400008100f820000010bcac'
p248
L84L
tp249
a(S'sigprocmask'
p250
S'05c39c27219903'
p251
L148L
tp252
a(S'time'
p253
S'05c39c27219903'
p254
L84L
tp255
a(S'unlink'
p256
S'05c2219903'
p257
L84L
tp258
a(S'write'
p259
S'05c2219903'
p260
L84L
tp261
a(S'closedir'
p262
S'05c2219903'
p263
L292L
tp264
a(S'opendir'
p265
S'05c0'
p266
L408L
tp267
a(S'readdir'
p268
S'05bf9903'
p269
L256L
tp270
a(S'__errno_location'
p271
S'05be9903800000'
p272
L24L
tp273
a(S'clock'
p274
S'05be9903'
p275
L108L
tp276
a(S'memset'
p277
S'08c928001505000044050040040308030023c885070030001138003800300100fdffac04c80023c8850018380000'
p278
L144L
tp279
a(S'memmove'
p280
S'05bd9903'
p281
L816L
tp282
a(S'strcpy'
p283
S'2385'
p284
L36L
tp285
a(S'inet_addr'
p286
S'05b99903'
p287
L72L
tp288
a(S'accept'
p289
S'05b99903'
p290
L84L
tp291
a(S'bind'
p292
S'05b99903'
p293
L84L
tp294
a(S'connect'
p295
S'05b89903'
p296
L84L
tp297
a(S'getsockname'
p298
S'05b89903'
p299
L84L
tp300
a(S'getsockopt'
p301
S'05b727219903'
p302
L120L
tp303
a(S'listen'
p304
S'05b727219903'
p305
L84L
tp306
a(S'recv'
p307
S'05b727219903'
p308
L84L
tp309
a(S'recvfrom'
p310
S'05b627219903'
p311
L128L
tp312
a(S'send'
p313
S'05b627219903'
p314
L84L
tp315
a(S'sendto'
p316
S'05b527219903'
p317
L128L
tp318
a(S'setsockopt'
p319
S'05b527219903'
p320
L120L
tp321
a(S'socket'
p322
S'05b427219903'
p323
L84L
tp324
a(S'raise'
p325
S'05b427219903'
p326
L76L
tp327
a(S'sigaddset'
p328
S'05b427219903'
p329
L104L
tp330
a(S'sigemptyset'
p331
S'05b327219903'
p332
L60L
tp333
a(S'signal'
p334
S'05b327219903'
p335
L252L
tp336
a(S'__sigismember'
p337
g113
L40L
tp338
a(S'__sigaddset'
p339
g113
L44L
tp340
a(S'__sigdelset'
p341
g113
L48L
tp342
a(S'malloc'
p343
S'05b127219903'
p344
L492L
tp345
a(S'calloc'
p346
S'05af9c27219903'
p347
L180L
tp348
a(S'free'
p349
S'05af9c27219903'
p350
L396L
tp351
a(S'realloc'
p352
S'05ad9c27219903'
p353
L472L
tp354
a(S'__heap_alloc'
p355
S'00a22400244300c20000000c0624001000000000002be61a4014002410000023e6048c0000c0000000000008c200046810000030000021e002000088100c42240003008c0000ff210008e00000'
p356
L188L
tp357
a(S'__heap_alloc_at'
p358
S'0083'
p359
L184L
tp360
a(S'__heap_link_free_area'
p361
S'04a7ac03c00010c50010000000ac08e00000'
p362
L44L
tp363
a(S'__heap_link_free_area_after'
p364
S'03c000000010c50003'
p365
L28L
tp366
a(S'__heap_free'
p367
S'05a99903'
p368
L364L
tp369
a(S'atol'
p370
S'05a8272199038008200a06'
p371
L28L
tp372
a(S'strtol'
p373
S'05a827219903810300'
p374
L28L
tp375
a(S'_stdlib_strto_l'
p376
S'05a827219903'
p377
L592L
tp378
a(S'exit'
p379
S'05a59c27219903'
p380
L240L
tp381
a(S'sleep'
p382
S'05a59c27219903'
p383
L564L
tp384
a(S'__uClibc_fini'
p385
S'05a29903'
p386
L196L
tp387
a(S'__pthread_return_0'
p388
S'08e02100'
p389
L8L
tp390
a(S'_pthread_cleanup_push_defer'
p391
S'08e00000'
p392
L8L
tp393
a(S'__check_one_fd'
p394
S'05a19903'
p395
L136L
tp396
a(S'__uClibc_init'
p397
S'05a19903'
p398
L140L
tp399
a(S'__uClibc_main'
p400
S'05a09903bdafa400af9c00af9400af10bc0090c00000'
p401
L872L
tp402
a(S'sigaction'
p403
S'059d9c2721990300af5c00af10bc0088009080'
p404
L232L
tp405
a(S'__syscall_rt_sigaction'
p406
S'059c9c27219903'
p407
L84L
tp408
a(S'_exit'
p409
S'059c9c27219903'
p410
L80L
tp411
a(S'fstat'
p412
S'059b9c27219903bdafac00af10bc2721c0102400008100f820000010bcac0800'
p413
L140L
tp414
a(S'__getdents'
p415
S'059b9c27219903'
p416
L192L
tp417
a(S'__getdents64'
p418
S'059ab80003af3cb738b634b530b42cb328b224b120b018bc2410001000e8b321c000af216002020000001090400081030000008f00'
p419
L456L
tp420
a(S'getegid'
p421
S'05989c27219903'
p422
L88L
tp423
a(S'geteuid'
p424
S'05989c27219903'
p425
L88L
tp426
a(S'getgid'
p427
S'05979c27219903'
p428
L84L
tp429
a(S'getuid'
p430
S'05979c27219903'
p431
L84L
tp432
a(S'lseek64'
p433
S'05979c27219903'
p434
L164L
tp435
a(S'nanosleep'
p436
S'05969c27219903'
p437
L84L
tp438
a(S'sbrk'
p439
S'05969c27219903'
p440
L144L
tp441
a(S'times'
p442
S'05959c27219903'
p443
L84L
tp444
a(S'__xstat64_conv'
p445
S'05959c27219903'
p446
L288L
tp447
a(S'__xstat_conv'
p448
S'05949c27219903'
p449
L276L
tp450
a(S'memcpy'
p451
S'08c80040a4000031001503290530000000000000300011380038003001008c008c0018ae8caf8c00e088ffacfff8ff14ff30001138003800300100240014ff18380000240014ff0300003803e70600103000008828b803c8c8e500a988840014ff1030'
p452
L308L
tp453
a(S'inet_aton'
p454
S'05919c272199038058a0'
p455
L280L
tp456
a(S'abort'
p457
S'05909c27219903'
p458
L428L
tp459
a(S'_dl_aux_init'
p460
S'058e1c83000043ac2c83e00043ac'
p461
L44L
tp462
a(S'brk'
p463
S'058ee0bdaf10bc'
p464
L112L
tp465
a(S'__do_global_ctors_aux'
p466
S'058ed8bdaf1cb118b010bc'
p467
L108L
tp468
a(S'_fini'
p469
S'058de0bdaf1cbfaf011100008d200020390920000010bc00bf000003'
p470
L92L
tp471
a.