(lp0
(S'_init'
p1
S'4e56002f0d00c07000140661'
p2
L50L
tp3
a(S'abort'
p4
S'4fef'
p5
L446L
tp6
a(S'fini'
p7
S'2f39b958'
p8
L16L
tp9
a(S'_start'
p10
S'9dce20205748514879000479009048502f0080c00046'
p11
L38L
tp12
a(S'deregister_tm_clones'
p13
S'20074ec0074ec0f900004a884879074ec0'
p14
L36L
tp15
a(S'register_tm_clones'
p16
S'20074ec0074ec0206a52801641f900004a882f0080c0'
p17
L48L
tp18
a(S'__do_global_dtors_aux'
p19
S'2f0a0280c03c073c04808c'
p20
L106L
tp21
a(S'frame_dummy'
p22
S'41f9801080'
p23
L30L
tp24
a(S'_Z15attack_app_httphP13attack_targethP13attack_option'
p25
S'4fefae28302251e8121f4100101f4000af51dc518c1000a74878152f0080c0100840518810007905002f51fc2f0080c010084051841000a74878082f51fc2f0080c010084051802f007905002f2f51fc2f0080c0100840517c80007801002f2f51fc2f00804fef002f4051d8100078504878072f2f51fc2f00804fef003f40517a068029220001012f008034ef00af5180e800e02f517cb958'
p26
L11036L
tp27
a(S'_Z11attack_initv'
p28
S'48790042a74eb950'
p29
L182L
tp30
a(S'_Z15attack_kill_allv'
p31
S'598f70b06d3417200de48017200de4780900803c'
p32
L74L
tp33
a(S'_Z12attack_parsePci'
p34
S'4fef'
p35
L854L
tp36
a(S'_Z12attack_startihhP13attack_targethP13attack_option'
p37
S'4fef'
p38
L266L
tp39
a(S'_Z18attack_get_opt_strhP13attack_optionhPc'
p40
S'51'
p41
L102L
tp42
a(S'_Z18attack_get_opt_inthP13attack_optionhi'
p43
S'51'
p44
L88L
tp45
a(S'_Z17attack_get_opt_iphP13attack_optionhj'
p46
S'51'
p47
L84L
tp48
a(S'_ZL10add_attackhPFvhP13attack_targethP13attack_optionE'
p49
S'51'
p50
L146L
tp51
a(S'_ZL9free_optsP13attack_optioni'
p52
S'59'
p53
L92L
tp54
a(S'_Z13attack_gre_iphP13attack_targethP13attack_option'
p55
S'4fefff2f00001f4100101f40008000487804008050'
p56
L1818L
tp57
a(S'_Z14attack_gre_ethhP13attack_targethP13attack_option'
p58
S'4fefff22002f00014100101f40008000487804008050'
p59
L2002L
tp60
a(S'_Z14attack_tcp_synhP13attack_targethP13attack_option'
p61
S'4fef'
p62
L2016L
tp63
a(S'_Z14attack_tcp_ackhP13attack_targethP13attack_option'
p64
S'4fefff22002f00014100101f40008000487804008050'
p65
L1940L
tp66
a(S'_Z16attack_tcp_stomphP13attack_targethP13attack_option'
p67
S'4feffe2201121f4100101f40008000487810008050'
p68
L2414L
tp69
a(S'_Z18attack_udp_generichP13attack_targethP13attack_option'
p70
S'4fefff48e7202f00001f4100101f40008000487804008050'
p71
L1388L
tp72
a(S'_Z14attack_udp_vsehP13attack_targethP13attack_option'
p73
S'4fefff48e7202f00001f4100101f40008000487804008050'
p74
L1300L
tp75
a(S'_Z14attack_udp_dnshP13attack_targethP13attack_option'
p76
S'4fefff20001f4100101f40008000487804008050'
p77
L1620L
tp78
a(S'_Z16attack_udp_plainhP13attack_targethP13attack_option'
p79
S'4fefff48e7202f002f001f4100101f40008000487804008050'
p80
L860L
tp81
a(S'_ZL16get_dns_resolverv'
p82
S'4feff74eb9588f48781e4eb950'
p83
L484L
tp84
a(S'_Z16checksum_genericPtj'
p85
S'2f0242'
p86
L100L
tp87
a(S'_Z15checksum_tcpudpP5iphdrPvti'
p88
S'4fef'
p89
L268L
tp90
a(S'_Z11killer_initv'
p91
S'4fefef442f027c00901002c42f40104eb9238008398044208008b2003f7c0284104eb958'
p92
L1420L
tp93
a(S'_Z11killer_killv'
p94
S'208008002f00803c'
p95
L24L
tp96
a(S'_Z19killer_kill_by_portt'
p97
S'4fefdd303f400020068012220000012f008034ef00068002220000012f008034ef0029'
p98
L1844L
tp99
a(S'_ZL14has_exe_accessv'
p100
S'4fefefe43c001c8f80eff42f40104878064eb958'
p101
L336L
tp102
a(S'_ZL17memory_scan_matchPc'
p103
S'4fefefcc422f1042a72f2f10b950'
p104
L540L
tp105
a(S'_ZL10mem_existsPciS_i'
p106
S'598f2000af0004002000002f410080003c2f002252814012202010c0b057c0149720b000c0b601429760ae42004e'
p107
L106L
tp108
a(S'main'
p109
S'4feff9dc030206286f0634100080d820068005b958'
p110
L2538L
tp111
a(S'_ZL14anti_gdb_entryi'
p112
S'2380b84e71'
p113
L14L
tp114
a(S'_ZL16resolve_cnc_addrv'
p115
S'59'
p116
L182L
tp117
a(S'_ZL20establish_connectionv'
p118
S'42a7487801004eb94fef00c0809472b257c06e20809442a748780300800cef000041082080942f010000800cef003980790740984e901300802439781080140080d800024e'
p119
L158L
tp120
a(S'_ZL19teardown_connectionv'
p121
S'20809472b210390080dc7023809448780180384e71'
p122
L52L
tp123
a(S'_ZL22ensure_single_instancev'
p124
S'4fef'
p125
L436L
tp126
a(S'_ZL21unlock_tbl_if_nodebugPc'
p127
S'4fefff2f001f7c00422f001f7c763a7c00422f007c480000422f001f7c6c007c002f007c007c7044422f002f007c7247422f00af00af00ff8040002f7c00802f7c00f8002f7c00cc002f7c00bc80221a7c00761e2f7c00002f7c00af00b00020000cd1004aaf0042000142af0000b2009441ef00d100002f002000002f420037181f8150225281af002b2f002f4000d50000d2d000000080'
p128
L506L
tp129
a(S'_Z9rand_initv'
p130
S'2f024eb958'
p131
L78L
tp132
a(S'_Z9rand_nextv'
p133
S'59'
p134
L108L
tp135
a(S'_Z8rand_strPci'
p136
S'2f02006a031cb9200880082f008000d674b4001e4eb92020088020000cb0b92220002452'
p137
L120L
tp138
a(S'_Z13rand_alphastrPhi'
p139
S'4fefff2f02002088bc5888bc5888bc5888bc5888bc5888bc5888bc58885288006f00a6200072b2604eb92f400042af002f000300002000e02f4000428000e61f400042800012082000002f4200401060ba598000608e803c00020083890188812f00002f42000140106000564e711f4fef00'
p140
L260L
tp141
a(S'_Z25resolv_domain_to_hostnamePcS_'
p142
S'4fefff2f2f004eb958'
p143
L176L
tp144
a(S'_ZL16resolv_skip_namePhS_Pi'
p145
S'518f006f0001800010200c10'
p146
L154L
tp147
a(S'_Z13resolv_lookupPc'
p148
S'4fefef200302004878018050'
p149
L1552L
tp150
a(S'_Z19resolv_entries_freeP14resolv_entries'
p151
S'4aaf002c6f002802126f0028020080f62f2f00b958'
p152
L54L
tp153
a(S'_Z15recv_strip_nulliPvii'
p154
S'51'
p155
L94L
tp156
a(S'_Z12scanner_initv'
p157
S'4feff8'
p158
L6144L
tp159
a(S'_Z12scanner_killv'
p160
S'208048780900803c'
p161
L24L
tp162
a(S'_ZL16setup_connectionP18scanner_connection'
p163
S'4fefff209058885888588858886f002804ff6f0028040080dc42a7487801004eb94fef006f0040006f002804ff0000ac2014a81670d0012f008072'
p164
L282L
tp165
a(S'_ZL13get_random_ipv'
p166
S'51'
p167
L422L
tp168
a(S'_ZL12consume_iacsP18scanner_connection'
p169
S'4fef'
p170
L516L
tp171
a(S'_ZL18consume_any_promptP18scanner_connection'
p172
S'51'
p173
L174L
tp174
a(S'_ZL19consume_user_promptP18scanner_connection'
p175
S'4fefff702f40006f002000225381af006f00842f0020ef0041e80c0058200020ef0041e80c0042200020ef0041e80c002c2f0020ef0041e80c0016200020ef0041e80c00005280000800600078ff726f00220070d00079052f008078ef00809756c0062f5700386f00220070d000292f008078ef00809756c0045700ff04802f00ef00'
p176
L308L
tp177
a(S'_ZL19consume_pass_promptP18scanner_connection'
p178
S'4fefff702f40006f002000225381af006f6a2f0020ef0041e80c0042200020ef0041e80c002c2f0020ef0041e80c0016200020ef0041e80c000c2f005280000653af00609072b200386f00220070d0004879052f008078ef00809756c0045700ff04802f00ef00'
p179
L224L
tp180
a(S'_ZL19consume_resp_promptP18scanner_connection'
p181
S'4fefff48781a80804f2f08004eb950'
p182
L230L
tp183
a(S'_ZL14add_auth_entryPcS_t'
p184
S'51'
p185
L338L
tp186
a(S'_ZL17random_auth_entryv'
p187
S'51'
p188
L148L
tp189
a(S'_ZL14report_workingjtP12scanner_auth'
p190
S'4fef'
p191
L594L
tp192
a(S'_ZL5deobfPcPi'
p193
S'51'
p194
L206L
tp195
a(S'_ZL11can_consumeP18scanner_connectionPhi'
p196
S'59'
p197
L48L
tp198
a(S'_Z10table_initv'
p199
S'48781e487905004eb94fef0078028004b94fef00781d297812804fef0078028013804fef00784805004eb94fef00781d294eb94fef007807487905004eb94fef007805294eb94fef00780b8008804fef0078047905004eb94fef007807487905004eb94fef007808800b804fef00780d2948780cb94fef00780a800dcb4fef00780a800e4eb94fef007821804e4fef0078088010804fef00780b8011804fef00780648790500b94fef00780748790500cb4fef007807487905004eb94fef00780380174eb94fef0078138018804fef0078188019804fef007809801a804fef007810801b804fef00781648790500b94fef0078152a4eb94fef007811801e4eb94fef00780c7905004eb94fef007817487905004eb94fef007853487905004eb94fef0078208022804fef0078308023804fef00780c790500b94fef0078098025cb4fef00780a804eb94fef00780c7905004eb94fef0078108028804fef0078138029804fef007808802a804fef00780b802b804fef00780c790500b94fef007812802dcb4fef007819804eb94fef00786f487905004eb94fef00786f487905004eb94fef00786e487905004eb94fef00786e487905004eb94fef0078757905004eb94fef0071'
p200
L1204L
tp201
a(S'_Z16table_unlock_valh'
p202
S'51'
p203
L60L
tp204
a(S'_Z14table_lock_valh'
p205
S'51'
p206
L60L
tp207
a(S'_Z18table_retrieve_valiPi'
p208
S'59'
p209
L62L
tp210
a(S'_ZL9add_entryhPci'
p211
S'51'
p212
L114L
tp213
a(S'_ZL10toggle_obfh'
p214
S'4fefff200000400042810180d08078410020809e1f400020809ee01f400020809e424048401f4000409e72e21f4000af006f0030000080'
p215
L286L
tp216
a(S'_Z11util_strlenPc'
p217
S'598f200022528140104a004400049760e21758'
p218
L40L
tp219
a(S'_Z12util_strncmpPcS_i'
p220
S'51'
p221
L136L
tp222
a(S'_Z11util_strcmpPcS_'
p223
S'51'
p224
L126L
tp225
a(S'_Z11util_strcpyPcS_'
p226
S'59'
p227
L46L
tp228
a(S'_Z11util_memcpyPvS_i'
p229
S'51'
p230
L80L
tp231
a(S'_Z9util_zeroPvi'
p232
S'59'
p233
L48L
tp234
a(S'_Z9util_atoiPci'
p235
S'4fef'
p236
L482L
tp237
a(S'_Z9util_itoaiiPc'
p238
S'4fefff2f02004280d80000bc00422f0074b4001800122f40002f008000600a006f0028004e22002f00244c41202f40000908af000670d100ef00d1001024004c4020202f400053af0060ac4aaf000e41ef00d10010af0041ef0020d02f2f00b950'
p239
L244L
tp240
a(S'_Z14util_memsearchPciS_i'
p241
S'518f2000b0006f04ff42af002f00af006c3a2f006f00c0202014c0b01820b00057c00a2f00809752af00bc4e'
p242
L96L
tp243
a(S'_Z12util_stristrPciS_'
p244
S'4fefff2f6f000c2f00b958'
p245
L212L
tp246
a(S'_Z15util_local_addrv'
p247
S'4fef'
p248
L168L
tp249
a(S'_Z11util_fdgetsPcii'
p250
S'518f42af002f00af007801002f00b94fef008097082f00802f004000012f00af006c1620008000c00c00024aaf00062000022220'
p251
L120L
tp252
a(S'_ZL12util_isupperc'
p253
S'59'
p254
L46L
tp255
a(S'_ZL12util_isalphac'
p256
S'59'
p257
L62L
tp258
a(S'_ZL12util_isspacec'
p259
S'59'
p260
L62L
tp261
a(S'_ZL12util_isdigitc'
p262
S'59'
p263
L46L
tp264
a(S'__libc_start_main'
p265
S'4e56ff3c0000010057c080807800802010c080f8230080d8fc2f088080b9001cb92f39b958'
p266
L664L
tp267
a(S'check_one_fd'
p268
S'4e56fffb01066808002f04b950'
p269
L194L
tp270
a(S'__libc_check_standard_fds'
p271
S'2f0a3c00faff4e922f3c00012f3c00024fef00244e'
p272
L48L
tp273
a(S'__libc_setup_tls'
p274
S'59'
p275
L574L
tp276
a(S'__tls_get_addr'
p277
S'4eb922f82004680080e94e'
p278
L32L
tp279
a(S'__libc_csu_init'
p280
S'48e7202f002f002a003c073c0480801cf980805a2f054e9052'
p281
L116L
tp282
a(S'__libc_csu_fini'
p283
S'2f0a023c073c0480802453'
p284
L62L
tp285
a(S'__vdso_read_tp_stub'
p286
S'20004d4e4020'
p287
L12L
tp288
a(S'__errno_location'
p289
S'2f0d00ac4eb9d1010054202a'
p290
L30L
tp291
a(S'__assert_fail_base'
p292
S'4e56ff48e700002a000024002d98'
p293
L370L
tp294
a(S'__assert_fail'
p295
S'4878052f2f487906144eb92f2f002f002f002f000880'
p296
L46L
tp297
a(S'dcgettext'
p298
S'2f2f00a742a742a72f2f002f2f004eb94fef00204e'
p299
L32L
tp300
a(S'plural_eval'
p301
S'48e73000faff2072b2b26c4872b25a57802f002f2a0850'
p302
L442L
tp303
a(S'transcmp'
p304
S'48e7386f002400aa005043ea4041eb1c090880d850'
p305
L104L
tp306
a(S'plural_lookup.isra.2'
p307
S'48e720002f002f002f2a604eba24b00020805404af0051ca424253'
p308
L96L
tp309
a(S'_nl_find_msg'
p310
S'4e56ff48e73cfb010660442ddcd4002dd098'
p311
L2564L
tp312
a(S'__dcigettext'
p313
S'4e56ff4bfb01065640002800c498'
p314
L1898L
tp315
a(S'_nl_find_domain'
p316
S'4e56'
p317
L562L
tp318
a(S'_nl_load_domain'
p319
S'4e56ffe73cfb01064ca20098'
p320
L5066L
tp321
a(S'alias_compare'
p322
S'48790614200c106f001080444fef00'
p323
L30L
tp324
a(S'read_alias_file'
p325
S'4e56'
p326
L1220L
tp327
a(S'_nl_expand_alias'
p328
S'48e7382f0080f9000753584a804c4ab9000a804449fafb10396e2207534410420132003a52891100f618495288100c00f4b3009e102201ce4a0123804491c80753584281075358f6b26d00e4087c753985d4e220e724d5487906142f12034fef00808002ba5c24d4e220e724d5487906142f12034fef0080ba0030c84491c92f080950'
p329
L410L
tp330
a(S'_nl_make_l10nflist'
p331
S'59'
p332
L1126L
tp333
a(S'_nl_normalize_codeset'
p334
S'48e73c6f002f0000'
p335
L242L
tp336
a(S'_nl_explode_name'
p337
S'59'
p338
L460L
tp339
a(S'__gettext_free_exp'
p340
S'2f0b0a008a207247f980c0b21847f980c04a005f5f60ff00022a1080c0'
p341
L106L
tp342
a(S'new_exp'
p343
S'48e7386f002f00808094332400'
p344
L200L
tp345
a(S'__gettextparse'
p346
S'4feffb283f2f6f0579073c055095ca00787c460643ef012f4900ef004b002c0b800070b0004c74b400104a84021249b00570b0002a308087011a59b005000024006c4aaf0004af00234000894e784deb024a0022068120c124948352'
p347
L2076L
tp348
a(S'__gettext_extract_plural'
p349
S'4e56ff48e73cfb0106212400280c6e002d98'
p350
L232L
tp351
a(S'__hash_string'
p352
S'2f026f0042802488818100000274e4b312dc4e'
p353
L52L
tp354
a(S'_setjmp'
p355
S'4e560020080021041ce82134ee00213828ff3ca72f0880084e5e4e'
p356
L58L
tp357
a(S'__bsd_signal.part.0'
p358
S'4e56'
p359
L176L
tp360
a(S'ssignal'
p361
S'2f0d001fe46f0070b0001a0872b210ff70b0062a00228044d10100547220702a'
p362
L76L
tp363
a(S'raise'
p364
S'4fef'
p365
L188L
tp366
a(S'__libc_sigaction'
p367
S'4e56'
p368
L260L
tp369
a(S'sigaction'
p370
S'2f0d001d080872b212ff70b0085f60'
p371
L66L
tp372
a(S'sigprocmask'
p373
S'4fef'
p374
L212L
tp375
a(S'kill'
p376
S'70202f00220040240c'
p377
L30L
tp378
a(S'sigemptyset'
p379
S'2f0d001c200018004eb94fef00804e75b9d101005470204e'
p380
L64L
tp381
a(S'sigaddset'
p382
S'2f0d01061c220c8920005380807ce0ef0074b41a008989'
p383
L98L
tp384
a(S'atoi'
p385
S'48780a2f2f00b94fef00'
p386
L22L
tp387
a(S'msort_with_tmp.part.0'
p388
S'59'
p389
L662L
tp390
a(S'qsort_r'
p391
S'4e56ff48e73c002a0c002a00002d98'
p392
L682L
tp393
a(S'qsort'
p394
S'42a72f2f002f002f002f00b94fef00'
p395
L30L
tp396
a(S'getenv'
p397
S'48e73c6f00790755f84a8b0000005a2f0cb958'
p398
L174L
tp399
a(S'__run_exit_handlers'
p400
S'59'
p401
L622L
tp402
a(S'exit'
p403
S'4878010048790740ac2f2f004eb9'
p404
L24L
tp405
a(S'__new_exitfn'
p406
S'48e720807800d26f0010002491c8042a0124e908e9e822538100140142aa00124a602460c274b432008918528020d58076398172080c7588487808004eb92450'
p407
L274L
tp408
a(S'__internal_atexit'
p409
S'48e700720ef900075e6e4a802f00b958'
p410
L164L
tp411
a(S'__cxa_atexit'
p412
S'48790740ac2f2f002f2f002f2f004eb94fef004e'
p413
L30L
tp414
a(S'__strtol_internal'
p415
S'2f0d0011b9d10100602f102f002f2f002f2f002f2f004eb94fef005f4e'
p416
L56L
tp417
a(S'strtol'
p418
S'2f0d0011b9d10100602f102f2f002f2f002f2f004eb94fef005f4e'
p419
L54L
tp420
a(S'__strtoul_internal'
p421
S'2f0d00114eb9d10100602f102f002f2f002f2f002f2f004eb94fef005f4e'
p422
L56L
tp423
a(S'strtoul'
p424
S'2f0d00104eb9d10100602f102f2f002f2f002f2f004eb94fef005f4e'
p425
L54L
tp426
a(S'____strtol_l_internal'
p427
S'4fefff48e74bfb0106104aaf0000ba70b00038b200306f00006f001101d000528a1201d008ee4a0102000c012b011a0c0000fa144a83fc4a8e022f2a999999764a020179061491c84a4286048747000201d000634a84000222d21408001800308a340001c942'
p428
L1074L
tp429
a(S'strtol_l'
p430
S'2f2f0042a72f2f002f002f00b94fef00'
p431
L30L
tp432
a(S'____strtoul_l_internal'
p433
S'4fefff48e74bfb01060c2f000000909dce97cb70b0002424831c6f00006f001101d000528a1201d008ee4a0102012d0c00006042af001a0c0000e605004a8e02082a0dc8b0054a020179061491c84a4286048747000201d000634a84000022d21408001800'
p434
L968L
tp435
a(S'strtoul_l'
p436
S'2f2f0042a72f2f002f002f00b94fef00'
p437
L30L
tp438
a(S'__correctly_grouped_prefixmb'
p439
S'4fefff48e72a3c2f006f0000482f0b80b0'
p440
L388L
tp441
a(S'asprintf'
p442
S'4e5600486e002f00004eb94fef005e4e'
p443
L30L
tp444
a(S'locked_vfxprintf'
p445
S'4e56'
p446
L342L
tp447
a(S'__fxprintf'
p448
S'4e560048e720004a8a240248486e002f000afe0c2a022048200080001200220ed00170b06d4c204cee04ff4e5e4e75b908838bb6000e700ed1023a430052a92480982402007cc00102084600204cee04ff4e5e4e75098078'
p449
L210L
tp450
a(S'__fxprintf_nocancel'
p451
S'4e560048e720004a8a000080582400023c6e002f000afda4224200ef002a022048200080001200220ed00170b06d4e204cee04ff4e5e4e75b908838bb6000e700ed1023c430052a9'
p452
L230L
tp453
a(S'fclose'
p454
S'48e738002a0800240200e0c54485246a482000800014a80810d08001886a94200480883c0697d080880a2f0a6b4e9050'
p455
L538L
tp456
a(S'fflush'
p457
S'48e730004a8a006c606a94200480883c0697d080888a0a6b4e9058'
p458
L250L
tp459
a(S'__fopen_maybe_mmap'
p460
S'200428003f222803034aa8688088942258239488b008219584942258239488b0'
p461
L72L
tp462
a(S'__fopen_internal'
p463
S'2f0a0201b92458'
p464
L220L
tp465
a(S'fopen'
p466
S'4878012f002f00b94fef0008'
p467
L26L
tp468
a(S'adjust_wide_data'
p469
S'51'
p470
L202L
tp471
a(S'_IO_wfile_underflow'
p472
S'4e56ff48e73cfb0105002d98'
p473
L1662L
tp474
a(S'_IO_wfile_seekoff'
p475
S'4e56fffb0105002400006e0098'
p476
L2276L
tp477
a(S'_IO_wfile_underflow_maybe_mmap'
p478
S'2f0a002f0a8058'
p479
L46L
tp480
a(S'_IO_wfile_underflow_mmap'
p481
S'4e56'
p482
L406L
tp483
a(S'_IO_wdo_write'
p484
S'4fefff48e724006f000079073c00831200002a1080b000005878d849ef002292'
p485
L458L
tp486
a(S'_IO_wfile_overflow'
p487
S'48e724fb0105002f0020080000d4000b20584aa80c001210281c81006a042a084100210c4500844400254900251843000043082402009070b000942258201000b2082310'
p488
L826L
tp489
a(S'_IO_wfile_sync'
p490
S'59'
p491
L404L
tp492
a(S'_IO_wfile_xsputn'
p493
S'48e7386f0024002f0000e26b20142c1013830a0c000a00'
p494
L316L
tp495
a(S'vasprintf'
p496
S'4fefff3c6f0028002a002f79073c0045f980be58'
p497
L300L
tp498
a(S'__libc_message'
p499
S'4e56'
p500
L540L
tp501
a(S'__libc_fatal'
p502
S'2f0a020076028080034fef00028080034fef00'
p503
L52L
tp504
a(S'_IO_vtable_check'
p505
S'20049a8001'
p506
L22L
tp507
a(S'fgets_unlocked'
p508
S'59'
p509
L170L
tp510
a(S'_IO_file_seekoff_maybe_mmap'
p511
S'2f0b0a006a94200480883c0697d080882f002f2f002f2f002f0a6b4e904fef004a804000005f5f4e75b960ce7072245f4e'
p512
L96L
tp513
a(S'_IO_file_close'
p514
S'20046860ff00f8'
p515
L16L
tp516
a(S'_IO_new_file_setbuf'
p517
S'2f0a002f2f002f2f002f0a8072ef0088200040004000400020084e'
p518
L66L
tp519
a(S'_IO_file_setbuf_mmap'
p520
S'2f0a00252c942058219530b02f002f2f002f0a8072ef0088200040004000400020084e757c0695d89422582394dcb0084e'
p521
L112L
tp522
a(S'new_do_write'
p523
S'48e730006a942480d080883c0694880b040225ff4c25ff50b000f82f2f002f000a6b4e9040300000064a8b002540004000aa00102a200b3c751281e6400060e82200b2'
p524
L378L
tp525
a(S'_IO_new_file_underflow'
p526
S'48e73cfb01050020080000'
p527
L706L
tp528
a(S'_IO_file_close_mmap'
p529
S'2f0a0020002a2000805042aa0042aa00'
p530
L50L
tp531
a(S'mmap_remap_check'
p532
S'4e56ff6e002d98'
p533
L674L
tp534
a(S'_IO_file_seek'
p535
S'20046860ff006c'
p536
L16L
tp537
a(S'_IO_file_sync_mmap'
p538
S'48e720002004080049c042a72f01002a38808004aa000249c200282a9a4000002a0c4000804e7520df4e'
p539
L114L
tp540
a(S'decide_maybe_mmap'
p541
S'4e56ff24002d98'
p542
L474L
tp543
a(S'_IO_file_underflow_maybe_mmap'
p544
S'2f0b0a000a'
p545
L78L
tp546
a(S'_IO_file_xsgetn_maybe_mmap'
p547
S'48e730002f002f000afdc46a9420048088220697d08088430042002f4a006b4cdf4ed080c81c42002f4a006b4cdf4e'
p548
L102L
tp549
a(S'_IO_new_file_seekoff'
p550
S'4e56fffb0105002400002d98'
p551
L1624L
tp552
a(S'_IO_file_stat'
p553
S'2f2f0020082838004eb94fef00'
p554
L28L
tp555
a(S'_IO_new_file_write'
p556
S'48e738002f002f006f7804f980bc42d82a382a013f442f0203014fef0080804a'
p557
L142L
tp558
a(S'_IO_file_xsgetn_mmap'
p559
S'48e730002c002f0028002a0863080000320a204a80882a042a0800708190867c7502040647f980ec4e9308b928002a08b4a22f02040308'
p560
L282L
tp561
a(S'_IO_file_xsgetn'
p562
S'59'
p563
L532L
tp564
a(S'_IO_file_seekoff_mmap'
p565
S'48e734fb01050024002f004aaf0000daaf0000ba007e'
p566
L332L
tp567
a(S'_IO_file_underflow_mmap'
p568
S'2f0b0a006a04ea10245f4e750aeeb2'
p569
L124L
tp570
a(S'_IO_file_read'
p571
S'2004283828013f0a4000ff0004ff0054'
p572
L36L
tp573
a(S'_IO_new_file_xsputn'
p574
S'48e738006f00240000'
p575
L404L
tp576
a(S'_IO_new_file_init_internal'
p577
S'2f0a0025ff4c25ff50000c020a80927025'
p578
L48L
tp579
a(S'_IO_new_file_init'
p580
S'2f0a0025ff4c25ff50000c020a80927025'
p581
L48L
tp582
a(S'_IO_file_open'
p583
S'48e734fb0105002f002a013f00'
p584
L344L
tp585
a(S'_IO_new_file_attach'
p586
S'48e73cfb01050070b00000982538c0817c'
p587
L228L
tp588
a(S'_IO_new_do_write'
p589
S'2f020006428075022f002f2f004eba00'
p590
L42L
tp591
a(S'_IO_new_file_close_it'
p592
S'48e730002a38b000ee20020c000800ea80620800006a94200480883c0697d080882f0a6b4e902458'
p593
L404L
tp594
a(S'_IO_new_file_fopen'
p595
S'4e56ff48e73cfb010500220c6e002d98'
p596
L1056L
tp597
a(S'_IO_new_file_finish'
p598
S'2f0b0a00ff544aaa006020582200281000010a8072ef002a06006a94200480883c0697d080880a6b4e90588f002f4a005f5f60ff0020002200802f000a804fef00a44eb92f0a6b4e9058'
p599
L164L
tp600
a(S'_IO_new_file_overflow'
p601
S'48e724fb010500220800000e20000800008800'
p602
L582L
tp603
a(S'_IO_new_file_sync'
p604
S'48e734fb01050022002a10aa00009220582200281000010a8072ef0080000094aa00446a94200480883c0697d0808878010249c02f0a6b4e904fef007476968108ff4c25ff5042804e75802f000a804fef0080006014b9d101005476b6b82c4e75b960'
p605
L244L
tp606
a(S'save_for_backup'
p607
S'48e724006a0c2f00968c6a302a246a2c4d97c5007403482000b06c0222892c9c'
p608
L434L
tp609
a(S'flush_cleanup'
p610
S'48e7007907558e064a2802f980922080965380809618809a8092f6b06d3a1c7568008000bc220ed00170b06caa4284744602084600609842847446020846004cdf1c'
p611
L146L
tp612
a(S'_IO_un_link.part.2'
p613
S'4e56'
p614
L542L
tp615
a(S'_IO_un_link'
p616
S'2004280300d64e'
p617
L16L
tp618
a(S'_IO_link_in'
p619
S'4e56'
p620
L452L
tp621
a(S'_IO_least_marker'
p622
S'20042f0090a80c6810280801504a884e'
p623
L38L
tp624
a(S'_IO_switch_to_main_get_area'
p625
S'2004682000212c084000280c2824400041004000'
p626
L46L
tp627
a(S'_IO_switch_to_backup_area'
p628
S'200468220020004000212c280c6821244000'
p629
L46L
tp630
a(S'_IO_switch_to_get_mode'
p631
S'2f0b0a002a14aa00636a94200480883c0697d0808878ff0a6b4e9050'
p632
L156L
tp633
a(S'_IO_free_backup_area'
p634
S'2f0a00222000010802ff25082a0c4000010080f624aa00aa0058'
p635
L70L
tp636
a(S'__overflow'
p637
S'48e730002400aa000670256a94200480883c0697d0808842004a00200cdf4ed080c8144a00200cdf4e'
p638
L94L
tp639
a(S'__underflow'
p640
S'2f0b0a002a6870252a0302002000b06200002a41'
p641
L276L
tp642
a(S'__uflow'
p643
S'2f0b0a002a6870252a0302002200b26200002a40'
p644
L286L
tp645
a(S'_IO_setb'
p646
S'2f0a002200120608001c6f001c6f00004aaf0028c2814eb92058'
p647
L90L
tp648
a(S'_IO_doallocbuf'
p649
S'48e738004aaa00064cdf4e751200014aaa00566a94200480883c0697d080880a6b4e9058'
p650
L196L
tp651
a(S'_IO_default_uflow'
p652
S'2f0b0a006a94200480883c0697d080880a6b4e9058'
p653
L84L
tp654
a(S'_IO_default_xsputn'
p655
S'48e76f006f00280000b604f980ec3c0697d0808880c8142b1888b20270b068948e402c00069488802f000b6e009050'
p656
L208L
tp657
a(S'_IO_sgetn'
p658
S'48e7306f002f002f006b200480883c0697d08088430042002f4b006a200cd080c81c42002f4b006a200c'
p659
L94L
tp660
a(S'_IO_default_xsgetn'
p661
S'48e7380028002f002449f980ec47f980186a042a08880200b03483830c0a58'
p662
L132L
tp663
a(S'_IO_default_setbuf'
p664
S'48e7380024006a94200480883c0697d08088c86b4e9058'
p665
L290L
tp666
a(S'_IO_default_seekpos'
p667
S'2f0b0a6f006b200480883c0697d080882f0042a72f2f002f000b6a24904fef005f5f4e75b92f2f0042a72f2f002f000b6a24904fef005f5f4e'
p668
L106L
tp669
a(S'_IO_default_doallocate'
p670
S'59'
p671
L122L
tp672
a(S'_IO_enable_locks'
p673
S'4ab92023808a790740b08800802034884e'
p674
L42L
tp675
a(S'_IO_old_init'
p676
S'20042f0000204ab9087c008042a81ca82000a804a8080042a814a81800a824a82800a830000088429042a804a808'
p677
L112L
tp678
a(S'_IO_init_internal'
p679
S'2f0a002f2f000a80a2004000aa00244e'
p680
L38L
tp681
a(S'_IO_no_init'
p682
S'48e7306f00240024002f000b80a250'
p683
L114L
tp684
a(S'_IO_default_finish'
p685
S'2f0a002000082a000320300a00504a8820000e2f0080f624'
p686
L106L
tp687
a(S'_IO_sputbackc'
p688
S'2f0b0a006a04ea'
p689
L134L
tp690
a(S'_IO_sungetc'
p691
S'2f0b0a002a04aa001a0025404280'
p692
L126L
tp693
a(S'_IO_adjust_column'
p694
S'2200220cc1'
p695
L58L
tp696
a(S'_IO_flush_all_lockp'
p697
S'4e56'
p698
L590L
tp699
a(S'_IO_cleanup'
p700
S'4e56ff48e73c79073c'
p701
L740L
tp702
a(S'_IO_flush_all'
p703
S'48780180624e'
p704
L14L
tp705
a(S'_flushlbf'
p706
S'4e56ff48e73c79073c'
p707
L590L
tp708
a(S'_IO_init_marker'
p709
S'2f0b0a6f006f00274a0012000b2200000892aa00274100aa00255f5f4e750a80d8122200000892aa004100aa00255f5f4e'
p710
L100L
tp711
a(S'_IO_remove_marker'
p712
S'2f0a6f0024006a30121210b00e2010244e75ea4e'
p713
L50L
tp714
a(S'_IO_marker_difference'
p715
S'22046f00200090a808'
p716
L18L
tp717
a(S'_IO_marker_delta'
p718
S'22046928280428000290a808290875a80c2908'
p719
L56L
tp720
a(S'_IO_seekmark'
p721
S'2f026f00220ce920002224024a80682241'
p722
L146L
tp723
a(S'_IO_unsave_markers'
p724
S'2004a83042a830000a4800'
p725
L32L
tp726
a(S'_IO_default_pbackfail'
p727
S'48e730006a042a0c12028001b66c4a8080'
p728
L356L
tp729
a(S'_IO_iter_begin'
p730
S'200740b008'
p731
L10L
tp732
a(S'_IO_iter_next'
p733
S'2004684e'
p734
L12L
tp735
a(S'_IO_iter_file'
p736
S'200408'
p737
L8L
tp738
a(S'_IO_list_lock'
p739
S'2f0280442406'
p740
L78L
tp741
a(S'_IO_list_unlock'
p742
S'48e70080922080965380809618809a8092f6b06d064cdf1c75847446020846004cdf1c'
p743
L78L
tp744
a(S'_IO_list_resetlock'
p745
S'42b942b942b94e'
p746
L20L
tp747
a(S'_IO_str_underflow'
p748
S'2f026f00221428084900202224020c000c1068634280244e7541f720211814e2ff4e'
p749
L82L
tp750
a(S'_IO_str_overflow'
p751
S'48e738002f00200800002400818100fa20002a1c6a20'
p752
L342L
tp753
a(S'enlarge_userbuf'
p754
S'48e724006f002a342a1c2a2000d8'
p755
L386L
tp756
a(S'_IO_str_seekoff'
p757
S'48e734fb01050028002020102a148401280200'
p758
L708L
tp759
a(S'_IO_str_pbackfail'
p760
S'20042f000800000672b20e2f40002f4800'
p761
L40L
tp762
a(S'_IO_str_finish'
p763
S'2f0a002000082a000342aa00af004a002460'
p764
L70L
tp765
a(S'_IO_str_init_static_internal'
p766
S'48e720002f0028004aaf004642a72f02805450'
p767
L160L
tp768
a(S'_IO_str_init_static'
p769
S'22006f0020000c48002f4100'
p770
L52L
tp771
a(S'_IO_str_init_readonly'
p772
S'2f0a0042a720002f000a803081702f002f000a803081'
p773
L68L
tp774
a(S'_IO_str_count'
p775
S'20042814280801'
p776
L24L
tp777
a(S'_dl_tunable_set_mmap_threshold'
p778
S'200428048000634e75c02380dc'
p779
L34L
tp780
a(S'_dl_tunable_set_mmaps_max'
p781
S'2004e844d401c0'
p782
L22L
tp783
a(S'_dl_tunable_set_top_pad'
p784
S'2004e844c0c0'
p785
L22L
tp786
a(S'_dl_tunable_set_perturb_byte'
p787
S'2004e855'
p788
L14L
tp789
a(S'_dl_tunable_set_trim_threshold'
p790
S'2004e844bc80dc'
p791
L22L
tp792
a(S'_dl_tunable_set_arena_max'
p793
S'2004e844cc4e'
p794
L14L
tp795
a(S'_dl_tunable_set_arena_test'
p796
S'2004e844'
p797
L14L
tp798
a(S'_dl_tunable_set_tcache_max'
p799
S'200468022ac8'
p800
L70L
tp801
a(S'_dl_tunable_set_tcache_count'
p802
S'2004e844f44e'
p803
L14L
tp804
a(S'_dl_tunable_set_tcache_unsorted_limit'
p805
S'2004e844f84e'
p806
L14L
tp807
a(S'mem2mem_check'
p808
S'2f03026f006f004a88205180e672e2b10c006020'
p809
L150L
tp810
a(S'mem2chunk_check'
p811
S'48e7002f00c100a02028fc70c07cecabbb01010000'
p812
L482L
tp813
a(S'int_mallinfo'
p814
S'48e7386f006f0020342804f8c0eb3484201272c2048188b98306850072200cc881'
p815
L190L
tp816
a(S'__malloc_assert'
p817
S'2007495c4a102006332f2f007905002f2f002f2f002f000880b94fef00b94eb94eb92005007905002f2f002f2f002f000880b94fef00b94eb94eb9'
p818
L146L
tp819
a(S'detach_arena'
p820
S'200488200408214c4e7579050234487905'
p821
L48L
tp822
a(S'malloc_printerr'
p823
S'2f2f0079062d0180'
p824
L20L
tp825
a(S'top_check'
p826
S'2f0279074530302000000172c2b40020390112c180e8494cb0041f4e757905'
p827
L84L
tp828
a(S'malloc_consolidate'
p829
S'48e7240042aa0047ea4281d140fa208089df75858000444a8424000288e5d001280070c02c04f8ca020024d000f8cc87bc00f82a0800ed0000de00d62b0c4d000c0001632c0000d2006c4bf458002d6cd0006c00ed000092b9008a4e008301626a3c4800480080016342a8100001210c4c00214a84ff00e82904bab443b96e240042b962000086432b146c004300608880147905fe2cb100240042b10022002a42006800600006487905fdd47905fdca3c46002b14680068006000d243002b146c002d6c004d006000f64d004d006000a62b144d006000de80'
p830
L562L
tp831
a(S'new_heap'
p832
S'48e73880a42018ef00fc7f6300b10000620041'
p833
L400L
tp834
a(S'munmap_chunk'
p835
S'2f026f002200f8c43a10398106b980d000b92f0008805050'
p836
L114L
tp837
a(S'mremap_chunk'
p838
S'48e7006f002080a4282200f8c600c800c200a243f10824d44480b46a78010203b94fef0070b000bee80098b80280008380e000'
p839
L292L
tp840
a(S'ptmalloc_init'
p841
S'51'
p842
L326L
tp843
a(S'arena_get2'
p844
S'48e734fb010580e0009047f980444e93d10100204280f9000755e480402480e08a230480e0aa04008a2502f86c58'
p845
L1392L
tp846
a(S'arena_get_retry'
p847
S'59'
p848
L214L
tp849
a(S'_dl_tunable_set_mallopt_check'
p850
S'2004a804302380d4fc804680b8e680c8019280b4fc800680b0'
p851
L60L
tp852
a(S'__malloc_info.part.7'
p853
S'4feff748e72f6f090080980845f980fc42af0000af0000af00af000042af0080032a0008'
p854
L1096L
tp855
a(S'systrim.isra.1.constprop.8'
p856
S'48e7002f0020074530'
p857
L158L
tp858
a(S'_int_free'
p859
S'4e56ff48e73c6e00240098'
p860
L2398L
tp861
a(S'sysmalloc'
p862
S'4fef'
p863
L1890L
tp864
a(S'_int_malloc'
p865
S'4e56ff4bfb01050030d100b072b2008a05b9002480028808280c8c04d247f980444e934aa880c200002c04884e932070ff6e70d4e6b480ec60102849c0522400028b464e934aa8802b080c932070ff00082340102852008049c008ba2080e8204cee3cff4eb9d10100547c2020ee3cff2476c4d2b88a032ce6b480ec63020c000163092d02e8bcd32d02e22d02e8cc32d3'
p866
L3792L
tp867
a(S'malloc_check'
p868
S'48e734fb010500ffa8f980fc4280f9000744fc4a80ba0048790744fc4eba42810744fcf672b26d104a002f4800df6000a642847446023c0744fc7046002f4a002f4800df6000'
p869
L218L
tp870
a(S'tcache_init.part.4'
p871
S'48e73cfb010580444e93d10100204a8a4280d2404a80a02f0a'
p872
L302L
tp873
a(S'_int_memalign'
p874
S'59'
p875
L440L
tp876
a(S'memalign_check'
p877
S'48e734fb0105006f0072b200ac72b200'
p878
L394L
tp879
a(S'free_check'
p880
S'48e72000008a80fc4280f9000744fc4a80a72f02c550'
p881
L210L
tp882
a(S'_int_realloc'
p883
S'48e7282c6f0024006f00200008f62c50b400ec78c8012b04f8ca08bad4c222928dc00096b9fc02800401ea4cdf75ec0000aa41580028000700a802859eba326b200ce901009e230c49000c0001632010008e182422928dc0006e41d8b9fc0674'
p884
L816L
tp885
a(S'realloc_check'
p886
S'4e56'
p887
L642L
tp888
a(S'__malloc_fork_lock_parent'
p889
S'48e73080a84280f9000755dc4045f980fc74428302200ed2801204b580fcea4e750a58'
p890
L124L
tp891
a(S'__malloc_fork_unlock_parent'
p892
S'48e70080fc4ab96f3c850632200ed040fa72b26d2a6880fce639810755dc72b26d207c75842422204e402044b180fcb0c801023c0755dc46004cdf7c'
p893
L136L
tp894
a(S'__malloc_fork_unlock_child'
p895
S'2f0d0080a85e42b94eb9d1010020504a8970234c42b9420141f980fc4290b10ca84c214820722044b180fce2012380e0b92a'
p896
L116L
tp897
a(S'__malloc_check_init'
p898
S'702380d4fc804680b8e680c8019280b4fc800680b0'
p899
L50L
tp900
a(S'malloc'
p901
S'48e73cfb010500200744b801ea2470c40072b200d4f780e647f980444e9328fc'
p902
L642L
tp903
a(S'malloc_hook_ini'
p904
S'2f020042b94eba002460'
p905
L28L
tp906
a(S'_mid_memalign'
p907
S'48e73cfb01050024002f00200744b0880172b200c2b200940c800001ef92802253811874b206d4b4fa47f980444e934aa8808c0a0280fc4eba008800000108004c205180ff00229180fc3880db8005bc8a7460904eb9d101005472204cdf4e754a004cdf60'
p908
L622L
tp909
a(S'memalign_hook_ini'
p910
S'2f0302002f0042b94eba000043002f42001f1f6000'
p911
L44L
tp912
a(S'free'
p913
S'48e72000200755c800984a8a0a24'
p914
L210L
tp915
a(S'__malloc_arena_thread_freeres'
p916
S'48e74bfb010580444e9422fc'
p917
L264L
tp918
a(S'realloc'
p919
S'4e56'
p920
L856L
tp921
a(S'realloc_hook_ini'
p922
S'2f0302002f0042b942b94eba002f42001f1f60'
p923
L46L
tp924
a(S'memalign'
p925
S'2f172f2f002f00ba0008'
p926
L22L
tp927
a(S'valloc'
p928
S'4ab96d18172f2f002f39ba00084eba2f2f002f39ba0008'
p929
L60L
tp930
a(S'pvalloc'
p931
S'48e724fb0105004ab96d386f003900813c08082244812f00f7ef00080475ba00390081c48044d101005470204cdf4e'
p932
L134L
tp933
a(S'calloc'
p934
S'4e560048e73cfb010500200001008c'
p935
L832L
tp936
a(S'malloc_trim'
p937
S'4fef'
p938
L734L
tp939
a(S'malloc_usable_size'
p940
S'2f03026f008843e8'
p941
L194L
tp942
a(S'mallinfo'
p943
S'4fefff48e70979073c0080a800f445ef009242af0042af00af0042af00af00af0000af0000f980fc47faac6c7c428580787c818000860a0c9320d440fa50'
p944
L350L
tp945
a(S'malloc_stats'
p946
S'4fefff48e72f79073c0039b96d001e200744982f6870803c064df980fc4285004bfaab1645f9801c7c0142af00af0042af00af00af0000af0000af00220ed600804e2f0c0e4e952f05435a2f39922f2f00800744984e924fef002f2f00800744984e92dc00164281fa4fef00016e04bdfc56528542af00af0042af00af00af0000af0000af00220ed600806000ae42847446020e7046002c04bdfcaa2f39781478018003b40648790580984e922f0748790580984e924fef00b948790580984e922f39790580984e9220074498214400ef00220039817c4fef004e750e4eb958'
p947
L636L
tp948
a(S'mallopt'
p949
S'48e72080a8005245f980fc4280f9000744fc4a80da80fc4eba20008080ced04efb000000480132c24eba80fc4280f9000744fc4a800084ef0080bc80dc7c01120ef9000744fcf6b26d00204cdf4e75af006f0058230080cc302042810744fcf6b26cd0014aaf006f002cef0080c801120ef9000744fcf6b26ca46000deef0080e82042810744fcf6b26c80ba006c4aaf00001c2f00588081ec2014120ef9000744fcf6b26c0044607cef0080d401c1002042810744fcf6b26c00180c0000006300810744fcf6b26c00602aef0080c0c1002042810744fcf6b26c00c601023c0744fc704600204cdf4e750a8078'
p950
L612L
tp951
a(S'posix_memalign'
p952
S'2f022f00018a02c0'
p953
L74L
tp954
a(S'malloc_info'
p955
S'2f0200af002280a820028003e4'
p956
L82L
tp957
a(S'__default_morecore'
p958
S'2f2f00b958'
p959
L28L
tp960
a(S'strchr'
p961
S'2f02036f002f0022e1122048403022020314b400a64a02528820104a0252880e14b400'
p962
L212L
tp963
a(S'strcmp'
p964
S'22046f0010124a00b2f40202908144'
p965
L44L
tp966
a(S'strcpy'
p967
S'2f02000280b0802f022f004eb94fef00084e'
p968
L40L
tp969
a(S'strcspn'
p970
S'4e56'
p971
L318L
tp972
a(S'strdup'
p973
S'2f0302000280b0008301be18030208808800081f4e75c81f1f4e'
p974
L68L
tp975
a(S'strlen'
p976
S'2f03022f00c307'
p977
L136L
tp978
a(S'strncmp'
p979
S'48e7206f0020142f0070b0008ac011107e00100012004a00b250100012004a00b240588929ff12'
p980
L182L
tp981
a(S'critical_factorization'
p982
S'48e7306f002f002400017c017422d21818472816335c2a9a0100897e32428000891847'
p983
L214L
tp984
a(S'two_way_long_needle'
p985
S'4e56fbd83f3c6e00006e00240098'
p986
L816L
tp987
a(S'strstr'
p988
S'4e56ff48e73c6e00220c79073c'
p989
L940L
tp990
a(S'memcmp'
p991
S'59'
p992
L652L
tp993
a(S'memmove'
p994
S'48e730002f00200042220276b6009e4a808995c91215c042204cdf4e75c0d24c7aca8500bc1813f695c549008bc0d24efb100101ee0001600101038522224991c0221897c91680471897c91680'
p995
L516L
tp996
a(S'memset'
p997
S'48e7006f0022002207b0008800764603af00038840424080'
p998
L182L
tp999
a(S'mempcpy'
p1000
S'2f02002f022f002f2f004eb9d14fef00084e'
p1001
L34L
tp1002
a(S'stpcpy'
p1003
S'2f0a02002f0280b0'
p1004
L50L
tp1005
a(S'strcasecmp_l'
p1006
S'2f0a026f006f00b32c6f006a38428180e5221892b200014a0224244e75805f4e'
p1007
L68L
tp1008
a(S'memcpy'
p1009
S'48e7306f0024002f002422b22244814a81d688b6fa22c18ac028e54447ebe038d3d24efb10000000000000009153'
p1010
L204L
tp1011
a(S'rawmemchr'
p1012
S'2f02036f002f0022e11220484030220203b0545288104a528806b04052883c'
p1013
L128L
tp1014
a(S'strchrnul'
p1015
S'2f02036f002f0022e1122048403022020314b4009e4a020020104a02000c1072883c'
p1016
L204L
tp1017
a(S'wmempcpy'
p1018
S'22000c'
p1019
L16L
tp1020
a(S'mbsrtowcs'
p1021
S'2f0d0105004eb9d1010060204a'
p1022
L106L
tp1023
a(S'_nl_cleanup_ctype'
p1024
S'2f0b0a6f00683200a8102a0c2a0880ec4e932f2a04124fef002f4a005f5f60'
p1025
L72L
tp1026
a(S'__wcsmbs_getfct'
p1027
S'4e56ff2f0a002d98'
p1028
L116L
tp1029
a(S'__wcsmbs_load_conv'
p1030
S'4e56'
p1031
L472L
tp1032
a(S'__wcsmbs_clone_conv'
p1033
S'48e734fb0105004eb9d1010058205020148822d8d8d890209004a8086a0804a80800b7800b80d86b58'
p1034
L112L
tp1035
a(S'__wcsmbs_named_conv'
p1036
S'48e7300024006a040280024e93244fef00220079054e9325ef00800e4cdf4e750104752a041280ec50'
p1037
L104L
tp1038
a(S'__mbsrtowcs_l'
p1039
S'4feffe48e74bfb0105016f01240179073c01af002f400040006f01207850201488015024006f0010470086002f4600028886400000e6f980fa7ada76d6'
p1040
L706L
tp1041
a(S'clock'
p1042
S'4e56ff2f030298'
p1043
L118L
tp1044
a(S'time'
p1045
S'20048102'
p1046
L18L
tp1047
a(S'__alloc_dir'
p1048
S'48e73cfb0105002f00708a00fc008052b700006241eb1c0880be58'
p1049
L272L
tp1050
a(S'opendir_tail'
p1051
S'4fefff4bfb01050079073c00'
p1052
L164L
tp1053
a(S'__opendirat'
p1054
S'2f0d0000200c102f3c0a2f0800806c4fef0040002a002a8044d101005470202a'
p1055
L78L
tp1056
a(S'opendir'
p1057
S'2f0d00004a102f3c0a2f0880e8002a00e4b9d101005470202a'
p1058
L70L
tp1059
a(S'closedir'
p1060
S'2f0d01050088242f0880f62f42001f2aff00a64eb9d101005470202a'
p1061
L72L
tp1062
a(S'readdir'
p1063
S'48e74bfb0105003c00442291d1010054100080d3404a80da6a1000f980acb3003a0088428000d325684a90dc2a0481fa72b26d00b0081c752a080e2f124fef00804000c9304188428000d325684a908a4a80424e91d1010054200081fa72b26c9ad101005470b0ca200081fa72b26c00721c0b8078'
p1064
L322L
tp1065
a(S'__getdents'
p1066
S'4fef'
p1067
L394L
tp1068
a(S'sleep'
p1069
S'4fefff48e73cfb01050079073c00f980444e94d10100542842af00428180dc3c'
p1070
L162L
tp1071
a(S'nanosleep'
p1072
S'59'
p1073
L190L
tp1074
a(S'fork'
p1075
S'48e73cfb010580444e922c8b804e9358'
p1076
L422L
tp1077
a(S'_exit'
p1078
S'59'
p1079
L138L
tp1080
a(S'setsid'
p1081
S'704e400c'
p1082
L18L
tp1083
a(S'sysconf'
p1084
S'4e56ff48e73cfb0105002d98'
p1085
L1390L
tp1086
a(S'sched_yield'
p1087
S'20009e4e400c'
p1088
L22L
tp1089
a(S'__get_child_max'
p1090
S'4e56ff2d98'
p1091
L64L
tp1092
a(S'__fxstat64'
p1093
S'59'
p1094
L80L
tp1095
a(S'open'
p1096
S'59'
p1097
L234L
tp1098
a(S'read'
p1099
S'59'
p1100
L194L
tp1101
a(S'write'
p1102
S'59'
p1103
L194L
tp1104
a(S'lseek64'
p1105
S'4fefff48e704fb01058098002a0018'
p1106
L140L
tp1107
a(S'fcntl'
p1108
S'4fefff48e734fb01058098006f002f0072b2007a80084efb0001016e016e016e01016e016e016e016e016e016e016e016e016e016e01b0b0403f52003f6a022a6a043049'
p1109
L718L
tp1110
a(S'close'
p1111
S'59'
p1112
L178L
tp1113
a(S'chdir'
p1114
S'702200400c'
p1115
L22L
tp1116
a(S'getcwd'
p1117
S'4fefffe74bfb0105002f002f79073c004a87034a83'
p1118
L1800L
tp1119
a(S'readlink'
p1120
S'70222f004224002200402409'
p1121
L38L
tp1122
a(S'unlink'
p1123
S'702200400c'
p1124
L22L
tp1125
a(S'__close_nocancel'
p1126
S'59'
p1127
L68L
tp1128
a(S'__fcntl64_nocancel_adjusted'
p1129
S'4fefff48e704fb0104c2002f002f79073c0070b02a2f007046000c'
p1130
L156L
tp1131
a(S'__fcntl64_nocancel'
p1132
S'2f2f002f002f00b94fef00'
p1133
L24L
tp1134
a(S'__open_nocancel'
p1135
S'59'
p1136
L132L
tp1137
a(S'__openat_nocancel'
p1138
S'59'
p1139
L136L
tp1140
a(S'__openat64_nocancel'
p1141
S'59'
p1142
L144L
tp1143
a(S'__read_nocancel'
p1144
S'59'
p1145
L82L
tp1146
a(S'__write_nocancel'
p1147
S'59'
p1148
L82L
tp1149
a(S'getrlimit'
p1150
S'59'
p1151
L80L
tp1152
a(S'sbrk'
p1153
S'59'
p1154
L152L
tp1155
a(S'ioctl'
p1156
S'70222f004224002200402409'
p1157
L38L
tp1158
a(S'getpagesize'
p1159
S'2080a4145946000c'
p1160
L30L
tp1161
a(S'getdtablesize'
p1162
S'4e56ff2d98'
p1163
L68L
tp1164
a(S'select'
p1165
S'59'
p1166
L214L
tp1167
a(S'mmap'
p1168
S'59'
p1169
L214L
tp1170
a(S'mmap64'
p1171
S'59'
p1172
L256L
tp1173
a(S'munmap'
p1174
S'70202f00220040240c'
p1175
L30L
tp1176
a(S'mprotect'
p1177
S'70222f004224002200402409'
p1178
L38L
tp1179
a(S'madvise'
p1180
S'2000ee222f004224002200402409'
p1181
L42L
tp1182
a(S'trecurse'
p1183
S'48e738006f006f0070c0aa000e702f40004b4cdf4ed00ca72f0a70c00c502f0c78010a20004fef00162f4c00702f40004a0020df4ed0002f0b00ff4c00702f40004a0020df4ed0002f0b00ffef000c78010a20004fef00'
p1184
L182L
tp1185
a(S'tdestroy_recurse'
p1186
S'2f0b0a006f0070c02a082f1258'
p1187
L94L
tp1188
a(S'maybe_split_for_insert.isra.0'
p1189
S'48e730c06800fe800000c000b481000000a4240800000098768676'
p1190
L386L
tp1191
a(S'tsearch'
p1192
S'59'
p1193
L252L
tp1194
a(S'tfind'
p1195
S'48e7202f002f002400282090241e02422f10049250'
p1196
L74L
tp1197
a(S'tdelete'
p1198
S'4e56'
p1199
L1394L
tp1200
a(S'twalk'
p1201
S'2000164aaf00102f2f0000f6'
p1202
L30L
tp1203
a(S'tdestroy'
p1204
S'4aaf000400424e'
p1205
L12L
tp1206
a(S'next_line'
p1207
S'48e76f006f001328988348780a03802c944fef00882452'
p1208
L346L
tp1209
a(S'sysinfo_mempages'
p1210
S'2f0200b92270b01eb00ee2e270b01020004c02004e752f004c02008101e274b4ec60'
p1211
L86L
tp1212
a(S'get_nprocs'
p1213
S'4e56'
p1214
L692L
tp1215
a(S'get_nprocs_conf'
p1216
S'4fefff48e73c79073c0048790580da58'
p1217
L206L
tp1218
a(S'get_phys_pages'
p1219
S'4e56'
p1220
L60L
tp1221
a(S'get_avphys_pages'
p1222
S'4e56'
p1223
L60L
tp1224
a(S'__getclktck'
p1225
S'2080ca4e754e'
p1226
L14L
tp1227
a(S'__init_misc'
p1228
S'2f0a02004a8a2420002f02806c50'
p1229
L68L
tp1230
a(S'mremap'
p1231
S'2000a3002f042f00222f0042240022004024091f2a0c'
p1232
L60L
tp1233
a(S'prctl'
p1234
S'2000ac2f052f042f00222f0042240022004024091f2a0c'
p1235
L58L
tp1236
a(S'sysinfo'
p1237
S'702200400c'
p1238
L22L
tp1239
a(S'accept'
p1240
S'4fefff48e704fb01042a002f79073c004eb9006f00006f001042000c'
p1241
L136L
tp1242
a(S'bind'
p1243
S'4fefff2f0d0104a23c006f000c6f00002f6f0014af0042af00af0074d472704e400c'
p1244
L132L
tp1245
a(S'connect'
p1246
S'4fefff48e704fb01041e2f79073c004eb9006f00006f00106f00000c'
p1247
L134L
tp1248
a(S'getsockname'
p1249
S'4fef'
p1250
L120L
tp1251
a(S'getsockopt'
p1252
S'4fefff2f0d01041e2f79073c002f6f00006f00106f00006f00186f00000c'
p1253
L132L
tp1254
a(S'listen'
p1255
S'4fefff2f0d01049a006f000c6f000074d472704e400c'
p1256
L114L
tp1257
a(S'recv'
p1258
S'4fef'
p1259
L142L
tp1260
a(S'recvfrom'
p1261
S'4fefff48e704fb01049628002f008098004eb9006f00002f44006f00002f6f001c6f0020420010'
p1262
L156L
tp1263
a(S'send'
p1264
S'4fef'
p1265
L142L
tp1266
a(S'sendto'
p1267
S'4fefff48e704fb01046a2f002f79073c00b9006f000c42002f6f00146f00002f6f001c6f0020'
p1268
L154L
tp1269
a(S'setsockopt'
p1270
S'4fefff2f0d0104ce2f79073c002f6f00006f00106f00006f00186f00000c'
p1271
L132L
tp1272
a(S'socket'
p1273
S'4fef'
p1274
L120L
tp1275
a(S'__libc_alloca_cutoff'
p1276
S'2f0a0280444e9220'
p1277
L84L
tp1278
a(S'__lll_lock_wait_private'
p1279
S'48e7006f0010b23402d040fa7a46054a80842422204e4020720ed040fa4a80df3c758474460208460020720ed040fa7a46054a80'
p1280
L108L
tp1281
a(S'__libc_enable_asynccancel'
p1282
S'48e72080444e9243e88c02220ee920b410'
p1283
L94L
tp1284
a(S'__libc_disable_asynccancel'
p1285
S'48e7002f0000064cdffc4e75b943e88cfdc6c1b23ac0e946067a4605242220'
p1286
L144L
tp1287
a(S'__register_atfork'
p1288
S'48e720720ef90007561000d280147030c08022fc0080148120e907561ed152812000006f00086f0000398107561072b26d444a8842804e75f9801620801ab25822b29a48790756220a80604fef00002260007c847446023c07561046004a88704cdf4e75790756108078'
p1289
L358L
tp1290
a(S'__unregister_atfork'
p1291
S'48e7380080f90007561000aa49f9801622727907561eb40000be42808141e8ffec45eb10018889aa00104a20d9d9d99147eb1000b0e28b800253814a022856100ef90007561072b26d4cdf4e758888ce48790756108078'
p1292
L260L
tp1293
a(S'__run_fork_handlers'
p1294
S'48e7202f004a700ef900801000ba5616202453'
p1295
L244L
tp1296
a(S'clock_gettime'
p1297
S'59'
p1298
L82L
tp1299
a(S'__stack_chk_fail_local'
p1300
S'4879054eb9'
p1301
L14L
tp1302
a(S'__fortify_fail_abort'
p1303
S'48e7202f00140045f980763c052279075e'
p1304
L92L
tp1305
a(S'__fortify_fail'
p1306
S'2f2f0078018098'
p1307
L14L
tp1308
a(S'inet_aton'
p1309
S'4fef'
p1310
L354L
tp1311
a(S'inet_addr'
p1312
S'4e56'
p1313
L64L
tp1314
a(S'_dl_debug_initialize'
p1315
S'22042f004820e5d0e520fc80fc4aa8043a702020e5d0e521b00749c4047c0200204e75f9807ea804'
p1316
L144L
tp1317
a(S'do_tunable_update_val'
p1318
S'2f03026f002804036f0024290401802808280c830022008300211c7c01201f4e752808280c830022008300211c7c01202110181f4e'
p1319
L142L
tp1320
a(S'tunable_initialize'
p1321
S'51'
p1322
L82L
tp1323
a(S'__tunable_set_val'
p1324
S'220001888180809c2f400000'
p1325
L30L
tp1326
a(S'__tunables_init'
p1327
S'51'
p1328
L944L
tp1329
a(S'__tunable_get_val'
p1330
S'48e7302f006f006f0045f9809c20e5d022d22200012aa94a32204a880680004cdf4ed00475a94a322060d829180081802060'
p1331
L134L
tp1332
a(S'_dl_aux_init'
p1333
S'4fefff48e720602380aa2000c080d23879075928502f7907592c542f79073fd0422c80dc79075ef62f790759243279075eca8030482f790759344c2480ae2f790749a40079075ede79075ebe422f002f00422f00422f00422f00422f0042074206420542'
p1334
L832L
tp1335
a(S'_dl_non_dynamic_init'
p1336
S'59'
p1337
L1754L
tp1338
a(S'__libc_init_secure'
p1339
S'2f0280f6244e75b9244eb9b00c01c04e75b9244eb9b056c08080dc'
p1340
L74L
tp1341
a(S'_dl_mcount_wrapper'
p1342
S'2f2f002f00b950'
p1343
L18L
tp1344
a(S'_dl_mcount_wrapper_check'
p1345
S'4ab9102f002f00b950'
p1346
L26L
tp1347
a(S'_dl_discover_osversion'
p1348
S'4fef'
p1349
L262L
tp1350
a(S'__libc_init_first'
p1351
S'48e700002f002f002000004ab93a238078c25efa2380'
p1352
L170L
tp1353
a(S'__syscall_error'
p1354
S'448061'
p1355
L18L
tp1356
a(S'__gconv_open'
p1357
S'4e56'
p1358
L1156L
tp1359
a(S'__gconv'
p1360
S'48e724006f002f002f002a4070b00034124a8d0142954a85002010eb4168086f000c6a0468008a008400162090000e28508480fa2f0c9642a742a72f0d2f0b042a04944fef000480130068b162010c9642a742a72f0d2f0b042a04944fef000480454a9004b2087c750cb958'
p1361
L402L
tp1362
a(S'__gconv_alias_compare'
p1363
S'2008500020045000'
p1364
L22L
tp1365
a(S'derivation_compare'
p1366
S'2f0b0a006f002f131280d84a806b002f6a040c5f5f60'
p1367
L56L
tp1368
a(S'__gconv_get_modules_db'
p1369
S'20075f0208'
p1370
L10L
tp1371
a(S'__gconv_get_alias_db'
p1372
S'20075f0a08'
p1373
L10L
tp1374
a(S'__gconv_release_step'
p1375
S'2f0b0a00122200538120100b80fa2f0a2050'
p1376
L100L
tp1377
a(S'find_derivation'
p1378
S'4e56ff48e73c6e00'
p1379
L2184L
tp1380
a(S'__gconv_compare_alias'
p1381
S'4e56ff48e730000098'
p1382
L272L
tp1383
a(S'__gconv_find_transform'
p1384
S'4fefff48e738002f0024002f002f00809800f900004a8801790207593c90508f720ef900075f064a803804062f0a03028020000002b6b900402f430079024879075f0a000cf980564e934fef008801502804420079024879075f0a0c934fef008801502a000400012f062f0a072f0305f586003981075f06f618b26d00748520228098b2007cdf4fef00753981075f06f6b26ccc42847446023c075f0670460060b6b900e6b970810ef900075f064a80d84a9257c544854879075f064eb958'
p1385
L666L
tp1386
a(S'__gconv_close_transform'
p1387
S'48e7386f002f004280f900075f064a80'
p1388
L170L
tp1389
a(S'insert_module'
p1390
S'48e73c6f002f0047f9800280d84a8a242f120250'
p1391
L188L
tp1392
a(S'detect_conflict'
p1393
S'48e730002480021cf980d8120250'
p1394
L72L
tp1395
a(S'add_module.isra.0'
p1396
S'4e56ff48e73c6e00240098'
p1397
L762L
tp1398
a(S'add_alias2.isra.1.part.2'
p1399
S'48e730002f006f00c2004eb92458'
p1400
L112L
tp1401
a(S'__gconv_get_path'
p1402
S'4e56ff48e73c79073c'
p1403
L848L
tp1404
a(S'__gconv_read_conf'
p1405
S'4e56'
p1406
L1028L
tp1407
a(S'__gconv_get_builtin_trans'
p1408
S'48e7382f006f00200549f980d8000350'
p1409
L184L
tp1410
a(S'__gconv_btwoc_ascii'
p1411
S'20004a00024e75ff'
p1412
L20L
tp1413
a(S'__gconv_transform_internal_ucs4'
p1414
S'4fefff48e720402400002f00002f0080980043e800ea08000000b2680000b08c01282a04af00221411c0007456b100bc1a08885280'
p1415
L768L
tp1416
a(S'__gconv_transform_ucs4_internal'
p1417
S'4fefff48e7204c6f006f00006f000079073c00004900eb20490028000800026800024a8d02136b0042af0085027cdc786b2f520007c22c680220c3001c2f0000007218012c5280'
p1418
L914L
tp1419
a(S'__gconv_transform_internal_ucs4le'
p1420
S'4fefff48e720402c00002f00002f0080980043e800ee002f490008000000aa2400af0000a88b01162800af002a14154c4a8b0254bcb4010243f508888812'
p1421
L760L
tp1422
a(S'__gconv_transform_ucs4le_internal'
p1423
S'4fef'
p1424
L922L
tp1425
a(S'__gconv_transform_ascii_internal'
p1426
S'4fefff48e7204c6f002f00006f00002c79073c000049004e002b08070000326800014a8d0104af00af00004c41ef0048002c22890081247c70ce80106d00b448022424b10a0ab2637c208972ab002b000b00b853000cb92f2f002f2f0042a72f0a002f00004fef0004802f008a00012b0813006022447c20898e8a062044228098b200ec4cdfef0075af00120e226f0052967c6000447c60004c70b0c00028609e99cc4aaf00'
p1427
L566L
tp1428
a(S'__gconv_transform_internal_ascii'
p1429
S'4e56ff48e73c6e00ff24006e0000c81c79073c'
p1430
L1658L
tp1431
a(S'__gconv_transform_internal_utf8'
p1432
S'4e56'
p1433
L2376L
tp1434
a(S'__gconv_transform_utf8_internal'
p1435
S'4e56ff48e73c6e006e00c8146e00ff2dd898'
p1436
L3028L
tp1437
a(S'__gconv_transform_ucs2_internal'
p1438
S'4fef'
p1439
L1104L
tp1440
a(S'__gconv_transform_internal_ucs2'
p1441
S'4e56ff48e73c6e00ff6e00002400c81cd479073c'
p1442
L1672L
tp1443
a(S'__gconv_transform_ucs2reverse_internal'
p1444
S'4fef'
p1445
L1130L
tp1446
a(S'__gconv_transform_internal_ucs2reverse'
p1447
S'4e56ff48e73c6e00ff6e00002400c81cd479073c'
p1448
L1674L
tp1449
a(S'__gconv_transliterate'
p1450
S'4e56ff48e73cfb010412d46e00cc2dd8002ddce079073c'
p1451
L882L
tp1452
a(S'find_module_idx'
p1453
S'48e72c0024805442872a048000280e4eb9428300244c43202455'
p1454
L178L
tp1455
a(S'find_module'
p1456
S'4e56'
p1457
L192L
tp1458
a(S'__gconv_get_cache'
p1459
S'20075954204e'
p1460
L10L
tp1461
a(S'__gconv_load_cache'
p1462
S'4e56ff2d98'
p1463
L458L
tp1464
a(S'__gconv_compare_alias_cache'
p1465
S'4e56ff48e73000006e002d98'
p1466
L130L
tp1467
a(S'__gconv_lookup_cache'
p1468
S'4e56'
p1469
L1040L
tp1470
a(S'__gconv_release_cache'
p1471
S'4ab90660'
p1472
L16L
tp1473
a(S'known_compare'
p1474
S'2008500020045000'
p1475
L22L
tp1476
a(S'do_release_shlib'
p1477
S'2f0a022f0004806f005020005822548180142a082f008042aa0058'
p1478
L122L
tp1479
a(S'__gconv_find_shlib'
p1480
S'4e560048e738ff7907595c486e004eb94fef00880000022a042a0880818002128025'
p1481
L398L
tp1482
a(S'__gconv_release_shlib'
p1483
S'2300075958487aee2f39b950'
p1484
L28L
tp1485
a(S'_nl_postload_ctype'
p1486
S'48e704fb01047e79074dfc2800840000c42830'
p1487
L136L
tp1488
a(S'__current_locale_name'
p1489
S'2f0d00f84eb9d1010060202f002040202a'
p1490
L40L
tp1491
a(S'__ctype_b_loc'
p1492
S'2f0d00d08044d101005c202a'
p1493
L30L
tp1494
a(S'__ctype_toupper_loc'
p1495
S'2f0d00b2b9d10100202a'
p1496
L30L
tp1497
a(S'__ctype_tolower_loc'
p1498
S'2f0d00944eb9d101002c085f4e'
p1499
L30L
tp1500
a(S'__ctype_init'
p1501
S'2f0d010474b922700058d322512401005cd52000800124240100d5200006800224d101002c29308002204e'
p1502
L102L
tp1503
a(S'__setfpucw'
p1504
S'01200080ff80'
p1505
L26L
tp1506
a(S'__sigjmp_save'
p1507
S'2f0a0020000a80756aa04eb94fef0080c000'
p1508
L58L
tp1509
a(S'_quicksort'
p1510
S'4fef'
p1511
L822L
tp1512
a(S'__add_to_environ'
p1513
S'4e56'
p1514
L730L
tp1515
a(S'setenv'
p1516
S'2f0d0104a424008a4a1248783d8004'
p1517
L96L
tp1518
a(S'unsetenv'
p1519
S'48e73cfb010444282000dc00d648783d8004'
p1520
L266L
tp1521
a(S'clearenv'
p1522
S'48e700720ef90007598c008439b942b920808c0ef90007598c72b26d3a4cdf1c75800080f607598442b920808c0ef90007598c72b26cc601023c0759'
p1523
L184L
tp1524
a(S'secure_getenv'
p1525
S'4ab90660'
p1526
L20L
tp1527
a(S'read_int'
p1528
S'2f0a00228072d04281e8b24a8080cc6e22e5d07f'
p1529
L98L
tp1530
a(S'group_number'
p1531
S'48e7280024006f002c006f0014105300000a4a204cdf750cb92a528e0b0a04f98030204fef00c445ebff60'
p1532
L222L
tp1533
a(S'_i18n_number_rewrite'
p1534
S'4feffbd03c4bfb01042a04240428602f79073c04487906144eb908880047f980082c58'
p1535
L588L
tp1536
a(S'printf_positional'
p1537
S'4e56f73f3cfb0104246e00f7f76e00f76e00f7008498'
p1538
L7644L
tp1539
a(S'vfprintf'
p1540
S'4e56fb5448e73cfb010448240024006e002d98'
p1541
L7998L
tp1542
a(S'buffered_vfprintf'
p1543
S'4e56df3c240022006e002d98'
p1544
L510L
tp1545
a(S'hack_digit'
p1546
S'48e730004a920ab00000ee200022100080a8c09c2f002a1409022f2a1cb9201c2a1080502218ef0000bc2206818942d147eb30140922400000985380'
p1547
L306L
tp1548
a(S'_i18n_number_rewrite_0'
p1549
S'4feffbd03c4bfb0104d804240428602f79073c04487906144eb908080047f980082c2f0300932a4fef00d8012080002f7c0000948a002f0204b94fef0000200a6f04228098b200b2dfef044e752f002f020a051847e8004c49f980b0f98044b71e14100600d00063228ab7e22f0050840080f660840000fc0c00d006'
p1550
L588L
tp1551
a(S'__guess_grouping.part.0'
p1552
S'2f026f00220c111449c21e52800c00106d0ce4084c4210d0'
p1553
L56L
tp1554
a(S'__printf_fp_l'
p1555
S'4e56'
p1556
L8096L
tp1557
a(S'__printf_fp'
p1558
S'2f0d00e8102f004eb9d10100602f102f00b94fef002a'
p1559
L52L
tp1560
a(S'__guess_grouping'
p1561
S'2008100c000400e4'
p1562
L22L
tp1563
a(S'__printf_fphex'
p1564
S'4e56'
p1565
L6082L
tp1566
a(S'register_printf_modifier'
p1567
S'48e73cfb0103aa6f00205380800062588a120c0000634eb9d10100547020204cdf4e75'
p1568
L390L
tp1569
a(S'__handle_registered_modifier_mb'
p1570
S'48e7386f002880e520075f1e24084a8a14004284020c838543ea4a024a81208810224a004a8100b2e6524a8a4a86704cdf4e75434a81ba2a0408004a8a60d6202c6842804e75437060'
p1571
L168L
tp1572
a(S'__handle_registered_modifier_wc'
p1573
S'48e7386f00532079075f1e240c4a8a24000c838443ea4a'
p1574
L156L
tp1575
a(S'fprintf'
p1576
S'4e5600486e002f00004eb94fef005e4e'
p1577
L30L
tp1578
a(S'read_int_0'
p1579
S'2f0a02005270d074d472b2326d6a80cc6e22e5d07f'
p1580
L142L
tp1581
a(S'group_number_0'
p1582
S'48e7382f002f0024006f002c0013020c000a4420df4e758b0a0405163020c34fef000a0a25'
p1583
L182L
tp1584
a(S'_i18n_number_rewrite_1'
p1585
S'4feffbf448e73cfb0103766f0424046f042f79073c04487906144eb908880049f980082c58'
p1586
L296L
tp1587
a(S'printf_positional_0'
p1588
S'4e56f701037e6e00f7f76e00f76e00f7073c'
p1589
L7948L
tp1590
a(S'vfwprintf'
p1591
S'4e56fb684bfb010308006e002d98'
p1592
L8052L
tp1593
a(S'buffered_vfprintf_0'
p1594
S'480e'
p1595
L628L
tp1596
a(S'funlockfile'
p1597
S'48e7006f002048200080001200220ed00170b06d064cdf1c75847446020846004cdf1c'
p1598
L70L
tp1599
a(S'read_int_1'
p1600
S'2f0a00228072d04281e8b24a8080cc6e22e5d07f'
p1601
L98L
tp1602
a(S'__parse_one_specmb'
p1603
S'4e560048e738002808002dff206a47002c011420e8b20020b70600e0002902d04efb00010101000000010000000000000000000000000000000010'
p1604
L2082L
tp1605
a(S'read_int_2'
p1606
S'2f0a02005270d074d472b2326d6a80cc6e22e5d07f'
p1607
L142L
tp1608
a(S'__parse_one_specwc'
p1609
S'4e560048e73800280800ff202a0c40e000206c00e8b60042017c032ce8b000ce0883309800000101010101010101010101010101000000724a882d2a020c067225ffaa005370b000ce41e8b00080ff839300020079075f1e20890443eb04490070d0009cd04efb00020101010101010101010301020101010170258b53724a88'
p1610
L1996L
tp1611
a(S'_IO_file_doallocate'
p1612
S'4e56ff4bfb010324002d98'
p1613
L336L
tp1614
a(S'fputs'
p1615
S'48e7300024000280b0'
p1616
L258L
tp1617
a(S'_IO_wfile_doallocate'
p1618
S'2f0a02002a1c58240094800000e52f0280be3200487000080a80a64fef007024244e7582e52f0280bece7024244e750a80942000'
p1619
L132L
tp1620
a(S'fwrite'
p1621
S'48e730002f002f5800284a2a02be5252802a02002048200080008600e4a808100ed040fa72b26d00e800ffbc0c4e75ff6a94200480883c0697d08088a0000a6b4e902c4fef002a022048200080009842a808100ed040fa72b26c844eb92c0686ff48bc10720ed0404a80460052a8042a6860004285054e752f00204e75064c6f50054cdf4e75b960005a4284744602084600bc0cc24eb958'
p1622
L364L
tp1623
a(S'getdelim'
p1624
S'48e74bfb01036f0028346f008b014a8c01204a406c003400054a9304941672284eb98800cc2a042a08014283032c3c0288022f00074e964fef000824948722'
p1625
L514L
tp1626
a(S'_IO_getline_info'
p1627
S'48e724002f002a006f00024aaa0000ba012f00f9802cf98088802c2a042a08b6022f02054fef00082f02072f0494d500'
p1628
L306L
tp1629
a(S'_IO_getline'
p1630
S'42a72f2f002f2f002f2f002f2f002f2f004eb94fef004e'
p1631
L34L
tp1632
a(S'_IO_padn'
p1633
S'4fef'
p1634
L278L
tp1635
a(S'_IO_wpadn'
p1636
S'4fef'
p1637
L278L
tp1638
a(S'save_for_wbackup.isra.0'
p1639
S'48e724006f00286c0020008d00832220002898818801290800514a892c9c'
p1640
L478L
tp1641
a(S'_IO_least_wmarker'
p1642
S'2004680090a9203010280801504a884e'
p1643
L44L
tp1644
a(S'_IO_switch_to_main_wget_area'
p1645
S'200468205820006821282808282040002120'
p1646
L48L
tp1647
a(S'_IO_switch_to_wbackup_area'
p1648
S'2004682058220028284000410022002120084100'
p1649
L48L
tp1650
a(S'_IO_wsetb'
p1651
S'2f0a00205822002000811e210c186f0000af0030c241005f4e750180f66a582000'
p1652
L106L
tp1653
a(S'_IO_wdefault_pbackfail'
p1654
S'48e7306f002f002400122a0813048001ba806b10'
p1655
L386L
tp1656
a(S'_IO_wdefault_finish'
p1657
S'2f0a0022582000082a033f346a300a00504a884aaa0010292080f624'
p1658
L108L
tp1659
a(S'_IO_wdefault_uflow'
p1660
S'2f0b0a006a94200480883c0697d080880a6b4e9058'
p1661
L100L
tp1662
a(S'__woverflow'
p1663
S'48e730002400aa006a94200480883c0697d0808842004a00200cdf4ed0002f0a804050'
p1664
L130L
tp1665
a(S'_IO_wdefault_xsputn'
p1666
S'48e72828002f00008804f980a0d7626c002b10008012'
p1667
L168L
tp1668
a(S'_IO_wdoallocbuf'
p1669
S'2f0a0020584aa818244e752a010320b00a6858'
p1670
L76L
tp1671
a(S'_IO_wdefault_doallocate'
p1672
S'48780080be2000487070002f004eb94fef00704e75ff'
p1673
L52L
tp1674
a(S'_IO_switch_to_wget_mode'
p1675
S'2f0a0020582000b0002068'
p1676
L124L
tp1677
a(S'_IO_free_wbackup_area'
p1678
S'2f0a00222058200008002441'
p1679
L88L
tp1680
a(S'__wuflow'
p1681
S'2f0b0a002a68009a00c00010280480c8000802ff2228490041002200200021084100b0009820009e2f28046a58486a30f74fef00806a94200480883c0697d08088982f4a006b245f4ed0002f0a80404e9350'
p1682
L328L
tp1683
a(S'__wunderflow'
p1684
S'2f0b0a002a68009a00c00050200089002208002a41'
p1685
L320L
tp1686
a(S'_IO_wdefault_xsgetn'
p1687
S'48e73c6f002f002a00051bdb2258202904886f12'
p1688
L140L
tp1689
a(S'_IO_sputbackwc'
p1690
S'48e7300024006a5822e8b4'
p1691
L114L
tp1692
a(S'_IO_sungetwc'
p1693
S'2f0b0a006a5820b000630020'
p1694
L114L
tp1695
a(S'_IO_adjust_wcolumn'
p1696
S'2f022f002f0020e522c0'
p1697
L72L
tp1698
a(S'_IO_init_wmarker'
p1699
S'2f0b0a6f006f00274a0012010b205820080030048000aa00255f5f4e750a800c122058200800d08000aa00255f5f4e'
p1700
L108L
tp1701
a(S'_IO_wmarker_delta'
p1702
S'2f0a6f0020048824001228000290aa0080009280244e75aa00e42200928060ec70244e'
p1703
L68L
tp1704
a(S'_IO_seekwmark'
p1705
S'2f03026f006f00b30000842808110220584a8028082241'
p1706
L158L
tp1707
a(S'_IO_unsave_wmarkers'
p1708
S'2004a83042a830000a4800'
p1709
L32L
tp1710
a(S'do_encoding'
p1711
S'200468000e2000b000024e75ff'
p1712
L32L
tp1713
a(S'do_max_length'
p1714
S'200468004e'
p1715
L14L
tp1716
a(S'do_in'
p1717
S'4e56ff48e73c6e002400'
p1718
L176L
tp1719
a(S'do_unshift'
p1720
S'4e56'
p1721
L152L
tp1722
a(S'do_out'
p1723
S'4e56ff48e73c6e002400'
p1724
L176L
tp1725
a(S'do_length'
p1726
S'4e56ff48e7380024000098'
p1727
L134L
tp1728
a(S'_IO_fwide'
p1729
S'4e56'
p1730
L368L
tp1731
a(S'__libc_scratch_buffer_grow_preserve'
p1732
S'48e724fb01036f00280004'
p1733
L188L
tp1734
a(S'__libc_scratch_buffer_set_array_size'
p1735
S'48e724fb010324002f002400000000414a81224c4010b4381250'
p1736
L192L
tp1737
a(S'__libc_dynarray_at_failure'
p1738
S'4fefff0279073c002f2f002f2f004879061f984878c8'
p1739
L52L
tp1740
a(S'__libc_dynarray_emplace_enlarge'
p1741
S'48e724fb010324002f002000009270b074224c034a802a082f010080d0085c254200011c7507b07a03892a08ca4eb92858'
p1742
L232L
tp1743
a(S'strerror_r'
p1744
S'4e56ff48e72000240098'
p1745
L388L
tp1746
a(S'strnlen'
p1747
S'2f03022f00af006e2000d0e87e43224a10528114414a10b06290831f4e7508412406'
p1748
L160L
tp1749
a(S'strrchr'
p1750
S'48e7200083004a83848004030250'
p1751
L90L
tp1752
a(S'strtok_r'
p1753
S'48e7300024006f004a8a4a122f020a8050'
p1754
L98L
tp1755
a(S'memchr'
p1756
S'48e7006f001000280072b80089000130220203b00098528872411a0088538452410a7888543c'
p1757
L206L
tp1758
a(S'wcslen'
p1759
S'2004904c4aa8044a4aa80841e8205680284aa80420415a89001841e8'
p1760
L96L
tp1761
a(S'wmemcpy'
p1762
S'22000c'
p1763
L16L
tp1764
a(S'wmemmove'
p1765
S'22000c'
p1766
L16L
tp1767
a(S'wmemset'
p1768
S'2f03026f002f0024000348b22c0280004000230ce976b6e602e4528100831480'
p1769
L100L
tp1770
a(S'btowc'
p1771
S'4e56ff48e734fb010324002d98'
p1772
L332L
tp1773
a(S'wcrtomb'
p1774
S'4e56ff48e73cfb0103240020002d98'
p1775
L484L
tp1776
a(S'wcsrtombs'
p1777
S'4e56fe48e73cfb01032400280c0098'
p1778
L666L
tp1779
a(S'wcsnlen'
p1780
S'2f026f0022005e4a905a70b05a4aa8045474b45450887c02093874b430002a59811e20568014a80c0e58890070b0c4094e758075014e75024e'
p1781
L124L
tp1782
a(S'wcschrnul'
p1783
S'20042f00200eb00a20048008'
p1784
L30L
tp1785
a(S'rewinddir'
p1786
S'48e7300047ea0ed3404a80a742a72f12800800aa0042aa00aa00200081fa4fef0001df4e75847446020b46004cdf4e750b80788f42a72f12800800aa0042aa00aa00200081fa4fef0001ac'
p1787
L164L
tp1788
a(S'readdir64'
p1789
S'48e74bfb010324003c00442291d1010054100080d3404a80e26a1000f980b30041e988428000d3256820802a0481fa72b26d00b4081c752a080e2f124fef00804000c9304188428000d325682080a880424e91d1010054200081fa72b26c9660462291d101005470b0ca200081fa72b26c006e601c0b8078'
p1790
L330L
tp1791
a(S'fdopendir'
p1792
S'4fefff4bfb01032f00809800002f0a02004eb94fef00802f00020c0040004878030280d072b24672c28142a72f0280d80020226c228098b24cdf4fef0075b9d101005470204eb9d101005470204eb9'
p1793
L194L
tp1794
a(S'uname'
p1795
S'702200400c'
p1796
L22L
tp1797
a(S'getuid'
p1798
S'2000'
p1799
L10L
tp1800
a(S'geteuid'
p1801
S'2000c94e404e'
p1802
L10L
tp1803
a(S'getgid'
p1804
S'2000c8'
p1805
L10L
tp1806
a(S'getegid'
p1807
S'2000ca4e'
p1808
L10L
tp1809
a(S'__lxstat64'
p1810
S'59'
p1811
L80L
tp1812
a(S'__fxstatat64'
p1813
S'48e704fb010370b0003c2f002f0024002f002000250c'
p1814
L114L
tp1815
a(S'lseek'
p1816
S'4fefff48e704fb01032f0079073c00225bc02f0078d8007046000c'
p1817
L174L
tp1818
a(S'isatty'
p1819
S'4e56ff2d98'
p1820
L60L
tp1821
a(S'__open64_nocancel'
p1822
S'59'
p1823
L140L
tp1824
a(S'tcgetattr'
p1825
S'4fefff48e704fb010320402f79073c0010'
p1826
L214L
tp1827
a(S'brk'
p1828
S'2f0d0048a42200704e402380a8c806202a75b9d10100547020202a'
p1829
L64L
tp1830
a(S'wctrans'
p1831
S'48e73cfb01032f00b9d1010058205024001242'
p1832
L110L
tp1833
a(S'towctrans'
p1834
S'2f0a022f006f004a882224e4b200221c4a8a222400e4c20c891822000624244e7500a81089c19800244e'
p1835
L88L
tp1836
a(S'__readonly_area'
p1837
S'4fef'
p1838
L450L
tp1839
a(S'is_dst'
p1840
S'48e720002f000380b0'
p1841
L146L
tp1842
a(S'is_trusted_path_normalize'
p1843
S'4e560048e7386e004aae0000ac200080810012000c00565289c0eeb8282f'
p1844
L274L
tp1845
a(S'add_name_to_object.isra.5'
p1846
S'4e560048e7300024008a47f980d8120250'
p1847
L218L
tp1848
a(S'lose.isra.7'
p1849
S'48e7382f006f002828b2504a8a20013a0080f6'
p1850
L114L
tp1851
a(S'open_verify.constprop.10'
p1852
S'4e56ff48e73cfb01032400fb2f3c0800004eb92850'
p1853
L1494L
tp1854
a(S'open_path'
p1855
S'4e56'
p1856
L1364L
tp1857
a(S'_dl_map_object_from_fd.constprop.11'
p1858
S'4e56ffe73cfb0103b842a74eb92d6eff780380bc4a80'
p1859
L3354L
tp1860
a(S'add_path.isra.4.constprop.12'
p1861
S'48e73c6f006f0070b02c544bf980ec588c6a0620101cab0008b26370d1dc0c752a0202252a0a8072b22c88720025401043e80042100c544a8960b46800004fef00e80042100cd80025401060'
p1862
L190L
tp1863
a(S'_dl_dst_count'
p1864
S'48e730002f0045f9800492508f4a88204cdf4e75fae32452'
p1865
L118L
tp1866
a(S'_dl_dst_substitute'
p1867
S'59'
p1868
L322L
tp1869
a(S'expand_dynamic_string_token'
p1870
S'48e738002f002f028058'
p1871
L206L
tp1872
a(S'fillin_rpath'
p1873
S'4fefff48e72f007cdca48002a42f072f064e942450'
p1874
L626L
tp1875
a(S'cache_rpath.part.9'
p1876
S'48e724006f002000800c4a88223469046a0479075e4a88007080df750d0a58'
p1877
L388L
tp1878
a(S'_dl_init_paths'
p1879
S'4e560048e73c004879073fe83fec2f3939b92380'
p1880
L566L
tp1881
a(S'_dl_map_object'
p1882
S'4e56fde84bfb0103240000b9008c80c4048b848b8873003880d82c99e9c0801a0c028050'
p1883
L1996L
tp1884
a(S'_dl_rtld_di_serinfo'
p1885
S'4fefff48e728306f002f00146e2000801f410042af002f4b008b40004aac001e4bfaee86390e4e9520ec50'
p1886
L438L
tp1887
a(S'check_match'
p1888
S'48e7386f0024006f0010000042004aaa0000de57c0800000b03c0005a4b5001a2f002000d080d84a80846b4a8c4a88002200300003807fe974c004ac005c84436d4820080c75882200301a2202080000627c03406d1620402022528106203c8adf4e75141080d84a804a609c0cff000c00d44157c080000024c87c02709aff0b008050'
p1889
L360L
tp1890
a(S'do_lookup_x'
p1891
S'4fef'
p1892
L2124L
tp1893
a(S'_dl_lookup_symbol_x'
p1894
S'4fefff48e76f00006f0000000002203c00898780000081702f4000af00008d70c06f00512200ae4a8802af006f008a4a0020004cd824802f0e2f2f002f062f0d2f040903072f0b424e904fef004a802a20544280cc4aaf00028910000c0000a242af002a9802ff0cff4aaa0200c4390081002aaf00204cdfef0075854a8d03154a8e026e00801a3c06334a10022f09020b801e2f08004eb94fef00bc2f0a4eb970b00000e2af00006f0012000142a7487801052f2f00000a0903072f0b424e904fef004a80726f0058af0020002200c06000e00600000cce000608000200fc22f82f490022f42f4900001e200018e9000a6f00aa0200cc60008a0002'
p1895
L2580L
tp1896
a(S'_dl_setup_hash'
p1897
S'48e7206f006846220411400100290853'
p1898
L154L
tp1899
a(S'_dl_add_to_namespace_list'
p1900
S'48e720002400f900004a88487907494e90588f80c40288822292'
p1901
L220L
tp1902
a(S'_dl_new_object'
p1903
S'59'
p1904
L584L
tp1905
a(S'_dl_try_allocate_static_tls'
p1906
S'2f0b0a6f00'
p1907
L134L
tp1908
a(S'_dl_allocate_static_tls'
p1909
S'2f0a0070b002120a8058'
p1910
L52L
tp1911
a(S'_dl_nothread_init_static_tls'
p1912
S'2f0a0200b920022402802f2a242a38809000084eb92f022f088034ef0024244e'
p1913
L72L
tp1914
a(S'_dl_protect_relro'
p1915
S'48e724fb0102246f0020d080a444810281757801028070ef008080b2a72f2a04b9d10100542f1080'
p1916
L108L
tp1917
a(S'_dl_reloc_bad_type'
p1918
S'4fefff2f0a02002000880945ef000a801080'
p1919
L86L
tp1920
a(S'_dl_relocate_object'
p1921
S'4e56ff48e73cfb01025e28082c050320b94aae00080076'
p1922
L3452L
tp1923
a(S'_dl_important_hwcaps'
p1924
S'4e56ff48e73ca7486e'
p1925
L1818L
tp1926
a(S'_dl_debug_vdprintf'
p1927
S'4e56fd'
p1928
L832L
tp1929
a(S'_dl_sysdep_read_whole_file'
p1930
S'4e56ff00002f004eb92450'
p1931
L156L
tp1932
a(S'_dl_debug_printf'
p1933
S'4e5600486e000048780139ba004e5e4e'
p1934
L34L
tp1935
a(S'_dl_debug_printf_c'
p1936
S'4e5600486e00004878ff39ba004e5e4e'
p1937
L34L
tp1938
a(S'_dl_dprintf'
p1939
S'4e5600486e002f00a72f004eba004e5e4e'
p1940
L30L
tp1941
a(S'_dl_name_match_p'
p1942
S'48e7300024002a040280d850'
p1943
L76L
tp1944
a(S'_dl_higher_prime_number'
p1945
S'2f0302003c062c3c062d8102e2e522c01e20908102e2e520c0c1111f4e750908b6b44320241f4e75492258'
p1946
L118L
tp1947
a(S'_dl_strtoul'
p1948
S'4fefff48e72200411052810c00ee0c000c0000061f7c0137120601d00062010030012f41003242'
p1949
L560L
tp1950
a(S'_dl_start_profile'
p1951
S'4e56fdd83f3cfb01029679075ee26b428001d006482280a4010195ca'
p1952
L1954L
tp1953
a(S'_dl_mcount'
p1954
S'4fefff48e73080d4008c392f002080b480'
p1955
L688L
tp1956
a(S'allocate_dtv'
p1957
S'2f0b0a0079075bd4e80048688050'
p1958
L66L
tp1959
a(S'oom'
p1960
S'487906354eb948787fb9'
p1961
L26L
tp1962
a(S'_dl_next_tls_modid'
p1963
S'48e700393910032380d4df1c75398080d893c928528400281e0c30b0634879062fab4878494879066a790673b9d32004882460c29e528380dcc04879062fab4878574879066a7906984eb9'
p1964
L174L
tp1965
a(S'_dl_count_modids'
p1966
S'2f0a80dc2080d45f4e7579075dd84a8a228941ea02528124008a244e'
p1967
L70L
tp1968
a(S'_dl_get_tls_static_info'
p1969
S'2004b92008b94e'
p1970
L22L
tp1971
a(S'_dl_allocate_tls_storage'
p1972
S'59'
p1973
L140L
tp1974
a(S'_dl_allocate_tls_init'
p1975
S'59'
p1976
L598L
tp1977
a(S'_dl_allocate_tls'
p1978
S'20001200fbae58'
p1979
L40L
tp1980
a(S'_dl_deallocate_tls'
p1981
S'48e73c6f002f006d'
p1982
L96L
tp1983
a(S'_dl_tls_get_addr_soft'
p1984
S'2f0a0200aa02444eb920f8242002b9127000b02208244e75a8f81479075dd822b01091c81f244e758a698a928a698ad6'
p1985
L118L
tp1986
a(S'_dl_add_to_slotinfo'
p1987
S'4e560048e7386e00240279075dd81220002220b4'
p1988
L210L
tp1989
a(S'_dl_get_origin'
p1990
S'4fef003047ef003c000022062fbe240c'
p1991
L344L
tp1992
a(S'_dl_scope_free'
p1993
S'48e7308044248b004eb958'
p1994
L192L
tp1995
a(S'_dl_make_stack_executable'
p1996
S'2f0d0102162400393900922f008070ef00809272835f2a75b9d101005420242a'
p1997
L88L
tp1998
a(S'_dl_runtime_resolve'
p1999
S'2f08090037225f50'
p2000
L20L
tp2001
a(S'_dl_runtime_profile'
p2002
S'486f002f0908'
p2003
L158L
tp2004
a(S'length_mismatch'
p2005
S'487906304eb948787fb9'
p2006
L26L
tp2007
a(S'_dl_exception_create'
p2008
S'48e738002f002800830380b09358'
p2009
L148L
tp2010
a(S'_dl_exception_create_format'
p2011
S'48e72a2c2f002834005c2f0380b0'
p2012
L412L
tp2013
a(S'_dl_exception_free'
p2014
S'2f0a002f2a0880f6aa00aa0058'
p2015
L32L
tp2016
a(S'_dl_cache_libcmp'
p2017
S'48e7386f006f0010124a00140602d00003d000630c006300b68b10124a001049c01c4e7502090049c0ffd10a49c1ffd31400100600d0440c0062528b088888804041f42814100600d000631000120601d00c0062528a098989810810120601d00063b10038081c75ff1c75c081011c'
p2018
L252L
tp2019
a(S'_dl_load_cache_lookup'
p2020
S'4e56ff48e73c000800809d00d4790759e48c037ebeba59dc790759e00c86b000b08b486e'
p2021
L1592L
tp2022
a(S'_dl_unload_cache'
p2023
S'2f02390074b4041f4e753900805042b950'
p2024
L48L
tp2025
a(S'do_dlopen'
p2026
S'2f0a002f39393978'
p2027
L56L
tp2028
a(S'dlerror_run'
p2029
S'4e56'
p2030
L110L
tp2031
a(S'__libc_dlclose'
p2032
S'2f2f007a86ff'
p2033
L16L
tp2034
a(S'__libc_dlsym'
p2035
S'4e56'
p2036
L110L
tp2037
a(S'__libc_dlvsym'
p2038
S'4e56'
p2039
L302L
tp2040
a(S'do_dlsym_private'
p2041
S'4e56'
p2042
L116L
tp2043
a(S'do_dlvsym'
p2044
S'2f0a0042aa005242a742a742a7486a1001486a0c082a04b925ef00244e'
p2045
L54L
tp2046
a(S'__libc_dlsym_private'
p2047
S'4e56'
p2048
L110L
tp2049
a(S'__libc_register_dl_open_hook'
p2050
S'2f0a02007906302f02804a88207906302f0250'
p2051
L64L
tp2052
a(S'__libc_dlopen_mode'
p2053
S'4e56'
p2054
L104L
tp2055
a(S'fatal_error'
p2056
S'4e56fbfc48e73000000098'
p2057
L224L
tp2058
a(S'_dl_signal_exception'
p2059
S'48e734fb01020a00b9d1010038504a8b22dada922004af00487801004eb92f2a042f00122f00'
p2060
L84L
tp2061
a(S'_dl_signal_error'
p2062
S'48e724fb01021cb9d10100384a'
p2063
L104L
tp2064
a(S'_dl_catch_exception'
p2065
S'4feffe2f0d00bf48006f012f6f011079073c016f0018d04eb9d1010038500070d02050804eb950'
p2066
L192L
tp2067
a(S'_dl_catch_error'
p2068
S'4e56ff48e7386e006e006e002d98'
p2069
L100L
tp2070
a(S'__sigsetjmp'
p2071
S'4e560020080021041ce82134ee00213828ff3c5e60'
p2072
L50L
tp2073
a(S'__longjmp'
p2074
S'20042f0028ff3c814cd0fe'
p2075
L28L
tp2076
a(S'__mpn_cmp'
p2077
S'2f0a02006f002000800089182218b22a2f008189c151c840538024244e752221'
p2078
L98L
tp2079
a(S'__mpn_divrem'
p2080
S'4fefff48e76f000001b4020200fa20008c88082c0686'
p2081
L790L
tp2082
a(S'__mpn_lshift'
p2083
S'48e7206f006f002c002f007ab8c8'
p2084
L162L
tp2085
a(S'__mpn_rshift'
p2086
S'48e7206f006f002c002f007ab8c9636c002002a8aa225386e20e538602ab'
p2087
L162L
tp2088
a(S'__mpn_mul'
p2089
S'4e56ff48e73c6e0028006e00002d98'
p2090
L674L
tp2091
a(S'__mpn_mul_1'
p2092
S'48e7006f0022142f00280042004281'
p2093
L76L
tp2094
a(S'__mpn_impn_mul_n_basecase'
p2095
S'48e724002f006f002f002072b2008a00008a0a'
p2096
L236L
tp2097
a(S'__mpn_impn_mul_n'
p2098
S'4fefff48e724006f00002f000002000270b06d008c03040e2f0a804fef002ae52cdc5800030e2f0647f9804e932558000204064e93d425ef004cdfef004e75028707e52cdc22e52f4100491870b06d0072072f062f030cb94fef002f072f0e2f03804e934fef008074072f0e2f030a7c0400f9804e904fef0042af00072f04064e930a85008076072f04062f036f009070b1000070b06d0070072f030a0d894fef004a87208093'
p2099
L908L
tp2100
a(S'__mpn_impn_sqr_n_basecase'
p2101
S'48e724006f00280014018e00bce520d0fa428070b06c2a000c'
p2102
L232L
tp2103
a(S'__mpn_impn_sqr_n'
p2104
S'4fefff48e724002f002f00000200285384b06d002c04030a804fef00048d43d9da2f0305ca93251402030525ef004cdfef0075028707e528d8496887012f040cb94fef00072f0304b94fef0080562f072f03040a7c0400804e904fef0070b06d00562f072f0a0d8e48004e904fef006f0087012022'
p2105
L790L
tp2106
a(S'__mpn_mul_n'
p2107
S'4e56'
p2108
L162L
tp2109
a(S'__mpn_sub_n'
p2110
S'2f020a006f0022142f000a018a'
p2111
L72L
tp2112
a(S'__mpn_submul_1'
p2113
S'48e7006f006f0024002f000a0142858a'
p2114
L80L
tp2115
a(S'__mpn_extract_double'
p2116
S'48e7206f006f002f002000c074c424e98181334300c002'
p2117
L226L
tp2118
a(S'__mpn_extract_long_double'
p2119
S'4fefff48e7206f000000002f000041002f4200ef30006f008300837f0683c083002f410042002f00222f41002f42002f00232f40002f41004200300002ff4a8384edc40016729280aa22e1'
p2120
L242L
tp2121
a(S'_itoa_word'
p2122
S'2f03022f006f002200af00009243f980'
p2123
L178L
tp2124
a(S'_itoa'
p2125
S'4fefff48e73c2f002f0024002f0079073c00af000043f980'
p2126
L550L
tp2127
a(S'_fitoa_word'
p2128
S'4fef'
p2129
L104L
tp2130
a(S'_fitoa'
p2131
S'4fef'
p2132
L108L
tp2133
a(S'_itowa'
p2134
S'4fefff48e7240020006f002f008098004aaf0000c2809e76b600c2b60016285584005e41f980ae2a4e048501834c45042f430045042f4000420020744bef00'
p2135
L504L
tp2136
a(S'snprintf'
p2137
S'4e5600486e00002f00004eb94fef004e5e4e'
p2138
L34L
tp2139
a(S'_IO_strn_overflow'
p2140
S'48e720002406'
p2141
L88L
tp2142
a(S'vsnprintf'
p2143
S'4fefffe7300128012a0179073c0042af00af01742f01'
p2144
L170L
tp2145
a(S'init'
p2146
S'41f900004a88487a7a790759ec4e9050'
p2147
L40L
tp2148
a(S'__dlerror'
p2149
S'4e56'
p2150
L572L
tp2151
a(S'check_free.isra.0'
p2152
S'20001479063080d84a8075'
p2153
L34L
tp2154
a(S'free_key_mem'
p2155
S'2f0a002f2a0e4eba4eb9508f00004a8842a72f399050'
p2156
L50L
tp2157
a(S'_dlerror_run'
p2158
S'2f0a00004a8800487a3880e880'
p2159
L336L
tp2160
a(S'__libc_register_dlfcn_hook'
p2161
S'4879068b4eb950'
p2162
L30L
tp2163
a(S'__dladdr'
p2164
S'42a742a72f2f002f2f004eb94fef004e'
p2165
L24L
tp2166
a(S'__dladdr1'
p2167
S'2f022f0020000142af0080af002460ff00be42af0060ee'
p2168
L48L
tp2169
a(S'dlinfo_doit'
p2170
S'2f0a0020040a00942000d04efb000084344a00848476164aa83c7ac80c884e756a0ca8184e75a72f2a0c08804fef005f4e7578012a0c08804fef005f4e7528ac2f2a0cb950'
p2171
L204L
tp2172
a(S'__dlinfo'
p2173
S'4e56'
p2174
L82L
tp2175
a(S'dlmopen_doit'
p2176
S'48e720004a926e393979075efa20102a08c12000220302092f080100804fef00df4e753c06332f0302092f080100804fef00df4e7579068b4878164eb9'
p2177
L142L
tp2178
a(S'__dlmopen'
p2179
S'4e56'
p2180
L112L
tp2181
a(S'strerror'
p2182
S'2f0a42a72f2f0045f980484e924fef008820244e7579075f3488487800082f004e924fef00084e75780080be5f34'
p2183
L116L
tp2184
a(S'strspn'
p2185
S'4e56'
p2186
L312L
tp2187
a(S'ffsl'
p2188
S'2200018120'
p2189
L22L
tp2190
a(S'strsep'
p2191
S'2f0a0200122f2f002f02802c'
p2192
L62L
tp2193
a(S'__getdents64'
p2194
S'59'
p2195
L84L
tp2196
a(S'__xstat64'
p2197
S'59'
p2198
L80L
tp2199
a(S'__profil_counter'
p2200
S'2f03026f00281aa8005280390002b680ac0e20d05ab0c01f1f4e'
p2201
L68L
tp2202
a(S'profil'
p2203
S'4e56ff0a02002d98'
p2204
L440L
tp2205
a(S'__profile_frequency'
p2206
S'2080ca'
p2207
L8L
tp2208
a(S'_dl_fixup'
p2209
S'4e56'
p2210
L434L
tp2211
a(S'_dl_profile_fixup'
p2212
S'4e56'
p2213
L550L
tp2214
a(S'add_to_global'
p2215
S'59'
p2216
L526L
tp2217
a(S'_dl_find_dso_for_object'
p2218
S'48e730004ab938790749c447f980b40101019920020a50'
p2219
L118L
tp2220
a(S'_dl_open'
p2221
S'4e56ff2f03020000c307'
p2222
L436L
tp2223
a(S'_dl_show_scope'
p2224
S'48e7386f0028002c186c001020073fd4504a88002f00088022804e93204fef008800048b802a062a4ab0002f0479068d4e932020004aa80442'
p2225
L328L
tp2226
a(S'dl_open_worker'
p2227
S'4e56'
p2228
L1546L
tp2229
a(S'remove_slotinfo'
p2230
S'48e7302f006f0024002f0020908a53b1626b4a8900'
p2231
L256L
tp2232
a(S'_dl_close_worker'
p2233
S'4e56ff6e00ff22082994538001299802ff0cff4ab900602208000072aeff20e5d0e52406'
p2234
L3092L
tp2235
a(S'_dl_close'
p2236
S'2f0a0041f900004a88487907497c9058'
p2237
L120L
tp2238
a(S'_dl_sort_maps'
p2239
S'4e56'
p2240
L546L
tp2241
a(S'_dl_static_init'
p2242
S'4e56'
p2243
L204L
tp2244
a(S'_dl_addr'
p2245
S'48e7240028346f00f900004a88487907497c9058'
p2246
L720L
tp2247
a(S'_dl_addr_inside_object'
p2248
S'2f026f0042812f009151c90042415381750188690102a814d4014e'
p2249
L68L
tp2250
a(S'__mpn_add_n'
p2251
S'2f020a006f0022142f000a018a'
p2252
L72L
tp2253
a(S'__mpn_addmul_1'
p2254
S'48e7006f006f0024002f000a0142858a'
p2255
L80L
tp2256
a(S'dlopen_doit'
p2257
S'48e72000200000810755f82480'
p2258
L162L
tp2259
a(S'__dlopen'
p2260
S'4e56'
p2261
L106L
tp2262
a(S'__dlclose'
p2263
S'2f2f007af44eb950'
p2264
L24L
tp2265
a(S'dlsym_doit'
p2266
S'2f0a002f2a082a0412804fef005f4e'
p2267
L34L
tp2268
a(S'__dlsym'
p2269
S'4e56'
p2270
L132L
tp2271
a(S'dlvsym_doit'
p2272
S'2f0a002f2a0c2a082a04128025ef00244e'
p2273
L38L
tp2274
a(S'__dlvsym'
p2275
S'4e56'
p2276
L138L
tp2277
a(S'setitimer'
p2278
S'70222f004224002200402409'
p2279
L38L
tp2280
a(S'_dl_build_local_scope'
p2281
S'48e738006f00242470efe820f44a8847e8008849faff1001148b534a882090824cdf4e75080ae5d550'
p2282
L108L
tp2283
a(S'openaux'
p2284
S'2f0a020052240022082a04289802ff28e82f020901002a10088025ef0024244e7501020901002a10088025ef0024244e'
p2285
L108L
tp2286
a(S'_dl_map_object_deps'
p2287
S'4e56fbb4e73cfb01020020d020e82894290804ec004800702208e94a8708220c07e5d04842902104e800efeae48707d043f4082d2c046efbc808fbf82d092d7c00fbfc4eb9d10100542d902d4cfbbc22c48001009242850000c8f400c0ec00b84e24e528b4008c44486880be4a880a022f030580882f030a284e94274a0100ff0028c4006c22c4696efbc480010072ab01006cb700003001005c48780400486efbf84eb94fef000009fbf84aab00003c6b2dcc2dec2d6e00e46e00fbe8200022c047fbb401badc4eb92458'
p2288
L2972L
tp2289
a(S'call_init.part.0'
p2290
S'48e720002f002f002a002a109822041100880800809d5a2004d2054e9020840088228c008ad50016e5d42f0520904fef00df4e756a840800809dc0340980a44eb9205050'
p2291
L220L
tp2292
a(S'_dl_init'
p2293
S'48e738002f002f002a006aa020075ee688002a47fa'
p2294
L298L
tp2295
a(S'_dl_check_map_versions'
p2296
S'4e56ff48e73c6e00203488022dd0d4aeff008822d0e9ff0c00004283046e2820c8042b1801888188094a8a2f0a049550'
p2297
L1590L
tp2298
a(S'_dl_check_all_versions'
p2299
S'48e730002f002f0042'
p2300
L84L
tp2301
a(S'call_dl_lookup'
p2302
S'2f0a0020a72f2a0ca72f2a0828d02a14082a04b9244fef00244e'
p2303
L50L
tp2304
a(S'do_sym'
p2305
S'4e56ff48e7386e000000280098'
p2306
L518L
tp2307
a(S'_dl_vsym'
p2308
S'4e56'
p2309
L224L
tp2310
a(S'_dl_sym'
p2311
S'4878022f2f002f002f00ba0008'
p2312
L30L
tp2313
a(S'__udivdi3'
p2314
S'48e7002f002f002f002f004a83'
p2315
L180L
tp2316
a(S'read_encoded_value_with_base'
p2317
S'48e7042f00140c0000a0000c0000348000d04efb000000010000010100000000202018386f0085083c756f0042851870c04a04'
p2318
L344L
tp2319
a(S'base_of_encoded_value'
p2320
S'220001ff020001206301402c0150220130200828787580f80c0061'
p2321
L92L
tp2322
a(S'execute_cfa_program'
p2323
S'4e56'
p2324
L1674L
tp2325
a(S'init_dwarf_reg_size_table'
p2326
S'2f0d00512070006c22fc00bc00027c04037c04047c0405001100110011001100110011007c040d001100110011001100110011007c0c15001100110011002a'
p2327
L176L
tp2328
a(S'uw_frame_state_for'
p2329
S'4e56ff48e7386e00240078002f0a'
p2330
L1308L
tp2331
a(S'execute_stack_op'
p2332
S'4fef'
p2333
L1982L
tp2334
a(S'uw_update_context_1'
p2335
S'4fefff3f4bfb01022c0078d82f0e2f04'
p2336
L722L
tp2337
a(S'uw_init_context_1'
p2338
S'4fef'
p2339
L384L
tp2340
a(S'uw_update_context'
p2341
S'48e734fb01024824006f000b0a'
p2342
L116L
tp2343
a(S'_Unwind_RaiseException_Phase2'
p2344
S'4fefff48e7306f01240101d6'
p2345
L198L
tp2346
a(S'_Unwind_ForcedUnwind_Phase2'
p2347
S'4fefff48e730012f016a0c2a1078d861'
p2348
L206L
tp2349
a(S'uw_install_context_1'
p2350
S'51'
p2351
L330L
tp2352
a(S'_Unwind_GetGR'
p2353
S'2f0d003b22082f00197570006c101820002906000014105f4e7531208c202a75'
p2354
L80L
tp2355
a(S'_Unwind_GetCFA'
p2356
S'200428'
p2357
L10L
tp2358
a(S'_Unwind_SetGR'
p2359
S'2f0d003b2000197570006c12080800000c0c001aaf002a7530208c212a75'
p2360
L86L
tp2361
a(S'_Unwind_GetIP'
p2362
S'2004286c4e'
p2363
L10L
tp2364
a(S'_Unwind_GetIPInfo'
p2365
S'20042880918000224e'
p2366
L26L
tp2367
a(S'_Unwind_SetIP'
p2368
S'20046f0000'
p2369
L12L
tp2370
a(S'_Unwind_GetLanguageSpecificData'
p2371
S'2004684e'
p2372
L12L
tp2373
a(S'_Unwind_GetRegionStart'
p2374
S'2004287c'
p2375
L10L
tp2376
a(S'_Unwind_FindEnclosingFunction'
p2377
S'4e56ff486eff2000538061ff00ac50'
p2378
L46L
tp2379
a(S'_Unwind_GetDataRelBase'
p2380
S'20042878'
p2381
L10L
tp2382
a(S'_Unwind_GetTextRelBase'
p2383
S'20042874'
p2384
L10L
tp2385
a(S'__frame_state_for'
p2386
S'4fef'
p2387
L198L
tp2388
a(S'_Unwind_RaiseException'
p2389
S'4e56fdb427e048e73c6e002f006e00280684'
p2390
L312L
tp2391
a(S'_Unwind_ForcedUnwind'
p2392
S'4e56'
p2393
L178L
tp2394
a(S'_Unwind_Resume'
p2395
S'4e56'
p2396
L178L
tp2397
a(S'_Unwind_Resume_or_Rethrow'
p2398
S'4e56'
p2399
L188L
tp2400
a(S'_Unwind_DeleteException'
p2401
S'2204690a09004e9050'
p2402
L24L
tp2403
a(S'_Unwind_Backtrace'
p2404
S'4e56'
p2405
L136L
tp2406
a(S'fde_unencoded_compare'
p2407
S'200828086f002808c07501'
p2408
L30L
tp2409
a(S'frame_downheap'
p2410
S'48e73a2f00282c6f0024002f000283830322e54d1820b8181200050080162ce545282f0012050080242c06d68306b66dae4cdf7503202c60'
p2411
L132L
tp2412
a(S'frame_heapsort'
p2413
S'48e7302f002c006f0028508400028b70b01e2f020304062f05ff00cb'
p2414
L124L
tp2415
a(S'size_of_encoded_value'
p2416
S'220001ff02000c001e630c001a0c0008704a0161'
p2417
L62L
tp2418
a(S'base_from_object'
p2419
S'220001ff02000120630c000a6f0020004e758050f6'
p2420
L80L
tp2421
a(S'base_from_cb_data'
p2422
S'220001ff02000120630c000a6f0020004e758050f6'
p2423
L80L
tp2424
a(S'read_encoded_value_with_base_0'
p2425
S'48e7042f00140c0000a0000c0000348000d04efb000000010000010100000000202018386f0085083c756f0042851870c04a04'
p2426
L344L
tp2427
a(S'fde_single_encoding_compare'
p2428
S'4e56'
p2429
L128L
tp2430
a(S'get_cie_encoding'
p2431
S'59'
p2432
L228L
tp2433
a(S'linear_search_fdes'
p2434
S'51'
p2435
L278L
tp2436
a(S'_Unwind_IteratePhdrCallback'
p2437
S'4e56ff48e73cfb01022c6e00220869514aaa00003ab00000302b0e220024002b1a75700078132b0475700024814100'
p2438
L1060L
tp2439
a(S'fde_mixed_encoding_compare'
p2440
S'4e56'
p2441
L160L
tp2442
a(S'classify_object_over_fdes'
p2443
S'59'
p2444
L266L
tp2445
a(S'add_fdes'
p2446
S'59'
p2447
L240L
tp2448
a(S'search_object'
p2449
S'4e56'
p2450
L1600L
tp2451
a(S'__register_frame_info_bases.part.5'
p2452
S'48e724fb01023200ff25046f00080c7ce00010001035007fe258'
p2453
L136L
tp2454
a(S'__register_frame_info_bases'
p2455
S'2004884a900660'
p2456
L20L
tp2457
a(S'__register_frame_info'
p2458
S'2004884a9014a742a72f2f002f08'
p2459
L34L
tp2460
a(S'__register_frame'
p2461
S'2f0a004a92045f4e757818'
p2462
L46L
tp2463
a(S'__register_frame_info_table_bases'
p2464
S'48e724fb0102462400ff25046f00080c7ce00010001035007fe258'
p2465
L136L
tp2466
a(S'__register_frame_info_table'
p2467
S'42a742a72f2f002f2f0061'
p2468
L24L
tp2469
a(S'__register_frame_table'
p2470
S'487818'
p2471
L32L
tp2472
a(S'__deregister_frame_info_bases'
p2473
S'59'
p2474
L288L
tp2475
a(S'__deregister_frame'
p2476
S'200490022f08'
p2477
L30L
tp2478
a(S'_Unwind_Find_FDE'
p2479
S'4e56ff48e73cfb010224002070004c205e2dae'
p2480
L552L
tp2481
a(S'base_of_encoded_value_0'
p2482
S'20002f000c'
p2483
L94L
tp2484
a(S'read_encoded_value_with_base_1'
p2485
S'48e7042f00140c0000a0000c0000348000d04efb000000010000010100000000202018386f0085083c756f0042851870c04a04'
p2486
L344L
tp2487
a(S'__gcc_personality_v0'
p2488
S'4e56ff48e738'
p2489
L626L
tp2490
a(S'dl_iterate_phdr'
p2491
S'4fefff48e73c6f000079073c0000004a88487907494e9058'
p2492
L242L
tp2493
a(S'__do_global_ctors_aux'
p2494
S'2f0a79073c70b010808420ff5f4e'
p2495
L34L
tp2496
a(S'_fini'
p2497
S'4e56002f0d00184eb92afc4e5e4e'
p2498
L28L
tp2499
a.