(lp0
(S'_init'
p1
S''
p2
L20L
tp3
a(S'__do_global_dtors_aux'
p4
S'86962f11e690612221'
p5
L76L
tp6
a(S'frame_dummy'
p7
S'e6122221110b00d46118110e896f4ff6410909090909090909090909e34ff600'
p8
L74L
tp9
a(S'_start'
p10
S'00f62f462f07d02f040406d1410905'
p11
L30L
tp12
a(S'attack_app_http'
p13
S'864c962f6c68b673'
p14
L7300L
tp15
a(S'attack_get_opt_str'
p16
S'4c73155361041061603106a0206160318d0140338f0b090909090952600b09'
p17
L70L
tp18
a(S'attack_start'
p19
S'86962f43692fd62f7322d8510b6cff0c4ff66cf66a6900000000004809ff19931fd04009030be5d141000909090909090909090909090916d1611c15e3d1720b0909090960338d60080261041061a07361b3d3570bccaf09'
p20
L200L
tp21
a(S'attack_parse'
p22
S'8603962f1635b653692f22'
p23
L524L
tp24
a(S'attack_kill_all'
p25
S'86962f22d88fe948248b248b248b3348248b248b248bd169000000000000d04009811c0be5549118d109832489e5549318cb89d0400985482489d0400986482489d0400987482489d0400997184f03f668'
p26
L214L
tp27
a(S'attack_get_opt_ip'
p28
S'4c734c6115536104101c60318d08a009090909090909090909090909092061101b23348f0b09090909090b09090909090909090909090909090952482489d14109090909090909090909090b09'
p29
L164L
tp30
a(S'attack_get_opt_int'
p31
S'4c734c6115536104101c60318d08a009090909090909090909090909092061101b23348f0b09090909090b09090909090909090909090909090952482489d1410a090909090909090909090b09'
p32
L164L
tp33
a(S'attack_init'
p34
S'8601962fa62fb67e'
p35
L516L
tp36
a(S'attack_gre_eth'
p37
S'864c962f73a62f6c694f5ed10be5dae7830be66059d703930c0b9383090be7600193830be6604fd706e61f4a83834ad70b6e93838840e23212e64a010e4ce083e64a003fd1e60b6b023b030be6881f0209fc7fd06d01381d1200030b77888f0c0924f7070040e01d7ded617dcd10be108d187134fc007d604272611c18411bfd516c357241182d1c18471b77ec725040e7370761711d6cfc0619e04cfc002ce131532d43386c61182338194118421b2b09b82400ff00b00000000000000000000000000060e0035601297929021ddf049a51035008970808716315e1731934251f05e00371e06221710658e00738612171007121727a210671e321e1225218f61702572f7691837327731ffb7632508311285175528374e1225000439210'
p38
L1458L
tp39
a(S'attack_gre_ip'
p40
S'864c962f73a62f6c694f5ad11f0be5dae7830be66055d703930a0b9383071f0be7600193830be6604bd706e60d938346d70b6d938380e23212e64a010e44e083e64a003b9383124a031f0237d0e54006e6881f0209fc7fd06e01241f1e041200030b77888feca0f552fd0700'
p41
L1328L
tp42
a(S'attack_tcp_stomp'
p43
S'864c962f73a62f6c694fc2db3f'
p44
L1742L
tp45
a(S'attack_tcp_ack'
p46
S'864c962f73a62f6c694f98d11f0be5dae7830be663d70393838340e74a036154e0e7930be6638706e6938383834a0383804a03830b0be6830c0be7830de7830e1f0be783000b6b1f4a0040e60093830be7e7370193830be6e13111e64a010e63938312401940e60c025cd0e54006e6e78837020209fc7f30e1101203e5d0e64078ffa2ed63dd32e112128de0512cfd0328002ff1625ce0e661001cfc3d4160e04c795e1b5140e706fc37fd50194b23c9011b'
p47
L1470L
tp48
a(S'attack_tcp_syn'
p49
S'864c962f73a62f6c694fccd10be5dae7830be648e0d70356938383090be76150e0e7930be654e0d706e6938383b70b6e9383b40b6c93830a0be7830b0be783000b6b0c0be7830de7830e1f0be7831f4a0040e600939cd00be6e737090299d0e54006e6e18831118f1ea294d06d01301d1200030b77888f08fd06f7e140e61f1ded15160716180128fd0540e0305e5d63e535507c334e001b73181b61184b1b03503c19c90218502b0101fd500102'
p50
L1374L
tp51
a(S'attack_udp_plain'
p52
S'8673962f6c692fc3e622d17f1fda4104d2040b6ed793830b6b830be660b493830be60de64a01000e60051f1af95053d11f0124fc02562c18461b1f15a0fc0052000c59181f196a601b021f02215da00909fd016011f85202023d761f620be6610310160b60ff0210fd002501001b310b0032d22dd142a021e64319416d487c3b27d322240c29232341184719427b2b3b11f61ed1e604701f0b7a50c08d79d1d441010350160e500ed130d2420997af0109090909384ff66df6f66900022400ff00b00040000000ff000000001551182983be0504c0'
p53
L624L
tp54
a(S'attack_udp_generic'
p55
S'864c962f73a62f6c696e22d1da41040093830be660790393090b938305e7600093830be6606fd706e60c0b9383061f0be683c59383010b6b93831f4a19071f0260d0e54011ff0309fc7fd06d010c1f1d1200030b77888fe509149691fd02e0033b6c2a3d8b2f56001f1dbe60611c081f120d03e00634fc006c6a561962182b5119422b1918e0002a513d6c19491bfc517c19188d2ca12a014f940b48df'
p56
L1214L
tp57
a(S'attack_udp_vse'
p58
S'864c962f73a62f6c694f7bcc7f1f511f0be5da030be6608303061f0b8304040be7608300080b836b0b6e83c997930b6cd168d0402c03d0e4e54011ff0309fc7fd06bf87b1b1200030b77888f61a156fd026c8d462d1f1f1b1f8a0124fc00fa590c28fc024c18e819422b5218422b1b3fd6017a0b48bf50180808371e06d3611462622f019163731963cb'
p59
L926L
tp60
a(S'attack_udp_dns'
p61
S'864c962f73a62f6c694fa59154da3f54d1511f0be583030be6609383080be683040be66093830a0be66093830b0be68305e683090b6e93830c0b6d03080083933840e23212431ee4d9e44900030be5d603461ee4483dd04d96b30b03d04083471fe4e4490003d003d0401fe460ff1e'
p62
L1544L
tp63
a(S'checksum_generic'
p64
S'01163500014561'
p65
L54L
tp66
a(S'checksum_tcpudp'
p67
S'86011737962f736d6900015561'
p68
L136L
tp69
a(S'killer_kill'
p70
S'02122b'
p71
L10L
tp72
a(S'killer_kill_by_port'
p73
S'8600962f4d692f2291d891fc3496bb349400b7fc3c34965edd481cac9400af91fc34960b34909c6118e230e5492d1be110100b0b023050d8e448000be448094dd00be5888f6b93604adefc384e838b63238d603a'
p74
L1276L
tp75
a(S'killer_init'
p76
S'86962fa62fb6'
p77
L1802L
tp78
a(S'anti_gdb_entry'
p79
S'0203220b09'
p80
L10L
tp81
a(S'ensure_single_instance'
p82
S'8601962f02a62f01b6'
p83
L300L
tp84
a(S'resolve_cnc_addr'
p85
S'86962fa62fb62a'
p86
L178L
tp87
a(S'main'
p88
S'86962fa62fb6'
p89
L2486L
tp90
a(S'rand_next'
p91
S'0c0b0c62d4617d0c1a4263607219526132ede1477a3a2a0200'
p92
L52L
tp93
a(S'rand_init'
p94
g2
L64L
tp95
a(S'rand_alphastr'
p96
S'8621962f5368b6'
p97
L254L
tp98
a(S'rand_str'
p99
S'86152fb6'
p100
L246L
tp101
a(S'resolv_entries_free'
p102
S'8648242f43684154d9014f93618368090909090909090909090909094ff668'
p103
L74L
tp104
a(S'resolv_lookup'
p105
S'8608962f4368b6'
p106
L1242L
tp107
a(S'scanner_kill'
p108
S'02122b'
p109
L10L
tp110
a(S'setup_connection'
p111
S'8600962f00a62f436a2f2250'
p112
L152L
tp113
a(S'add_auth_entry'
p114
S'8604962f6da62f43694f3bf47f1fc2de2fe20b75d3120b6dd603786b836a930b158fe160ac0271e33b22'
p115
L258L
tp116
a(S'scanner_init'
p117
S'86962fa62fb6'
p118
L5956L
tp119
a(S'table_retrieve_val'
p120
S'0343601d250371611d600b09'
p121
L30L
tp122
a(S'table_lock_val'
p123
S'4c1b082f6c962f1c19637991611d'
p124
L112L
tp125
a(S'table_unlock_val'
p126
S'4c1b082f6c962f1c19637991611d'
p127
L112L
tp128
a(S'table_init'
p129
S'861ee42fa62fb6'
p130
L1424L
tp131
a(S'util_strlen'
p132
S'406118068de07001218f707000'
p133
L24L
tp134
a(S'util_strcpy'
p135
S'5061181c0001605c01218f7288'
p136
L68L
tp137
a(S'util_memcpy'
p138
S'68e00101308b00'
p139
L20L
tp140
a(S'util_zero'
p141
S'5825001401308b00'
p142
L20L
tp143
a(S'util_memsearch'
p144
S'5737860c156809090909090909098fe3a00909090909090909090909000135833301318f78378f7373af'
p145
L100L
tp146
a(S'util_atoi'
p147
S'8643962fa62f536a2f'
p148
L358L
tp149
a(S'util_fdgets'
p150
S'864368a62fb6632f536cd62f436de61222b3010b6a888f78793c8b8f894fd36ef66cf66a6900000000000000af00'
p151
L100L
tp152
a(S'util_local_addr'
p153
S'8610962f22d07f61d42f11400900121402020be68869d1'
p154
L102L
tp155
a(S'util_stristr'
p156
S'86632f00a62fb6606118078d01608c18fb8f79790015'
p157
L148L
tp158
a(S'util_strcmp'
p159
S'406118078de272604c01218f72726118068de07001218f7070328900e0000000000000000110f18f7570888be000'
p160
L88L
tp161
a(S'util_strncmp'
p162
S'406163218de272604c01218f72726118068de07001218f7070338d33897360ff0110f6e00000000000000000000000'
p163
L100L
tp164
a(S'util_itoa'
p165
S'866868b6'
p166
L262L
tp167
a(S'__sdivsi3_i4'
p168
S'5a442d230b'
p169
L14L
tp170
a(S'__udivsi3_i4'
p171
S'0116351a4406'
p172
L40L
tp173
a(S'fcntl'
p174
S'86f8e22f4ce04fc0e304296862737213aa04bb72729bf872727be34af12c5bf11312772271763304017253637362040216332705d04009a0407e60138230638f68098be32060407e6f4ff668'
p175
L164L
tp176
a(S'fcntl64'
p177
S'86f8e22f4ce04fc0e304296862737213aa04bb72729bf872727be34af12c5bf11312772271763304017218226012138230638f68098be320336f4ff668'
p178
L144L
tp179
a(S'chdir'
p180
S'860ce6334f6e118230638f68098be32060e34ff668'
p181
L50L
tp182
a(S'close'
p183
S'8606e32f334f6e118230638f68098be32060e34ff668'
p184
L50L
tp185
a(S'fork'
p186
S'8602e6334f6e108230638f68098be32060e34ff668'
p187
L50L
tp188
a(S'getpid'
p189
S'8614e6334f6e108230638f68098be32060e34ff668'
p190
L50L
tp191
a(S'getppid'
p192
S'8640e32f334f6e108230638f68098be32060e34ff668'
p193
L50L
tp194
a(S'ioctl'
p195
S'86f8e22f4ce04fc0e304296862737213aa04bb72729bf872727be34af12c5bf113127722717633040172e36013722712c38230638f68098be320336f4ff668'
p196
L144L
tp197
a(S'kill'
p198
S'862560226e128230638f68098be32060e34ff668'
p199
L50L
tp200
a(S'open'
p201
S'86f8e12f536883e30419686120711540c9bb71208a9bf1f87171f17b4a5b132c331172e07311333053110122120533c38230638f68098be320336f4ff668'
p202
L156L
tp203
a(S'creat'
p204
S'5304056ee3f64109'
p205
L18L
tp206
a(S'prctl'
p207
S'86e622936ee315308f68098b20e06f4ff668'
p208
L46L
tp209
a(S'read'
p210
S'8603e6334f6e138230638f68098be32060e34ff668'
p211
L50L
tp212
a(S'readlink'
p213
S'8655e32f334f6e138230638f68098be32060e34ff668'
p214
L50L
tp215
a(S'select'
p216
S'86e622936ee315308f68098b20e06f4ff668'
p217
L46L
tp218
a(S'setsid'
p219
S'8642e32f334f6e108230638f68098be32060e34ff668'
p220
L50L
tp221
a(S'sigprocmask'
p222
S'8658250a16348bd0400916e120a00833c38230638f68098be32060e34ff668'
p223
L76L
tp224
a(S'time'
p225
S'860d60226e118230638f68098be32060e34ff668'
p226
L50L
tp227
a(S'unlink'
p228
S'860ae6334f6e118230638f68098be32060e34ff668'
p229
L50L
tp230
a(S'write'
p231
S'8604e6334f6e138230638f68098be32060e34ff668'
p232
L50L
tp233
a(S'closedir'
p234
S'86962fa62f436a2f2260'
p235
L108L
tp236
a(S'opendir'
p237
S'86962fa62f00e622d0406e118f680b118be540011189ea230b007ed0403008178d6ae11052111229257110d0e4201a8fe5d141a30bea0c1205d0747e60e34ff66a69'
p238
L186L
tp239
a(S'readdir'
p240
S'864368e643697f6e1ae30b190b915292513117d0560b00e1a011915293582c816134'
p241
L122L
tp242
a(S'__errno_location'
p243
S'03e66ee3f600'
p244
L14L
tp245
a(S'clock'
p246
S'86e622d07f6e0be1e210d00819e34ff668'
p247
L46L
tp248
a(S'memcpy'
p249
S'632068c830e18d3175'
p250
L636L
tp251
a(S'memmove'
p252
S'864361962f58312f632f4368f87f6e411e02e1e1014b6063c903100120'
p253
L978L
tp254
a(S'memset'
p255
S'e607e16e638f5c63416b634303ff72600308f8'
p256
L124L
tp257
a(S'inet_addr'
p258
S'e622d07f6e0b0803c45004e34ff600'
p259
L38L
tp260
a(S'accept'
p261
S'e622d07f6e42511e0540e30ce34ff600'
p262
L34L
tp263
a(S'bind'
p264
S'e622d07f6e42511e02620b0ce34ff600'
p265
L34L
tp266
a(S'connect'
p267
S'e622d07f6e42511e03620b0ce34ff600'
p268
L34L
tp269
a(S'getsockname'
p270
S'e622d07f6e42511e06e41e0b0ce34ff600'
p271
L34L
tp272
a(S'getsockopt'
p273
S'e622d07f6ee742e46273140b14e34ff600'
p274
L40L
tp275
a(S'listen'
p276
S'e622d07f6ee3c8e34e114004086f4ff600'
p277
L36L
tp278
a(S'recv'
p279
S'e622d07f6e42511e0a62730b106f4ff600'
p280
L36L
tp281
a(S'recvfrom'
p282
S'e6227fd06ee8e41ee91e7325186f4ff600'
p283
L44L
tp284
a(S'send'
p285
S'e622d07f6e42511e0962730b106f4ff600'
p286
L36L
tp287
a(S'sendto'
p288
S'e6227fd06ee8e41ee91e7325186f4ff600'
p289
L44L
tp290
a(S'setsockopt'
p291
S'e622d07f6ee7420ee41e6273140b14e34ff600'
p292
L40L
tp293
a(S'socket'
p294
S'e622d07f6e42511e01620b0ce34ff600'
p295
L34L
tp296
a(S'raise'
p297
S'86436822406e05e34ff668'
p298
L32L
tp299
a(S'sigaddset'
p300
S'e615'
p301
L50L
tp302
a(S'sigemptyset'
p303
S'e60005960b6e00e34ff600'
p304
L26L
tp305
a(S'signal'
p306
S'865360962fffe622911806'
p307
L156L
tp308
a(S'__sigismember'
p309
S'536373e1601d6108601fe701013de6606ee3f600'
p310
L44L
tp311
a(S'__sigaddset'
p312
S'5360ffe16242014c326e22c90d21226ff600'
p313
L40L
tp314
a(S'__sigdelset'
p315
S'5360ffe16343014c336e1fc9324200276221236ff600'
p316
L42L
tp317
a(S'malloc'
p318
S'8648242f43622f227f'
p319
L222L
tp320
a(S'calloc'
p321
S'8648242f5363e62208'
p322
L86L
tp323
a(S'free'
p324
S'8648242fa62fb6'
p325
L208L
tp326
a(S'realloc'
p327
S'865825b6436b53e622'
p328
L234L
tp329
a(S'__heap_alloc'
p330
S'52'
p331
L98L
tp332
a(S'__heap_alloc_at'
p333
S'4262762f25633156318d2019021b128901225218030d24a032055228d8336ff600'
p334
L102L
tp335
a(S'__heap_link_free_area'
p336
S'e668155116027800f600'
p337
L34L
tp338
a(S'__heap_link_free_area_after'
p339
S'e6686e511601620b09'
p340
L26L
tp341
a(S'__heap_free'
p342
S'865360962f6c302f0022685231892871a0830c06318d3169238d610c1032560d57780e8d72280c100873730ed1410905d10b9228a0037962930b9360e34ff669'
p343
L166L
tp344
a(S'abort'
p345
S'86e622913018305c980b6eec38e2a0'
p346
L200L
tp347
a(S'atol'
p348
S'0400e60a6ee3f64109'
p349
L18L
tp350
a(S'strtol'
p351
S'0301e66ee3f64109'
p352
L16L
tp353
a(S'_stdlib_strto_l'
p354
S'864368a62fb6'
p355
L304L
tp356
a(S'sleep'
p357
S'8648242fa62fb6e622911802009893200001ff611141f98d8d1148d032391f124093118fe49843d040836b0be520932001ff611141f98d94113534401c11'
p358
L332L
tp359
a(S'__uClibc_fini'
p360
S'86152f1822486e05d1601e014109'
p361
L86L
tp362
a(S'__pthread_return_0'
p363
S'e6006ee3f600'
p364
L14L
tp365
a(S'_pthread_cleanup_push_defer'
p366
S'e66ee3f600'
p367
L12L
tp368
a(S'__check_one_fd'
p369
S'865368e64369406eff090b903089d14109e34ff669'
p370
L56L
tp371
a(S'__uClibc_init'
p372
S'e622d26118120c121222010a1804e34ff64109e34ff600'
p373
L60L
tp374
a(S'sbrk'
p375
S'86962fa62f436a2f'
p376
L72L
tp377
a(S'__socketcall'
p378
S'86e32f334f6e128230638f68098be32060e34ff668'
p379
L50L
tp380
a(S'_exit'
p381
S'86962f43696e0c01931116308f68098b20af09'
p382
L40L
tp383
a(S'fstat'
p384
S'866ce32f332f53697f6ee3128230638f68098be3202333d10b407e60e34ff66a69'
p385
L80L
tp386
a(S'__getdents'
p387
S'865368b6'
p388
L120L
tp389
a(S'__getdents64'
p390
S'86632f06712f092f082f536b632f2293'
p391
L248L
tp392
a(S'getegid'
p393
S'86e622936e33c38230638f68098be32060e34ff668'
p394
L50L
tp395
a(S'geteuid'
p396
S'86e622936e33c38230638f68098be32060e34ff668'
p397
L50L
tp398
a(S'getgid'
p399
S'86e622936e33c38230638f68098be32060e34ff668'
p400
L50L
tp401
a(S'getuid'
p402
S'86e622936e33c38230638f68098be32060e34ff668'
p403
L50L
tp404
a(S'lseek64'
p405
S'86632f73e653227fe9e323c31c16308f68098b20a003041ae3c81f51086f4ff669'
p406
L86L
tp407
a(S'nanosleep'
p408
S'86e622936e33c38230638f68098be32060e34ff668'
p409
L50L
tp410
a(S'times'
p411
S'862be6334f6e118230638f68098be32060e34ff668'
p412
L50L
tp413
a(S'__xstat64_conv'
p414
S'8660e62f5368b683e5d04f0b6e9d5193635b8340761872500010916121619455122d187754181816799b529551349c531516b6a718180e186f4ff66bf668'
p415
L128L
tp416
a(S'__xstat_conv'
p417
S'8658e62f5368b683e5d06e0b7b519363187793601b0c9651936a731c0e7a512d1d51000118621b612d6154181b7627181841186f4ff66bf668'
p418
L138L
tp419
a(S'inet_aton'
p420
S'8648242fa62f536a2f'
p421
L194L
tp422
a(S'sigaction'
p423
S'865825a62f00b6632f436b3b6e385661ec38123393617c13121818e614b30be72a8d690ed06104180b7553a37111119793607ce34ff66bf668'
p424
L144L
tp425
a(S'_dl_aux_init'
p426
S'475205536e220332e3f600'
p427
L24L
tp428
a(S'_brk'
p429
S'862d60226e118230638f68098be32060e34ff668'
p430
L50L
tp431
a(S'__init_brk'
p432
S'860d612221d040000802068bd040090c1201e34ff668'
p433
L56L
tp434
a(S'__syscall_rt_sigaction'
p435
S'86e622936e33c38230638f68098be32060e34ff668'
p436
L50L
tp437
a(S'__do_global_ctors_aux'
p438
S'8609e6'
p439
L38L
tp440
a(S'_fini'
p441
g2
L20L
tp442
a.