(lp0
(S'_init'
p1
S'06009cb127219903'
p2
L140L
tp3
a(S'_ftext'
p4
S'0600109903'
p5
L188L
tp6
a(S'frame_dummy'
p7
S'060054b027219903'
p8
L128L
tp9
a(S'__start'
p10
S'21e00111000000c49f03f800c800a58fa627f8ff24e8bd'
p11
L100L
tp12
a(S'attack_app_http'
p13
S'060060af9c27219903bdafb0beafa8b6a451b5a051b39851b29451b19051b018bc'
p14
L10220L
tp15
a(S'attack_get_opt_str'
p16
S'ff840e0030a200461000104000046206000863002521600000031000000310'
p17
L84L
tp18
a(S'attack_start'
p19
S'0600209903'
p20
L396L
tp21
a(S'attack_parse'
p22
S'06009485a8bdaf5000af4800af400038b234b130b018bc2c88148000958cff'
p23
L816L
tp24
a(S'attack_kill_all'
p25
S'0600'
p26
L456L
tp27
a(S'attack_get_opt_ip'
p28
S'06009c8000ff'
p29
L116L
tp30
a(S'attack_get_opt_int'
p31
S'060028990300ff'
p32
L116L
tp33
a(S'attack_init'
p34
S'057f27219903'
p35
L1028L
tp36
a(S'attack_gre_eth'
p37
S'057b27219903bdafa000af9400af8cb388b284b180af18bc'
p38
L2164L
tp39
a(S'attack_gre_ip'
p40
S'057327219903bdaf88beaf80af7cb578b474b370b26c00af18bc'
p41
L2000L
tp42
a(S'attack_tcp_stomp'
p43
S'056b'
p44
L2600L
tp45
a(S'attack_tcp_ack'
p46
S'05619c27219903bdafa8beafa000af9400af8cb188b018bc'
p47
L2232L
tp48
a(S'attack_tcp_syn'
p49
S'05589c27219903bdaf9800af9000af88b484b380af7cb178b018bc'
p50
L2132L
tp51
a(S'attack_udp_plain'
p52
S'05509c2721990300af5400af4c00af4400af3cb138b010bc'
p53
L992L
tp54
a(S'attack_udp_generic'
p55
S'054c9c2721990300af74b770b66c00af00af5c00af18bc'
p56
L1828L
tp57
a(S'attack_udp_vse'
p58
S'05459c2721990300af5c00af5400af4c00af4400af18bc'
p59
L1396L
tp60
a(S'attack_udp_dns'
p61
S'053f9c27219903bdafb0beafa8b6a408af9c08af9408af18bc'
p62
L2208L
tp63
a(S'checksum_generic'
p64
S'02a214300000240000ff02840024003000003000ff3014001002001010000003ff'
p65
L92L
tp66
a(S'checksum_tcpudp'
p67
S'02e20c8900'
p68
L172L
tp69
a(S'killer_kill'
p70
S'059c27219903'
p71
L32L
tp72
a(S'killer_kill_by_port'
p73
S'0535990322af22af5c22af5422af4c22af10bc'
p74
L2312L
tp75
a(S'killer_init'
p76
S'052c27219903deaf08beaf00b6fc20aff420afec20af10bc8f0000f820210010bc008103984000005081ac0cbf8fb700b6fc20'
p77
L3224L
tp78
a(S'anti_gdb_entry'
p79
S'05201c'
p80
L32L
tp81
a(S'ensure_single_instance'
p82
S'0520b0bdaf4400af3cb138b018bc8f002481af02050330002018bcae'
p83
L568L
tp84
a(S'resolve_cnc_addr'
p85
S'051e9c27219903'
p86
L324L
tp87
a(S'main'
p88
S'051c27219903bdaf88beaf80af7cb578b474b370b26c06b1680021a48cf82021bc274083092021600200b4998f0000f8200205'
p89
L3748L
tp90
a(S'rand_next'
p91
S'050e9c272199038010221888c200101800e418068d120010102414e618050342ad'
p92
L92L
tp93
a(S'rand_init'
p94
S'050d9903'
p95
L172L
tp96
a(S'rand_alphastr'
p97
S'050d9903'
p98
L368L
tp99
a(S'rand_str'
p100
S'050b2100000080188e180c14eb10'
p101
L236L
tp102
a(S'resolv_entries_free'
p103
S'050ae0bdaf18b010bc1080b800214000f820000010bc002002bf'
p104
L108L
tp105
a(S'resolv_lookup'
p106
S'050a00bdaff810af10afe810afdcb1d8b018bc'
p107
L1636L
tp108
a(S'scanner_kill'
p109
S'0503cc818c0003'
p110
L32L
tp111
a(S'setup_connection'
p112
S'0503c830bfaf28b010bc'
p113
L284L
tp114
a(S'add_auth_entry'
p115
S'0502b800af3cb738b634b530b42cb328b224b120b010bc'
p116
L512L
tp117
a(S'scanner_init'
p118
S'050060f8bdaf9807beaf9007b68cb588b484b380af7cb178b018bc8f0000f820000018bc0081ac9c07bf'
p119
L8468L
tp120
a(S'table_retrieve_val'
p121
S'05df8c0404a000'
p122
L52L
tp123
a(S'table_lock_val'
p124
S'05df8c84c0003094100000448c0002040200560200000403004e09030007002800008c00001890000010000000c42000001000'
p125
L228L
tp126
a(S'table_unlock_val'
p127
S'05de8c84c0003094100000448c0002040200560200000403004e09030007002800008c00001890000010000000c42000001000'
p128
L228L
tp129
a(S'table_init'
p130
S'05ddc0273cbfaf34b730b62cb528b424b320b21cb118b010bc8f0000f8201e0010bc0085cc27a5240024f82021bc24'
p131
L3040L
tp132
a(S'util_strlen'
p133
S'00'
p134
L44L
tp135
a(S'util_strcpy'
p136
S'00a20000000021a08000fdff016330'
p137
L100L
tp138
a(S'util_memcpy'
p139
S'08c04080380010902107010024ff1400000300'
p140
L44L
tp141
a(S'util_zero'
p142
S'052801840000000300'
p143
L32L
tp144
a(S'util_memsearch'
p145
S'2aa70050a01058800003ff24ff0040002100002500002106011000458083ff25012908e001'
p146
L104L
tp147
a(S'util_atoi'
p148
S'200724002400240024ff216000ff0000f9ff2d00000200007f3cff2100000040001000480011002100d0c324101c401000000004100100'
p149
L360L
tp150
a(S'util_fdgets'
p151
S'05cf9c27219903'
p152
L216L
tp153
a(S'util_local_addr'
p154
S'05ce9c27219903'
p155
L228L
tp156
a(S'util_stristr'
p157
S'00c200000021c0000000fdff016358004880500021ca00250080bf00ff631a422cff251a630035000060003400110000500021caff25'
p158
L172L
tp159
a(S'util_strcmp'
p160
S'00'
p161
L148L
tp162
a(S'util_strncmp'
p163
S'00'
p164
L180L
tp165
a(S'util_itoa'
p166
S'd0bd1018140024002400a021c000030010000050002008001400001800000500370002a000100100'
p167
L304L
tp168
a(S'fcntl'
p169
S'05ca219903'
p170
L136L
tp171
a(S'fcntl64'
p172
S'05c99c27219903'
p173
L104L
tp174
a(S'chdir'
p175
S'05c99c27219903'
p176
L88L
tp177
a(S'close'
p178
S'05c8e003'
p179
L84L
tp180
a(S'fork'
p181
S'05c8e003'
p182
L84L
tp183
a(S'getpid'
p184
S'05c8e003'
p185
L84L
tp186
a(S'getppid'
p187
S'05'
p188
L84L
tp189
a(S'ioctl'
p190
S'05'
p191
L104L
tp192
a(S'kill'
p193
S'05'
p194
L88L
tp195
a(S'open'
p196
S'05'
p197
L124L
tp198
a(S'creat'
p199
S'05c52499'
p200
L28L
tp201
a(S'prctl'
p202
S'05c5d8bdaf21a0af18b010bc2738c2'
p203
L120L
tp204
a(S'read'
p205
S'05c5e0bdaf18b010bc2400008100f820000010bcac'
p206
L84L
tp207
a(S'readlink'
p208
S'05c4e0bdaf18b010bc2400008100f820000010bcac'
p209
L84L
tp210
a(S'select'
p211
S'05c4d8bdaf21a0af18b010bc2738c2'
p212
L120L
tp213
a(S'setsid'
p214
S'05c4e0bdaf18b010bc2400008100f820000010bcac'
p215
L84L
tp216
a(S'sigprocmask'
p217
S'05c39c27219903'
p218
L148L
tp219
a(S'time'
p220
S'05c39c27219903'
p221
L84L
tp222
a(S'unlink'
p223
S'05c2219903'
p224
L84L
tp225
a(S'write'
p226
S'05c2219903'
p227
L84L
tp228
a(S'closedir'
p229
S'05c1'
p230
L292L
tp231
a(S'opendir'
p232
S'05c0'
p233
L408L
tp234
a(S'readdir'
p235
S'05bf9903'
p236
L256L
tp237
a(S'__errno_location'
p238
S'05be9903800000'
p239
L24L
tp240
a(S'clock'
p241
S'05be9903'
p242
L108L
tp243
a(S'memset'
p244
S'08c928001505000044050040040308030023c885070030001138003800300100fdffac04c80023c8850018380000'
p245
L144L
tp246
a(S'memmove'
p247
S'05bd9903'
p248
L816L
tp249
a(S'inet_addr'
p250
S'05b99903'
p251
L72L
tp252
a(S'accept'
p253
S'05b99903'
p254
L84L
tp255
a(S'bind'
p256
S'05b99903'
p257
L84L
tp258
a(S'connect'
p259
S'05b89903'
p260
L84L
tp261
a(S'getsockname'
p262
S'05b89903'
p263
L84L
tp264
a(S'getsockopt'
p265
S'05b89903'
p266
L120L
tp267
a(S'listen'
p268
S'05b727219903'
p269
L84L
tp270
a(S'recv'
p271
S'05b727219903'
p272
L84L
tp273
a(S'recvfrom'
p274
S'05b627219903'
p275
L128L
tp276
a(S'send'
p277
S'05b627219903'
p278
L84L
tp279
a(S'sendto'
p280
S'05b527219903'
p281
L128L
tp282
a(S'setsockopt'
p283
S'05b527219903'
p284
L120L
tp285
a(S'socket'
p286
S'05b427219903'
p287
L84L
tp288
a(S'raise'
p289
S'05b427219903'
p290
L76L
tp291
a(S'sigaddset'
p292
S'05b427219903'
p293
L104L
tp294
a(S'sigemptyset'
p295
S'05b327219903'
p296
L60L
tp297
a(S'signal'
p298
S'05b327219903'
p299
L252L
tp300
a(S'__sigismember'
p301
S''
p302
L40L
tp303
a(S'__sigaddset'
p304
g302
L44L
tp305
a(S'__sigdelset'
p306
g302
L48L
tp307
a(S'malloc'
p308
S'05b127219903'
p309
L492L
tp310
a(S'calloc'
p311
S'05b027219903'
p312
L180L
tp313
a(S'free'
p314
S'05af9c27219903'
p315
L396L
tp316
a(S'realloc'
p317
S'05ad9c27219903'
p318
L472L
tp319
a(S'__heap_alloc'
p320
S'00a22400244300c20000000c0624001000000000002be61a4014002410000023e6048c0000c0000000000008c200046810000030000021e002000088100c42240003008c0000ff210008e00000'
p321
L188L
tp322
a(S'__heap_alloc_at'
p323
S'0083'
p324
L184L
tp325
a(S'__heap_link_free_area'
p326
S'04a7ac03c00010c50010000000ac08e00000'
p327
L44L
tp328
a(S'__heap_link_free_area_after'
p329
S'03c000000010c50003'
p330
L28L
tp331
a(S'__heap_free'
p332
S'05aa9c27219903'
p333
L364L
tp334
a(S'atol'
p335
S'05a8272199038008200a06'
p336
L28L
tp337
a(S'strtol'
p338
S'05a827219903810300'
p339
L28L
tp340
a(S'_stdlib_strto_l'
p341
S'05a827219903'
p342
L592L
tp343
a(S'exit'
p344
S'05a69c27219903'
p345
L240L
tp346
a(S'sleep'
p347
S'05a59c27219903'
p348
L564L
tp349
a(S'__uClibc_fini'
p350
S'05a29903'
p351
L196L
tp352
a(S'__pthread_return_0'
p353
S'08e02100'
p354
L8L
tp355
a(S'_pthread_cleanup_push_defer'
p356
S'08e00000'
p357
L8L
tp358
a(S'__check_one_fd'
p359
S'05a19903'
p360
L136L
tp361
a(S'__uClibc_init'
p362
S'05a19903'
p363
L140L
tp364
a(S'__uClibc_main'
p365
S'05a09903bdafa400af9c00af9400af10bc0090c00000'
p366
L872L
tp367
a(S'sigaction'
p368
S'059d9c2721990300af5c00af10bc0088009080'
p369
L232L
tp370
a(S'__syscall_rt_sigaction'
p371
S'059c9c27219903'
p372
L84L
tp373
a(S'_exit'
p374
S'059c9c27219903'
p375
L80L
tp376
a(S'fstat'
p377
S'059b9c27219903bdafac00af10bc2721c0102400008100f820000010bcac0800'
p378
L140L
tp379
a(S'__getdents'
p380
S'059b9c27219903'
p381
L192L
tp382
a(S'__getdents64'
p383
S'059ab80003af3cb738b634b530b42cb328b224b120b018bc2410001000e8b321c000af216002020000001090400081030000008f00'
p384
L456L
tp385
a(S'getegid'
p386
S'05989c27219903'
p387
L88L
tp388
a(S'geteuid'
p389
S'05989c27219903'
p390
L88L
tp391
a(S'getgid'
p392
S'05989c27219903'
p393
L84L
tp394
a(S'getuid'
p395
S'05979c27219903'
p396
L84L
tp397
a(S'lseek64'
p398
S'05979c27219903'
p399
L164L
tp400
a(S'nanosleep'
p401
S'05969c27219903'
p402
L84L
tp403
a(S'sbrk'
p404
S'05969c27219903'
p405
L144L
tp406
a(S'times'
p407
S'05959c27219903'
p408
L84L
tp409
a(S'__xstat64_conv'
p410
S'05959c27219903'
p411
L288L
tp412
a(S'__xstat_conv'
p413
S'05949c27219903'
p414
L276L
tp415
a(S'memcpy'
p416
S'08c80040a4000031001503290530000000000000300011380038003001008c008c0018ae8caf8c00e088ffacfff8ff14ff30001138003800300100240014ff18380000240014ff0300003803e70600103000008828b803c8c8e500a988840014ff1030'
p417
L308L
tp418
a(S'inet_aton'
p419
S'05919c272199038058a0'
p420
L280L
tp421
a(S'abort'
p422
S'05909c27219903'
p423
L428L
tp424
a(S'_dl_aux_init'
p425
S'058e1c83000043ac2c83e00043ac'
p426
L44L
tp427
a(S'brk'
p428
S'058ee0bdaf10bc'
p429
L112L
tp430
a(S'__do_global_ctors_aux'
p431
S'058ed8bdaf1cb118b010bc'
p432
L108L
tp433
a(S'_fini'
p434
S'058de0bdaf1cbfaf011100008d200020390920000010bc00bf000003'
p435
L92L
tp436
a.