(lp0
(S'_init'
p1
S'9de350'
p2
L72L
tp3
a(S'abort'
p4
S'9de33059e0c2f710'
p5
L524L
tp6
a(S'fini'
p7
S'030a'
p8
L20L
tp9
a(S'main'
p10
S'9de3500000001d001d0076052092101d90100100901014'
p11
L2504L
tp12
a(S'_start'
p13
S'bc23af94030100190490122013e80001000000'
p14
L56L
tp15
a(S'__sparc_get_pc_thunk.l7'
p16
S'81'
p17
L8L
tp18
a(S'deregister_tm_clones'
p19
S'9de350030a11000512000201000010832010800b00001083201002040000000000'
p20
L108L
tp21
a(S'register_tm_clones'
p22
S'9de350030a11000512000201000028'
p23
L124L
tp24
a(S'__do_global_dtors_aux'
p25
S'9de350'
p26
L288L
tp27
a(S'call___do_global_dtors_aux'
p28
S'9de3508100'
p29
L12L
tp30
a(S'frame_dummy'
p31
S'9de3500300051083201002'
p32
L92L
tp33
a(S'call_frame_dummy'
p34
S'9de3508100'
p35
L12L
tp36
a(S'_Z15attack_app_httphP13attack_targethP13attack_option'
p37
S'0300189de301100009101a001200'
p38
L8572L
tp39
a(S'_ZL10add_attackhPFvhP13attack_targethP13attack_optionE'
p40
S'9de3509210106e8c002af6ae0500'
p41
L116L
tp42
a(S'_Z11attack_initv'
p43
S'9de350'
p44
L228L
tp45
a(S'_Z15attack_kill_allv'
p46
S'9de350'
p47
L88L
tp48
a(S'_Z12attack_startihhP13attack_targethP13attack_option'
p49
S'9de3500000a0f6'
p50
L228L
tp51
a(S'_Z12attack_parsePci'
p52
S'9de3508078'
p53
L496L
tp54
a(S'_Z18attack_get_opt_strhP13attack_optionhPc'
p55
S''
p56
L48L
tp57
a(S'_Z18attack_get_opt_inthP13attack_optionhi'
p58
S'9de350901018101aff921019c2b0001087cfe09010'
p59
L48L
tp60
a(S'_Z17attack_get_opt_iphP13attack_optionhj'
p61
S'9de350901018101aff921019c2b000109d81e09010'
p62
L48L
tp63
a(S'_Z13attack_gre_iphP13attack_targethP13attack_option'
p64
S'9de320009210081000007fff90101a100310111008'
p65
L1208L
tp66
a(S'_Z14attack_gre_ethhP13attack_targethP13attack_option'
p67
S'9de3200010080028f4811002'
p68
L1316L
tp69
a(S'_Z14attack_tcp_synhP13attack_targethP13attack_option'
p70
S'9de310009210081000007ffd69101b'
p71
L1348L
tp72
a(S'_Z14attack_tcp_ackhP13attack_targethP13attack_option'
p73
S'9de300009210081000007ffc1810ff'
p74
L1432L
tp75
a(S'_Z16attack_tcp_stomphP13attack_targethP13attack_option'
p76
S'9de3d000921010100868181000007ffaae90101a101b'
p77
L1616L
tp78
a(S'_ZL16get_dns_resolverv'
p79
S'9de330129010'
p80
L400L
tp81
a(S'_Z18attack_udp_generichP13attack_targethP13attack_option'
p82
S'9de310009210081000007ff8baba101b1003'
p83
L1016L
tp84
a(S'_Z14attack_udp_vsehP13attack_targethP13attack_option'
p85
S'9de330009210081000007ff710ff'
p86
L868L
tp87
a(S'_Z14attack_udp_dnshP13attack_targethP13attack_option'
p88
S'9de31077870020ecb50520ee77e7001018101b1002f690101a101b'
p89
L1096L
tp90
a(S'_Z16attack_udp_plainhP13attack_targethP13attack_option'
p91
S'9de330009210081008'
p92
L524L
tp93
a(S'_Z16checksum_genericPtj'
p94
S'8420'
p95
L120L
tp96
a(S'_Z15checksum_tcpudpP5iphdrPvti'
p97
S'ca0c0210a2'
p98
L148L
tp99
a(S'_ZL10mem_existsPciS_i'
p100
S'8012328420'
p101
L100L
tp102
a(S'_Z11killer_killv'
p103
S'9de350'
p104
L40L
tp105
a(S'_Z19killer_kill_by_portt'
p106
S'0300'
p107
L1364L
tp108
a(S'_Z11killer_initv'
p109
S'0300'
p110
L2016L
tp111
a(S'_ZL14anti_gdb_entryi'
p112
S'9de350'
p113
L52L
tp114
a(S'_ZL19teardown_connectionv'
p115
S'9de350'
p116
L68L
tp117
a(S'_ZL16resolve_cnc_addrv'
p118
S'9de350009d90100300a00100'
p119
L172L
tp120
a(S'_ZL22ensure_single_instancev'
p121
S'9de330001be7ae05a7eb1000100285ba05'
p122
L372L
tp123
a(S'_Z9rand_initv'
p124
S'9de350001000001ae6ae0500'
p125
L124L
tp126
a(S'_Z9rand_nextv'
p127
S'9de35005181ae6ae05008663'
p128
L132L
tp129
a(S'_Z8rand_strPci'
p130
S'9de3508014a6'
p131
L96L
tp132
a(S'_Z13rand_alphastrPhi'
p133
S'9de320001ae6ae0504941021009205'
p134
L180L
tp135
a(S'_ZL16resolv_skip_namePhS_Pi'
p136
g56
L132L
tp137
a(S'_Z25resolv_domain_to_hostnamePcS_'
p138
S'9de3500084'
p139
L128L
tp140
a(S'_Z19resolv_entries_freeP14resolv_entries'
p141
S'9de35002000100d008c2010000010010e98100'
p142
L48L
tp143
a(S'_Z13resolv_lookupPc'
p144
S'9de3002000901001'
p145
L1008L
tp146
a(S'_ZL18consume_any_promptP18scanner_connection'
p147
S'c21c0220389090'
p148
L96L
tp149
a(S'_ZL5deobfPcPi'
p150
S'9de350009010180000913a00'
p151
L100L
tp152
a(S'_ZL14add_auth_entryPcS_t'
p153
S'9de3a0ffc80000'
p154
L248L
tp155
a(S'_ZL16setup_connectionP18scanner_connection'
p156
S'9de3c0c0d020'
p157
L212L
tp158
a(S'_Z15recv_strip_nulliPvii'
p159
S'9de35096101b00001800'
p160
L88L
tp161
a(S'_Z12scanner_initv'
p162
S'9de370000100'
p163
L6204L
tp164
a(S'_Z12scanner_killv'
p165
S'9de350'
p166
L40L
tp167
a(S'_ZL10toggle_obfh'
p168
S'9de350b1300012de0300'
p169
L164L
tp170
a(S'_ZL9add_entryhPci'
p171
S'9de3500090101a101a01b1300011ddae0500'
p172
L76L
tp173
a(S'_Z10table_initv'
p174
S'9de350'
p175
L1216L
tp176
a(S'_Z16table_unlock_valh'
p177
g56
L12L
tp178
a(S'_Z14table_lock_valh'
p179
g56
L12L
tp180
a(S'_Z18table_retrieve_valiPi'
p181
S'9de350b1300010dc0300'
p182
L60L
tp183
a(S'_Z11util_strlenPc'
p184
g56
L40L
tp185
a(S'_Z12util_strncmpPcS_i'
p186
S'9de3507fff901018'
p187
L120L
tp188
a(S'_Z11util_strcmpPcS_'
p189
S'9de3507fff901018'
p190
L96L
tp191
a(S'_Z11util_memcpyPvS_i'
p192
S'953200'
p193
L44L
tp194
a(S'_Z11util_strcpyPcS_'
p195
S'9de3507fff100800901018'
p196
L48L
tp197
a(S'_Z9util_zeroPvi'
p198
S'9332'
p199
L40L
tp200
a(S'_Z9util_atoiPci'
p201
S'9de350c200a0002088'
p202
L344L
tp203
a(S'_Z9util_itoaiiPc'
p204
S'9de320c60200'
p205
L216L
tp206
a(S'_Z14util_memsearchPciS_i'
p207
S'80111000a2e0ca02800400862086e080f6013810f184a0'
p208
L96L
tp209
a(S'_Z12util_stristrPciS_'
p210
S'9de3507f'
p211
L144L
tp212
a(S'_Z15util_local_addrv'
p213
S'9de3300079'
p214
L128L
tp215
a(S'_Z11util_fdgetsPcii'
p216
S'9de350b81000000090101a00a7'
p217
L92L
tp218
a(S'__libc_start_main'
p219
S'9de330777f7787778f1005c200'
p220
L1388L
tp221
a(S'check_one_fd'
p222
S'9de3c07092100100000000000a'
p223
L204L
tp224
a(S'__libc_check_standard_fds'
p225
S'9de3509010000201ff93321300b2007fffb02010c3'
p226
L48L
tp227
a(S'__libc_setup_tls'
p228
S'9de350030a003858'
p229
L448L
tp230
a(S'__libc_csu_init'
p231
S'9de3503b0a'
p232
L156L
tp233
a(S'__libc_csu_fini'
p234
S'9de3503b0a030aba10'
p235
L76L
tp236
a(S'__errno_location'
p237
S'1100'
p238
L28L
tp239
a(S'__assert_fail_base'
p240
S'9de31059e0c2f71002041000'
p241
L360L
tp242
a(S'__assert_fail'
p243
S'9de35094100511'
p244
L52L
tp245
a(S'dcgettext'
p246
g56
L28L
tp247
a(S'plural_eval'
p248
S'9de350c2000004008024a020d008ff9210197a0128b000'
p249
L328L
tp250
a(S'transcmp'
p251
S'9de350c220c0'
p252
L132L
tp253
a(S'plural_lookup.isra.2'
p254
S'9de350921019ff5e2080'
p255
L100L
tp256
a(S'_nl_find_msg'
p257
S'9de32059e0c2f777cf80767797f85e20020020c2'
p258
L2776L
tp259
a(S'__dcigettext'
p260
S'9de3b059e0c2f7778fc6779f80'
p261
L1884L
tp262
a(S'_nl_find_domain'
p263
S'9de3'
p264
L708L
tp265
a(S'_nl_load_domain'
p266
S'9de33059e0c2f710'
p267
L5796L
tp268
a(S'alias_compare'
p269
S'155a0000'
p270
L28L
tp271
a(S'read_alias_file'
p272
S'9de390'
p273
L1108L
tp274
a(S'_nl_expand_alias'
p275
S'9de350'
p276
L544L
tp277
a(S'_nl_make_l10nflist'
p278
S'9de31090101c1018a8c2efa28e04000090101da20000d0afa820a20000d0b70201'
p279
L1228L
tp280
a(S'_nl_normalize_codeset'
p281
S'9de35002b800015ee18a1810000887b0'
p282
L312L
tp283
a(S'_nl_explode_name'
p284
S'9de350c0c0c0c0'
p285
L596L
tp286
a(S'__gettext_free_exp'
p287
S'9de35002000000'
p288
L92L
tp289
a(S'new_exp'
p290
S'9de350'
p291
L228L
tp292
a(S'__gettextparse'
p293
S'9de3c22877f7'
p294
L2232L
tp295
a(S'__gettext_extract_plural'
p296
S'9de33059e0c2f71018000b000800901018208501908000030509a020051838008970'
p297
L344L
tp298
a(S'__hash_string'
p299
S'0b00680083040001088518'
p300
L80L
tp301
a(S'_setjmp'
p302
S'1020'
p303
L8L
tp304
a(S'setjmp'
p305
S'10'
p306
L8L
tp307
a(S'__sigsetjmp'
p308
S'd222'
p309
L20L
tp310
a(S'__bsd_signal.part.0'
p311
S'9de31059e0c2f777'
p312
L168L
tp313
a(S'ssignal'
p314
g56
L100L
tp315
a(S'raise'
p316
S'9de3c22877f7'
p317
L312L
tp318
a(S'__rt_sigreturn_stub'
p319
g56
L16L
tp320
a(S'__libc_sigaction'
p321
S'9de31059e0c2f7c610005e0077'
p322
L276L
tp323
a(S'sigaction'
p324
S'84'
p325
L76L
tp326
a(S'sigprocmask'
p327
S'9de350901018101a1091d06d1a0410001001c00000cfe00100b000847f9010ff003810026fff'
p328
L96L
tp329
a(S'kill'
p330
g56
L36L
tp331
a(S'sigemptyset'
p332
S'9de35002009410805f901018a0200300'
p333
L76L
tp334
a(S'sigaddset'
p335
S'867f80007a01908000800a0088208590037200c3e090'
p336
L116L
tp337
a(S'atoi'
p338
S'9de35090101803921000cfe00100'
p339
L32L
tp340
a(S'msort_with_tmp.part.0'
p341
S'9de377f710195e00b28000a6a01c1010ff901018'
p342
L824L
tp343
a(S'qsort_r'
p344
S'9de32059e0c2f770'
p345
L732L
tp346
a(S'qsort'
p347
S'9810006fff00'
p348
L16L
tp349
a(S'getenv'
p350
S'9de350030a58'
p351
L336L
tp352
a(S'__run_exit_handlers'
p353
S'9de350'
p354
L676L
tp355
a(S'exit'
p356
S'9de35090101800381001ff120100'
p357
L32L
tp358
a(S'__new_exitfn'
p359
S'9de350030a08800100fa5e00028a2090101d02c000ff020258a003c00210b0'
p360
L320L
tp361
a(S'__internal_atexit'
p362
S'9de3503b0a1001e700007fff0200c23072107218720872007f8010a0200090101c6f'
p363
L200L
tp364
a(S'__cxa_atexit'
p365
g56
L20L
tp366
a(S'__strtoll_internal'
p367
S'0300847f030a'
p368
L36L
tp369
a(S'strtoq'
p370
S'03009610000a'
p371
L40L
tp372
a(S'__strtoull_internal'
p373
S'0300847f030a'
p374
L36L
tp375
a(S'strtouq'
p376
S'03009610000a'
p377
L40L
tp378
a(S'____strtoll_l_internal'
p379
S'9de3a21000a0a001000300847f030a'
p380
L1592L
tp381
a(S'strtoll_l'
p382
S'98100b13006f'
p383
L20L
tp384
a(S'____strtoull_l_internal'
p385
S'9de3ba1000c6a0a0a001000300847f030a'
p386
L1412L
tp387
a(S'strtoull_l'
p388
S'98100b13006f'
p389
L20L
tp390
a(S'__correctly_grouped_prefixmb'
p391
S'9de35002c00000e4101a'
p392
L656L
tp393
a(S'asprintf'
p394
S'9de3'
p395
L104L
tp396
a(S'locked_vfxprintf'
p397
S'9de33077e759e0c2f7a000002010'
p398
L376L
tp399
a(S'__fxprintf'
p400
S'9de3fa77a7f477'
p401
L312L
tp402
a(S'__fxprintf_nocancel'
p403
S'9de3fa77a7f477'
p404
L328L
tp405
a(S'fclose'
p406
S'9de350c2008812781018883253b1'
p407
L644L
tp408
a(S'fflush'
p409
S'9de3500200ba'
p410
L304L
tp411
a(S'__fopen_maybe_mmap'
p412
S'c274880210000002006800c2c000050029100172d85a20810003'
p413
L96L
tp414
a(S'__fopen_internal'
p415
S'9de350901028'
p416
L232L
tp417
a(S'fopen64'
p418
S'9410016fff0100'
p419
L16L
tp420
a(S'adjust_wide_data'
p421
S'9de33059e0c2f75f'
p422
L260L
tp423
a(S'_IO_wfile_underflow'
p424
S'9de32059e0c2f78812'
p425
L1744L
tp426
a(S'_IO_wfile_seekoff'
p427
S'9de380e0c2f7c6c2a0'
p428
L2144L
tp429
a(S'_IO_wfile_underflow_maybe_mmap'
p430
S'9de3500085a2'
p431
L56L
tp432
a(S'_IO_wfile_underflow_mmap'
p433
S'9de33059e0c2f7881254'
p434
L412L
tp435
a(S'_IO_wdo_write'
p436
S'9de31059e0c2f75e20da285e20025bfa5e20'
p437
L472L
tp438
a(S'_IO_wfile_overflow'
p439
S'9de350'
p440
L780L
tp441
a(S'_IO_wfile_sync'
p442
S'9de3c2a080105800'
p443
L420L
tp444
a(S'_IO_wfile_xsputn'
p445
S'9de350b8c6f6a0'
p446
L416L
tp447
a(S'vasprintf'
p448
S'9de350c22877f71002000098100010ff0020008e778f002a101d92101d00'
p449
L348L
tp450
a(S'backtrace_and_maps.constprop.0'
p451
S'8100'
p452
L8L
tp453
a(S'__libc_message'
p454
S'9de3f477'
p455
L776L
tp456
a(S'__libc_fatal'
p457
S'9de3503b'
p458
L36L
tp459
a(S'_IO_vtable_check'
p460
S'9de3500305'
p461
L40L
tp462
a(S'fgets_unlocked'
p463
S'9de350b8a6'
p464
L180L
tp465
a(S'_IO_file_seekoff_maybe_mmap'
p466
S'9de350fa5e2003'
p467
L100L
tp468
a(S'_IO_file_close'
p469
S'd07013006800'
p470
L16L
tp471
a(S'_IO_new_file_setbuf'
p472
S'9de350901018101a0d19c2b000c23877307728772077187708771000'
p473
L72L
tp474
a(S'_IO_file_setbuf_mmap'
p475
S'9de350'
p476
L132L
tp477
a(S'new_do_write'
p478
S'9de350ba00295e20b6e0c600002a'
p479
L352L
tp480
a(S'_IO_new_file_underflow'
p481
S'9de350c200'
p482
L740L
tp483
a(S'_IO_file_close_mmap'
p484
S'9de350c2385e201001'
p485
L44L
tp486
a(S'mmap_remap_check'
p487
S'9de3a0'
p488
L568L
tp489
a(S'_IO_file_seek'
p490
S'd07013006800'
p491
L16L
tp492
a(S'_IO_file_sync_mmap'
p493
S'9de350c2085e20'
p494
L116L
tp495
a(S'decide_maybe_mmap'
p496
S'9de3b059e0c2f700291084a201'
p497
L468L
tp498
a(S'_IO_file_underflow_maybe_mmap'
p499
S'9de3507ffffa5e2003'
p500
L88L
tp501
a(S'_IO_file_xsgetn_maybe_mmap'
p502
S'9de3507fff00fa5e2003'
p503
L96L
tp504
a(S'_IO_new_file_seekoff'
p505
S'9de3a0'
p506
L1520L
tp507
a(S'_IO_file_stat'
p508
S'9410092010036800'
p509
L24L
tp510
a(S'_IO_new_file_write'
p511
S'9de35004801000'
p512
L136L
tp513
a(S'_IO_file_xsgetn_mmap'
p514
S'9de350f85e20fa5e20baa71a6800c200'
p515
L288L
tp516
a(S'_IO_file_xsgetn'
p517
S'9de3c238c01018c6d2085f'
p518
L540L
tp519
a(S'_IO_file_seekoff_mmap'
p520
S'9de35002c010180080235e20c600295f'
p521
L320L
tp522
a(S'_IO_file_underflow_mmap'
p523
S'9de350c2085e2080'
p524
L176L
tp525
a(S'_IO_file_read'
p526
S'c2740270881205'
p527
L44L
tp528
a(S'_IO_new_file_xsputn'
p529
S'9de350b8c6'
p530
L452L
tp531
a(S'_IO_new_file_init_internal'
p532
S'9de350c20010021018769000c20020cfe00100'
p533
L52L
tp534
a(S'_IO_new_file_init'
p535
S'9de350c20010021018769000c20020cfe00100'
p536
L52L
tp537
a(S'_IO_file_open'
p538
S'9de350c274101800803900081008000004'
p539
L284L
tp540
a(S'_IO_new_file_attach'
p541
S'9de350c270a0'
p542
L208L
tp543
a(S'_IO_new_do_write'
p544
S'9de3500a80a02094101a'
p545
L64L
tp546
a(S'_IO_new_file_close_it'
p547
S'9de350fa'
p548
L416L
tp549
a(S'_IO_new_file_fopen'
p550
S'9de32059e0c2f7a000c2000180130000847fb020030a'
p551
L1312L
tp552
a(S'_IO_new_file_finish'
p553
S'9de350c270a000c2c0009010185e20'
p554
L184L
tp555
a(S'_IO_new_file_overflow'
p556
S'9de350c200'
p557
L548L
tp558
a(S'_IO_new_file_sync'
p559
S'9de3'
p560
L304L
tp561
a(S'save_for_backup'
p562
S'9de350e220c2'
p563
L368L
tp564
a(S'flush_cleanup'
p565
S'9de350030a58'
p566
L216L
tp567
a(S'_IO_un_link.part.2'
p568
S'9de32059e0c2f7'
p569
L656L
tp570
a(S'_IO_un_link'
p571
S'c2006800'
p572
L36L
tp573
a(S'_IO_link_in'
p574
S'9de32059e0c2f78812683900b8c70000941000fba4'
p575
L568L
tp576
a(S'_IO_least_marker'
p577
g56
L44L
tp578
a(S'_IO_switch_to_main_get_area'
p579
g56
L52L
tp580
a(S'_IO_switch_to_backup_area'
p581
g56
L52L
tp582
a(S'_IO_switch_to_get_mode'
p583
S'9de350c2285e208015fa5e2003'
p584
L192L
tp585
a(S'_IO_free_backup_area'
p586
S'9de350c20068205e20'
p587
L80L
tp588
a(S'__overflow'
p589
S'9de350c2c000'
p590
L108L
tp591
a(S'__underflow'
p592
S'9de350c2c00080ff20c200'
p593
L340L
tp594
a(S'__uflow'
p595
S'9de350c2c00080ff20c200'
p596
L356L
tp597
a(S'_IO_setb'
p598
S'9de350d038c2c200'
p599
L104L
tp600
a(S'_IO_doallocbuf'
p601
S'9de350c238c0'
p602
L208L
tp603
a(S'_IO_default_underflow'
p604
S'81'
p605
L8L
tp606
a(S'_IO_default_uflow'
p607
S'9de350fa5e2003'
p608
L108L
tp609
a(S'_IO_default_xsputn'
p610
S'9de350b60002801000002a0029141000d0285ee0800aa7008021c7b8c71a5ee0'
p611
L256L
tp612
a(S'_IO_sgetn'
p613
S'9de350fa5e2003'
p614
L88L
tp615
a(S'_IO_default_xsgetn'
p616
S'9de350b85e20fa5e20800d801ca7'
p617
L188L
tp618
a(S'_IO_default_setbuf'
p619
S'9de350f85e2003'
p620
L280L
tp621
a(S'_IO_default_seekpos'
p622
S'9de350fa5e2003'
p623
L92L
tp624
a(S'_IO_default_doallocate'
p625
S'9de350006a0008c2ba00085e20b8c2c200'
p626
L100L
tp627
a(S'_IO_enable_locks'
p628
S'030a00800d'
p629
L72L
tp630
a(S'_IO_old_init'
p631
S'03eb9212030a00d20080387283c0c274720872107220722872307268c0c0c0c080200100c0c08100'
p632
L120L
tp633
a(S'_IO_init_internal'
p634
S'9de350921019ff90101876a820'
p635
L44L
tp636
a(S'_IO_init'
p637
g56
L12L
tp638
a(S'_IO_no_init'
p639
S'9de350921019ff90101800f420f6a0c0c0c0c0c0c0c0c0c0f8763076a8cfe00100'
p640
L112L
tp641
a(S'_IO_default_sync'
p642
S'8120'
p643
L8L
tp644
a(S'_IO_default_finish'
p645
S'9de350d038c2c2'
p646
L136L
tp647
a(S'_IO_default_seekoff'
p648
S'81'
p649
L8L
tp650
a(S'_IO_sputbackc'
p651
S'9de350c2085e2080095e20'
p652
L164L
tp653
a(S'_IO_sungetc'
p654
S'9de350c2085e20800a5e20847f'
p655
L144L
tp656
a(S'_IO_adjust_column'
p657
S'860a'
p658
L88L
tp659
a(S'_IO_flush_all_lockp'
p660
S'9de32059e0c2f71400'
p661
L700L
tp662
a(S'_IO_cleanup'
p663
S'9de32059e0c2f7'
p664
L828L
tp665
a(S'_IO_flush_all'
p666
S'9010016ffe'
p667
L16L
tp668
a(S'_flushlbf'
p669
S'9de32059e0c2f7'
p670
L660L
tp671
a(S'_IO_init_marker'
p672
S'9de3507608'
p673
L116L
tp674
a(S'_IO_remove_marker'
p675
S'c20858'
p676
L80L
tp677
a(S'_IO_marker_difference'
p678
S'd020c210c3e0913a'
p679
L20L
tp680
a(S'_IO_marker_delta'
p681
S'c208c010ff00800858'
p682
L64L
tp683
a(S'_IO_seekmark'
p684
S'c208'
p685
L176L
tp686
a(S'_IO_unsave_markers'
p687
S'c2'
p688
L44L
tp689
a(S'_IO_default_pbackfail'
p690
S'9de350fa5e20f618'
p691
L364L
tp692
a(S'_IO_default_seek'
p693
S'81'
p694
L8L
tp695
a(S'_IO_default_stat'
p696
S'81'
p697
L8L
tp698
a(S'_IO_default_read'
p699
S'81'
p700
L8L
tp701
a(S'_IO_default_write'
p702
S'8120'
p703
L8L
tp704
a(S'_IO_default_showmanyc'
p705
S'81'
p706
L8L
tp707
a(S'_IO_default_imbue'
p708
S'8100'
p709
L8L
tp710
a(S'_IO_iter_begin'
p711
S'030a81'
p712
L12L
tp713
a(S'_IO_iter_end'
p714
S'8120'
p715
L8L
tp716
a(S'_IO_iter_next'
p717
S'81'
p718
L8L
tp719
a(S'_IO_iter_file'
p720
S'8100'
p721
L8L
tp722
a(S'_IO_list_lock'
p723
S'9de350b800c220'
p724
L88L
tp725
a(S'_IO_list_unlock'
p726
S'9de3500500ff200000901020781800921081201a041000100100'
p727
L92L
tp728
a(S'_IO_list_resetlock'
p729
S'030a701870'
p730
L16L
tp731
a(S'_IO_str_underflow'
p732
S'c2285a208005c2105a00842085b086c0a000c208'
p733
L108L
tp734
a(S'_IO_str_overflow'
p735
S'9de350'
p736
L388L
tp737
a(S'enlarge_userbuf'
p738
S'9de350f6385e20'
p739
L376L
tp740
a(S'_IO_str_seekoff'
p741
S'9de350ba'
p742
L736L
tp743
a(S'_IO_str_pbackfail'
p744
g56
L52L
tp745
a(S'_IO_str_finish'
p746
S'9de350d038c2c0c200'
p747
L64L
tp748
a(S'_IO_str_init_static_internal'
p749
S'9de3502a801000291008101d7ff8b976207618c6760876287630761076e0cfe0010080ff501a101d90101876207618'
p750
L160L
tp751
a(S'_IO_str_init_static'
p752
S'80ff38'
p753
L28L
tp754
a(S'_IO_str_init_readonly'
p755
S'9de35080ffc01019'
p756
L56L
tp757
a(S'_IO_str_count'
p758
S'c2285a20d018500220'
p759
L28L
tp760
a(S'_dl_tunable_set_mmap_threshold'
p761
S'c200a00a8100c2'
p762
L44L
tp763
a(S'_dl_tunable_set_mmaps_max'
p764
g56
L24L
tp765
a(S'_dl_tunable_set_top_pad'
p766
g56
L24L
tp767
a(S'_dl_tunable_set_perturb_byte'
p768
g56
L16L
tp769
a(S'_dl_tunable_set_trim_threshold'
p770
g56
L24L
tp771
a(S'_dl_tunable_set_arena_max'
p772
g56
L16L
tp773
a(S'_dl_tunable_set_arena_test'
p774
g56
L16L
tp775
a(S'_dl_tunable_set_tcache_max'
p776
g56
L64L
tp777
a(S'_dl_tunable_set_tcache_count'
p778
g56
L16L
tp779
a(S'_dl_tunable_set_tcache_unsorted_limit'
p780
g56
L16L
tp781
a(S'mem2mem_check'
p782
S'0200'
p783
L136L
tp784
a(S'mem2chunk_check'
p785
S'8a200a52862086'
p786
L664L
tp787
a(S'int_mallinfo'
p788
S'9de350c2'
p789
L292L
tp790
a(S'__malloc_assert'
p791
S'9de330003c58'
p792
L104L
tp793
a(S'detach_arena'
p794
S'9de35002000100c28005c28000'
p795
L72L
tp796
a(S'get_free_list'
p797
S'9de350'
p798
L320L
tp799
a(S'malloc_printerr'
p800
S'9de3509410180009'
p801
L28L
tp802
a(S'top_check'
p803
S'9de350'
p804
L132L
tp805
a(S'malloc_consolidate'
p806
S'9de350c008'
p807
L728L
tp808
a(S'new_heap'
p809
S'9de350b200030a10ffa60268'
p810
L400L
tp811
a(S'munmap_chunk'
p812
S'9de350c208'
p813
L180L
tp814
a(S'mremap_chunk'
p815
S'9de350'
p816
L372L
tp817
a(S'ptmalloc_init'
p818
S'9de3c22877f7'
p819
L396L
tp820
a(S'arena_get2.part.2'
p821
S'9de3503b0a003a5f'
p822
L1124L
tp823
a(S'arena_get_retry'
p824
S'9de350b8003a00020dc20000901018e00000b0008100c20000901018fc5201000a'
p825
L220L
tp826
a(S'_dl_tunable_set_mallopt_check'
p827
S'c20000008420'
p828
L96L
tp829
a(S'__malloc_info.part.7'
p830
S'9de3000018'
p831
L1204L
tp832
a(S'systrim.isra.1.constprop.8'
p833
S'9de350390ac20058'
p834
L204L
tp835
a(S'_int_free'
p836
S'9de33059e0c2f708840018de80a7'
p837
L2900L
tp838
a(S'sysmalloc'
p839
S'9de330c65ca1805d'
p840
L1964L
tp841
a(S'_int_malloc'
p842
S'9de3e0'
p843
L4012L
tp844
a(S'malloc_check'
p845
S'9de3508021003a'
p846
L192L
tp847
a(S'tcache_init.part.4'
p848
S'9de3500300847f030a'
p849
L300L
tp850
a(S'_int_memalign'
p851
S'9de350'
p852
L524L
tp853
a(S'memalign_check'
p854
S'9de3508030a62008'
p855
L348L
tp856
a(S'free_check'
p857
S'9de35002003b0a'
p858
L252L
tp859
a(S'_int_realloc'
p860
S'9de350'
p861
L972L
tp862
a(S'realloc_check'
p863
S'9de3c22877f7'
p864
L668L
tp865
a(S'__malloc_fork_lock_parent'
p866
S'9de350030ac20ca00a1001e20000390ab620b8101c101be700000100fa5f681c6f'
p867
L140L
tp868
a(S'__malloc_fork_unlock_parent'
p869
S'9de350030a'
p870
L192L
tp871
a(S'__malloc_fork_unlock_child'
p872
S'030ac20ca00a200300847f030a'
p873
L160L
tp874
a(S'__malloc_check_init'
p875
S'030a1001200500'
p876
L80L
tp877
a(S'malloc'
p878
S'9de350030ac228c01000a020100010ff000300ba000059c03a003a58a087'
p879
L860L
tp880
a(S'malloc_hook_ini'
p881
S'9de350030a7fef94c01025'
p882
L24L
tp883
a(S'_mid_memalign'
p884
S'9de350030ac218c0a620083b687f'
p885
L760L
tp886
a(S'memalign_hook_ini'
p887
S'9de350b4e0030a7feecfc0103d'
p888
L28L
tp889
a(S'free'
p890
S'9de350030a58'
p891
L240L
tp892
a(S'__malloc_arena_thread_freeres'
p893
S'9de3500300'
p894
L336L
tp895
a(S'realloc'
p896
S'9de350ba003a58'
p897
L872L
tp898
a(S'realloc_hook_ini'
p899
S'9de350030ac0030a7fed5dc010'
p900
L32L
tp901
a(S'memalign'
p902
S'9403086ffd'
p903
L16L
tp904
a(S'valloc'
p905
S'9de350030ac20ca000030a58'
p906
L64L
tp907
a(S'pvalloc'
p908
S'9de350030ac20ca000030a10'
p909
L132L
tp910
a(S'calloc'
p911
S'9de3508400'
p912
L1000L
tp913
a(S'malloc_trim'
p914
S'9de3030ac20ca00035003c'
p915
L636L
tp916
a(S'malloc_usable_size'
p917
S'9de350020084'
p918
L256L
tp919
a(S'mallinfo'
p920
S'9de32059e0c2f70080380000003a77cfb877d7c0c0c0ba1001101ae7000092'
p921
L280L
tp922
a(S'malloc_stats'
p923
S'9de31059e0c2f7003a5d'
p924
L504L
tp925
a(S'mallopt'
p926
S'9de350030ac20ca00a'
p927
L436L
tp928
a(S'posix_memalign'
p929
S'9de35089708a'
p930
L92L
tp931
a(S'malloc_info'
p932
S'9de3500a00003a00800a001990b012b06feb81e09010'
p933
L92L
tp934
a(S'__default_morecore'
p935
S'9de35000901018a270'
p936
L28L
tp937
a(S'strchr'
p938
S'928a028386c00a0010857002c0c0a2020020d65a00857086c01a0300d6da'
p939
L848L
tp940
a(S'strrchr'
p941
S'928a02ab880080588770d65a000386c028102886c010857086c01a0300d6da'
p942
L420L
tp943
a(S'strcmp'
p944
g56
L408L
tp945
a(S'strcpy'
p946
S'038c00'
p947
L592L
tp948
a(S'strcspn'
p949
S'9c2301737f10087387738f7397'
p950
L560L
tp951
a(S'strdup'
p952
S'9de350009000b4207ff60200101868008120'
p953
L48L
tp954
a(S'strlen'
p955
S'9210085a00'
p956
L156L
tp957
a(S'strncmp'
p958
S'02808099'
p959
L916L
tp960
a(S'critical_factorization'
p961
g56
L312L
tp962
a(S'two_way_long_needle'
p963
S'9de3c22877f7101bff'
p964
L896L
tp965
a(S'strstr'
p966
S'9de3c22877f71018a000a2008600882010'
p967
L1032L
tp968
a(S'memcmp'
p969
S'02808a'
p970
L312L
tp971
a(S'memmove'
p972
S'840080'
p973
L496L
tp974
a(S'memset'
p975
S'928a'
p976
L572L
tp977
a(S'bzero'
p978
g56
L568L
tp979
a(S'stpcpy'
p980
S'03'
p981
L692L
tp982
a(S'strcasecmp_l'
p983
S'80105aa0000086e0c8'
p984
L76L
tp985
a(S'__memcpy_large'
p986
S'02'
p987
L284L
tp988
a(S'mempcpy'
p989
S'10'
p990
L8L
tp991
a(S'memcpy'
p992
S'880002bf08ff80d300'
p993
L1344L
tp994
a(S'rawmemchr'
p995
S'920a03d60a001085709813092b1010128b30808570d65a00981305961a0c2201da80fc9002083202'
p996
L372L
tp997
a(S'strchrnul'
p998
g56
L572L
tp999
a(S'wmempcpy'
p1000
S'952a006ffdb000'
p1001
L16L
tp1002
a(S'mbsrtowcs'
p1003
S'030a108396100100000a'
p1004
L52L
tp1005
a(S'_nl_cleanup_ctype'
p1006
S'9de350fa5e20020dd2185f'
p1007
L68L
tp1008
a(S'__wcsmbs_getfct'
p1009
S'9de33059e0c2f71000'
p1010
L136L
tp1011
a(S'__wcsmbs_load_conv'
p1012
S'9de3c22877f71022'
p1013
L532L
tp1014
a(S'__wcsmbs_clone_conv'
p1015
S'9de3500300847f030a'
p1016
L176L
tp1017
a(S'__wcsmbs_named_conv'
p1018
S'9de35094'
p1019
L92L
tp1020
a(S'__mbsrtowcs_l'
p1021
S'9de3'
p1022
L924L
tp1023
a(S'clock'
p1024
S'9de33059e0c2f7100212b0'
p1025
L112L
tp1026
a(S'time'
p1027
S'9de33059e0c2f70015baa2'
p1028
L104L
tp1029
a(S'gettimeofday'
p1030
S'9de3509010181074d06d1a0410001001c00000cfe00100b000847f9010ff003810026fff'
p1031
L88L
tp1032
a(S'__alloc_dir'
p1033
S'9de350021b28390002c02a045ee039008000a700b9'
p1034
L212L
tp1035
a(S'opendir_tail'
p1036
S'9de3b059e0c2f7a7'
p1037
L196L
tp1038
a(S'__opendirat'
p1039
S'9de350c200009010181000929532'
p1040
L80L
tp1041
a(S'opendir'
p1042
S'9de350c200009010181000933210b3e800847f030a'
p1043
L76L
tp1044
a(S'closedir'
p1045
S'9de3500200901018'
p1046
L68L
tp1047
a(S'readdir64'
p1048
S'9de350ba00000038'
p1049
L356L
tp1050
a(S'sleep'
p1051
S'9de33059e0c2f7'
p1052
L128L
tp1053
a(S'nanosleep'
p1054
S'9de350c2180090101810f991d06d1a0410001001c00000cfe001000000000000901018d06d1a0410001001c03a001081009020080a'
p1055
L204L
tp1056
a(S'fork'
p1057
S'9de350fa01181090100000100000941000100010d96820902008c002900a80b120030a58'
p1058
L488L
tp1059
a(S'_exit'
p1060
S'9de3509010180000003800'
p1061
L196L
tp1062
a(S'getpid'
p1063
g56
L16L
tp1064
a(S'getppid'
p1065
g56
L16L
tp1066
a(S'setsid'
p1067
g56
L36L
tp1068
a(S'__sysconf_check_spec'
p1069
S'9de3b059e0c2f70038'
p1070
L244L
tp1071
a(S'sysconf'
p1072
S'9de31059e0c2f700101800a6208069308092'
p1073
L984L
tp1074
a(S'sched_yield'
p1075
g56
L36L
tp1076
a(S'__get_child_max'
p1077
S'9de33059e0c2f700'
p1078
L84L
tp1079
a(S'_xstat'
p1080
S'9de3b059e0c2f700901019108b6820902008c0101a039010185fa7f71884200a'
p1081
L228L
tp1082
a(S'_fxstat'
p1083
S'9de3b059e0c2f70090101910'
p1084
L228L
tp1085
a(S'open64'
p1086
S'9de33077'
p1087
L336L
tp1088
a(S'read'
p1089
S'9de350c218009210192091d06d1a0410001001c81008000018030a'
p1090
L204L
tp1091
a(S'write'
p1092
S'9de350c2180092101920d06d1a0410001001c81008000018030a'
p1093
L204L
tp1094
a(S'lseek64'
p1095
S'9de3c22877f770941019101ad06d1a0410001001a20a5fa7f71884200a0d81000300902008'
p1096
L160L
tp1097
a(S'fcntl64'
p1098
S'9de3'
p1099
L340L
tp1100
a(S'close'
p1101
S'9de350c21800'
p1102
L196L
tp1103
a(S'chdir'
p1104
g56
L36L
tp1105
a(S'getcwd'
p1106
S'9de37059e0c2f71019c60300007800000004a2'
p1107
L1716L
tp1108
a(S'readlink'
p1109
g56
L36L
tp1110
a(S'unlink'
p1111
g56
L36L
tp1112
a(S'__xstat_conv'
p1113
S'9de3508080000518'
p1114
L244L
tp1115
a(S'__xstat32_conv'
p1116
S'9de350802a5e'
p1117
L208L
tp1118
a(S'__close_nocancel'
p1119
S'9de350901018d06d1a0410001001c00000cfe00100b000847f9010ff003810026fff'
p1120
L84L
tp1121
a(S'__fcntl64_nocancel_adjusted'
p1122
S'9de3c22877f70092101920206820902008c000005fa7f71884200a2400000000'
p1123
L244L
tp1124
a(S'__fcntl64_nocancel'
p1125
S'9de3f477'
p1126
L104L
tp1127
a(S'__open_nocancel'
p1128
S'9de3f477'
p1129
L200L
tp1130
a(S'__openat_nocancel'
p1131
S'9de3f697f8779ffa77a7c22877f7'
p1132
L196L
tp1133
a(S'__read_nocancel'
p1134
S'9de350901018101ad06d1a0410001001c010080000000018030a'
p1135
L92L
tp1136
a(S'__write_nocancel'
p1137
S'9de350901018101ad06d1a0410001001c010080000000018030a'
p1138
L92L
tp1139
a(S'getrlimit64'
p1140
S'9de35092101810001091d06d1a0410001001c00000cfe00100b000847f9010ff003810026fff'
p1141
L96L
tp1142
a(S'sbrk'
p1143
S'9de350390a5f22030a80150200010004008400'
p1144
L200L
tp1145
a(S'ioctl'
p1146
g56
L36L
tp1147
a(S'getpagesize'
p1148
S'9de350030a58'
p1149
L64L
tp1150
a(S'getdtablesize'
p1151
S'9de33059e0c2f7'
p1152
L88L
tp1153
a(S'select'
p1154
S'9de350c21800901018101a101c10e6d06d1a0410001001c00000cfe00100003d8400921019101a101c10e6d06d1a0410001001c03a00'
p1155
L228L
tp1156
a(S'mmap64'
p1157
S'9de350'
p1158
L144L
tp1159
a(S'munmap'
p1160
g56
L36L
tp1161
a(S'mprotect'
p1162
g56
L36L
tp1163
a(S'madvise'
p1164
g56
L36L
tp1165
a(S'trecurse'
p1166
S'9de350c208c8101a5e20021590101810005e20900afec294'
p1167
L184L
tp1168
a(S'tdestroy_recurse'
p1169
S'9de350d008c20100d010c201009fc65e0010c0ff9210195e2002'
p1170
L92L
tp1171
a(S'maybe_split_for_insert.isra.0'
p1172
S'900afe5a20'
p1173
L436L
tp1174
a(S'tsearch'
p1175
S'9de35002a410005e00cf285f'
p1176
L312L
tp1177
a(S'tfind'
p1178
S'9de3502a0d10'
p1179
L80L
tp1180
a(S'tdelete'
p1181
S'9de3c22877f7031b5e00c7b810285800c6802c100800'
p1182
L1476L
tp1183
a(S'twalk'
p1184
S'8420'
p1185
L48L
tp1186
a(S'tdestroy'
p1187
S'0200'
p1188
L28L
tp1189
a(S'next_line'
p1190
S'9de350e0805ec0100a10107a941011c280fa76005ec0a010'
p1191
L376L
tp1192
a(S'sysinfo_mempages'
p1193
S'9de3507ffc6b008000a6'
p1194
L128L
tp1195
a(S'__get_nprocs_conf.part.0'
p1196
S'0300'
p1197
L232L
tp1198
a(S'get_nprocs'
p1199
S'9de32059e0c2f7100010085ea101'
p1200
L796L
tp1201
a(S'get_nprocs_conf'
p1202
S'9de3c22877f700587f0db6e20200b8ff2c101cc2ba6080fa941003ff'
p1203
L240L
tp1204
a(S'get_phys_pages'
p1205
S'9de3d059e0c2f7'
p1206
L72L
tp1207
a(S'get_avphys_pages'
p1208
S'9de3d059e0c2f7'
p1209
L72L
tp1210
a(S'__getclktck'
p1211
S'030a00808120'
p1212
L24L
tp1213
a(S'__init_misc'
p1214
S'9de35002'
p1215
L68L
tp1216
a(S'mremap'
p1217
g56
L36L
tp1218
a(S'prctl'
p1219
g56
L36L
tp1220
a(S'sysinfo'
p1221
g56
L36L
tp1222
a(S'accept'
p1223
S'9de350c21800901018101ad06d1a0410001001c00000cfe0010000'
p1224
L212L
tp1225
a(S'bind'
p1226
S'9de31059e0c2f777'
p1227
L160L
tp1228
a(S'connect'
p1229
S'9de350c21800901018101ad06d1a0410001001c00000cfe0010000c1008400921019101ad06d1a0410001001c03a0001901002000018030a'
p1230
L212L
tp1231
a(S'getsockname'
p1232
g56
L36L
tp1233
a(S'getsockopt'
p1234
g56
L36L
tp1235
a(S'listen'
p1236
S'9de33059e0c2f777e777ef92'
p1237
L144L
tp1238
a(S'recv'
p1239
S'9de350c21800901018101a1000107dd06d1a0410001001c81008000018030a'
p1240
L228L
tp1241
a(S'recvfrom'
p1242
S'9de350c21800901018101a101c101d91d06d1a0410001001c81008000018030a'
p1243
L228L
tp1244
a(S'send'
p1245
S'9de350c21800901018101a100010856820902008c81008000018030a'
p1246
L228L
tp1247
a(S'sendto'
p1248
S'9de350c21800901018101a101c101d91d06d1a0410001001c81008000018030a'
p1249
L228L
tp1250
a(S'setsockopt'
p1251
S'9de32059e0c2f777cf77d7f477df77e777ef92'
p1252
L156L
tp1253
a(S'socket'
p1254
S'9de33059e0c2f777df77e777ef92'
p1255
L148L
tp1256
a(S'__libc_alloca_cutoff'
p1257
g56
L76L
tp1258
a(S'__lll_lock_wait_private'
p1259
S'9de350c200009010181002108e68209020081002008010108000d06d1a04100010017e00ff90101800'
p1260
L148L
tp1261
a(S'__libc_enable_asynccancel'
p1262
S'9de3508600c2081080'
p1263
L136L
tp1264
a(S'__libc_disable_asynccancel'
p1265
S'9de35080'
p1266
L184L
tp1267
a(S'__register_atfork'
p1268
S'9de3503b0a1001e2000000030a08801c00842184a0d877d0'
p1269
L392L
tp1270
a(S'__unregister_atfork'
p1271
S'9de350390a1001e6000000005ea1005ea101'
p1272
L448L
tp1273
a(S'__run_fork_handlers'
p1274
S'9de3500a00051001e20000000000c2c8c8b85f'
p1275
L356L
tp1276
a(S'clock_gettime'
p1277
S'9de35090101810016820902008c02008cfe0010003009010ff0a'
p1278
L96L
tp1279
a(S'__stack_chk_fail_local'
p1280
S'9de3501305000092120100'
p1281
L24L
tp1282
a(S'__fortify_fail_abort'
p1283
S'9de35039053b05d068'
p1284
L84L
tp1285
a(S'__fortify_fail'
p1286
S'9de350921018'
p1287
L20L
tp1288
a(S'inet_aton'
p1289
S'9de33059e0c2f70038'
p1290
L396L
tp1291
a(S'inet_addr'
p1292
S'9de3c22877f7'
p1293
L88L
tp1294
a(S'_dl_debug_state'
p1295
S'8100'
p1296
L8L
tp1297
a(S'_dl_debug_initialize'
p1298
S'090a11'
p1299
L120L
tp1300
a(S'do_tunable_update_val'
p1301
S'c20800a00000c21010005a2087011000880100'
p1302
L208L
tp1303
a(S'tunable_initialize'
p1304
S'9de3c20800'
p1305
L84L
tp1306
a(S'__tunable_set_val'
p1307
S'9020030a'
p1308
L28L
tp1309
a(S'__tunables_init'
p1310
S'9de35035'
p1311
L1800L
tp1312
a(S'__tunable_get_val'
p1313
S'9de350b020030a'
p1314
L160L
tp1315
a(S'_dl_aux_init'
p1316
S'9de31000'
p1317
L804L
tp1318
a(S'_dl_non_dynamic_init'
p1319
S'9de300'
p1320
L2240L
tp1321
a(S'__libc_init_secure'
p1322
S'9de350030a0080040000000072010000baa220052008000072010000ba1a1d8000200800'
p1323
L120L
tp1324
a(S'_dl_mcount_wrapper'
p1325
S'92100813006800'
p1326
L20L
tp1327
a(S'_dl_mcount_wrapper_check'
p1328
S'030a58'
p1329
L40L
tp1330
a(S'_dl_discover_osversion'
p1331
S'9de38021a2a6fb8c20b020c200a018090100d0a1bf020001e0'
p1332
L308L
tp1333
a(S'__libc_init_first'
p1334
S'9de350030084'
p1335
L188L
tp1336
a(S'__syscall_error'
p1337
S'0300847f030a'
p1338
L32L
tp1339
a(S'__gconv_open'
p1340
S'9de33059e0c2f7ffb61018c29210'
p1341
L1164L
tp1342
a(S'__gconv'
p1343
S'9de380'
p1344
L472L
tp1345
a(S'__gconv_alias_compare'
p1346
S'd2005a00'
p1347
L20L
tp1348
a(S'derivation_compare'
p1349
S'9de350d000d35e000001005e'
p1350
L52L
tp1351
a(S'__gconv_get_modules_db'
p1352
S'030ac3e0d0'
p1353
L12L
tp1354
a(S'__gconv_get_alias_db'
p1355
S'030ac3e0d0'
p1356
L12L
tp1357
a(S'__gconv_release_step'
p1358
S'9de350d000c2c2c210a020c2305e20a01d90101d9010185e0000530100c081000a040008000000'
p1359
L144L
tp1360
a(S'find_derivation'
p1361
S'9de30059e0c2f77e1b77bf03049410030a00c0ab7e1977ef'
p1362
L2452L
tp1363
a(S'__gconv_compare_alias'
p1364
S'9de33059e0c2f71002'
p1365
L308L
tp1366
a(S'__gconv_find_transform'
p1367
S'9de33059e0c2f710027500110a'
p1368
L684L
tp1369
a(S'__gconv_close_transform'
p1370
S'9de350390a1001e600000100020b'
p1371
L172L
tp1372
a(S'insert_module'
p1373
S'9de350390a'
p1374
L280L
tp1375
a(S'detect_conflict'
p1376
S'9de350030a58'
p1377
L96L
tp1378
a(S'add_module.isra.0'
p1379
S'9de33059e0c2f7'
p1380
L932L
tp1381
a(S'add_alias2.isra.1.part.2'
p1382
S'9de350b480ff88c2ba1018207fdb18770000d0080094121d921202000100c200'
p1383
L120L
tp1384
a(S'__gconv_get_path'
p1385
S'9de3c22877f71001e60000210a5c22'
p1386
L876L
tp1387
a(S'__gconv_read_conf'
p1388
S'9de30059e0c2f7100577b71800011dc2c7'
p1389
L1300L
tp1390
a(S'__gconv_get_builtin_trans'
p1391
S'9de3503905'
p1392
L188L
tp1393
a(S'__gconv_btwoc_ascii'
p1394
S'80ffc3e09132'
p1395
L20L
tp1396
a(S'__gconv_transform_internal_ucs4'
p1397
S'9de32059e0c2f738e8'
p1398
L916L
tp1399
a(S'__gconv_transform_ucs4_internal'
p1400
S'9de31059e0c2f7'
p1401
L1344L
tp1402
a(S'__gconv_transform_internal_ucs4le'
p1403
S'9de31059e0c2f7'
p1404
L1240L
tp1405
a(S'__gconv_transform_ucs4le_internal'
p1406
S'9de3'
p1407
L1460L
tp1408
a(S'__gconv_transform_ascii_internal'
p1409
S'9de32059e0c2f7a8'
p1410
L708L
tp1411
a(S'__gconv_transform_internal_ascii'
p1412
S'9de3e059e0c2f7'
p1413
L2024L
tp1414
a(S'__gconv_transform_internal_utf8'
p1415
S'9de3d059e0c2f7'
p1416
L2936L
tp1417
a(S'__gconv_transform_utf8_internal'
p1418
S'9de31059e0c2f7'
p1419
L3188L
tp1420
a(S'__gconv_transform_ucs2_internal'
p1421
S'9de31059e0c2f7'
p1422
L1720L
tp1423
a(S'__gconv_transform_internal_ucs2'
p1424
S'9de3d059e0c2f7'
p1425
L2576L
tp1426
a(S'__gconv_transform_ucs2reverse_internal'
p1427
S'9de31059e0c2f7'
p1428
L1756L
tp1429
a(S'__gconv_transform_internal_ucs2reverse'
p1430
S'9de3d059e0c2f7'
p1431
L2624L
tp1432
a(S'__gconv_transliterate'
p1433
S'9de3e059e0c2f777bf77cfae101c5ec0101d02045e20c2300a84a7af0300'
p1434
L1184L
tp1435
a(S'find_module_idx'
p1436
S'9de35090101800e0'
p1437
L220L
tp1438
a(S'find_module'
p1439
S'9de3c22877f71018ff19101dba7f921018a87fc10094101cff'
p1440
L244L
tp1441
a(S'__gconv_get_cache'
p1442
S'030ae0d0'
p1443
L12L
tp1444
a(S'__gconv_load_cache'
p1445
S'9de3b059e0c2f7ff901230000a00708000009d9012baa220921008ca1003005fa79f805a'
p1446
L512L
tp1447
a(S'__gconv_compare_alias_cache'
p1448
S'9de33059e0c2f758'
p1449
L168L
tp1450
a(S'__gconv_lookup_cache'
p1451
S'9de32059e0c2f75c2002'
p1452
L1144L
tp1453
a(S'__gconv_release_cache'
p1454
S'030a'
p1455
L36L
tp1456
a(S'known_compare'
p1457
S'd2005a00'
p1458
L20L
tp1459
a(S'do_release_shlib'
p1460
S'9de350800300'
p1461
L176L
tp1462
a(S'__gconv_find_shlib'
p1463
S'9de350'
p1464
L420L
tp1465
a(S'__gconv_release_shlib'
p1466
S'030a04d03000d0386fd00100'
p1467
L36L
tp1468
a(S'_nl_postload_ctype'
p1469
S'030a'
p1470
L140L
tp1471
a(S'__current_locale_name'
p1472
S'030090021030030a'
p1473
L40L
tp1474
a(S'__ctype_b_loc'
p1475
S'1100'
p1476
L28L
tp1477
a(S'__ctype_toupper_loc'
p1478
S'1100'
p1479
L28L
tp1480
a(S'__ctype_tolower_loc'
p1481
S'1100'
p1482
L28L
tp1483
a(S'__ctype_init'
p1484
S'030a051084bf0059c00000588018'
p1485
L104L
tp1486
a(S'__setfpucw'
p1487
S'9de3c22877f70c005fa7efb000b000'
p1488
L92L
tp1489
a(S'_quicksort'
p1490
S'9de3c22877f7b0a87fa80080a80077f7201a1018a31c6e1a70b21ac69010190094101c1019101300a0101c101910100010ada0101d901019'
p1491
L1076L
tp1492
a(S'__add_to_environ'
p1493
S'9de3c22877f71018c6'
p1494
L896L
tp1495
a(S'setenv'
p1496
S'9de350020010180080090000ae34103db60010150300847f030a'
p1497
L88L
tp1498
a(S'unsetenv'
p1499
S'9de35002000000008092103d901018c203007fb190101810081001e600000100030a58'
p1500
L328L
tp1501
a(S'clearenv'
p1502
S'9de3503b0a20b8e700000100'
p1503
L208L
tp1504
a(S'secure_getenv'
p1505
S'030ac2b81205'
p1506
L40L
tp1507
a(S'read_int'
p1508
g56
L152L
tp1509
a(S'group_number'
p1510
S'9de350e0c004ff0000001009b090101c801019101d901018'
p1511
L296L
tp1512
a(S'_i18n_number_rewrite'
p1513
S'9de30059e0c2f7009012201008'
p1514
L584L
tp1515
a(S'_IO_helper_overflow'
p1516
S'9de3d0285e20baa7'
p1517
L204L
tp1518
a(S'printf_positional'
p1519
S'9de35084bf2877f7'
p1520
L8736L
tp1521
a(S'vfprintf'
p1522
S'9de31059e0c2f70038140000000101'
p1523
L9196L
tp1524
a(S'buffered_vfprintf'
p1525
S'0300'
p1526
L704L
tp1527
a(S'hack_digit'
p1528
S'9de350c20000da28'
p1529
L356L
tp1530
a(S'_i18n_number_rewrite_0'
p1531
S'9de30059e0c2f7008a100800ad9010b60092101d90102cc7'
p1532
L584L
tp1533
a(S'__guess_grouping.part.0'
p1534
g56
L124L
tp1535
a(S'__printf_fp_l'
p1536
S'9de33059e0c2f7'
p1537
L9676L
tp1538
a(S'__printf_fp'
p1539
S'030096100a00030a'
p1540
L44L
tp1541
a(S'__guess_grouping'
p1542
S'c200a000'
p1543
L40L
tp1544
a(S'__printf_fphex'
p1545
S'9de31059e0c2f7'
p1546
L6188L
tp1547
a(S'register_printf_modifier'
p1548
S'9de350c200a00010390000000300c204a0'
p1549
L408L
tp1550
a(S'__handle_registered_modifier_mb'
p1551
S'9de350f85e00030a58'
p1552
L288L
tp1553
a(S'__handle_registered_modifier_wc'
p1554
S'9de350f85e00030a58'
p1555
L292L
tp1556
a(S'fprintf'
p1557
S'9de3'
p1558
L104L
tp1559
a(S'read_int_0'
p1560
S'c81b33'
p1561
L208L
tp1562
a(S'group_number_0'
p1563
S'9de350e0c004ff0080cfe0901009101d901018'
p1564
L252L
tp1565
a(S'_i18n_number_rewrite_1'
p1566
S'9de33059e0c2f700c22292100800e510b8101d90102c'
p1567
L360L
tp1568
a(S'_IO_helper_overflow_0'
p1569
S'9de3'
p1570
L260L
tp1571
a(S'printf_positional_0'
p1572
S'9de384bf2877f7'
p1573
L8768L
tp1574
a(S'vfwprintf'
p1575
S'9de32059e0c2f7003814000000011d901018'
p1576
L9464L
tp1577
a(S'buffered_vfprintf_0'
p1578
S'0300'
p1579
L724L
tp1580
a(S'sscanf'
p1581
S'9de3'
p1582
L104L
tp1583
a(S'funlockfile'
p1584
S'9de350d08802040080c20472087a0000921081201a041000100100'
p1585
L88L
tp1586
a(S'read_int_1'
p1587
g56
L152L
tp1588
a(S'__parse_one_specmb'
p1589
S'9de350c20c10ffa001a0f884a00c'
p1590
L1764L
tp1591
a(S'read_int_2'
p1592
S'c81b33'
p1593
L208L
tp1594
a(S'__parse_one_specwc'
p1595
S'9de350c20c10ffa004a0f884a020a0d0000100051000200900008050830000000000'
p1596
L1768L
tp1597
a(S'_IO_file_doallocate'
p1598
S'9de3b059e0c2f7a0'
p1599
L392L
tp1600
a(S'fputs'
p1601
S'9de3507f72901018'
p1602
L356L
tp1603
a(S'_IO_wfile_doallocate'
p1604
S'9de350c238c00000'
p1605
L112L
tp1606
a(S'fwrite'
p1607
S'9de350b8c71b'
p1608
L464L
tp1609
a(S'getdelim'
p1610
S'9de3508420'
p1611
L700L
tp1612
a(S'_IO_getline_info'
p1613
S'9de3500203'
p1614
L340L
tp1615
a(S'_IO_getline'
p1616
g56
L16L
tp1617
a(S'_IO_padn'
p1618
S'9de33059e0c2f7a6'
p1619
L372L
tp1620
a(S'vsscanf'
p1621
S'9de350c22877f710000090'
p1622
L144L
tp1623
a(S'_IO_wpadn'
p1624
S'9de30059e0c2f7a6'
p1625
L372L
tp1626
a(S'save_for_wbackup.isra.0'
p1627
S'9de350ca005e00e2'
p1628
L444L
tp1629
a(S'_IO_least_wmarker'
p1630
g56
L52L
tp1631
a(S'_IO_switch_to_main_wget_area'
p1632
S'c20022005a20c8ca50'
p1633
L56L
tp1634
a(S'_IO_switch_to_wbackup_area'
p1635
S'c20022005a20ca0858'
p1636
L56L
tp1637
a(S'_IO_wsetb'
p1638
S'9de350'
p1639
L112L
tp1640
a(S'_IO_wdefault_pbackfail'
p1641
S'9de350fa5e20f85f005f'
p1642
L352L
tp1643
a(S'_IO_wdefault_finish'
p1644
S'9de350'
p1645
L120L
tp1646
a(S'_IO_wdefault_uflow'
p1647
S'9de350fa5e2003'
p1648
L112L
tp1649
a(S'__woverflow'
p1650
S'9de350c2c00003'
p1651
L152L
tp1652
a(S'_IO_wdefault_xsputn'
p1653
S'9de350028010005e20fa5c20bac7bba71ba7'
p1654
L212L
tp1655
a(S'_IO_wdoallocbuf'
p1656
S'9de3505e202204'
p1657
L88L
tp1658
a(S'_IO_wdefault_doallocate'
p1659
S'9de3507f020008c2'
p1660
L56L
tp1661
a(S'_IO_switch_to_wget_mode'
p1662
S'9de350c2a0800dc23058'
p1663
L148L
tp1664
a(S'_IO_free_wbackup_area'
p1665
S'9de350'
p1666
L100L
tp1667
a(S'__wuflow'
p1668
S'9de350c2c00002921001'
p1669
L388L
tp1670
a(S'__wunderflow'
p1671
S'9de350c2c00002921001'
p1672
L380L
tp1673
a(S'_IO_wdefault_xsgetn'
p1674
S'9de350b85e20fa58a00a0000a71c10a7'
p1675
L204L
tp1676
a(S'_IO_sputbackwc'
p1677
S'9de350c2a080'
p1678
L160L
tp1679
a(S'_IO_sungetwc'
p1680
S'9de350c2a080'
p1681
L152L
tp1682
a(S'_IO_adjust_wcolumn'
p1683
S'87b08603'
p1684
L96L
tp1685
a(S'_IO_init_wmarker'
p1686
S'9de3507608'
p1687
L128L
tp1688
a(S'_IO_wmarker_delta'
p1689
S'c208c010ff00'
p1690
L76L
tp1691
a(S'_IO_seekwmark'
p1692
g56
L184L
tp1693
a(S'_IO_unsave_wmarkers'
p1694
S'c2'
p1695
L44L
tp1696
a(S'do_encoding'
p1697
S'c2'
p1698
L44L
tp1699
a(S'do_always_noconv'
p1700
S'8120'
p1701
L8L
tp1702
a(S'do_max_length'
p1703
S'c281'
p1704
L12L
tp1705
a(S'do_in'
p1706
S'9de32059e0c2f777effa7650c25876705e205fa8c200c05ea00194'
p1707
L232L
tp1708
a(S'do_unshift'
p1709
S'9de33059e0c2f7769076b05e2002045ee0c230ff1d92'
p1710
L216L
tp1711
a(S'do_out'
p1712
S'9de32059e0c2f777effa7690c29876b05e20c200c05ea00193a690101d'
p1713
L232L
tp1714
a(S'do_length'
p1715
S'9de32059e0c2f7'
p1716
L180L
tp1717
a(S'_IO_fwide'
p1718
S'9de32059e0c2f700c2c0002a115e20c2f71884200a560100810080f710ff6fffc2c0'
p1719
L488L
tp1720
a(S'__libc_scratch_buffer_grow_preserve'
p1721
S'9de350fa5e20f600a6c0'
p1722
L180L
tp1723
a(S'__libc_scratch_buffer_set_array_size'
p1724
S'9de350861a208720780100'
p1725
L236L
tp1726
a(S'__libc_dynarray_at_failure'
p1727
S'9de380e0c2f7101900'
p1728
L56L
tp1729
a(S'__libc_dynarray_emplace_enlarge'
p1730
S'9de350c208c83080'
p1731
L312L
tp1732
a(S'strerror_r'
p1733
S'9de33059e0c2f70003'
p1734
L408L
tp1735
a(S'strnlen'
p1736
S'02'
p1737
L448L
tp1738
a(S'strtok_r'
p1739
S'9de3502200'
p1740
L112L
tp1741
a(S'memchr'
p1742
S'920a0280'
p1743
L600L
tp1744
a(S'wcslen'
p1745
g56
L160L
tp1746
a(S'wmemcpy'
p1747
S'952a006f720100'
p1748
L16L
tp1749
a(S'wmemmove'
p1750
S'952a006f6b00'
p1751
L16L
tp1752
a(S'wmemset'
p1753
S'8011100a20d2'
p1754
L112L
tp1755
a(S'btowc'
p1756
S'9de3e0'
p1757
L456L
tp1758
a(S'wcrtomb'
p1759
S'9de3e0'
p1760
L540L
tp1761
a(S'wcsrtombs'
p1762
S'9de3'
p1763
L748L
tp1764
a(S'wcsnlen'
p1765
g56
L188L
tp1766
a(S'wcschrnul'
p1767
S'100302001880ff'
p1768
L52L
tp1769
a(S'rewinddir'
p1770
S'9de350ba1001e700000100941000'
p1771
L140L
tp1772
a(S'__getdents64'
p1773
S'9de350901018101ad06d1a0410001001c010080000000018030a'
p1774
L92L
tp1775
a(S'fdopendir'
p1776
S'9de3b059e0c2f7'
p1777
L244L
tp1778
a(S'uname'
p1779
g56
L36L
tp1780
a(S'getuid'
p1781
g56
L16L
tp1782
a(S'geteuid'
p1783
g56
L16L
tp1784
a(S'getgid'
p1785
g56
L16L
tp1786
a(S'getegid'
p1787
g56
L16L
tp1788
a(S'_lxstat'
p1789
S'9de3b059e0c2f70090101910846820902008c0101a7c9010185fa7f71884200a'
p1790
L228L
tp1791
a(S'__fxstatat64'
p1792
S'9de3b059e0c2f7101a0010216820902008c0100a'
p1793
L160L
tp1794
a(S'isatty'
p1795
S'9de32059e0c2f700'
p1796
L76L
tp1797
a(S'tcgetattr'
p1798
S'9de32059e0c2f710159212'
p1799
L208L
tp1800
a(S'brk'
p1801
S'9de3'
p1802
L92L
tp1803
a(S'wctrans'
p1804
S'9de350b6000300847f030a'
p1805
L156L
tp1806
a(S'towctrans'
p1807
S'02180002830100'
p1808
L128L
tp1809
a(S'__readonly_area'
p1810
S'9de32059e0c2f700'
p1811
L536L
tp1812
a(S'_Qp_cmp'
p1813
S'9de3c22877f75e00bb5e003000'
p1814
L588L
tp1815
a(S'is_dst'
p1816
S'9de3507f'
p1817
L196L
tp1818
a(S'is_trusted_path_normalize'
p1819
S'9de35002b2'
p1820
L488L
tp1821
a(S'add_name_to_object.isra.6'
p1822
S'9de3502a00d2006800020b00005800'
p1823
L212L
tp1824
a(S'lose.isra.8'
p1825
S'9de35080'
p1826
L116L
tp1827
a(S'_dl_map_object_from_fd.constprop.13'
p1828
S'9de3e85fa87f859010007794'
p1829
L3728L
tp1830
a(S'add_path.isra.5.constprop.14'
p1831
S'9de3508015'
p1832
L216L
tp1833
a(S'open_verify.isra.9.constprop.15'
p1834
S'9de330ff1310f8779fa61008002b0a0300847f0100c00177f7'
p1835
L1464L
tp1836
a(S'open_path.isra.10'
p1837
S'9de3705ec07797'
p1838
L1488L
tp1839
a(S'_dl_dst_count'
p1840
S'9de350901018ffb0202a0000'
p1841
L156L
tp1842
a(S'_dl_dst_substitute'
p1843
S'9de350'
p1844
L404L
tp1845
a(S'expand_dynamic_string_token'
p1846
S'9de3507fff1019c2ba6f5a73e85a815e23c2800410005a79000000'
p1847
L224L
tp1848
a(S'fillin_rpath'
p1849
S'9de3'
p1850
L700L
tp1851
a(S'cache_rpath.part.12'
p1852
S'9de350b4a01ac010ff5e2058'
p1853
L572L
tp1854
a(S'_dl_init_paths'
p1855
S'9de350030a58'
p1856
L636L
tp1857
a(S'_dl_map_object'
p1858
S'9de3b0c7c280f7003c'
p1859
L2100L
tp1860
a(S'_dl_rtld_di_serinfo'
p1861
S'9de330'
p1862
L512L
tp1863
a(S'check_match'
p1864
S'9de350'
p1865
L460L
tp1866
a(S'do_lookup_x'
p1867
S'9de3e0778fa8e2'
p1868
L2316L
tp1869
a(S'_dl_lookup_symbol_x'
p1870
S'9de3e0'
p1871
L2552L
tp1872
a(S'_dl_setup_hash'
p1873
S'9de350c2b0c05e2058'
p1874
L196L
tp1875
a(S'_dl_add_to_namespace_list'
p1876
S'9de3500300'
p1877
L212L
tp1878
a(S'_dl_new_object'
p1879
S'9de3507f5090101910011b101800d02824'
p1880
L664L
tp1881
a(S'_dl_try_allocate_static_tls'
p1882
S'9de350c280285e24030a58'
p1883
L220L
tp1884
a(S'_dl_allocate_static_tls'
p1885
S'9de350c280090009ff9010180000090000e0d208150000'
p1886
L72L
tp1887
a(S'_dl_nothread_init_static_tls'
p1888
S'9de350d0'
p1889
L48L
tp1890
a(S'_dl_protect_relro'
p1891
S'9de350'
p1892
L128L
tp1893
a(S'_dl_reloc_bad_type'
p1894
S'9de320'
p1895
L196L
tp1896
a(S'_dl_relocate_object'
p1897
S'9de3a00300808b'
p1898
L7216L
tp1899
a(S'_dl_important_hwcaps'
p1900
S'9de31010006b20ba5fa7f700e0e3a07e01208702e08302080a7fba00a820e4'
p1901
L1796L
tp1902
a(S'_dl_debug_vdprintf'
p1903
S'9de3'
p1904
L1412L
tp1905
a(S'_dl_sysdep_read_whole_file'
p1906
S'9de3c0107f5b'
p1907
L120L
tp1908
a(S'_dl_debug_printf'
p1909
S'9de396'
p1910
L60L
tp1911
a(S'_dl_debug_printf_c'
p1912
S'9de396'
p1913
L60L
tp1914
a(S'_dl_dprintf'
p1915
S'9de396'
p1916
L52L
tp1917
a(S'_dl_name_match_p'
p1918
S'9de350901018d20800'
p1919
L104L
tp1920
a(S'_dl_higher_prime_number'
p1921
g56
L168L
tp1922
a(S'_dl_strtoul'
p1923
S'8400c2003888e08009a00032f6180018981001'
p1924
L412L
tp1925
a(S'_dl_start_profile'
p1926
S'9de3d000'
p1927
L1684L
tp1928
a(S'_dl_mcount'
p1929
S'9de31000c2f480e0000000'
p1930
L944L
tp1931
a(S'allocate_dtv'
p1932
S'9de350030a101058'
p1933
L60L
tp1934
a(S'oom'
p1935
S'9de350901002000afca592127f50ef90107f00'
p1936
L32L
tp1937
a(S'_dl_next_tls_modid'
p1938
S'9de350'
p1939
L264L
tp1940
a(S'_dl_count_modids'
p1941
S'030a0880040081'
p1942
L112L
tp1943
a(S'_dl_get_tls_static_info'
p1944
S'030ac288720000c28872'
p1945
L28L
tp1946
a(S'_dl_allocate_tls_storage'
p1947
S'9de350030afa58'
p1948
L116L
tp1949
a(S'_dl_allocate_tls_init'
p1950
S'9de350020000e620'
p1951
L624L
tp1952
a(S'_dl_allocate_tls'
p1953
S'9de350020001007ffe9010186fffe8ff00006fff'
p1954
L44L
tp1955
a(S'_dl_deallocate_tls'
p1956
S'9de350f6085eff020c00b81000'
p1957
L108L
tp1958
a(S'_dl_tls_get_addr_soft'
p1959
S'c2022259e0'
p1960
L148L
tp1961
a(S'_dl_add_to_slotinfo'
p1962
S'9de350f85e24030a68'
p1963
L248L
tp1964
a(S'_dl_get_origin'
p1965
S'9de300b711'
p1966
L428L
tp1967
a(S'_dl_scope_free'
p1968
S'9de350fa0118003b0aff183bf85f'
p1969
L220L
tp1970
a(S'_dl_make_stack_executable'
p1971
S'9de350d000003c00'
p1972
L100L
tp1973
a(S'_dl_runtime_resolve_0'
p1974
S'9de3255920a000052900a66c00a32c0a2c05a004100411'
p1975
L96L
tp1976
a(S'_dl_runtime_resolve_1'
p1977
S'9de39330d00822009e92028100'
p1978
L36L
tp1979
a(S'_dl_profile_save_regs'
p1980
S'e0a7ff73'
p1981
L132L
tp1982
a(S'_dl_profile_invoke'
p1983
S'a0049c23031018101a101c101d0200a60300e0e86f'
p1984
L184L
tp1985
a(S'_dl_runtime_profile_0'
p1986
S'9de3b000ff5920a000052900a66c00a32c0a2c05a00410041130aa1008ff960325e0a8'
p1987
L144L
tp1988
a(S'_dl_runtime_profile_1'
p1989
S'9de3b030d008229410'
p1990
L84L
tp1991
a(S'length_mismatch'
p1992
S'9de350901002000af98bff90107f00'
p1993
L32L
tp1994
a(S'_dl_exception_create'
p1995
S'9de350222000013c901019'
p1996
L144L
tp1997
a(S'_dl_exception_create_format'
p1998
S'9de3f697f8779f027e77a77f3b901019020277f7'
p1999
L572L
tp2000
a(S'_dl_exception_free'
p2001
S'9de3507f33c0c0c08100'
p2002
L32L
tp2003
a(S'_dl_cache_libcmp'
p2004
g56
L332L
tp2005
a(S'_dl_load_cache_lookup'
p2006
S'9de3230a04988086000a5ea1ff'
p2007
L1644L
tp2008
a(S'_dl_unload_cache'
p2009
S'9de3503b0a'
p2010
L56L
tp2011
a(S'do_dlopen'
p2012
S'9de3'
p2013
L64L
tp2014
a(S'dlerror_run'
p2015
S'9de33059e0c2f7101977ef94'
p2016
L144L
tp2017
a(S'__libc_dlclose'
p2018
S'921008002413006f'
p2019
L24L
tp2020
a(S'__libc_dlsym'
p2021
S'9de32059e0c2f777d777df0000ff9012b0a2a7ef020b1084a3045fa7e7c8588058'
p2022
L144L
tp2023
a(S'__libc_dlvsym'
p2024
S'9de31059e0c2f777bf77'
p2025
L336L
tp2026
a(S'do_dlsym_private'
p2027
S'9de32059e0c2f710c2df02'
p2028
L140L
tp2029
a(S'do_dlsym'
p2030
S'9de3d20073b7761873af981000'
p2031
L60L
tp2032
a(S'do_dlvsym'
p2033
S'9de3d20073b7761873af'
p2034
L56L
tp2035
a(S'do_dlclose'
p2036
g56
L12L
tp2037
a(S'__libc_dlsym_private'
p2038
S'9de32059e0c2f777d777df0000ff901224a2a7ef020b1084a3045fa7e7c8588058'
p2039
L144L
tp2040
a(S'__libc_register_dl_open_hook'
p2041
S'9de350901018000a'
p2042
L76L
tp2043
a(S'__libc_dlopen_mode'
p2044
S'9de32059e0c2f777d7'
p2045
L128L
tp2046
a(S'fatal_error'
p2047
S'9de31059e0c2f758'
p2048
L180L
tp2049
a(S'_dl_signal_exception'
p2050
S'9de3500300847f030a'
p2051
L104L
tp2052
a(S'_dl_signal_error'
p2053
S'9de3500300'
p2054
L104L
tp2055
a(S'_dl_catch_exception'
p2056
S'9de380e0c2f718030a'
p2057
L236L
tp2058
a(S'_dl_catch_error'
p2059
S'9de33059e0c2f7101b'
p2060
L116L
tp2061
a(S'siglongjmp'
p2062
S'937a0172d22291d06f'
p2063
L16L
tp2064
a(S'__mpn_cmp'
p2065
S'94021583035a015a009202800968'
p2066
L108L
tp2067
a(S'__mpn_divrem'
p2068
S'9de3301018'
p2069
L2188L
tp2070
a(S'__mpn_lshift'
p2071
S'83035a7f'
p2072
L204L
tp2073
a(S'__mpn_rshift'
p2074
g56
L192L
tp2075
a(S'__mpn_mul'
p2076
S'9de3c22877f7'
p2077
L880L
tp2078
a(S'__mpn_mul_1'
p2079
S'9de39e201a0590100020b083035ac0318b70b8c005b130b2181000'
p2080
L152L
tp2081
a(S'__mpn_impn_mul_n_basecase'
p2082
S'9de350d65e80a2000234'
p2083
L272L
tp2084
a(S'__mpn_impn_mul_n'
p2085
S'9de350'
p2086
L1056L
tp2087
a(S'__mpn_impn_sqr_n_basecase'
p2088
S'9de350d65e00'
p2089
L272L
tp2090
a(S'__mpn_impn_sqr_n'
p2091
S'9de350'
p2092
L948L
tp2093
a(S'__mpn_mul_n'
p2094
S'9de3c22877f7'
p2095
L204L
tp2096
a(S'__mpn_sub_n'
p2097
S'8a008303020129c20dd65a0d9970'
p2098
L76L
tp2099
a(S'__mpn_submul_1'
p2100
S'9de39e201a2b03e096b72002b1'
p2101
L164L
tp2102
a(S'__mpn_extract_double'
p2103
S'9c03875ba883'
p2104
L224L
tp2105
a(S'__mpn_extract_long_double'
p2106
S'9c03875ba883'
p2107
L436L
tp2108
a(S'_itoa_word'
p2109
g56
L244L
tp2110
a(S'_fitoa_word'
p2111
S'9de32059e0c2f71018101a'
p2112
L136L
tp2113
a(S'snprintf'
p2114
S'9de3'
p2115
L1144L
tp2116
a(S'read_int_3'
p2117
g56
L152L
tp2118
a(S'char_buffer_add_slow'
p2119
S'9de350c200c000005e20f85e207f'
p2120
L100L
tp2121
a(S'_IO_vfscanf_internal'
p2122
S'9de3'
p2123
L21884L
tp2124
a(S'vfscanf'
p2125
S'9610006f'
p2126
L16L
tp2127
a(S'_IO_strn_overflow'
p2128
S'9de350b85e20800dc2282896100000'
p2129
L84L
tp2130
a(S'vsnprintf'
p2131
S'9de31059e0c2f777b27fba100010ff0020f6'
p2132
L192L
tp2133
a(S'init'
p2134
S'9de3500300'
p2135
L80L
tp2136
a(S'__dlerror'
p2137
S'9de3c22877f7100259c0130592127f96e80300'
p2138
L600L
tp2139
a(S'check_free.isra.0'
p2140
S'9de3500200901018000a'
p2141
L52L
tp2142
a(S'free_key_mem'
p2143
S'9de3507fffd0181010180000c0000010208100'
p2144
L56L
tp2145
a(S'_dlerror_run'
p2146
S'9de3500300'
p2147
L380L
tp2148
a(S'__libc_register_dlfcn_hook'
p2149
S'9de3509010180024'
p2150
L44L
tp2151
a(S'__dladdr'
p2152
S'961000c06800'
p2153
L20L
tp2154
a(S'__dladdr1'
p2155
S'800800961000c0680096100a6f'
p2156
L48L
tp2157
a(S'dlinfo_doit'
p2158
S'9de350c21000'
p2159
L220L
tp2160
a(S'__dlinfo'
p2161
S'9de32059e0c2f777df77d7'
p2162
L96L
tp2163
a(S'dlmopen_doit'
p2164
S'9de3c200c02000'
p2165
L124L
tp2166
a(S'__dlmopen'
p2167
S'9de32059e0c2f777cf77d7f4'
p2168
L128L
tp2169
a(S'strerror'
p2170
S'9de350901018adb01000c23b0a'
p2171
L100L
tp2172
a(S'strspn'
p2173
S'9c2301737f10087387738f7397'
p2174
L560L
tp2175
a(S'strsep'
p2176
S'9de350fa5e00020bff1d80'
p2177
L72L
tp2178
a(S'mbrlen'
p2179
g56
L36L
tp2180
a(S'mbrtowc'
p2181
S'9de3'
p2182
L536L
tp2183
a(S'profil_counter'
p2184
S'c20810ff58a20200c883'
p2185
L116L
tp2186
a(S'profil'
p2187
S'9de390c22877f7c6c228c010000000d8a220390a207fd292'
p2188
L392L
tp2189
a(S'__profile_frequency'
p2190
S'030ac3e0d0'
p2191
L12L
tp2192
a(S'_dl_fixup'
p2193
S'9de3305e20c27058a0045ee0852001830377f75e04101858a015b80880a10280100058a0e028028028f8980302030810001002011800d00073afc09001085f'
p2194
L980L
tp2195
a(S'_dl_profile_fixup'
p2196
S'9de3305e23'
p2197
L588L
tp2198
a(S'_dl_call_pltexit'
p2199
S'8100'
p2200
L8L
tp2201
a(S'add_to_global'
p2202
S'9de350e02280ba5e2286ffe0090087'
p2203
L560L
tp2204
a(S'_dl_find_dso_for_object'
p2205
S'9de350030a58'
p2206
L184L
tp2207
a(S'_dl_open'
p2208
S'9de38068'
p2209
L452L
tp2210
a(S'_dl_show_scope'
p2211
S'9de350d2080000'
p2212
L344L
tp2213
a(S'dl_open_worker'
p2214
S'9de3305e00921024'
p2215
L1800L
tp2216
a(S'remove_slotinfo'
p2217
S'9de350'
p2218
L308L
tp2219
a(S'_dl_close_worker'
p2220
S'9de3b0'
p2221
L3764L
tp2222
a(S'_dl_close'
p2223
S'9de3500300'
p2224
L160L
tp2225
a(S'_dl_sort_maps'
p2226
S'9de32077870077d7847f94'
p2227
L604L
tp2228
a(S'_dl_addr'
p2229
S'9de3500300'
p2230
L932L
tp2231
a(S'_dl_addr_inside_object'
p2232
g56
L104L
tp2233
a(S'__strtof_internal'
p2234
S'0300847f030a'
p2235
L36L
tp2236
a(S'strtof32'
p2237
S'03009410000a'
p2238
L40L
tp2239
a(S'__strtod_internal'
p2240
S'0300847f030a'
p2241
L36L
tp2242
a(S'strtof64'
p2243
S'03009410000a'
p2244
L40L
tp2245
a(S'__strtold_internal'
p2246
S'0300847f030a'
p2247
L36L
tp2248
a(S'strtold'
p2249
S'03009410000a'
p2250
L40L
tp2251
a(S'round_and_return'
p2252
S'9de3c22877f730005fa7ef'
p2253
L884L
tp2254
a(S'str_to_mpn.isra.0'
p2255
S'9de350c023b1037aa22c20208620a200a820c200a002'
p2256
L860L
tp2257
a(S'____strtof_l_internal'
p2258
S'9de3c22877f71000c658'
p2259
L9608L
tp2260
a(S'strtof_l'
p2261
S'96100ac06ff6'
p2262
L20L
tp2263
a(S'round_and_return_0'
p2264
S'9de3c22877f730005fa7ef'
p2265
L904L
tp2266
a(S'str_to_mpn.isra.0_0'
p2267
S'9de350c023b1037aa22c20208620a200a820c200a002'
p2268
L860L
tp2269
a(S'____strtod_l_internal'
p2270
S'9de33059e0c2f71000c658'
p2271
L9616L
tp2272
a(S'strtof64_l'
p2273
S'96100ac06ff6'
p2274
L20L
tp2275
a(S'round_and_return_1'
p2276
S'9de33059e0c2f730005fa7df1000a000083b20006802200000967c800510ffa60200a30c01c7'
p2277
L1384L
tp2278
a(S'str_to_mpn.isra.0_1'
p2279
S'9de350c023b1037aa22c20208620a200a820c200a002'
p2280
L860L
tp2281
a(S'____strtold_l_internal'
p2282
S'0300'
p2283
L12512L
tp2284
a(S'strtold_l'
p2285
S'96100ac06f'
p2286
L20L
tp2287
a(S'__strtof_nan'
p2288
S'9de33059e0c2f740847f84bf19008701100090c0ffba28831800a0'
p2289
L256L
tp2290
a(S'__strtod_nan'
p2291
S'9de33059e0c2f740847f84bf19008701100090c0ffba28831800a0'
p2292
L276L
tp2293
a(S'__strtold_nan'
p2294
S'9de33059e0c2f740847f84bf19008701100090c0ffba28831800a0'
p2295
L292L
tp2296
a(S'__mpn_add_n'
p2297
S'8a008303020129c20dd65a0d9970'
p2298
L76L
tp2299
a(S'__mpn_addmul_1'
p2300
S'9de39e201a2b03e096b72002b1'
p2301
L164L
tp2302
a(S'__mpn_construct_float'
p2303
S'9c037f2aff5a00932a03e0941201a8c18b'
p2304
L56L
tp2305
a(S'__mpn_construct_double'
p2306
S'9c030030952aff2a832c12208073871b'
p2307
L68L
tp2308
a(S'__mpn_construct_long_double'
p2309
g56
L116L
tp2310
a(S'dlopen_doit'
p2311
S'9de3d22003'
p2312
L152L
tp2313
a(S'__dlopen'
p2314
S'9de32059e0c2f777d7'
p2315
L124L
tp2316
a(S'dlclose_doit'
p2317
g56
L12L
tp2318
a(S'__dlclose'
p2319
S'9de350921018001d80'
p2320
L32L
tp2321
a(S'dlsym_doit'
p2322
S'9de350'
p2323
L32L
tp2324
a(S'__dlsym'
p2325
S'9de32059e0c2f777d70300'
p2326
L156L
tp2327
a(S'dlvsym_doit'
p2328
S'9de350d65e20'
p2329
L36L
tp2330
a(S'__dlvsym'
p2331
S'9de32059e0c2f777d7f6e70000c077df003cfa'
p2332
L160L
tp2333
a(S'strncasecmp_l'
p2334
S'84008620'
p2335
L108L
tp2336
a(S'setitimer'
p2337
g56
L36L
tp2338
a(S'_Qp_add'
p2339
S'9de3c22877f710ff5e005e8033103197318a1dde085ea0'
p2340
L4096L
tp2341
a(S'_Qp_mul'
p2342
S'9de33059e0c2f710'
p2343
L3080L
tp2344
a(S'_dl_build_local_scope'
p2345
S'9de3507600'
p2346
L132L
tp2347
a(S'openaux'
p2348
S'9de350d0003000022c5e20800410015a2395323020ff08762000'
p2349
L68L
tp2350
a(S'_dl_map_object_deps'
p2351
S'9de3b0'
p2352
L3612L
tp2353
a(S'call_init.part.0'
p2354
S'9de350c22c0400235e20'
p2355
L316L
tp2356
a(S'_dl_init'
p2357
S'9de350e02100d030c2f85e2110007c0188185f20fa'
p2358
L352L
tp2359
a(S'_dl_check_map_versions'
p2360
S'9de3e07787778f5e20c0000058'
p2361
L1760L
tp2362
a(S'_dl_check_all_versions'
p2363
S'9de3500200b80000'
p2364
L92L
tp2365
a(S'call_dl_lookup'
p2366
S'9de3c2185e00'
p2367
L56L
tp2368
a(S'do_sym'
p2369
S'9de3e059e0c2f7ff2d030a58'
p2370
L592L
tp2371
a(S'_dl_vsym'
p2372
S'9de33059e0c2f777'
p2373
L276L
tp2374
a(S'_dl_sym'
p2375
S'98100213006fff00'
p2376
L20L
tp2377
a(S'__clzdi2'
p2378
S'9de350'
p2379
L116L
tp2380
a(S'__bswapsi2'
p2381
S'8720831810'
p2382
L56L
tp2383
a(S'read_encoded_value_with_base'
p2384
S'9de350808a562b00807c28051002c0'
p2385
L540L
tp2386
a(S'base_of_encoded_value'
p2387
S'9de35080'
p2388
L136L
tp2389
a(S'execute_cfa_program'
p2390
S'9de330007f5583001a347680e6'
p2391
L2344L
tp2392
a(S'init_dwarf_reg_size_table'
p2393
S'9de3508420'
p2394
L456L
tp2395
a(S'uw_frame_state_for'
p2396
S'9de3901019'
p2397
L1452L
tp2398
a(S'execute_stack_op'
p2399
S'9de3'
p2400
L2628L
tp2401
a(S'uw_update_context_1'
p2402
S'9de350b4a49423921018d7e9'
p2403
L1116L
tp2404
a(S'uw_init_context_1'
p2405
S'9de3'
p2406
L708L
tp2407
a(S'uw_update_context'
p2408
S'9de350921019'
p2409
L184L
tp2410
a(S'_Unwind_RaiseException_Phase2'
p2411
S'9de370'
p2412
L244L
tp2413
a(S'_Unwind_ForcedUnwind_Phase2'
p2414
S'9de3705e20e220b620101c'
p2415
L244L
tp2416
a(S'uw_install_context_1'
p2417
S'9de3'
p2418
L492L
tp2419
a(S'_Unwind_GetGR'
p2420
S'9de350807ffeae05000518035e230d70'
p2421
L128L
tp2422
a(S'_Unwind_GetCFA'
p2423
S'81'
p2424
L8L
tp2425
a(S'_Unwind_SetGR'
p2426
S'9de350807ffeae05000518700570'
p2427
L132L
tp2428
a(S'_Unwind_GetIP'
p2429
S'81'
p2430
L8L
tp2431
a(S'_Unwind_GetIPInfo'
p2432
S'c2705a233081'
p2433
L20L
tp2434
a(S'_Unwind_SetIP'
p2435
S'81'
p2436
L8L
tp2437
a(S'_Unwind_GetLanguageSpecificData'
p2438
S'81'
p2439
L8L
tp2440
a(S'_Unwind_GetRegionStart'
p2441
S'81'
p2442
L8L
tp2443
a(S'_Unwind_FindEnclosingFunction'
p2444
S'9de330000dc2f77a0100'
p2445
L36L
tp2446
a(S'_Unwind_GetDataRelBase'
p2447
S'81'
p2448
L8L
tp2449
a(S'_Unwind_GetTextRelBase'
p2450
S'81'
p2451
L8L
tp2452
a(S'__frame_state_for'
p2453
S'9de38023921000cd901001a0ba779f92101db020802b0000'
p2454
L244L
tp2455
a(S'_Unwind_DebugHook'
p2456
S'8100'
p2457
L8L
tp2458
a(S'_Unwind_RaiseException'
p2459
S'9de39081'
p2460
L316L
tp2461
a(S'_Unwind_ForcedUnwind'
p2462
S'9de3'
p2463
L148L
tp2464
a(S'_Unwind_Resume'
p2465
S'9de3'
p2466
L168L
tp2467
a(S'_Unwind_Resume_or_Rethrow'
p2468
S'9de3'
p2469
L172L
tp2470
a(S'_Unwind_DeleteException'
p2471
S'9de350c208c00000c0100100'
p2472
L36L
tp2473
a(S'_Unwind_Backtrace'
p2474
S'9de380bd'
p2475
L144L
tp2476
a(S'frame_downheap'
p2477
S'9de350a0a40000a20000100a5e80c6'
p2478
L224L
tp2479
a(S'frame_heapsort'
p2480
S'9de350fa5ea00100'
p2481
L168L
tp2482
a(S'size_of_encoded_value'
p2483
S'9de35080158010000000800aa0207fcb010080fdb020810081208120'
p2484
L100L
tp2485
a(S'read_encoded_value_with_base_0'
p2486
S'9de350807dfeae0500807c28051002c0'
p2487
L540L
tp2488
a(S'get_cie_encoding'
p2489
S'9de3bafeff'
p2490
L328L
tp2491
a(S'fde_unencoded_compare'
p2492
S'9de392'
p2493
L76L
tp2494
a(S'base_from_object.isra.3'
p2495
S'9de3508019a00008'
p2496
L116L
tp2497
a(S'fde_single_encoding_compare'
p2498
S'9de3fa5e2094'
p2499
L124L
tp2500
a(S'linear_search_fdes'
p2501
S'9de3d0203235ba1011'
p2502
L368L
tp2503
a(S'fde_mixed_encoding_compare'
p2504
S'9de3c204'
p2505
L164L
tp2506
a(S'classify_object_over_fdes'
p2507
S'9de330'
p2508
L372L
tp2509
a(S'add_fdes'
p2510
S'9de3d02030ba1013'
p2511
L360L
tp2512
a(S'_Unwind_IteratePhdrCallback'
p2513
S'9de310'
p2514
L1240L
tp2515
a(S'search_object'
p2516
S'9de330'
p2517
L1776L
tp2518
a(S'__register_frame_info_bases.part.7'
p2519
S'9de350f4760876107600761828'
p2520
L176L
tp2521
a(S'__register_frame_info_bases'
p2522
S'02000100c20000'
p2523
L44L
tp2524
a(S'__register_frame_info'
p2525
S'02000100c20000961000c06fff01008100'
p2526
L48L
tp2527
a(S'__register_frame'
p2528
S'9de350c2000010300000b800ff'
p2529
L48L
tp2530
a(S'__register_frame_info_table_bases'
p2531
S'9de350f4760876107600761828'
p2532
L176L
tp2533
a(S'__register_frame_info_table'
p2534
S'961000c06fff0100'
p2535
L20L
tp2536
a(S'__register_frame_table'
p2537
S'9de350901030b800ff93'
p2538
L28L
tp2539
a(S'__deregister_frame_info_bases'
p2540
S'9de350'
p2541
L360L
tp2542
a(S'__deregister_frame_info'
p2543
g56
L12L
tp2544
a(S'__deregister_frame'
p2545
S'9de350c2000000000000ff6eb9'
p2546
L44L
tp2547
a(S'_Unwind_Find_FDE'
p2548
S'9de320007f8118'
p2549
L568L
tp2550
a(S'base_of_encoded_value_0'
p2551
S'9de3508014'
p2552
L124L
tp2553
a(S'read_encoded_value_with_base_1'
p2554
S'9de3508076feae0500807c28051002c0'
p2555
L540L
tp2556
a(S'__gcc_personality_v0'
p2557
S'9de300'
p2558
L616L
tp2559
a(S'dl_iterate_phdr'
p2560
S'9de30059e0c2f71002'
p2561
L304L
tp2562
a(S'__do_global_ctors_aux'
p2563
S'9de350030a3b00ba'
p2564
L76L
tp2565
a(S'call___do_global_ctors_aux'
p2566
S'9de3508100'
p2567
L12L
tp2568
a(S'_fini'
p2569
S'9de3507f850000'
p2570
L20L
tp2571
a.