(lp0
(S'_init'
p1
S'0ddfe200eb31ebaf1b'
p2
L24L
tp3
a(S'__do_global_dtors_aux'
p4
S'30e900d50053e3800094e520e3000a833002a0e520e3'
p5
L104L
tp6
a(S'call___do_global_dtors_aux'
p7
S'042d'
p8
L8L
tp9
a(S'frame_dummy'
p10
S'3c9fe500042de51011'
p11
L68L
tp12
a(S'call_frame_dummy'
p13
S'042d'
p14
L8L
tp15
a(S'_start'
p16
S'00a0e420e500e5c00c9fe52c'
p17
L44L
tp18
a(S'attack_app_http'
p19
S''
p20
L7112L
tp21
a(S'attack_get_opt_str'
p22
S'10e903e120e2c004d10253e11005005ce1e0e1c000'
p23
L68L
tp24
a(S'attack_get_opt_ip'
p25
S'10e9ff0203e130eb00010010e804a0'
p26
L48L
tp27
a(S'attack_get_opt_int'
p28
S'10e9ff0203e130eb000aa00a40bdea'
p29
L52L
tp30
a(S'attack_start'
p31
g20
L204L
tp32
a(S'attack_parse'
p33
g20
L532L
tp34
a(S'attack_kill_all'
p35
S'10e90094e50009a01b30e430e1'
p36
L52L
tp37
a(S'add_attack'
p38
g20
L92L
tp39
a(S'attack_init'
p40
S'042de310eb00e5'
p41
L132L
tp42
a(S'attack_gre_eth'
p43
g20
L1588L
tp44
a(S'attack_gre_ip'
p45
g20
L1480L
tp46
a(S'attack_tcp_stomp'
p47
g20
L1964L
tp48
a(S'attack_tcp_ack'
p49
g20
L1628L
tp50
a(S'attack_tcp_syn'
p51
g20
L1652L
tp52
a(S'attack_udp_plain'
p53
g20
L600L
tp54
a(S'attack_udp_generic'
p55
g20
L1204L
tp56
a(S'attack_udp_vse'
p57
g20
L1120L
tp58
a(S'attack_udp_dns'
p59
g20
L1720L
tp60
a(S'checksum_generic'
p61
S'00a0ead002e1c0000241e2'
p62
L80L
tp63
a(S'checksum_tcpudp'
p64
S'702de140800022e1e0e300ead102e1e0e010e3c0ff00d104a0e128e138e530e024e030eaa0e0281a00e108e1'
p65
L152L
tp66
a(S'mem_exists'
p67
S'0153e1402dd3e0e140a0da000cd400d00253e1c0001a00001a00e80151e2'
p68
L88L
tp69
a(S'killer_kill'
p70
S'089fe500e311'
p71
L16L
tp72
a(S'killer_kill_by_port'
p73
g20
L1392L
tp74
a(S'killer_init'
p75
g20
L1644L
tp76
a(S'anti_gdb_entry'
p77
S'089fe530e5'
p78
L16L
tp79
a(S'teardown_connection'
p80
S'10e90094e5005b0e0000e001a0e540bd'
p81
L40L
tp82
a(S'ensure_single_instance'
p83
g20
L348L
tp84
a(S'main'
p85
g20
L2128L
tp86
a(S'resolve_cnc_addr'
p87
S'702de308eb10e308eb00eb50a0e308eb0058609fe580140000d51a000094e700e500eb00eb10e308eb20e530e534e124e100e530e540bd'
p88
L140L
tp89
a(S'rand_next'
p90
S'702de5609fe530e5e0e5409fe53522009ee5c004e010e52070'
p91
L72L
tp92
a(S'rand_str'
p93
S'30e901e100ea00e2'
p94
L100L
tp95
a(S'rand_alphastr'
p96
S'30e900e140a0e210e30d000354e3009aa0e330e2c02153e520e330e404e1'
p97
L140L
tp98
a(S'rand_init'
p99
S'30e90e0ceb30e50beb40a0eb509fe5402400e50ceb30e530e030e500'
p100
L76L
tp101
a(S'resolv_skip_name'
p102
S'042de3e0e300ea000c833901a0e000ea80001a30e230e500'
p103
L104L
tp104
a(S'resolv_entries_free'
p105
S'10e91094e500430e0004a0e8'
p106
L36L
tp107
a(S'resolv_domain_to_hostname'
p108
S'30e901a0e108ebe0e100e2c000d501840053e30000ce0504a003c001e20001e100018c'
p109
L112L
tp110
a(S'resolv_lookup'
p111
g20
L1024L
tp112
a(S'consume_any_prompt'
p113
S'1890e510e200ea52e300050003002352e3000a001a00e3'
p114
L96L
tp115
a(S'can_consume'
p116
S'1890e500e000e10033'
p117
L32L
tp118
a(S'scanner_kill'
p119
S'089fe500e30a'
p120
L16L
tp121
a(S'deobf'
p122
S'702de150a0eb008aeb20018260a0eb4094e520ea230630e720e1'
p123
L92L
tp124
a(S'add_auth_entry'
p125
g20
L268L
tp126
a(S'setup_connection'
p127
g20
L212L
tp128
a(S'recv_strip_null'
p129
S'10e9530beb00100004d20053e3300701820010'
p130
L64L
tp131
a(S'scanner_init'
p132
g20
L5848L
tp133
a(S'table_retrieve_val'
p134
S'209fe501e000053015021130'
p135
L40L
tp136
a(S'toggle_obf'
p137
g20
L148L
tp138
a(S'table_lock_val'
p139
S'ff00d6'
p140
L8L
tp141
a(S'table_unlock_val'
p142
S'ff00d4'
p143
L8L
tp144
a(S'add_entry'
p145
g20
L72L
tp146
a(S'table_init'
p147
S'042de313e3'
p148
L808L
tp149
a(S'util_strlen'
p150
S'00a0e300ead00053e3'
p151
L32L
tp152
a(S'util_memcpy'
p153
S'00a0eacce7c0'
p154
L32L
tp155
a(S'util_strcpy'
p156
S'10e9000002e130e7000184fa'
p157
L44L
tp158
a(S'util_zero'
p159
S'00a0eac220e2'
p160
L32L
tp161
a(S'util_itoa'
p162
g20
L208L
tp163
a(S'util_memsearch'
p164
S'0153e1402de100e140a0d100da000cd40500018c00a01a00001a00e80150e1'
p165
L96L
tp166
a(S'util_atoi'
p167
g20
L308L
tp168
a(S'util_fdgets'
p169
g20
L96L
tp170
a(S'util_local_addr'
p171
g20
L148L
tp172
a(S'util_stristr'
p173
g20
L132L
tp174
a(S'util_strcmp'
p175
S'00a0eadc0053e3'
p176
L112L
tp177
a(S'util_strncmp'
p178
S'042de1e0e300eade0053e3'
p179
L120L
tp180
a(S'__udivsi3'
p181
S'0151e2'
p182
L248L
tp183
a(S'__aeabi_uidivmod'
p184
S'03e90640bde0100e'
p185
L24L
tp186
a(S'__umodsi3'
p187
S'0151e2003a0000a081'
p188
L204L
tp189
a(S'__modsi3'
p190
S'0051e3000a1000b00060420151e20000a081009a51e30001a032'
p191
L228L
tp192
a(S'fcntl'
p193
S'0e00e90c9de5300014'
p194
L116L
tp195
a(S'fcntl64'
p196
S'0e00e914'
p197
L80L
tp198
a(S'chdir'
p199
S'10e9017000e1009ae230e300'
p200
L44L
tp201
a(S'close'
p202
S'10e9017000e1009ae230e300'
p203
L44L
tp204
a(S'fork'
p205
S'10e9017000e1009ae230e300'
p206
L44L
tp207
a(S'getpid'
p208
S'10e9017000e1009ae230e300'
p209
L44L
tp210
a(S'getppid'
p211
S'10e9017000e1009ae230e300'
p212
L44L
tp213
a(S'ioctl'
p214
S'0e00e914'
p215
L80L
tp216
a(S'kill'
p217
S'10e9017000e1009ae230e300'
p218
L44L
tp219
a(S'open'
p220
S'0e00e90c9de530e2301503a0e100e340a09ae230e300e240bde2'
p221
L92L
tp222
a(S'creat'
p223
S'01a0e5'
p224
L12L
tp225
a(S'prctl'
p226
S'10e9ac00e340a09ae230e300'
p227
L48L
tp228
a(S'read'
p229
S'10e9017000e1009ae230e300'
p230
L44L
tp231
a(S'readlink'
p232
S'10e9017000e1009ae230e300'
p233
L44L
tp234
a(S'select'
p235
S'10e98e90ef017000e1009ae230e300'
p236
L48L
tp237
a(S'setsid'
p238
S'10e9017000e1009ae230e300'
p239
L44L
tp240
a(S'sigprocmask'
p241
S'0051e30010e904001630e330ea7000e1009ae230e320e1'
p242
L84L
tp243
a(S'time'
p244
S'10e9017000e1009ae230e300'
p245
L44L
tp246
a(S'unlink'
p247
S'10e9017000e1009ae230e300'
p248
L44L
tp249
a(S'write'
p250
S'10e9017000e1009ae230e300'
p251
L44L
tp252
a(S'closedir'
p253
g20
L164L
tp254
a(S'opendir'
p255
g20
L248L
tp256
a(S'readdir'
p257
S'30e9104de230e110e120e1'
p258
L192L
tp259
a(S'__errno_location'
p260
S'009fe5'
p261
L8L
tp262
a(S'clock'
p263
S'042de200eb20e530e502e001e3d0'
p264
L48L
tp265
a(S'memset'
p266
S'00a0e300ba018101c31420fb'
p267
L120L
tp268
a(S'strcpy'
p269
S'0061e02001d10053e330e7'
p270
L28L
tp271
a(S'inet_addr'
p272
S'042de210eb0000e0009d15'
p273
L36L
tp274
a(S'accept'
p275
S'10e9017000e1009ae230e300'
p276
L44L
tp277
a(S'bind'
p278
S'10e9017000e1009ae230e300'
p279
L44L
tp280
a(S'connect'
p281
S'10e9017000e1009ae230e300'
p282
L44L
tp283
a(S'getsockname'
p284
S'10e9017000e1009ae230e300'
p285
L44L
tp286
a(S'getsockopt'
p287
S'10e92701e340a09ae230e300'
p288
L48L
tp289
a(S'listen'
p290
S'10e9017000e1009ae230e300'
p291
L44L
tp292
a(S'recv'
p293
S'10e9017000e1009ae230e300'
p294
L44L
tp295
a(S'recvfrom'
p296
S'30e93094e8017000e1009ae230e300'
p297
L52L
tp298
a(S'send'
p299
S'10e9017000e1009ae230e300'
p300
L44L
tp301
a(S'sendto'
p302
S'30e93094e8017000e1009ae230e300'
p303
L52L
tp304
a(S'setsockopt'
p305
S'10e901e340a09ae230e300'
p306
L48L
tp307
a(S'socket'
p308
S'10e9017000e1009ae230e300'
p309
L44L
tp310
a(S'raise'
p311
S'10e9c1eb10e8'
p312
L24L
tp313
a(S'sigaddset'
p314
S'0051e2e0e500da53e300ca9de400eaa0e500e3'
p315
L48L
tp316
a(S'sigemptyset'
p317
S'042de320eb00'
p318
L24L
tp319
a(S'signal'
p320
S'30e90050134de240a0da50e300d500da'
p321
L180L
tp322
a(S'__sigismember'
p323
S'0141e232e710e230e00013'
p324
L36L
tp325
a(S'__sigaddset'
p326
S'0141e2c20c90e710e220e131e3'
p327
L36L
tp328
a(S'__sigdelset'
p329
S'0141e2c20c90e710e220e131e3'
p330
L36L
tp331
a(S'malloc'
p332
S'702de3d001a00a0040008a8040'
p333
L316L
tp334
a(S'calloc'
p335
S'30e9900550e2000a'
p336
L88L
tp337
a(S'free'
p338
S'0050e3412d0810c0e270e500e1'
p339
L216L
tp340
a(S'realloc'
p341
g20
L264L
tp342
a(S'__heap_alloc'
p343
S'0091e5402de220e340a0e310e520ea5ce1003a820030008020e330150490e500048320013000e5800050e3'
p344
L148L
tp345
a(S'__heap_alloc_at'
p346
S'042de5e0e100ea60e030e1008a001a30e30012002c82000062008c049d2420089c15089ce53004'
p347
L140L
tp348
a(S'__heap_link_free_area'
p349
S'0052e330e5100508'
p350
L32L
tp351
a(S'__heap_link_free_area_after'
p352
S'0052e310150e'
p353
L20L
tp354
a(S'__heap_free'
p355
g20
L244L
tp356
a(S'abort'
p357
S'43df2c9fe531e1'
p358
L308L
tp359
a(S'atol'
p360
S'00a0e3'
p361
L12L
tp362
a(S'strtol'
p363
S'01a0'
p364
L8L
tp365
a(S'_stdlib_strto_l'
p366
g20
L404L
tp367
a(S'exit'
p368
S'104de210e530e100e1'
p369
L120L
tp370
a(S'sleep'
p371
g20
L416L
tp372
a(S'__uClibc_fini'
p373
S'10e95020e041a0eaa0e74054e2'
p374
L92L
tp375
a(S'__pthread_return_0'
p376
S'00a0'
p377
L8L
tp378
a(S'__check_one_fd'
p379
S'30e901a0e1fa'
p380
L52L
tp381
a(S'__uClibc_init'
p382
S'4420e500042de5'
p383
L76L
tp384
a(S'__uClibc_main'
p385
S'02e1e1e020e2c0019fe510e510e521e510e1200500a0e1fb'
p386
L536L
tp387
a(S'sigaction'
p388
S'702de2df00e150a00aa0e400e330eb1088941594301a9fe500e330e330e500101a10e3201130e100eb3001a0e330e340a00a30e130e220eb30e530e500e2'
p389
L220L
tp390
a(S'__syscall_rt_sigaction'
p391
S'10e9017000e1009ae230e300'
p392
L44L
tp393
a(S'_exit'
p394
S'00e100ef017000e1'
p395
L40L
tp396
a(S'fstat'
p397
S'10e901a0e100e340a09ae240e0008000eaa0e1010ba0e2'
p398
L80L
tp399
a(S'__getdents'
p400
g20
L148L
tp401
a(S'__getdents64'
p402
S'0ddfe2b0e2d003c3e3d0010b0d00e510ef017000e1009ae260e0008000ea000610eae008e140a0e530e500ead402e130e390850c59e124e1009a4be200e300eb0024006830e330ea'
p403
L356L
tp404
a(S'getegid'
p405
S'10e9017000e1009ae230e300'
p406
L44L
tp407
a(S'geteuid'
p408
S'10e9017000e1009ae230e300'
p409
L44L
tp410
a(S'getgid'
p411
S'10e9017000e1009ae230e300'
p412
L44L
tp413
a(S'getuid'
p414
S'10e9017000e1009ae230e300'
p415
L44L
tp416
a(S'lseek64'
p417
S'702de1d002e110e120e100e340a09ae240e0008000ea0004a0e100ea'
p418
L100L
tp419
a(S'nanosleep'
p420
S'10e9017000e1009ae230e300'
p421
L44L
tp422
a(S'sbrk'
p423
S'30e90094e50000e1001a000050e300ba0055e340a0e0000a000050e300aa00e300'
p424
L84L
tp425
a(S'times'
p426
S'10e9017000e1009ae230e300'
p427
L44L
tp428
a(S'__xstat64_conv'
p429
g20
L784L
tp430
a(S'__xstat_conv'
p431
S'702de150a0e320e1f9'
p432
L204L
tp433
a(S'_memcpy'
p434
S'0051e1003a'
p435
L1160L
tp436
a(S'inet_aton'
p437
S'0050e3402de150a013001a00ea93e530e530e700e3000a40a0ea2330e20000ca80c0'
p438
L232L
tp439
a(S'_dl_aux_init'
p440
S'1c90e530e520e510'
p441
L28L
tp442
a(S'brk'
p443
S'042de100e130e3002aeb30e520e300'
p444
L56L
tp445
a(S'__do_global_ctors_aux'
p446
S'289fe520e50010e910a0e120fa'
p447
L48L
tp448
a(S'call___do_global_ctors_aux'
p449
S'042d'
p450
L8L
tp451
a(S'_fini'
p452
S'0ddfe2ce'
p453
L20L
tp454
a.