(lp0
(S'_init'
p1
S'08e9'
p2
L12L
tp3
a(S'_Unwind_GetDataRelBase'
p4
S'10e9'
p5
L8L
tp6
a(S'_Unwind_GetTextRelBase'
p7
S'10e9'
p8
L8L
tp9
a(S'abort'
p10
S'48529fe532e5402deb6d40e2de0093e5000c'
p11
L592L
tp12
a(S'fini'
p13
S'009fe54b01'
p14
L8L
tp15
a(S'main'
p16
S''
p17
L2404L
tp18
a(S'_start'
p19
S'00a0e420e500e5c00c9fe52c'
p20
L44L
tp21
a(S'deregister_tm_clones'
p22
S'189fe530e1ff0130e3ff01ff'
p23
L32L
tp24
a(S'register_tm_clones'
p25
S'249fe510e011e0100130e3ff01ff'
p26
L44L
tp27
a(S'__do_global_dtors_aux'
p28
S'10e900d40053e3801c9fe5000100149fe500e330e5'
p29
L56L
tp30
a(S'frame_dummy'
p31
S'209fe50005402de500e140bd'
p32
L40L
tp33
a(S'_Z15attack_app_httphP13attack_targethP13attack_option'
p34
g17
L7572L
tp35
a(S'_ZL10add_attackhPFvhP13attack_targethP13attack_optionE'
p36
g17
L96L
tp37
a(S'_Z11attack_initv'
p38
S'10e9a89fe540'
p39
L180L
tp40
a(S'_Z15attack_kill_allv'
p41
S'702de560a0e04045e25085020005608407000ab40050e3'
p42
L80L
tp43
a(S'_Z12attack_startihhP13attack_targethP13attack_option'
p44
g17
L232L
tp45
a(S'_Z12attack_parsePci'
p46
S'05ff91'
p47
L548L
tp48
a(S'_Z18attack_get_opt_strhP13attack_optionhPc'
p49
S'30e90d00e500088103000900045ce500000ae0e2000ca0e2'
p50
L88L
tp51
a(S'_Z18attack_get_opt_inthP13attack_optionhi'
p52
S'0050e3000ad1025ce1000a402de2e0e300ea54e1000ae0e2000ca0e2'
p53
L128L
tp54
a(S'_Z17attack_get_opt_iphP13attack_optionhj'
p55
S'0050e3000ad1025ce1000a402de2e0e300ea54e1000ae0e2000ca0e2'
p56
L120L
tp57
a(S'_Z13attack_gre_iphP13attack_targethP13attack_option'
p58
g17
L1508L
tp59
a(S'_Z14attack_gre_ethhP13attack_targethP13attack_option'
p60
g17
L1644L
tp61
a(S'_Z14attack_tcp_synhP13attack_targethP13attack_option'
p62
g17
L1552L
tp63
a(S'_Z14attack_tcp_ackhP13attack_targethP13attack_option'
p64
g17
L1632L
tp65
a(S'_Z16attack_tcp_stomphP13attack_targethP13attack_option'
p66
g17
L1692L
tp67
a(S'_ZL16get_dns_resolverv'
p68
S'702de3de13eb10e313eb10eb50a0e313eb004400ba02a0e100eb40a0e181e313eb10e313eb10e100eb50a0e313eb00000a00da30e500205313000a00e200ea0001820000da30e5c000095c13'
p69
L360L
tp70
a(S'_Z18attack_udp_generichP13attack_targethP13attack_option'
p71
g17
L1144L
tp72
a(S'_Z14attack_udp_vsehP13attack_targethP13attack_option'
p73
g17
L1008L
tp74
a(S'_Z14attack_udp_dnshP13attack_targethP13attack_option'
p75
g17
L1304L
tp76
a(S'_Z16attack_udp_plainhP13attack_targethP13attack_option'
p77
g17
L624L
tp78
a(S'_Z16checksum_genericPtj'
p79
S'0151e3009acce3c030e000301a10e20000dc03a0e138e000e108e1ffe1c0f1'
p80
L104L
tp81
a(S'_Z15checksum_tcpudpP5iphdrPvti'
p82
S'0153e3402de56090e500da30a3408584e0c00451e1c05fe030e33005038c0107e038e500e06006e000e004e0380a20e000e1'
p83
L172L
tp84
a(S'_ZL10mem_existsPciS_i.part.0'
p85
S'01800000a00a402dea000cd201e400c0018c035ce1'
p86
L88L
tp87
a(S'_Z11killer_killv'
p88
S'0c9fe510e000'
p89
L20L
tp90
a(S'_Z19killer_kill_by_portt'
p91
g17
L1324L
tp92
a(S'_Z11killer_initv'
p93
g17
L1632L
tp94
a(S'_ZL14anti_gdb_entryi'
p95
S'109fe520e020e5ff'
p96
L24L
tp97
a(S'_ZL19teardown_connectionv'
p98
S'2c9fe5402de7000000e700189fe520e330e340bde575'
p99
L52L
tp100
a(S'_ZL16resolve_cnc_addrv'
p101
S'702de30beb10e30beb01eb40a0e30beb00809200eb10e50d9fe500e031e501eb00eb10e30beb30e130e100e8'
p102
L128L
tp103
a(S'_ZL22ensure_single_instancev'
p104
g17
L360L
tp105
a(S'_Z9rand_initv'
p106
S'702de373eb30e530e000eb40a0eb00e000eb20e530e030e020e5'
p107
L92L
tp108
a(S'_Z9rand_nextv'
p109
S'10e94c10e0e0e5000091e5e0e0359fe500e509e0c000e504e0408e008c0081'
p110
L88L
tp111
a(S'_Z8rand_strPci'
p112
S'0051e3ffd1402de5e1e521e5e0e0c003'
p113
L348L
tp114
a(S'_Z13rand_alphastrPhi'
p115
g17
L300L
tp116
a(S'_ZL16resolv_skip_namePhS_Pi'
p117
S'01a0e900d000a0e349e01e000a008a00e0e2001a30e1000c8030e130e4001053e3'
p118
L204L
tp119
a(S'_Z25resolv_domain_to_hostnamePcS_'
p120
S'702de100e10aeb20018400a0e000ea83000000c660a00330150052e31000a0e5'
p121
L112L
tp122
a(S'_Z19resolv_entries_freeP14resolv_entries'
p123
S'10e91094e5000000430004a0e8'
p124
L40L
tp125
a(S'_Z13resolv_lookupPc'
p126
g17
L1016L
tp127
a(S'_ZL18consume_any_promptP18scanner_connection'
p128
S'1890e5200052e300da30e5c030e200025c131080000ca0e2000a302343e230e200025113'
p129
L120L
tp130
a(S'_ZL5deobfPcPi'
p131
S'702de160a0eb0061000094e510e250a0eb100700da1001850145e220e520e20000c3e5'
p132
L100L
tp133
a(S'_ZL14add_auth_entryPcS_t'
p134
g17
L196L
tp135
a(S'_ZL16setup_connectionP18scanner_connection'
p136
g17
L208L
tp137
a(S'_Z15recv_strip_nulliPvii'
p138
S'10e931eb001044e220e330e50000c1'
p139
L56L
tp140
a(S'_Z12scanner_initv'
p141
g17
L6864L
tp142
a(S'_Z12scanner_killv'
p143
S'0c9fe510e000'
p144
L20L
tp145
a(S'_ZL10toggle_obfh'
p146
S'9020e980e030e130e3c02ca0e1600cffe25005e130e710e710e010e771e710e710e010e771e710e710e010e771e710e710e010e710e130e1'
p147
L152L
tp148
a(S'_ZL9add_entryhPci'
p149
g17
L64L
tp150
a(S'_Z10table_initv'
p151
S'e8402de310e3'
p152
L1008L
tp153
a(S'_Z18table_retrieve_valiPi'
p154
S'0051e3000a9fe530e030e130e530e7ff'
p155
L44L
tp156
a(S'_Z11util_strlenPc'
p157
S'01d00053e3000a30e430e3'
p158
L40L
tp159
a(S'_Z12util_strncmpPcS_i'
p160
S'00a0e9005ce3c001d3018c005ee3'
p161
L136L
tp162
a(S'_Z11util_strcmpPcS_'
p163
S'10e901de01a0e320e4000a30e430e3'
p164
L148L
tp165
a(S'_Z11util_strcpyPcS_'
p166
S'01a0e430e3000a00e5e0e400e3'
p167
L104L
tp168
a(S'_Z11util_memcpyPvS_i'
p169
S'0052e3ff0100028101e00251e1'
p170
L36L
tp171
a(S'_Z9util_zeroPvi'
p172
S'0051e3ff0110e330e400fc'
p173
L32L
tp174
a(S'_Z9util_atoiPci'
p175
g17
L276L
tp176
a(S'_Z9util_itoaiiPc'
p177
g17
L292L
tp178
a(S'_Z14util_memsearchPciS_i'
p179
S'0153e100ca51e300dac0402de00000a0ea000e40d20c8050fce50000a01ae0e200f4'
p180
L108L
tp181
a(S'_Z12util_stristrPciS_'
p182
S'02a0e90057e37013000ac001e200'
p183
L136L
tp184
a(S'_Z15util_local_addrv'
p185
S'702de3d004'
p186
L20L
tp187
a(S'_Z11util_fdgetsPcii'
p188
g17
L100L
tp189
a(S'__udivsi3'
p190
S'0151e2ff013a006b9a00106fe12f6fe1301f308310201000e120205002a22020200e50e1202020200da22020200ce1202020200b02a22020200a02a22020200902a22020200802a22020200750e1202020200650e12020202005a220202004e1202020200302a22020200202a22020200102a22020200002a22000e10013ffe12f6fe12030a0e10000e09700'
p191
L492L
tp192
a(S'__aeabi_uidivmod'
p193
S'0051e3'
p194
L32L
tp195
a(S'__divsi3'
p196
S'0051e300'
p197
L8L
tp198
a(S'.divsi3_skip_div0_test'
p199
S'01200061420151e2000a30420153e1009a00136fe16f0240e020'
p200
L520L
tp201
a(S'__aeabi_idivmod'
p202
S'0051e3'
p203
L32L
tp204
a(S'__aeabi_ldiv0'
p205
S'02e9a1'
p206
L16L
tp207
a(S'selfrel_offset31'
p208
S'0090e501e3310300'
p209
L24L
tp210
a(S'search_EIT_table'
p211
S'0051e3000a472de260a0e190a0e04f84c4e151a0e000eb0000a0e2000a0008000140e200ec'
p212
L152L
tp213
a(S'__gnu_unwind_get_pr_addr'
p214
S'4430e3300a0009000050e3000a00e120e7ffe100e0ffe120e7ff'
p215
L76L
tp216
a(S'get_eit_entry'
p217
S'189fe531e0402de7d00053e340a0e2000a'
p218
L288L
tp219
a(S'restore_non_core_regs'
p220
S'0090e5402de340a01a00e3000a300a0008130d00e38010e887000094e500e3'
p221
L136L
tp222
a(S'_Unwind_decode_typeinfo_ptr.isra.0'
p223
S'0090e50003901703a0'
p224
L20L
tp225
a(S'__gnu_unwind_24bit.isra.1'
p226
S'09a0'
p227
L8L
tp228
a(S'unwind_phase2'
p229
S'702de150a0e500eb6050e2001a95e5301094e510e3ffe100f1'
p230
L100L
tp231
a(S'unwind_phase2_forced'
p232
g17
L340L
tp233
a(S'_Unwind_GetCFA'
p234
S'4400'
p235
L8L
tp236
a(S'__gnu_Unwind_RaiseException'
p237
g17
L168L
tp238
a(S'__gnu_Unwind_ForcedUnwind'
p239
S'042de510e510e520e4'
p240
L36L
tp241
a(S'__gnu_Unwind_Resume'
p242
S'702de530e3301a30e140a0e110e3ffe10004000850e3001a00eb00e5'
p243
L116L
tp244
a(S'__gnu_Unwind_Resume_or_Rethrow'
p245
S'0c90e50003003c91e520e3'
p246
L32L
tp247
a(S'_Unwind_DeleteException'
p248
S'0890e5001eff0110e3ff'
p249
L24L
tp250
a(S'_Unwind_VRS_Get'
p251
S'0451e3f1'
p252
L104L
tp253
a(S'_Unwind_GetGR'
p254
S'042de230e110e510eb00e2'
p255
L44L
tp256
a(S'_Unwind_VRS_Set'
p257
S'0451e3f1'
p258
L104L
tp259
a(S'_Unwind_SetGR'
p260
S'042de230e520e520e1'
p261
L44L
tp262
a(S'__gnu_Unwind_Backtrace'
p263
g17
L200L
tp264
a(S'__gnu_unwind_pr_common'
p265
g17
L1136L
tp266
a(S'__aeabi_unwind_cpp_pr0'
p267
S'00a0'
p268
L8L
tp269
a(S'__aeabi_unwind_cpp_pr1'
p270
S'01a0'
p271
L8L
tp272
a(S'__aeabi_unwind_cpp_pr2'
p273
S'02a0'
p274
L8L
tp275
a(S'_Unwind_VRS_Pop'
p276
g17
L1016L
tp277
a(S'restore_core_regs'
p278
S'348000e9009d'
p279
L20L
tp280
a(S'__gnu_Unwind_Restore_VFP'
p281
S'2190ec1eff'
p282
L8L
tp283
a(S'__gnu_Unwind_Save_VFP'
p284
S'2180ff'
p285
L8L
tp286
a(S'__gnu_Unwind_Restore_VFP_D'
p287
S'2090ec1eff'
p288
L8L
tp289
a(S'__gnu_Unwind_Save_VFP_D'
p290
S'2080ff'
p291
L8L
tp292
a(S'__gnu_Unwind_Restore_VFP_D_16_to_31'
p293
S'20d01eff'
p294
L8L
tp295
a(S'__gnu_Unwind_Save_VFP_D_16_to_31'
p296
S'20c0ff'
p297
L8L
tp298
a(S'__gnu_Unwind_Restore_WMMXD'
p299
S'02'
p300
L68L
tp301
a(S'__gnu_Unwind_Save_WMMXD'
p302
S'02e002e002e002e002ec02ec02ec02ec02e002e002e002e002e002e01eff'
p303
L68L
tp304
a(S'__gnu_Unwind_Restore_WMMXC'
p305
S'01b001b01eff'
p306
L20L
tp307
a(S'__gnu_Unwind_Save_WMMXC'
p308
S'01a0fc012f'
p309
L20L
tp310
a(S'___Unwind_RaiseException'
p311
S'002de90c2de2fc'
p312
L36L
tp313
a(S'___Unwind_Resume'
p314
S'002de90c2de2fc'
p315
L24L
tp316
a(S'___Unwind_Resume_or_Rethrow'
p317
S'002de90c2de2fc'
p318
L36L
tp319
a(S'___Unwind_ForcedUnwind'
p320
S'002de90c2de2fc'
p321
L36L
tp322
a(S'___Unwind_Backtrace'
p323
S'002de90c2de2fd'
p324
L36L
tp325
a(S'next_unwind_byte'
p326
S'08d00052e3001a30e5000f0a90e530048210e5c008c024e120e1ffe1200090e520e5'
p327
L96L
tp328
a(S'_Unwind_GetGR.constprop.0'
p329
S'042de230e220e120eb00e2'
p330
L44L
tp331
a(S'__gnu_unwind_execute'
p332
g17
L972L
tp333
a(S'__gnu_unwind_frame'
p334
S'4c20e530e2c003e1c00720e510e520e5c014'
p335
L68L
tp336
a(S'_Unwind_GetRegionStart'
p337
S'10e94800'
p338
L16L
tp339
a(S'_Unwind_GetLanguageSpecificData'
p340
S'10e94c00e530e0'
p341
L28L
tp342
a(S'__libc_start_main'
p343
S'804adf149fe500e5e0e50000e222e101150082c2e83f6f111111300490e400fc'
p344
L804L
tp345
a(S'check_one_fd'
p346
g17
L48L
tp347
a(S'__libc_check_standard_fds'
p348
S'10e900a0eb19e3'
p349
L44L
tp350
a(S'__libc_setup_tls'
p351
S'3c9fe522e54f2de3d000e5000a9fe510e000030000ea53e1002a20e3'
p352
L580L
tp353
a(S'__tls_get_addr'
p354
S'042de100'
p355
L12L
tp356
a(S'__libc_csu_init'
p357
g17
L144L
tp358
a(S'__libc_csu_fini'
p359
S'702de5509fe5304331e3000a4043e2518501e230e100'
p360
L64L
tp361
a(S'__errno_location'
p362
S'109fe5e0e500'
p363
L12L
tp364
a(S'__aeabi_read_tp'
p365
g17
L8L
tp366
a(S'__assert_fail_base'
p367
S'80789fe5e1e5d0009ce50000e160a0e18030e5000a10e300e511e5c110e50001a0010040a00100e500e501e100eb003520e500eb30e51ceb30e530e3c0030c00e000'
p368
L388L
tp369
a(S'__assert_fail'
p370
S'8000e170e1d001e160a0e520e500eb70e530e110'
p371
L60L
tp372
a(S'dcgettext'
p373
S'042de3d004'
p374
L36L
tp375
a(S'plural_eval'
p376
g17
L460L
tp377
a(S'transcmp'
p378
S'1090e5402de330e140a01295051c816154000050e3800095e554000050e3800895e554000050e330034000'
p379
L108L
tp380
a(S'plural_lookup.isra.2'
p381
g17
L96L
tp382
a(S'_nl_find_msg'
p383
g17
L2924L
tp384
a(S'__dcigettext'
p385
g17
L1756L
tp386
a(S'_nl_find_domain'
p387
g17
L668L
tp388
a(S'_nl_load_domain'
p389
g17
L5708L
tp390
a(S'alias_compare'
p391
S'0091e500e54e00'
p392
L16L
tp393
a(S'read_alias_file'
p394
S'154f2de3b0e2df034de034e540a0e520e100e54e000e20e54e0004a0e510eb9050e2910b0099e529e22005e40009a0e34bd5000050e3000a10e248008c9fe531029fe74f4be260a0eb10e120e3000a30e520e10ae3'
p395
L1056L
tp396
a(S'_nl_expand_alias'
p397
S'f84f2de360a0e540a0e5000500e3e0e1'
p398
L452L
tp399
a(S'_nl_make_l10nflist'
p400
g17
L1196L
tp401
a(S'_nl_normalize_codeset'
p402
g17
L296L
tp403
a(S'_nl_explode_name'
p404
g17
L528L
tp405
a(S'__gettext_free_exp'
p406
S'10e91094e50008000353e3000a0006000aa0e81094e5'
p407
L88L
tp408
a(S'new_exp'
p409
S'0140e200'
p410
L192L
tp411
a(S'__gettextparse'
p412
g17
L2328L
tp413
a(S'__gettext_extract_plural'
p414
g17
L276L
tp415
a(S'__hash_string'
p416
S'0140e200e5001eff0102e312e20c10'
p417
L40L
tp418
a(S'_setjmp'
p419
S'00a0'
p420
L8L
tp421
a(S'__bsd_signal.part.0'
p422
S'10e9124de2e0e530e220e5e1e520e500fc'
p423
L164L
tp424
a(S'ssignal'
p425
S'017100a003c00030e3000a30e5ed'
p426
L80L
tp427
a(S'raise'
p428
S'b02de5df0095e540a0e300e531eb21e330e320e510e200e370e300ef14a0efe0a0e100ef437fe310e100ef017000e1008a'
p429
L216L
tp430
a(S'__libc_sigaction'
p431
g17
L284L
tp432
a(S'sigaction'
p433
S'0140e200008a300153e3009a9fe5e0e5ec'
p434
L40L
tp435
a(S'sigprocmask'
p436
g17
L192L
tp437
a(S'kill'
p438
S'042de300ef049de40a1eff316100'
p439
L28L
tp440
a(S'sigemptyset'
p441
S'0050e3402d0a10eb30e1801610e7ec'
p442
L52L
tp443
a(S'sigaddset'
p444
S'0141e20000a08350e330e3e0e5001a100151e3009a90e720e2e0e322e700e420e320'
p445
L96L
tp446
a(S'__default_sa_restorer'
p447
S'77a0ef00a0'
p448
L16L
tp449
a(S'__default_rt_sa_restorer'
p450
S'ad70e300ef'
p451
L8L
tp452
a(S'msort_with_tmp.part.0'
p453
g17
L672L
tp454
a(S'qsort_r'
p455
g17
L736L
tp456
a(S'qsort'
p457
S'042de3d000'
p458
L28L
tp459
a(S'getenv'
p460
S'009fe5472de5003a0000d000e1000201000a70e590a0e34095e5001a002ce3001a00ea54e3000a10e530e534e138e100f5'
p461
L264L
tp462
a(S'__run_exit_handlers'
p463
S'0c9fe5482de3d00c'
p464
L788L
tp465
a(S'exit'
p466
S'01a0e9009fe5'
p467
L20L
tp468
a(S'__new_exitfn'
p469
S'289fe530e5003400702de540a0e3000a00e1e0e120e3000a30038e0891e5000f1ac00143e2120a0002a0e3'
p470
L304L
tp471
a(S'__internal_atexit'
p472
g17
L364L
tp473
a(S'__cxa_atexit'
p474
S'009fe5'
p475
L8L
tp476
a(S'__strtol_internal'
p477
S'30e90c4de2409fe750a0'
p478
L24L
tp479
a(S'strtol'
p480
S'2c9fe5402de7d000e1'
p481
L24L
tp482
a(S'__strtoul_internal'
p483
S'30e90c4de2409fe750a0'
p484
L24L
tp485
a(S'strtoul'
p486
S'2c9fe5402de7d000e1'
p487
L24L
tp488
a(S'____strtol_l_internal'
p489
g17
L1288L
tp490
a(S'strtol_l'
p491
S'042de230e3'
p492
L28L
tp493
a(S'____strtoul_l_internal'
p494
g17
L1196L
tp495
a(S'strtoul_l'
p496
S'042de230e3'
p497
L28L
tp498
a(S'__correctly_grouped_prefixmb'
p499
g17
L668L
tp500
a(S'asprintf'
p501
S'0e00e90c4de230e1c030e509eb20e50003000c'
p502
L80L
tp503
a(S'locked_vfxprintf'
p504
g17
L248L
tp505
a(S'__fxprintf'
p506
S'0e00e9084de25050e230e531e550930500e530e2001a95e5e5eb30e2000e000a10e130e1001aa0e3e0e1'
p507
L364L
tp508
a(S'__fxprintf_nocancel'
p509
S'0e00e9084de25050e230e531e550930500e530e2001a95e5e4eb30e2000e000a10e130e1001aa0e3e0e1'
p510
L380L
tp511
a(S'fclose'
p512
S'0090e5472de350a01a29e2000a60130013006b0a9fe54095e533e0300153e1009aa0e1ffe130e300da95e510e540a0e5000500e3e0e1'
p513
L684L
tp514
a(S'fflush'
p515
g17
L344L
tp516
a(S'__fopen_maybe_mmap'
p517
S'3c90e500e3ff0130e3ff01e520e330d510d510e5ff'
p518
L64L
tp519
a(S'__fopen_internal'
p520
g17
L224L
tp521
a(S'fopen'
p522
S'01a0'
p523
L8L
tp524
a(S'adjust_wide_data'
p525
g17
L276L
tp526
a(S'_IO_wfile_underflow'
p527
S'0090e5279fe54f2de5d0101334'
p528
L1656L
tp529
a(S'_IO_wfile_seekoff'
p530
g17
L2464L
tp531
a(S'_IO_wfile_underflow_maybe_mmap'
p532
S'10e9060001701094e500e540bde5ff'
p533
L44L
tp534
a(S'_IO_wfile_underflow_mmap'
p535
g17
L392L
tp536
a(S'_IO_wdo_write'
p537
S'ac31e9344de25052e230e1000a30e540a0e18043000ab0e2a000149de5000443e05145e0000a9059e290a0e190890059e3001a0023001496e570e540a0e00020968520925c10e9188d00'
p538
L436L
tp539
a(S'_IO_wfile_overflow'
p540
S'0090e5412de340a01a0be350a01ae510e3000a10e5001c940504921500a0010004'
p541
L672L
tp542
a(S'_IO_wfile_sync'
p543
S'5c30e90c93e5d00152e140a09a53e300da204221eb0013005c300093e500e1000a94e5201096e500e1ffe1001e00da21e531e0300153e1009a'
p544
L416L
tp545
a(S'_IO_wfile_xsputn'
p546
g17
L348L
tp547
a(S'vasprintf'
p548
g17
L332L
tp549
a(S'__libc_message'
p550
S'0e00e9204de230e500e390a0e530e5609be5001a800154e350a0110004a0e100eaa0eb30e500040025'
p551
L676L
tp552
a(S'__libc_fatal'
p553
S'18e5402de120e100eb'
p554
L32L
tp555
a(S'_IO_vtable_check'
p556
S'109fe5001eff11402de5'
p557
L24L
tp558
a(S'fgets_unlocked'
p559
S'0051e300da002a000092e5402de340a0e260a0e30000'
p560
L200L
tp561
a(S'_IO_file_seekoff_maybe_mmap'
p562
S'702de55090e540a0e5d00045e0100c51e1609de5009aa0e5ffe10000d10600ba10'
p563
L112L
tp564
a(S'_IO_file_close'
p565
S'3890e54000'
p566
L8L
tp567
a(S'_IO_new_file_setbuf'
p568
S'10e9980d50e38004a0e5300c8404840884'
p569
L56L
tp570
a(S'_IO_file_setbuf_mmap'
p571
S'5c30e954509fe55080c08550e3000a94e500e5300c840484088470bde55085109fe55084b083'
p572
L100L
tp573
a(S'new_do_write'
p574
S'0090e5432de56090e5519fe50ae38000e190a0e05045e0000a20e330e32555e1009aa0e100e134e10000501350a01ae5300c8404840884148410841b002094e5300c'
p575
L332L
tp576
a(S'_IO_new_file_underflow'
p577
S'f84f2de500e3001a13b2000490e510e130351c90e550a0e3000a9fe500e1000a9fe570e530e2001a97e5d9eb20e2008f0001a0e130e1001aa0e3e0e1'
p578
L764L
tp579
a(S'_IO_file_close_mmap'
p580
S'1c90e510e900e100eb30e53010e8'
p581
L52L
tp582
a(S'mmap_remap_check'
p583
g17
L600L
tp584
a(S'_IO_file_seek'
p585
S'3890e53b'
p586
L8L
tp587
a(S'_IO_file_sync_mmap'
p588
S'0c90e900e100e120084de23fa00a10e50000a0e1000140e01fa0e10006001a94e500e11008'
p589
L136L
tp590
a(S'decide_maybe_mmap'
p591
g17
L464L
tp592
a(S'_IO_file_underflow_maybe_mmap'
p593
S'702de1'
p594
L64L
tp595
a(S'_IO_file_xsgetn_maybe_mmap'
p596
g17
L80L
tp597
a(S'_IO_new_file_seekoff'
p598
g17
L1700L
tp599
a(S'_IO_file_stat'
p600
S'01a0e500'
p601
L16L
tp602
a(S'_IO_new_file_write'
p603
g17
L156L
tp604
a(S'_IO_file_xsgetn_mmap'
p605
g17
L288L
tp606
a(S'_IO_file_xsgetn'
p607
S'1c90e54f2de3d000e150a0e1000a0049000a94e9060068b1e5919fe5a04be000ea1339001c94e5003d100a51e1008a51e330088414841084188437009a'
p608
L544L
tp609
a(S'_IO_file_seekoff_mmap'
p610
g17
L360L
tp611
a(S'_IO_file_underflow_mmap'
p612
S'0490e510e1002a00e5ffe1402de1fb'
p613
L132L
tp614
a(S'_IO_file_read'
p615
S'3c90e500e3001a3700433b'
p616
L24L
tp617
a(S'_IO_new_file_xsputn'
p618
g17
L420L
tp619
a(S'_IO_new_file_init_internal'
p620
S'0090e5402de330e370e330e140a0eb30e330'
p621
L52L
tp622
a(S'_IO_new_file_init'
p623
S'0090e5402de330e370e330e140a0eb30e330'
p624
L52L
tp625
a(S'_IO_file_open'
p626
S'3c90e5402de3d000e1609de500e1201a000281200000e10000a0bac8c801c3e330e320e010e130e530a89fe56094e530e0300153e1009a'
p627
L284L
tp628
a(S'_IO_new_file_attach'
p629
S'3890e5432de3d0001a30e540a0e500e530e330e390e0008438840240e085e12005d3eb0005009aa0e530e330e500e130e320e300025001000a9fe5d3eb30e700e2837a'
p630
L232L
tp631
a(S'_IO_new_do_write'
p632
S'0052e2001a00e1402de1f9'
p633
L40L
tp634
a(S'_IO_new_file_close_it'
p635
S'702de50044000a9fe520e130e00b0013000aa0eb300013001a21e531e0300153e1009aa0e150a0e50012005c300053e3000aa0eb30e110e1ad005c30088320e520e520e320e100eb30e130088414841084188404a00100e320e330e300'
p636
L384L
tp637
a(S'_IO_new_file_fopen'
p638
g17
L1028L
tp639
a(S'_IO_new_file_finish'
p640
S'3890e5402de340a00ae5001700dae530e510e021eb3009005020e530e0300153e1009aa0e100e340bdea90e510e0'
p641
L160L
tp642
a(S'_IO_new_file_overflow'
p643
S'0090e5402de3001a0be350a0e1201a0057000a90e50ce3001a000250e12002a005028320188404840c8400841c00017515302530e550c2301520126fe122e0001a5005e1802f000a001490e5'
p644
L512L
tp645
a(S'_IO_new_file_sync'
p646
S'1490e510e9084de240a09a53e300dae530e510e021eb00130028002494e91400a06094e530e0300153e1009a'
p647
L264L
tp648
a(S'flush_cleanup'
p649
g17
L280L
tp650
a(S'save_for_backup'
p651
g17
L444L
tp652
a(S'_IO_un_link.part.1'
p653
g17
L744L
tp654
a(S'_IO_un_link'
p655
S'0090e500e3ff01'
p656
L16L
tp657
a(S'_IO_link_in'
p658
g17
L680L
tp659
a(S'_IO_least_marker'
p660
S'3090e500e3001eff0120e50002a0e3'
p661
L48L
tp662
a(S'_IO_switch_to_main_get_area'
p663
S'0090e520e510e53ce3e0e530e5c00c8020'
p664
L56L
tp665
a(S'_IO_switch_to_backup_area'
p666
S'0090e520e5c001e3e0e530e520e5c0049d'
p667
L56L
tp668
a(S'_IO_switch_to_get_mode'
p669
S'd0c0402de140a09a90e530e0300153e1009ae004a0e10070bde5200a000894e5100c84088400a0e13070bde5109c'
p670
L152L
tp671
a(S'_IO_free_backup_area'
p672
S'0090e5402de340a0e5000a94e53ce3002c94e500e52000a0e530'
p673
L80L
tp674
a(S'__overflow'
p675
S'6c30e900e06c30e54090e530e0300c53e1d0030008'
p676
L84L
tp677
a(S'__underflow'
p678
S'6c30e330030501733b000090e5402de340a01a94e52027003a300b002494e50001e300008408842c8404840c8424841f008a300f0a107c'
p679
L276L
tp680
a(S'__uflow'
p681
S'6c30e330030501733f001a30e900e1001a94e52027003a300b002494e50001e300008408842c840c84248404843094e5000f0a10350017001a5094e530e0300153e1009aa0e82494e500f1'
p682
L292L
tp683
a(S'_IO_setb'
p684
g17
L84L
tp685
a(S'_IO_doallocbuf'
p686
S'1c90e5001eff1130e900e1000ae50018007c9fe55094e530e0300153e1009aa0e10070bde560840050e350840094e5000a00e3000a30e5608420e580485080'
p687
L176L
tp688
a(S'_IO_default_underflow'
p689
S'00e01eff'
p690
L8L
tp691
a(S'_IO_default_uflow'
p692
S'702de55090e530e0300153e140a09aa0e100049415048470bdeb'
p693
L80L
tp694
a(S'_IO_default_xsputn'
p695
g17
L224L
tp696
a(S'_IO_sgetn'
p697
S'10e9984090e530e0300e00104de2009a'
p698
L68L
tp699
a(S'_IO_default_xsgetn'
p700
g17
L176L
tp701
a(S'_IO_default_setbuf'
p702
g17
L256L
tp703
a(S'_IO_default_seekpos'
p704
S'30e9984090e510e0101c4de20028e5009a'
p705
L88L
tp706
a(S'_IO_default_doallocate'
p707
S'702de10aeb5050e2000a94e56ae2000094e5000a00e3000a30e33020e500e80094e5'
p708
L96L
tp709
a(S'_IO_enable_locks'
p710
S'3c9fe530e3ff1130e330e5001eff0193e520e530e3'
p711
L68L
tp712
a(S'_IO_old_init'
p713
S'749fe514e320e3003c8020138000ad18e530e530e530e530e530e530e530e130151eff'
p714
L124L
tp715
a(S'_IO_init_internal'
p716
S'10e9dc'
p717
L36L
tp718
a(S'_IO_no_init'
p719
S'702de140a0e1'
p720
L112L
tp721
a(S'_IO_default_sync'
p722
S'00a0'
p723
L8L
tp724
a(S'_IO_default_finish'
p725
S'702de100e3000a3013003094e500040000a0e530e3'
p726
L128L
tp727
a(S'_IO_default_seekoff'
p728
S'00e000e01eff'
p729
L12L
tp730
a(S'_IO_sputbackc'
p731
S'0490e520e90c4de240a09a010250e13004844c20e530e0300053e1009aa0e10002000094e530e33030'
p732
L136L
tp733
a(S'_IO_sungetc'
p734
S'0490e520e900e1009a80000094e530e330389fe55090e530e0300153e1009ae004a0e10070bdea'
p735
L116L
tp736
a(S'_IO_adjust_column'
p737
S'042de0000900015ee5300a5ce3001a00ea5ce3000a00fa'
p738
L84L
tp739
a(S'_IO_flush_all_lockp'
p740
S'249fe523e9244de20000'
p741
L812L
tp742
a(S'_IO_cleanup'
p743
g17
L852L
tp744
a(S'_IO_flush_all'
p745
S'01a0'
p746
L8L
tp747
a(S'_flushlbf'
p748
S'd49fe522e91c4de20014'
p749
L732L
tp750
a(S'_IO_init_marker'
p751
S'0091e5402de340a0e1101a0ce3200494e5303094e520e5508470bde1fa'
p752
L84L
tp753
a(S'_IO_remove_marker'
p754
S'0490e520e3ff01000100080003a0e5001eff0100f9'
p755
L72L
tp756
a(S'_IO_marker_difference'
p757
S'0890e530e0ff'
p758
L16L
tp759
a(S'_IO_marker_delta'
p760
S'0490e50007000a00e50ce330050340e0ffe100e3ff'
p761
L52L
tp762
a(S'_IO_seekmark'
p763
S'0491e50024000891e530e3e0e51ce200ba0c90e5000a90e53ce3e0e510e510e5c0088020e500e4000890e5'
p764
L168L
tp765
a(S'_IO_unsave_markers'
p766
S'3090e50000a0150053e3ff01'
p767
L32L
tp768
a(S'_IO_default_pbackfail'
p769
g17
L316L
tp770
a(S'_IO_default_seek'
p771
S'00e000e01eff'
p772
L12L
tp773
a(S'_IO_default_stat'
p774
S'00e01eff'
p775
L8L
tp776
a(S'_IO_default_read'
p777
S'00e01eff'
p778
L8L
tp779
a(S'_IO_default_write'
p780
S'00a0'
p781
L8L
tp782
a(S'_IO_default_showmanyc'
p783
S'00e01eff'
p784
L8L
tp785
a(S'_IO_iter_begin'
p786
S'049fe500'
p787
L12L
tp788
a(S'_IO_iter_end'
p789
S'00a0'
p790
L8L
tp791
a(S'_IO_iter_next'
p792
S'3490e5ff'
p793
L8L
tp794
a(S'_IO_list_lock'
p795
S'702deb509fe56d40e230e1000a10e240a0e5000500e3e0e1'
p796
L116L
tp797
a(S'_IO_list_unlock'
p798
g17
L132L
tp799
a(S'_IO_list_resetlock'
p800
S'109fe520e520e5ff'
p801
L24L
tp802
a(S'_IO_str_underflow'
p803
S'1490e520e500030108800b30050a80c000d31eff'
p804
L68L
tp805
a(S'_IO_str_overflow'
p806
S'0090e500e3001a2be20b028310e920e5300504800001e16046e0100310e00000e1008a30e2001a90868956e1008a00eb80000a000520e122eb00eba049e010e022eb20e310e1fa'
p807
L344L
tp808
a(S'enlarge_userbuf'
p809
g17
L444L
tp810
a(S'_IO_str_seekoff'
p811
g17
L696L
tp812
a(S'_IO_str_pbackfail'
p813
S'0191e22013001afd'
p814
L32L
tp815
a(S'_IO_str_finish'
p816
S'10e91c90e50002000094e500e3000a10e500e87d00f8'
p817
L60L
tp818
a(S'_IO_str_init_static_internal'
p819
S'0052e3412de150a0e1001a10e122eb60a0e320e100eb0000a0e550840484148408151805a081e160a023'
p820
L132L
tp821
a(S'_IO_str_init_static'
p822
S'c2e1'
p823
L8L
tp824
a(S'_IO_str_init_readonly'
p825
S'10e900e12f82'
p826
L36L
tp827
a(S'_IO_str_count'
p828
S'0890e520e500016020001eff'
p829
L28L
tp830
a(S'_dl_tunable_set_mmap_threshold'
p831
S'0090e50753e3209308'
p832
L28L
tp833
a(S'_dl_tunable_set_mmaps_max'
p834
S'109fe510e310e5ff'
p835
L24L
tp836
a(S'_dl_tunable_set_top_pad'
p837
S'109fe510e310e5ff'
p838
L24L
tp839
a(S'_dl_tunable_set_perturb_byte'
p840
S'089fe520e5ff'
p841
L16L
tp842
a(S'_dl_tunable_set_trim_threshold'
p843
S'109fe510e310e5ff'
p844
L24L
tp845
a(S'_dl_tunable_set_arena_max'
p846
S'089fe520e5ff'
p847
L16L
tp848
a(S'_dl_tunable_set_arena_test'
p849
S'089fe520e5ff'
p850
L16L
tp851
a(S'_dl_tunable_set_tcache_max'
p852
S'0090e5521eff810007308343'
p853
L56L
tp854
a(S'_dl_tunable_set_tcache_count'
p855
S'089fe520e5ff'
p856
L16L
tp857
a(S'_dl_tunable_set_tcache_unsorted_limit'
p858
S'089fe520e5ff'
p859
L16L
tp860
a(S'mem2mem_check'
p861
S'0050e3ff0130a3c1c020e500c00720e320044202200152e1009a53e330e13030e7200251e1'
p862
L108L
tp863
a(S'mem2chunk_check'
p864
g17
L536L
tp865
a(S'int_mallinfo'
p866
S'3490e5412de560a0e3c00650a0e5000500e220e30002e0'
p867
L276L
tp868
a(S'__malloc_assert'
p869
S'4cc0009ce540a0e5d0005ee3e015309f050e30e520e500'
p870
L68L
tp871
a(S'detach_arena'
p872
S'0050e3ff01e50002000143e234e5ffe1402de520e500'
p873
L56L
tp874
a(S'get_free_list'
p875
g17
L384L
tp876
a(S'new_heap'
p877
S'018031e3412de5d03d0651e3008a9fe55043e200e0300050e350050a60a0e330e520e516a0eb6087017000e1000a34e3c3e300180001a0eb60a0e330e360'
p878
L408L
tp879
a(S'mremap_chunk'
p880
g17
L412L
tp881
a(S'ptmalloc_init'
p882
S'702de5519fe524e5d00095e50004'
p883
L336L
tp884
a(S'arena_get2.part.2'
p885
S'f84f2de585e5a053e370e14498e5001a30e3300a9fe550890143e200685096e50058559f0501a0e140a0e5000500e3e0e1'
p886
L1444L
tp887
a(S'arena_get_retry'
p888
S'4431e900e180200000e510e120e5000500e3e0e1'
p889
L332L
tp890
a(S'_dl_tunable_set_mallopt_check'
p891
S'0090e5001eff019fe5e0e520e3e0e5c0309fe530e5e0e500e5e0e500e5'
p892
L80L
tp893
a(S'__malloc_info.part.6'
p894
S'cc24e54f2de2d000a0e514e530e510e530e530e530e528e114e530e530e37feb10e530e1001aa0e3e0e1'
p895
L1236L
tp896
a(S'systrim.isra.1.constprop.7'
p897
g17
L196L
tp898
a(S'_int_free'
p899
g17
L2928L
tp900
a(S'sysmalloc'
p901
g17
L1952L
tp902
a(S'_int_malloc'
p903
S'0b81'
p904
L3884L
tp905
a(S'malloc_check'
p906
S'0170'
p907
L252L
tp908
a(S'tcache_init.part.3'
p909
S'68412deb30e700000a10e140a0e5000500e3e0e1'
p910
L368L
tp911
a(S'_int_memalign'
p912
g17
L464L
tp913
a(S'memalign_check'
p914
S'0850e3009a2d8a001093008a60a0e510e330e1001aa0e3e0e1'
p915
L384L
tp916
a(S'_int_realloc'
p917
g17
L868L
tp918
a(S'__malloc_fork_lock_parent'
p919
S'ac30e5001effd12de320e330e1001aa0e3e0e1'
p920
L180L
tp921
a(S'__malloc_fork_unlock_parent'
p922
g17
L240L
tp923
a(S'__malloc_fork_unlock_child'
p924
S'889fe534e5001effd1402deb409fe530e3206800e30001a0150520e150840350e1141503a0e534e5e01353e1'
p925
L144L
tp926
a(S'__malloc_check_init'
p927
S'3c9fe5e0e520e3e0e5c0309fe530e5e0e500e5e0e500e5'
p928
L68L
tp929
a(S'malloc'
p930
S'109fe530e3001a20e3412d9300e1008a30e3001a62eb60860496e54042e200a471e1000a22e50029000093e50041001a10e1f7eb6050e2000a16e500e3001a1327000a3023a0e130e1000a9fe522e502eb20e30000a083'
p931
L792L
tp932
a(S'malloc_hook_ini'
p933
S'1c9fe5402de340a0e5ee'
p934
L36L
tp935
a(S'_mid_memalign'
p936
S'd89fe5412de50041001a0000a0e1009a003c000042e00027003a2000128e001050e3000a60a0e100fc'
p937
L736L
tp938
a(S'memalign_hook_ini'
p939
S'2c9fe5402de360a0e150a0e5ed'
p940
L52L
tp941
a(S'free'
p942
S'd89fe530e3001a0000a001100840e200e3001a402deb409fe5d000840490e500000a1321a011201508'
p943
L212L
tp944
a(S'__malloc_arena_thread_freeres'
p945
S'6031e900835090e500120000a0e340854f6f85048030e5000530e5'
p946
L360L
tp947
a(S'realloc_hook_ini'
p948
S'2c9fe520e900e150a0e530eb10e140bd'
p949
L52L
tp950
a(S'memalign'
p951
S'042de1e0e4fd'
p952
L16L
tp953
a(S'valloc'
p954
S'349fe5402de550a0e340a0ba0510e540bdea'
p955
L60L
tp956
a(S'pvalloc'
p957
S'709fe5402de550a0e340a0ba10e00093e5c05ce1003a1004810510e000e8249fe520e7ae'
p958
L120L
tp959
a(S'calloc'
p960
S'f84f2de100e330230000a0e360a0e0001a93e5005d001a9fe5ae'
p961
L956L
tp962
a(S'malloc_trim'
p963
S'709fe54f2de5d00053e300ba00a0e130e320e330e1001aa0e3e0e1'
p964
L632L
tp965
a(S'mallinfo'
p966
S'3c9fe5472de5919fe5d00099e50000'
p967
L324L
tp968
a(S'malloc_stats'
p969
S'ec11e524e54f2de5d00052e330e500baccb1e530e120e520e180000001a0e300eb40a0e320e5000500e3e0e1'
p970
L500L
tp971
a(S'mallopt'
p972
g17
L464L
tp973
a(S'posix_memalign'
p974
S'21a0e230e0c00c93e1402d1340a0e340a0e3001a30e120e110eb000400008504a0e870bde3'
p975
L108L
tp976
a(S'malloc_info'
p977
S'0050e3001a30e901e1000700ba209fe581e140bdea2fe1e8'
p978
L72L
tp979
a(S'__default_morecore'
p980
S'10e9017000a0'
p981
L20L
tp982
a(S'strchr'
p983
S'0310ff010f0a30e5001eff01003b00018000ea80001eff01002b00031303a01a2de5409fe506e060860668000352e50020000053e3000a300c53e1000a0015300c53e1000a00100002a0e1e0e450e010e010e030e030e030e3'
p984
L280L
tp985
a(S'strcmp'
p986
S'01d001d10053e3000a00f9'
p987
L40L
tp988
a(S'strcpy'
p989
S'702de100e100eb10e200e8'
p990
L40L
tp991
a(S'strcspn'
p992
g17
L352L
tp993
a(S'strdup'
p994
S'702de100eb408000eb0070bde110e8'
p995
L48L
tp996
a(S'strlen'
p997
S'03c020e2000400ff8230ffc30153e228e30c130813041380201a00e30013001300'
p998
L96L
tp999
a(S'strncmp'
p1000
S'0352e3402d9ac2e0e250851b00035ce5605ee54053e040a0e340a0e3001a30605ee54053e040a0e340a0e3001a30405ee5c0e0130001a0e3001ae0e2000a5ce5405ee500e010e310e3100a43e08004a0e3'
p1001
L316L
tp1002
a(S'critical_factorization'
p1003
g17
L272L
tp1004
a(S'two_way_long_needle'
p1005
g17
L1016L
tp1006
a(S'strstr'
p1007
g17
L1120L
tp1008
a(S'memcmp'
p1009
g17
L1060L
tp1010
a(S'memmove'
p1011
S'0150e0000c0002810452e200ba0451f53000031139001c52e201ba60202051f5020060'
p1012
L832L
tp1013
a(S'memset'
p1014
S'00a0e3003a00e3101420fb'
p1015
L124L
tp1016
a(S'mempcpy'
p1017
S'10e91d00'
p1018
L20L
tp1019
a(S'stpcpy'
p1020
S'702de100e1fb'
p1021
L48L
tp1022
a(S'strcasecmp_l'
p1023
S'0150e1000a2de5c020e530e401e700049d1400f7ff049de400'
p1024
L64L
tp1025
a(S'memcpy'
p1026
S'11e92b0000d1300003113a001c52e201ba60201cd102005c'
p1027
L816L
tp1028
a(S'rawmemchr'
p1029
S'0051e3001a402de1fa'
p1030
L36L
tp1031
a(S'strchrnul'
p1032
S'0310ff010c0000d0035ce1001eff0130ea52e1001eff0100e3001a2de5409fe506e060860668000251e5000c5311000a300c53e10017000a00e1e0e450e030e030e020e020e020e3'
p1033
L228L
tp1034
a(S'wmempcpy'
p1035
S'02a0'
p1036
L8L
tp1037
a(S'mbsrtowcs'
p1038
S'702de5509fe5409fe7d000e1a4'
p1039
L28L
tp1040
a(S'_nl_cleanup_ctype'
p1041
S'10e90054e380148030e5000394e804a0e8'
p1042
L60L
tp1043
a(S'__wcsmbs_getfct'
p1044
g17
L116L
tp1045
a(S'__wcsmbs_load_conv'
p1046
g17
L464L
tp1047
a(S'__wcsmbs_clone_conv'
p1048
S'7c9fe5402de740a0'
p1049
L20L
tp1050
a(S'__wcsmbs_named_conv'
p1051
S'702de240a0e550a0eb0000840800052032'
p1052
L96L
tp1053
a(S'__mbsrtowcs_l'
p1054
g17
L856L
tp1055
a(S'clock'
p1056
S'10e9104de23002a0e511eb000f1a30e520e0120161e0a0e121e003e530030010'
p1057
L116L
tp1058
a(S'time'
p1059
S'30e9144de250a0e510e230eb20e50000e0049d050085010014'
p1060
L84L
tp1061
a(S'gettimeofday'
p1062
S'804e70e300ef017000a08a00e80060e220'
p1063
L48L
tp1064
a(S'__alloc_dir'
p1065
g17
L172L
tp1066
a(S'opendir_tail'
p1067
S'30e9744de2306c30ba0500eb001300'
p1068
L160L
tp1069
a(S'__opendirat'
p1070
S'10e90053e3000a9fe508eb40bdeaa0e7'
p1071
L48L
tp1072
a(S'opendir'
p1073
S'10e90053e3000a9fe5070010e8189fe510e7'
p1074
L48L
tp1075
a(S'closedir'
p1076
S'0050e2402d0a4093e5f1'
p1077
L48L
tp1078
a(S'readdir'
p1079
S'6031e9048050a0e1a1a0e740a0e5000500e3e0e1'
p1080
L360L
tp1081
a(S'__getdents'
p1082
g17
L388L
tp1083
a(S'sleep'
p1084
S'702de530e220e530e340a0e5a090e730ea00049de5012083e230e130e000eb00f1'
p1085
L172L
tp1086
a(S'nanosleep'
p1087
S'9830e90053e3001a00ef017000e1008aa0e801e10e00a210e100ef017000e1008a00eb'
p1088
L120L
tp1089
a(S'fork'
p1090
g17
L376L
tp1091
a(S'_exit'
p1092
S'8000a0e300ef01700a0001e300ef017004000060e220eb30e710e210'
p1093
L84L
tp1094
a(S'getpid'
p1095
S'042de300ef049de4ff'
p1096
L20L
tp1097
a(S'getppid'
p1098
S'042de300ef049de4ff'
p1099
L20L
tp1100
a(S'setsid'
p1101
S'042de300ef049de40a1eff3100'
p1102
L28L
tp1103
a(S'sysconf'
p1104
g17
L1796L
tp1105
a(S'sched_yield'
p1106
S'042de300ef049de40a1eff31'
p1107
L28L
tp1108
a(S'__get_child_max'
p1109
S'10e9104de2300600e504eb20e500049d050352e1001ad0e8'
p1110
L72L
tp1111
a(S'__fxstat64'
p1112
S'8001a0e310ef017000a08a00e80060e220'
p1113
L56L
tp1114
a(S'open'
p1115
S'0e00e908e520e530e210e5001a00e1000a00e5001500e370e500ef017000e1008a9de530e100290010'
p1116
L284L
tp1117
a(S'read'
p1118
S'a0412de50006001a70e300ef017000e1008aa0e801e140a0eb70e310e130e100ef017000e1008a00eb'
p1119
L128L
tp1120
a(S'write'
p1121
S'a0412de50006001aa0ef017000e1008aa0e801e140a0eb70e310e130e100ef017000e1008a00eb'
p1122
L128L
tp1123
a(S'lseek64'
p1124
S'b02de5d003a0e530e530e300ef01700800c01100019de530e1001ad0e80060e220eb10e330e3'
p1125
L120L
tp1126
a(S'fcntl'
p1127
S'0e00e90c9fe510e520e260a0e520e500039f976f00ea03b85703b85703b85703b85703b85703b85703b85703b85703b85703b85703b85703b85703b85703b85603fc560378036032e530e500b0d4b2d40c94e51fa0e13fa0e1e1e1c053001a00e210e300ef017000000095e500e1001a'
p1128
L800L
tp1129
a(S'close'
p1130
S'9030e90053e3001a70e300ef017000e1008aa0e8c80670e330e100ef017000e1008a00eb'
p1131
L112L
tp1132
a(S'chdir'
p1133
S'042de300ef049de40a1eff'
p1134
L28L
tp1135
a(S'getcwd'
p1136
S'149fe54f2de5d000a0e5001a009d001a03eb0a00a0b300e5ea00e2001a000aa011'
p1137
L1756L
tp1138
a(S'readlink'
p1139
S'042de300ef049de40a1eff'
p1140
L28L
tp1141
a(S'unlink'
p1142
S'042de300ef049de40a1eff'
p1143
L28L
tp1144
a(S'__close_nocancel'
p1145
S'800670e300ef017000a08a00e80060e220'
p1146
L48L
tp1147
a(S'__fcntl64_nocancel_adjusted'
p1148
S'a89fe5402de5d00951e3c0dde300ef017000a08a9de530e100190014'
p1149
L176L
tp1150
a(S'__fcntl64_nocancel'
p1151
S'0e00e90c4de230e520e530e5'
p1152
L80L
tp1153
a(S'__open_nocancel'
p1154
S'0e00e98ce520e530e210e5001ae500e1000ae06800ef017000a08a9de5200251e1001ad0e81effe100e500ea60e220eb30e310'
p1155
L160L
tp1156
a(S'__openat_nocancel'
p1157
S'0c2de984e520e530e2c0709fe5c00d70e500ef017000a08a9de5200251e1001a'
p1158
L152L
tp1159
a(S'__openat64_nocancel'
p1160
S'0c2de988e520e530e2c0749fe5c00e000a28e500ef017000a08a9de5200251e1001a'
p1161
L156L
tp1162
a(S'__read_nocancel'
p1163
S'8003e300ef017000a08a00e80060e220'
p1164
L48L
tp1165
a(S'__write_nocancel'
p1166
S'8004a0ef017000a08a00e80060e220'
p1167
L48L
tp1168
a(S'getrlimit'
p1169
S'80bf00ef017000a08a00e80060e220'
p1170
L48L
tp1171
a(S'sbrk'
p1172
S'702de550a0e500000a93e5000f1a000b001400053033001530e330e398'
p1173
L184L
tp1174
a(S'ioctl'
p1175
S'042de300ef049de40a1eff31'
p1176
L28L
tp1177
a(S'getpagesize'
p1178
S'209fe500e3ff11402de520e500'
p1179
L40L
tp1180
a(S'getdtablesize'
p1181
S'10e9104de2300700e5'
p1182
L72L
tp1183
a(S'select'
p1184
S'b09fe5412de500001a409de570e300ef017000e1008aa0e801e150a0e1060004a0e120e580'
p1185
L144L
tp1186
a(S'mmap'
p1187
S'b02de5ca2ca0e3001a409de570e300ef01700a0003a0e81610e730e398'
p1188
L108L
tp1189
a(S'mmap64'
p1190
S'b02de5e0e54aa0e34aa0e34094e1001aa0e1409de570e300ef01700a0003a0e81610e730e398'
p1191
L124L
tp1192
a(S'munmap'
p1193
S'042de300ef049de40a1eff'
p1194
L28L
tp1195
a(S'mprotect'
p1196
S'042de300ef049de40a1eff'
p1197
L28L
tp1198
a(S'madvise'
p1199
S'042de300ef049de40a1eff'
p1200
L28L
tp1201
a(S'trecurse'
p1202
S'0490e5402de340a0e160a01a30e3000aa0e110e100140004a0e110e10009000620e130e340bde130e340bde120e1'
p1203
L168L
tp1204
a(S'tdestroy_recurse'
p1205
S'702de100e100e3001a0008000094e5ffe100e8'
p1206
L84L
tp1207
a(S'maybe_split_for_insert.isra.0'
p1208
g17
L408L
tp1209
a(S'tsearch'
p1210
g17
L336L
tp1211
a(S'tfind'
p1212
S'0051e3402de160a01a00ea2fe1100050e3000a840540d4f4'
p1213
L80L
tp1214
a(S'tdelete'
p1215
S'5c352de2d000e230e230e5000a5096e550d5280002a0e130e370e3a0000096e5000550c230a501c3b360850053e3408414000093e500e13018000457e151a01a870721e220e3d00aa0e120e5f1'
p1216
L1380L
tp1217
a(S'twalk'
p1218
S'0050e3001eff0120'
p1219
L20L
tp1220
a(S'tdestroy'
p1221
S'0050e3ff'
p1222
L12L
tp1223
a(S'next_line'
p1224
S'f84f2de54093e570e180a0e120e110e176eb00080001e240870096e5004a003a000a'
p1225
L404L
tp1226
a(S'sysinfo_mempages'
p1227
S'702de150a0eb00015483a09aa0e300fa'
p1228
L84L
tp1229
a(S'get_nprocs'
p1230
S'ac32e9244de200e530e5'
p1231
L692L
tp1232
a(S'get_nprocs_conf'
p1233
g17
L216L
tp1234
a(S'get_phys_pages'
p1235
S'10e948d00094e500e500eb20e5000400389de500e240bd'
p1236
L68L
tp1237
a(S'get_avphys_pages'
p1238
S'10e948d00094e500e500eb20e5000400389de500e240bd'
p1239
L68L
tp1240
a(S'__getclktck'
p1241
S'0c9fe500e300'
p1242
L20L
tp1243
a(S'__init_misc'
p1244
S'702de2800055e3802f10eb30e3508050832070'
p1245
L64L
tp1246
a(S'mremap'
p1247
S'9000e570e300ef9000e3ff'
p1248
L32L
tp1249
a(S'prctl'
p1250
S'9000e570e300ef9000e3ff'
p1251
L32L
tp1252
a(S'sysinfo'
p1253
S'042de300ef049de40a1eff31'
p1254
L28L
tp1255
a(S'accept'
p1256
S'a0412de50006001a00ef017000e1008aa0e801e140a0eb70e510e130e100ef017000e1008a00eb'
p1257
L128L
tp1258
a(S'bind'
p1259
S'042de500ef049de40a1eff31'
p1260
L28L
tp1261
a(S'connect'
p1262
S'a0412de50006001a00ef017000e1008aa0e801e140a0eb70e510e130e100ef017000e1008a00eb'
p1263
L128L
tp1264
a(S'getsockname'
p1265
S'042de500ef049de40a1eff3100'
p1266
L28L
tp1267
a(S'getsockopt'
p1268
S'9000e570e500ef9000e3ff3109'
p1269
L32L
tp1270
a(S'listen'
p1271
S'042de300ef049de40a1eff3108'
p1272
L28L
tp1273
a(S'recv'
p1274
S'a89fe5412de500001a00ef017000e1008aa0e801e150a0e100eb10e130e100e500ef017000e1008a00eb'
p1275
L136L
tp1276
a(S'recvfrom'
p1277
S'b8412de500001a409de5509de57fe300ef017000e1008aa0e801e150a0e100eb20e110e5509de580497fe300ef017000e1008a00eb'
p1278
L152L
tp1279
a(S'send'
p1280
S'a89fe5412de500001a00ef017000e1008aa0e801e150a0e100eb10e130e100e500ef017000e1008a00eb'
p1281
L136L
tp1282
a(S'sendto'
p1283
S'b8412de500001a409de5509de570e500ef017000e1008aa0e801e150a0e100eb20e110e5509de5805470e500ef017000e1008a00eb'
p1284
L152L
tp1285
a(S'setsockopt'
p1286
S'9000e570e500ef9000e3ff3108'
p1287
L32L
tp1288
a(S'socket'
p1289
S'042de500ef049de40a1eff3100'
p1290
L28L
tp1291
a(S'__libc_alloca_cutoff'
p1292
S'042de192'
p1293
L12L
tp1294
a(S'__lll_lock_wait_private'
p1295
g17
L140L
tp1296
a(S'__libc_enable_asynccancel'
p1297
g17
L188L
tp1298
a(S'__libc_disable_asynccancel'
p1299
S'02101eff11412deb6e40e254100046e270e310e140a0e5000500e3e0e1'
p1300
L188L
tp1301
a(S'__register_atfork'
p1302
g17
L400L
tp1303
a(S'__unregister_atfork'
p1304
g17
L380L
tp1305
a(S'__run_fork_handlers'
p1306
g17
L368L
tp1307
a(S'clock_gettime'
p1308
S'0150e3402de5009a7000a08a00e8017000a09a60e220eb30e310ea60e220'
p1309
L100L
tp1310
a(S'__stack_chk_fail_local'
p1311
S'10e900a0'
p1312
L16L
tp1313
a(S'__fortify_fail_abort'
p1314
S'80488048609fe550a0e100eaa0eb0001a001'
p1315
L84L
tp1316
a(S'__fortify_fail'
p1317
S'00a0e9e3'
p1318
L16L
tp1319
a(S'inet_aton'
p1320
g17
L48L
tp1321
a(S'inet_addr'
p1322
S'10e9084de23004'
p1323
L28L
tp1324
a(S'_dl_debug_initialize'
p1325
S'0051e331155c301093e5000c000050e3000a20e520e010e720e500e1ffe120e32005'
p1326
L112L
tp1327
a(S'do_tunable_update_val'
p1328
S'0890e500000a0000e160c141c0000a00000a0001a0330002560130920053e3301130151effe1000510b3000730e030a201a0113015050001a0330002560130920053e3'
p1329
L216L
tp1330
a(S'tunable_initialize'
p1331
S'0890e5402de320e240a0e1200501a0e395000d00e110e1'
p1332
L76L
tp1333
a(S'__tunable_set_val'
p1334
S'089fe50180e0'
p1335
L16L
tp1336
a(S'__tunables_init'
p1337
S'5c352de5d00053e3b0e1011a004f000a409be500000a00e5608b3d800058e3010aa0e2800053e300fa'
p1338
L1380L
tp1339
a(S'__tunable_get_val'
p1340
S'80e1c00043e0e1e0e0e5000ef19f970300bc9103bc90030043e0e1e0e0e5e0e53083e1100052e3101200308300122fe1e0e0e1e042cee140c1'
p1341
L140L
tp1342
a(S'_dl_aux_init'
p1343
S'0090e523e300019fe54f2de5d030'
p1344
L948L
tp1345
a(S'_dl_non_dynamic_init'
p1346
g17
L2044L
tp1347
a(S'__libc_init_secure'
p1348
S'4830e5001eff11402deb40a0eb00000a30e58000e16e000054e000'
p1349
L80L
tp1350
a(S'_dl_mcount_wrapper'
p1351
S'042de100e49200'
p1352
L20L
tp1353
a(S'_dl_mcount_wrapper_check'
p1354
S'1c9fe5e0e530e3'
p1355
L36L
tp1356
a(S'_dl_discover_osversion'
p1357
S'30e94000eb00c202001a40a0e130e530ff030952e3008ac00181ff02095ee3008ac0038330e2e0e200f8'
p1358
L264L
tp1359
a(S'__libc_init_first'
p1360
g17
L148L
tp1361
a(S'__syscall_error'
p1362
S'0060e210e10ae3e0e1'
p1363
L48L
tp1364
a(S'__gconv_open'
p1365
g17
L1116L
tp1366
a(S'__gconv'
p1367
g17
L476L
tp1368
a(S'__gconv_alias_compare'
p1369
S'0091e500'
p1370
L12L
tp1371
a(S'derivation_compare'
p1372
S'702de150a0e510eb0070bde5001c'
p1373
L48L
tp1374
a(S'__gconv_get_modules_db'
p1375
S'049fe500'
p1376
L12L
tp1377
a(S'__gconv_get_alias_db'
p1378
S'049fe500'
p1379
L12L
tp1380
a(S'__gconv_release_step'
p1381
S'702de100e3000a300053e3305420e55092e500055025e1fd'
p1382
L132L
tp1383
a(S'find_derivation'
p1384
g17
L2540L
tp1385
a(S'__gconv_compare_alias'
p1386
g17
L252L
tp1387
a(S'__gconv_find_transform'
p1388
g17
L904L
tp1389
a(S'__gconv_close_transform'
p1390
g17
L248L
tp1391
a(S'insert_module'
p1392
g17
L232L
tp1393
a(S'detect_conflict'
p1394
S'4830e90054e3000a50a0ea94a50054e3000a10b5'
p1395
L80L
tp1396
a(S'add_module.isra.0'
p1397
g17
L900L
tp1398
a(S'add_alias2.isra.1.part.2'
p1399
g17
L108L
tp1400
a(S'__gconv_get_path'
p1401
S'684f2de2d00093e530e523e340a0e5000500e3e0e1'
p1402
L880L
tp1403
a(S'__gconv_read_conf'
p1404
S'4424e54f2debb0e234e5d00092e520e530e130e519eb00f60a34e530e3000a20e500f79fe520080b0493e510e530e3d00d00e5dceb20e5dceb13e19f'
p1405
L1100L
tp1406
a(S'__gconv_get_builtin_trans'
p1407
g17
L160L
tp1408
a(S'__gconv_btwoc_ascii'
p1409
S'80e30013ff'
p1410
L16L
tp1411
a(S'__gconv_transform_internal_ucs4'
p1412
g17
L1124L
tp1413
a(S'__gconv_transform_ucs4_internal'
p1414
g17
L1440L
tp1415
a(S'__gconv_transform_internal_ucs4le'
p1416
g17
L1096L
tp1417
a(S'__gconv_transform_ucs4le_internal'
p1418
g17
L1452L
tp1419
a(S'__gconv_transform_ascii_internal'
p1420
g17
L736L
tp1421
a(S'__gconv_transform_internal_ascii'
p1422
g17
L1900L
tp1423
a(S'__gconv_transform_internal_utf8'
p1424
g17
L2820L
tp1425
a(S'__gconv_transform_utf8_internal'
p1426
g17
L3196L
tp1427
a(S'__gconv_transform_ucs2_internal'
p1428
g17
L1740L
tp1429
a(S'__gconv_transform_internal_ucs2'
p1430
g17
L2496L
tp1431
a(S'__gconv_transform_ucs2reverse_internal'
p1432
g17
L1776L
tp1433
a(S'__gconv_transform_internal_ucs2reverse'
p1434
g17
L2560L
tp1435
a(S'__gconv_transliterate'
p1436
g17
L1092L
tp1437
a(S'find_module_idx'
p1438
g17
L232L
tp1439
a(S'find_module'
p1440
g17
L244L
tp1441
a(S'__gconv_get_cache'
p1442
S'049fe500'
p1443
L12L
tp1444
a(S'__gconv_load_cache'
p1445
g17
L464L
tp1446
a(S'__gconv_compare_alias_cache'
p1447
S'9c30e994409fe5d00094e500300a50a0e260a0e1'
p1448
L164L
tp1449
a(S'__gconv_lookup_cache'
p1450
g17
L1136L
tp1451
a(S'__gconv_release_cache'
p1452
S'0c9fe530e3ff01b7'
p1453
L20L
tp1454
a(S'known_compare'
p1455
S'0091e500'
p1456
L12L
tp1457
a(S'do_release_shlib'
p1458
S'702de240a0e340a0e38000e520e5000c0002830070bde200048570bde50070bdeb408570bde300da30048280aa20e500'
p1459
L144L
tp1460
a(S'__gconv_find_shlib'
p1461
g17
L400L
tp1462
a(S'__gconv_release_shlib'
p1463
S'0c9fe510e500'
p1464
L20L
tp1465
a(S'_nl_postload_ctype'
p1466
S'68402d'
p1467
L12L
tp1468
a(S'__current_locale_name'
p1469
S'1c9fe5e0e520e1'
p1470
L20L
tp1471
a(S'__ctype_b_loc'
p1472
S'109fe5e0e5'
p1473
L12L
tp1474
a(S'__ctype_toupper_loc'
p1475
S'149fe5e0e5'
p1476
L12L
tp1477
a(S'__ctype_tolower_loc'
p1478
S'149fe5e0e5'
p1479
L12L
tp1480
a(S'__ctype_init'
p1481
S'4030e5'
p1482
L12L
tp1483
a(S'__setfpucw'
p1484
S'389fe530e520e230012aee209fe50ae300e330e000e1ff012aee1eff'
p1485
L64L
tp1486
a(S'__sigsetjmp'
p1487
S'6cc0c0009ce5c00223048c02e0304430e530e720e3000a8b05a1ecec02ecec02ecec02ecec02ecec0300'
p1488
L116L
tp1489
a(S'__sigjmp_save'
p1490
S'0051e3402de1001a1110a0e12f844d79eb1f6fe112'
p1491
L56L
tp1492
a(S'_quicksort'
p1493
S'ecc39fe54f2de5df0051e300e5519de5000a70e10000a0e221e040a0e120e5009a'
p1494
L1012L
tp1495
a(S'__add_to_environ'
p1496
g17
L1092L
tp1497
a(S'setenv'
p1498
S'0050e2402d0a30e5000b0001e110e140a0eb2004000630e100e8149fe520e763'
p1499
L88L
tp1500
a(S'unsetenv'
p1501
g17
L344L
tp1502
a(S'clearenv'
p1503
g17
L252L
tp1504
a(S'secure_getenv'
p1505
S'149fe530e3001a'
p1506
L28L
tp1507
a(S'read_int'
p1508
S'0090e5402de5509fe541e03041e220e530e5300953e3008a00f7'
p1509
L104L
tp1510
a(S'group_number'
p1511
S'f84f2de570e100ff00fd0001e1909de5009abde1b0e0a0a0eb10e1808de000018a06202ae0e2000152e20001e2001a00e6ff0144e00014000245e200e0c0c002e1200285005ce3'
p1512
L260L
tp1513
a(S'_i18n_number_rewrite'
p1514
g17
L596L
tp1515
a(S'_IO_helper_overflow'
p1516
S'd0c0402de0d000e150a00a10e530e0300c53e1009aa0e1ffe130037300e1008a000610eb3014841894e500e1208550c385009abde587eb20e2'
p1517
L204L
tp1518
a(S'printf_positional'
p1519
g17
L8116L
tp1520
a(S'vfprintf'
p1521
g17
L8532L
tp1522
a(S'buffered_vfprintf'
p1523
g17
L616L
tp1524
a(S'hack_digit'
p1525
S'0090e5402de3d002000490e5004a000a30e1001090e55090e5000a002700ca90e510e510e100e160001094e5200243e001e56091e500108439000c94e5310395e760860051e3311a10030004330141e20009000051e310f7ff01a0e13070bde330e100eb0004001094e5201084038200e2800aa0e210e16195e763eb608604850600e2800053e330088060a0da00e280d4'
p1526
L376L
tp1527
a(S'_i18n_number_rewrite_0'
p1528
g17
L596L
tp1529
a(S'__guess_grouping.part.0'
p1530
S'10e900d10530e54084ff53e3000a00050003a0e0'
p1531
L88L
tp1532
a(S'__printf_fp_l'
p1533
g17
L8624L
tp1534
a(S'__printf_fp'
p1535
S'30e900e1409fe747'
p1536
L20L
tp1537
a(S'__guess_grouping'
p1538
S'00d10143e230e200000000a0'
p1539
L32L
tp1540
a(S'__printf_fphex'
p1541
S'0d4f2de331e2b0e130e21f9fe530e510e530e110e5001a46'
p1542
L5280L
tp1543
a(S'register_printf_modifier'
p1544
S'0090e5412de20000910200ff54e3008ab50054e3'
p1545
L436L
tp1546
a(S'__handle_registered_modifier_mb'
p1547
g17
L228L
tp1548
a(S'__handle_registered_modifier_wc'
p1549
g17
L232L
tp1550
a(S'fprintf'
p1551
S'0e00e90c4de230e1c030e5e6'
p1552
L44L
tp1553
a(S'read_int_0'
p1554
S'0090e5c030e902e00492e54082100951e3008a001a000600ca8330e00003810892e54082300953e3008ab23043e2000530e3'
p1555
L168L
tp1556
a(S'group_number_0'
p1557
g17
L188L
tp1558
a(S'_i18n_number_rewrite_1'
p1559
g17
L324L
tp1560
a(S'_IO_helper_overflow_0'
p1561
S'5c30e90c93e5d00455e160a0e1000ae520e530e0300153e1109aa0e520e130037300a08ae541a0e520048020eb30e54042e0408320e120070085009abde100e241bdea'
p1562
L236L
tp1563
a(S'printf_positional_0'
p1564
g17
L8492L
tp1565
a(S'vfwprintf'
p1566
g17
L8816L
tp1567
a(S'buffered_vfprintf_0'
p1568
g17
L640L
tp1569
a(S'funlockfile'
p1570
g17
L128L
tp1571
a(S'read_int_1'
p1572
S'0090e5402de5509fe541e03041e220e530e5300953e3008a00f7'
p1573
L104L
tp1574
a(S'__parse_one_specmb'
p1575
g17
L2080L
tp1576
a(S'read_int_2'
p1577
S'0090e5c030e902e00492e54082100951e3008a001a000600ca8330e00003810892e54082300953e3008ab23043e2000530e3'
p1578
L168L
tp1579
a(S'__parse_one_specwc'
p1580
g17
L2096L
tp1581
a(S'_IO_file_doallocate'
p1582
g17
L324L
tp1583
a(S'fputs'
p1584
g17
L388L
tp1585
a(S'_IO_wfile_doallocate'
p1586
S'1c90e5402de350a00a10e500e32003'
p1587
L108L
tp1588
a(S'fwrite'
p1589
S'f84f2de0000a4093e550a0e270e18017001a93e528eb30e2000e000a10e130e1001aa0e3e0e1'
p1590
L488L
tp1591
a(S'getdelim'
p1592
S'0051e300'
p1593
L740L
tp1594
a(S'_IO_getline_info'
p1595
g17
L372L
tp1596
a(S'_IO_getline'
p1597
S'042de2e0e5c004'
p1598
L36L
tp1599
a(S'_IO_padn'
p1600
g17
L288L
tp1601
a(S'_IO_wpadn'
p1602
g17
L284L
tp1603
a(S'save_for_wbackup.isra.0'
p1604
S'0091e54f2de1b0e530e5a0a0e000014ae011e251a011200ae0e520e140a0e3'
p1605
L468L
tp1606
a(S'_IO_least_wmarker'
p1607
S'5c20e500e30040010120e50002a0e3'
p1608
L56L
tp1609
a(S'_IO_switch_to_main_wget_area'
p1610
S'0090e530e3e0e5c00893e520e5e0e5c0088320'
p1611
L60L
tp1612
a(S'_IO_switch_to_wbackup_area'
p1613
S'0090e530e3e0e510e5c02093e5e0e510e520e5'
p1614
L60L
tp1615
a(S'_IO_wsetb'
p1616
g17
L92L
tp1617
a(S'_IO_wdefault_pbackfail'
p1618
g17
L360L
tp1619
a(S'_IO_wdefault_finish'
p1620
S'5c10e91891e50002003c94e5501311003094e500040000a0e530e3'
p1621
L128L
tp1622
a(S'_IO_wdefault_uflow'
p1623
S'702de55090e530e0300153e140a09aa0e1005c2004831015bf'
p1624
L84L
tp1625
a(S'__woverflow'
p1626
S'6c30e900e160a00a9fe55094e530e0300153e1009aa0e140bde110eb'
p1627
L92L
tp1628
a(S'_IO_wdefault_xsputn'
p1629
g17
L216L
tp1630
a(S'_IO_wdoallocbuf'
p1631
S'5c10e5001eff1130e900e1001a30e1001094e500e230e240bd'
p1632
L84L
tp1633
a(S'_IO_wdefault_doallocate'
p1634
S'10e902a0eb100500e329eb00e8'
p1635
L56L
tp1636
a(S'_IO_switch_to_wget_mode'
p1637
S'5c30e90c93e540a0e1009ae00c93e5ffe1001094e520e50ce3001a93e500e10035008320e500e5800883'
p1638
L132L
tp1639
a(S'_IO_free_wbackup_area'
p1640
S'0090e530e3402de1000a10e3202893e500e500e5c0fb73eb30208320e5'
p1641
L100L
tp1642
a(S'__wuflow'
p1643
S'6c30e300ba00e1000a3027001ae520e50028000094e50ce3000a00e52ce3200893e5c00883209528000052e3000a93e510e6'
p1644
L336L
tp1645
a(S'__wunderflow'
p1646
S'6c30e300ba00e1000a3027001ae520e50028000094e50ce3000a00e52ce3200893e5c0008300e5008a202520e2000050e3001a5094e530e0300153e1009aa0e804a0eb00d3ff00e070bde580f501eb00f7ff6c30'
p1647
L320L
tp1648
a(S'_IO_wdefault_xsgetn'
p1649
g17
L204L
tp1650
a(S'_IO_sputbackwc'
p1651
S'5c30e900e100e20004000150e120008320e530e0300053e1009aa0e100009415008430'
p1652
L132L
tp1653
a(S'_IO_sungetwc'
p1654
S'5c30e90893e540a0e1009a42e210e3300084309fe55090e530e0300153e1009ae004a0e1'
p1655
L116L
tp1656
a(S'_IO_adjust_wcolumn'
p1657
S'042de0000900041ee5300a5ce3001a00ea5ce3000a00fa'
p1658
L88L
tp1659
a(S'_IO_init_wmarker'
p1660
S'0091e5402de340a0e1101ae50ce330150243e031e520e5508470bde1'
p1661
L92L
tp1662
a(S'_IO_wmarker_delta'
p1663
S'0490e5000a000093e520e330150890e5304331e0ffe100e3ff'
p1664
L64L
tp1665
a(S'_IO_seekwmark'
p1666
S'0491e5002500e500042de230ba0893e5000ae0e51ce310e520e5c0288320e000e3'
p1667
L172L
tp1668
a(S'_IO_unsave_wmarkers'
p1669
S'3090e50000a0150053e3ff01'
p1670
L32L
tp1671
a(S'do_encoding'
p1672
S'2490e520e3001a00e50000a0e100e3ff'
p1673
L44L
tp1674
a(S'do_always_noconv'
p1675
S'00a0'
p1676
L8L
tp1677
a(S'do_max_length'
p1678
S'2490e500'
p1679
L12L
tp1680
a(S'do_in'
p1681
g17
L248L
tp1682
a(S'do_unshift'
p1683
g17
L216L
tp1684
a(S'do_out'
p1685
g17
L248L
tp1686
a(S'do_length'
p1687
g17
L192L
tp1688
a(S'_IO_fwide'
p1689
g17
L388L
tp1690
a(S'__libc_scratch_buffer_grow_preserve'
p1691
g17
L156L
tp1692
a(S'__libc_scratch_buffer_set_array_size'
p1693
S'702de120e1c00051e3c001a0e10112000495e50001a02a00e1000a70eb00eb3001a018300503a0e8d8'
p1694
L196L
tp1695
a(S'__libc_dynarray_at_failure'
p1696
S'2c9fe5e0e5d000'
p1697
L44L
tp1698
a(S'__libc_dynarray_emplace_enlarge'
p1699
S'0490e5412de3001a0012009642850055e3001aa0e100e10001e1000a10eb80000a30e9'
p1700
L228L
tp1701
a(S'strerror_r'
p1702
g17
L372L
tp1703
a(S'strnlen'
p1704
S'0051e3000a102300e3000a30e5000180001a00ea8300000a00e3201a003000c8c802a0e4c0000a53e500000ac000000ac000000ac000000a0003a08a0010a0e120e1000260802fe10002a0ea51e110ea51e110ea51e110ea'
p1705
L292L
tp1706
a(S'strrchr'
p1707
S'702de20000e160a01a00eaa0e110eb00f8'
p1708
L80L
tp1709
a(S'strtok_r'
p1710
g17
L116L
tp1711
a(S'memchr'
p1712
S'0052e3000a00e3402de2000a30e50070bde200ea0000d00183008003a01a00e80352e344040e4084048416009a9fe530e010e530e100e1001a8000ea8c04230610e100e1001a42e2000ca08a00e0ff00d00e0070bde030ea830070bde1001a'
p1713
L268L
tp1714
a(S'wcslen'
p1715
S'0090e5001e000a90e5001d30e3000a30e300ea820000a00a93e500e3ff0110e2001eff0193e530e3101a00e100e100e100e100'
p1716
L160L
tp1717
a(S'wmemcpy'
p1718
S'02a0'
p1719
L8L
tp1720
a(S'wmemmove'
p1721
S'02a0'
p1722
L8L
tp1723
a(S'wmemset'
p1724
S'0352e3009aa0e20010e510e510e510e5308a42e231e230e33201000083ff0100048310e10000a001'
p1725
L120L
tp1726
a(S'btowc'
p1727
g17
L404L
tp1728
a(S'wcrtomb'
p1729
S'bc00'
p1730
L88L
tp1731
a(S'wcsrtombs'
p1732
S'90c2'
p1733
L664L
tp1734
a(S'wcsnlen'
p1735
S'0051e3000a30e3000a0022000490e50023000251e3000a30e300ea2f0193e500ff0151e20001c01eff01000382ff0193e520e3ff01001083000ac0005ce3'
p1736
L192L
tp1737
a(S'wcschrnul'
p1738
S'0090e500035111ff01b00053e300fb'
p1739
L36L
tp1740
a(S'rewinddir'
p1741
g17
L212L
tp1742
a(S'readdir64'
p1743
S'6031e9048050a0e11ceb10e740a0e5000500e3e0e1'
p1744
L360L
tp1745
a(S'fdopendir'
p1746
S'30e9744de230e140a0e100e57eeb001800'
p1747
L216L
tp1748
a(S'uname'
p1749
S'042de300ef049de40a1eff3191'
p1750
L28L
tp1751
a(S'getuid'
p1752
S'042de300ef049de4ff'
p1753
L20L
tp1754
a(S'geteuid'
p1755
S'042de300ef049de4ff'
p1756
L20L
tp1757
a(S'getgid'
p1758
S'042de300ef049de4ff'
p1759
L20L
tp1760
a(S'getegid'
p1761
S'042de300ef049de4ff'
p1762
L20L
tp1763
a(S'__lxstat64'
p1764
S'8001a0e310ef017000a08a00e80060e220'
p1765
L56L
tp1766
a(S'__fxstatat64'
p1767
S'0350e3402d1a00e510e130ef01700e009a60e220e31ceb30e1801620e71ceb10e320ea'
p1768
L112L
tp1769
a(S'lseek'
p1770
g17
L184L
tp1771
a(S'isatty'
p1772
S'10e940d00094e510e500eb20e5000300106fe102e280'
p1773
L64L
tp1774
a(S'__open64_nocancel'
p1775
S'0e00e990409fe520e530e210e5001a9fe500e1000a28e370e500ef017000a08a9de5200251e1001ad0e81effe100e500ea60e220eb30e310'
p1776
L164L
tp1777
a(S'tcgetattr'
p1778
S'b02de5d00095e530e510e170e300ef017000e1008a001400089de520e520e0c0348310e520e500e520e510e3c00c'
p1779
L204L
tp1780
a(S'brk'
p1781
S'90402de170e300ef017006008a9fe5000082308a00e8389fe520e240e0401beb408100a0eaa0e71b'
p1782
L108L
tp1783
a(S'wctrans'
p1784
S'789fe5412de760a0eb30e54097e530e500120000e300ea85018030e7000a0004a0e170eb0004a01ae550850500e8'
p1785
L128L
tp1786
a(S'towctrans'
p1787
S'0051e3ff0130e533e1ff2121e3ff01c030e031e70010911502810380ff'
p1788
L92L
tp1789
a(S'__readonly_area'
p1790
g17
L476L
tp1791
a(S'is_dst'
p1792
S'702de100e170eb30e50000e1000a20e100eb00020000e300e820c2301953e3'
p1793
L168L
tp1794
a(S'is_trusted_path_normalize'
p1795
S'0051e3000a10e34b2de2d00d30e500eaa0e3000a0001d00180'
p1796
L368L
tp1797
a(S'add_name_to_object.isra.4'
p1798
g17
L188L
tp1799
a(S'lose.isra.6'
p1800
S'80017100e170e18010e5000a00eb00000a700000b5'
p1801
L120L
tp1802
a(S'_dl_map_object_from_fd.constprop.13'
p1803
g17
L3436L
tp1804
a(S'check_arm_attributes_hfabi.constprop.15'
p1805
g17
L768L
tp1806
a(S'open_verify.isra.9.constprop.14'
p1807
g17
L1560L
tp1808
a(S'open_path.isra.10'
p1809
g17
L1308L
tp1810
a(S'add_path.isra.3.constprop.16'
p1811
S'01711eff01412de550a0e170e300ea93e500e310328310e50081e500109ce5'
p1812
L196L
tp1813
a(S'_dl_dst_count'
p1814
g17
L144L
tp1815
a(S'_dl_dst_substitute'
p1816
g17
L360L
tp1817
a(S'expand_dynamic_string_token'
p1818
g17
L200L
tp1819
a(S'fillin_rpath'
p1820
g17
L700L
tp1821
a(S'cache_rpath.part.12'
p1822
S'088221e3000ac13490e5c0509ee500d00790850490e5001a20e700040000e000a0e5d0e809a0e150a0eb70e2000a30e50048000a20e30001e500e3'
p1823
L476L
tp1824
a(S'_dl_init_paths'
p1825
g17
L624L
tp1826
a(S'_dl_map_object'
p1827
g17
L2148L
tp1828
a(S'_dl_rtld_di_serinfo'
p1829
g17
L436L
tp1830
a(S'check_match'
p1831
g17
L416L
tp1832
a(S'do_lookup_x'
p1833
g17
L2752L
tp1834
a(S'_dl_lookup_symbol_x'
p1835
g17
L2892L
tp1836
a(S'_dl_setup_hash'
p1837
S'5031e3000a93e5402de521e54091e5c000140010810442e0c10c91e511e531e5800053e3ff0193e520e521e531e130e310e507'
p1838
L152L
tp1839
a(S'_dl_add_to_namespace_list'
p1840
S'b49fe5402de350a0e1000a00e130e000e120e3001a00ea92e500fb'
p1841
L188L
tp1842
a(S'_dl_new_object'
p1843
g17
L600L
tp1844
a(S'relocate_pc24.13574.isra.0'
p1845
g17
L296L
tp1846
a(S'_dl_try_allocate_static_tls'
p1847
S'4432e3000a90e530e10020008c9fe5c200e56061e23030e0509fe530e012e0c0015ce1003a90e532e531e510e2000a9fe530e100e803a0e331e5801effe100e3'
p1848
L184L
tp1849
a(S'_dl_allocate_static_tls'
p1850
S'4432e900e1000a'
p1851
L52L
tp1852
a(S'_dl_nothread_init_static_tls'
p1853
S'4432e93494e512'
p1854
L24L
tp1855
a(S'_dl_protect_relro'
p1856
S'6830e512e530e020020102030153e1ff01402de040a0e300eb00109fe5'
p1857
L88L
tp1858
a(S'_dl_reloc_bad_type'
p1859
S'5030e5d001e150a0e000eb20e130e2400403d204d200a0e110e5c002c000'
p1860
L88L
tp1861
a(S'_dl_relocate_object'
p1862
g17
L7392L
tp1863
a(S'_dl_important_hwcaps'
p1864
g17
L2128L
tp1865
a(S'_dl_debug_vdprintf'
p1866
g17
L976L
tp1867
a(S'_dl_sysdep_read_whole_file'
p1868
S'702de1d002a0e1deeb5050e240e0020070'
p1869
L144L
tp1870
a(S'_dl_debug_printf'
p1871
S'0fe5e0e5d014'
p1872
L60L
tp1873
a(S'_dl_debug_printf_c'
p1874
S'0fe5e0e5d014'
p1875
L60L
tp1876
a(S'_dl_dprintf'
p1877
S'0e00e5d010'
p1878
L52L
tp1879
a(S'_dl_name_match_p'
p1880
S'702de110e14f'
p1881
L92L
tp1882
a(S'_dl_higher_prime_number'
p1883
S'7c9fe5c04111e010e711e1009a92e731e1003a10e031e000c3301a00e1c00c52e1'
p1884
L132L
tp1885
a(S'_dl_strtoul'
p1886
g17
L484L
tp1887
a(S'_dl_start_profile'
p1888
S'249fe54f2de2df0093e53f8020e131e0005b012a15e000e520e220e350e210e24044e2e0e3c0208300120020130152e3'
p1889
L1580L
tp1890
a(S'_dl_mcount'
p1891
g17
L944L
tp1892
a(S'allocate_dtv'
p1893
S'309fe5402de550a0e300e248'
p1894
L56L
tp1895
a(S'oom'
p1896
S'02a0e99bfc'
p1897
L24L
tp1898
a(S'_dl_next_tls_modid'
p1899
S'702de510e54091e500020001840081a89fe500e2001a0000a0e560840092e5300e000b0083e030e3000a00e1'
p1900
L208L
tp1901
a(S'_dl_count_modids'
p1902
S'709fe530e500020030e5ffe130e5e0e50000a00a10e33012210052e300e1'
p1903
L120L
tp1904
a(S'_dl_get_tls_static_info'
p1905
S'149fe530e520e530'
p1906
L28L
tp1907
a(S'_dl_allocate_tls_storage'
p1908
S'849fe530e900e500e200eb5050e2000a0d8010e0ed'
p1909
L140L
tp1910
a(S'_dl_allocate_tls_init'
p1911
g17
L572L
tp1912
a(S'_dl_allocate_tls'
p1913
S'0050e3402d0a40bdeabd'
p1914
L36L
tp1915
a(S'_dl_deallocate_tls'
p1916
g17
L100L
tp1917
a(S'_dl_tls_get_addr_soft'
p1918
S'4832e3000a2deb10e510e5000501e300e400e110e5000e002a9fe500e1c004000490e5100090e500'
p1919
L148L
tp1920
a(S'_dl_add_to_slotinfo'
p1921
S'c49fe5412de15290e54093e500ea45e0000a0002e130f7ff00e5608685e070e56084'
p1922
L204L
tp1923
a(S'_dl_get_origin'
p1924
g17
L404L
tp1925
a(S'_dl_scope_free'
p1926
S'702de1f4'
p1927
L204L
tp1928
a(S'_dl_make_stack_executable'
p1929
S'5430e900e130e52002000093e55c'
p1930
L80L
tp1931
a(S'_dl_runtime_resolve'
p1932
S'1f00e51010018100a0e8'
p1933
L36L
tp1934
a(S'_dl_runtime_profile'
p1935
g17
L192L
tp1936
a(S'length_mismatch'
p1937
S'02a0e9f4f9'
p1938
L24L
tp1939
a(S'_dl_exception_create'
p1940
g17
L128L
tp1941
a(S'_dl_exception_create_format'
p1942
S'0c2de9084de260a0e5000a00eb8000e530e3300a00ea000aa0e340e5908903ff7354e3908902e5'
p1943
L480L
tp1944
a(S'_dl_exception_free'
p1945
S'10e90890e543'
p1946
L36L
tp1947
a(S'_dl_cache_libcmp'
p1948
S'10e900d1005ee3000a30ff030952e32040020b00280028000180e0e510e3c0ef'
p1949
L240L
tp1950
a(S'_dl_load_cache_lookup'
p1951
S'209fe54f2de2d00093e540a0e3011a9fe580310001784d010a95e906300a4be220e380'
p1952
L1576L
tp1953
a(S'_dl_unload_cache'
p1954
S'10e90094e53003731094e559'
p1955
L44L
tp1956
a(S'_dl_tlsdesc_return'
p1957
S'0090e5ff'
p1958
L8L
tp1959
a(S'_dl_tlsdesc_undefweak'
p1960
S'0e10e3e0e1'
p1961
L28L
tp1962
a(S'do_dlopen'
p1963
S'4010e530e9104de220e530e110e530e300'
p1964
L60L
tp1965
a(S'dlerror_run'
p1966
S'30e91c4de230e510e300e210e2c0'
p1967
L52L
tp1968
a(S'__libc_dlclose'
p1969
S'00a0e5'
p1970
L12L
tp1971
a(S'__libc_dlsym'
p1972
S'10e9184de200e510e530'
p1973
L36L
tp1974
a(S'__libc_dlvsym'
p1975
S'30e900d22c4de2c00053e300e510e5000a10e5001b0000e310e530e5'
p1976
L284L
tp1977
a(S'do_dlsym_private'
p1978
S'702de1509fe5d00c92e4c00095e500e5e0e5c0c001'
p1979
L128L
tp1980
a(S'do_dlsym'
p1981
S'00a0e4402de3d000e100e53f8104'
p1982
L72L
tp1983
a(S'do_dlvsym'
p1984
S'00a0e4402de2d000e100e53f810c'
p1985
L72L
tp1986
a(S'__libc_dlsym_private'
p1987
S'10e9184de200e510e530'
p1988
L36L
tp1989
a(S'__libc_register_dl_open_hook'
p1990
S'10e900e1'
p1991
L16L
tp1992
a(S'__libc_dlopen_mode'
p1993
S'10e9184de200e510e5e0e530'
p1994
L40L
tp1995
a(S'fatal_error'
p1996
S'9cc001e11000e5e0e50080849fe540a0e350a0010042de6c609fe5c00003'
p1997
L164L
tp1998
a(S'_dl_signal_exception'
p1999
S'4030e900e1'
p2000
L20L
tp2001
a(S'_dl_signal_error'
p2002
S'10e900e1409fe7'
p2003
L20L
tp2004
a(S'_dl_catch_exception'
p2005
S'ccc0c81b4de2e0e1c0c118'
p2006
L52L
tp2007
a(S'_dl_catch_error'
p2008
g17
L48L
tp2009
a(S'__longjmp'
p2010
S'00a0e4409fe520e04094e720049ce4402403a0e1bc4c20e520e730e3000a8b05a1fcec02fcec02fcec02fcec02fcec01b001a0'
p2011
L128L
tp2012
a(S'__mpn_cmp'
p2013
S'0152e2004a0391e7e0e5e1e700072102a000100a00ea310c5ee1001a30f9'
p2014
L104L
tp2015
a(S'__mpn_divrem'
p2016
g17
L1744L
tp2017
a(S'__mpn_lshift'
p2018
S'0142e2402de750630252e260800500e1e2e1e1408104343ca0e10020e570e1'
p2019
L100L
tp2020
a(S'__mpn_rshift'
p2021
S'0052e300'
p2022
L132L
tp2023
a(S'__mpn_mul'
p2024
g17
L860L
tp2025
a(S'__mpn_mul_1'
p2026
S'02'
p2027
L60L
tp2028
a(S'__mpn_impn_mul_n_basecase'
p2029
g17
L260L
tp2030
a(S'__mpn_impn_mul_n'
p2031
S'0113'
p2032
L972L
tp2033
a(S'__mpn_impn_sqr_n_basecase'
p2034
S'0091e5472de38002e1008a000a0002c1c28320daa3e1'
p2035
L256L
tp2036
a(S'__mpn_impn_sqr_n'
p2037
S'0112'
p2038
L808L
tp2039
a(S'__mpn_mul_n'
p2040
S'10e9084de2000094e5c003a00a000b000dc1d0e2c0101b0094e5000f1ad010'
p2041
L152L
tp2042
a(S'__mpn_sub_n'
p2043
g17
L128L
tp2044
a(S'__mpn_submul_1'
p2045
S'00e470e540a0ea95e040ace25057e070e540840480538c0152e2'
p2046
L92L
tp2047
a(S'__mpn_extract_double'
p2048
S'30e9d0e5c001e05fa0e214e316c100c083e0e5c001810480000f1a0000'
p2049
L224L
tp2050
a(S'_itoa_word'
p2051
S'c0e500'
p2052
L200L
tp2053
a(S'_itoa'
p2054
g17
L1264L
tp2055
a(S'_fitoa_word'
p2056
S'702de5d014'
p2057
L112L
tp2058
a(S'_fitoa'
p2059
S'702de5d040e0e540'
p2060
L120L
tp2061
a(S'_itowa'
p2062
g17
L1224L
tp2063
a(S'snprintf'
p2064
S'0c2de9084de2c00ca0e520e500'
p2065
L44L
tp2066
a(S'_IO_strn_overflow'
p2067
S'1c90e5412de20000e170e1000a90e5608030e510e119eb608410e550840484148418e500'
p2068
L88L
tp2069
a(S'vsnprintf'
p2070
g17
L140L
tp2071
a(S'init'
p2072
S'389fe500080010e92c9fe500e3301220e8048320'
p2073
L64L
tp2074
a(S'__dlerror'
p2075
g17
L496L
tp2076
a(S'check_free.isra.0'
p2077
S'702de50070bde110e13beb0070bde1'
p2078
L60L
tp2079
a(S'_dlerror_run'
p2080
S'4431e90c4de260a0e570e1000a9fe500e14095e500000a00040008d40053e3001a30e530e5200c84d5'
p2081
L332L
tp2082
a(S'__libc_register_dlfcn_hook'
p2083
S'10e9b1'
p2084
L12L
tp2085
a(S'__dladdr'
p2086
S'00a0e10a'
p2087
L12L
tp2088
a(S'__dladdr1'
p2089
S'0153e3000a0000a00a20ea'
p2090
L36L
tp2091
a(S'dlinfo_doit'
p2092
S'10e90990e90953e3f19f972700ea06000600340006000600060006000600340090e50003a00a301094e520e58000a0e80c94e520e8ac11e540bdeaa0e522e58002a0e130'
p2093
L208L
tp2094
a(S'__dlinfo'
p2095
S'10e9184de200e5c000e520e5'
p2096
L48L
tp2097
a(S'dlmopen_doit'
p2098
S'0090e5402de3d014006020e5c00092e500e5c010e51000'
p2099
L124L
tp2100
a(S'__dlmopen'
p2101
S'10e9184de200e1c000e530e5'
p2102
L44L
tp2103
a(S'strerror'
p2104
S'00a0e900e1'
p2105
L104L
tp2106
a(S'strspn'
p2107
g17
L364L
tp2108
a(S'strsep'
p2109
S'702de500000a50a0e139eb30e72001'
p2110
L68L
tp2111
a(S'__getdents64'
p2112
S'80d9e300ef017000a08a00e80060e220'
p2113
L48L
tp2114
a(S'__xstat64'
p2115
S'8001a0e310ef017000a08a00e80060e220'
p2116
L56L
tp2117
a(S'profil_counter'
p2118
S'4410e500e9a330e020e138e11031203100'
p2119
L76L
tp2120
a(S'profil'
p2121
g17
L360L
tp2122
a(S'__profile_frequency'
p2123
S'049fe500'
p2124
L12L
tp2125
a(S'_dl_fixup'
p2126
S'7c90e5432de100e520e530e7c004e1201600008330e0100d003a00e80009000492e500e101a222e50000a0eb60a0e50001a01a00e330e500e5c004a0e520eb34e5000000149de50003a00a11e10001a0e5200320e530e2002f000a30e50000851c'
p2127
L532L
tp2128
a(S'_dl_profile_fixup'
p2129
g17
L600L
tp2130
a(S'add_to_global'
p2131
g17
L608L
tp2132
a(S'_dl_find_dso_for_object'
p2133
S'9830e90053e3000a50a0e500000a000a0005009a130a000500eb00054094e500'
p2134
L160L
tp2135
a(S'_dl_open'
p2136
g17
L420L
tp2137
a(S'_dl_show_scope'
p2138
S'f84f2de5b0e120e590a0e3001a30e530e50002a0e120e5e6eb31e3000a31e100000aa09fe570e5609fe510e1e6eb31e720e3000a40a0e500e710e50003000098e510e310eb31e230e500ed'
p2139
L284L
tp2140
a(S'dl_open_worker'
p2141
g17
L1600L
tp2142
a(S'remove_slotinfo'
p2143
S'702de120e00040a03a91e500190005'
p2144
L284L
tp2145
a(S'_dl_close_worker'
p2146
g17
L3452L
tp2147
a(S'_dl_close'
p2148
S'849fe5402de340a00ae500e510e2001a53e3000aa0eb30e38010e8389fe500f9'
p2149
L140L
tp2150
a(S'_dl_sort_maps'
p2151
S'0151e3ff91'
p2152
L644L
tp2153
a(S'_dl_unmap'
p2154
S'b090e511e110'
p2155
L20L
tp2156
a(S'_dl_addr'
p2157
S'309fe54f2de3d000e170e160a0e5000a03e100eb000001000490e521e530e500af000a20e5b0e510e5000491e520e110e5000ae5002d4190e5929fe5110444e210ea0004b40052e3'
p2158
L824L
tp2159
a(S'_dl_addr_inside_object'
p2160
S'0090e52f8010b0d20153e2003a402dea005421e722e3'
p2161
L104L
tp2162
a(S'__mpn_add_n'
p2163
g17
L128L
tp2164
a(S'__mpn_addmul_1'
p2165
S'00e45090e540a0ea94e05090e540ace270e4c00152e2'
p2166
L76L
tp2167
a(S'dlopen_doit'
p2168
S'0490e5402de331e300104de2001a40a0e520e500e5c0005020e3c00281be0010a0e500eb20e130e1'
p2169
L144L
tp2170
a(S'__dlopen'
p2171
S'10e9184de200e510e520e5'
p2172
L40L
tp2173
a(S'__dlclose'
p2174
S'00a0e979'
p2175
L16L
tp2176
a(S'dlsym_doit'
p2177
S'10e90700eb00'
p2178
L24L
tp2179
a(S'__dlsym'
p2180
S'30e96c409fe5d00094e50000e5000ae500e200'
p2181
L56L
tp2182
a(S'dlvsym_doit'
p2183
S'10e90feb00'
p2184
L24L
tp2185
a(S'__dlvsym'
p2186
S'30e9709fe5d000'
p2187
L60L
tp2188
a(S'setitimer'
p2189
S'042de300ef049de40a1eff'
p2190
L28L
tp2191
a(S'_dl_build_local_scope'
p2192
S'702de110f85191e530e330e331e5000a95e560a0e350850c009831e500e3000ab50051e3'
p2193
L120L
tp2194
a(S'openaux'
p2195
S'10e90090e5d09821e530031204'
p2196
L68L
tp2197
a(S'_dl_map_object_deps'
p2198
S'82e04f2de1b0e2de0c4de2c0c09801e5d00d00e300e2e0e3006c34e501e514e948020a41e2418104b10c03040308039801e50000e300e201e5'
p2199
L3220L
tp2200
a(S'call_init.part.0'
p2201
S'98c1'
p2202
L288L
tp2203
a(S'_dl_init'
p2204
g17
L272L
tp2205
a(S'_dl_check_map_versions'
p2206
S'3490e50053010a4f2de220e520e50002a0e510e1200a20e510e000008d0a001895e520e521e09fe54192e730e36083001a000c94e500000aa0e1'
p2207
L1680L
tp2208
a(S'_dl_check_all_versions'
p2209
g17
L108L
tp2210
a(S'call_dl_lookup'
p2211
S'10e900e1d00894e500e331e520e50004'
p2212
L72L
tp2213
a(S'do_sym'
p2214
g17
L636L
tp2215
a(S'_dl_vsym'
p2216
S'702de5c0204de25094e5e0e30020e5e0e5000ae0e5000c0000a0e1e0e530e5e0e5'
p2217
L216L
tp2218
a(S'_dl_sym'
p2219
S'042de3d000'
p2220
L32L
tp2221
a(S'__gtdf2'
p2222
S'00e00200'
p2223
L8L
tp2224
a(S'__ltdf2'
p2225
S'01a0'
p2226
L8L
tp2227
a(S'__nedf2'
p2228
S'01a0e5c083e1ca0e000a'
p2229
L136L
tp2230
a(S'__aeabi_cdrcmple'
p2231
S'00a0e120e110e1'
p2232
L28L
tp2233
a(S'__aeabi_cdcmple'
p2234
S'01e90050e300'
p2235
L20L
tp2236
a(S'__aeabi_dcmpeq'
p2237
S'082deb0013'
p2238
L20L
tp2239
a(S'__aeabi_dcmplt'
p2240
S'082deb0023'
p2241
L20L
tp2242
a(S'__aeabi_dcmple'
p2243
S'082deb00839d'
p2244
L20L
tp2245
a(S'__aeabi_dcmpge'
p2246
S'082deb00839d'
p2247
L20L
tp2248
a(S'__aeabi_dcmpgt'
p2249
S'082deb0023'
p2250
L20L
tp2251
a(S'__unorddf2'
p2252
S'81'
p2253
L56L
tp2254
a(S'__aeabi_uldivmod'
p2255
S'0053e30004000051e30000e000e011'
p2256
L60L
tp2257
a(S'__udivmoddi4'
p2258
S'0351e100'
p2259
L300L
tp2260
a(S'read_uleb128'
p2261
S'00a0e130e400e330e2c207201ac0'
p2262
L40L
tp2263
a(S'read_sleb128'
p2264
S'00a0e1e0e520e4e0e200e3c38c07301a00020000e0128c0081'
p2265
L64L
tp2266
a(S'base_of_encoded_value'
p2267
S'ff50e3000a002053e3000a009a00500007000a000b0001a0ea001053e3001a00e100ea'
p2268
L104L
tp2269
a(S'read_encoded_value_with_base'
p2270
S'500027000a402de110e2d000e10001'
p2271
L340L
tp2272
a(S'read_encoded_value'
p2273
S'702de110e150a0e1'
p2274
L52L
tp2275
a(S'parse_lsda_header'
p2276
S'702de2d001e150a001000ace'
p2277
L168L
tp2278
a(S'_Unwind_SetGR_0'
p2279
S'042de230e520e520e1ca14'
p2280
L44L
tp2281
a(S'_Unwind_GetGR.constprop.0_0'
p2282
S'042de230e220e120eb00e2'
p2283
L44L
tp2284
a(S'__gcc_personality_v0'
p2285
S'03000150e3472de1d002e1000a00eb0008a013d0e80510eb00eb10ef'
p2286
L368L
tp2287
a(S'_fini'
p2288
S'08e9'
p2289
L8L
tp2290
a.