(lp0
(S'_init'
p1
S'9de350'
p2
L72L
tp3
a(S'abort'
p4
S'9de33059e0c2f710'
p5
L524L
tp6
a(S'fini'
p7
S'030a'
p8
L20L
tp9
a(S'main'
p10
S'9de300000090101d0090101d007e052092101d9010010090101400201a009205201104901a9005'
p11
L2532L
tp12
a(S'_start'
p13
S'bc23af940301001904901220137810012a0000000000'
p14
L60L
tp15
a(S'__sparc_get_pc_thunk.l7'
p16
S'81'
p17
L8L
tp18
a(S'deregister_tm_clones'
p19
S'9de350030a000012000201000010832010800b00001083201002040000000000'
p20
L108L
tp21
a(S'register_tm_clones'
p22
S'9de350030a000012000201000028'
p23
L124L
tp24
a(S'__do_global_dtors_aux'
p25
S'9de350'
p26
L288L
tp27
a(S'call___do_global_dtors_aux'
p28
S'9de3508100'
p29
L12L
tp30
a(S'frame_dummy'
p31
S'9de3500300051083201002'
p32
L92L
tp33
a(S'call_frame_dummy'
p34
S'9de3508100'
p35
L12L
tp36
a(S'_Z15attack_app_httphP13attack_targethP13attack_option'
p37
S'0300189de30110000a90101a001200'
p38
L9140L
tp39
a(S'_ZL10add_attackhPFvhP13attack_targethP13attack_optionE'
p40
S'9de350921010739010010032f60500'
p41
L116L
tp42
a(S'_Z11attack_initv'
p43
S'9de350'
p44
L228L
tp45
a(S'_Z15attack_kill_allv'
p46
S'9de350'
p47
L108L
tp48
a(S'_Z12attack_startihhP13attack_targethP13attack_option'
p49
S'9de3500000a0f5f5ae052084ff908000000000008a000000a200'
p50
L264L
tp51
a(S'_Z12attack_parsePci'
p52
S'9de350808fa000f8'
p53
L604L
tp54
a(S'_Z18attack_get_opt_strhP13attack_optionhPc'
p55
S'020000000a80105a0002ff2801'
p56
L88L
tp57
a(S'_Z18attack_get_opt_inthP13attack_optionhi'
p58
S'02000100c20800d00002ff2801'
p59
L108L
tp60
a(S'_Z17attack_get_opt_iphP13attack_optionhj'
p61
S'02000100c20800d00002ff2801'
p62
L108L
tp63
a(S'_Z13attack_gre_iphP13attack_targethP13attack_option'
p64
S'9de3000092100877df1002ff90101a101b1003'
p65
L1440L
tp66
a(S'_Z14attack_gre_ethhP13attack_targethP13attack_option'
p67
S'9de3'
p68
L1636L
tp69
a(S'_Z14attack_tcp_synhP13attack_targethP13attack_option'
p70
S'9de3'
p71
L1572L
tp72
a(S'_Z14attack_tcp_ackhP13attack_targethP13attack_option'
p73
S'9de3e01018002cffae052000ee77e7101b1002'
p74
L1660L
tp75
a(S'_Z16attack_tcp_stomphP13attack_targethP13attack_option'
p76
S'9de3d0002aeeaaae052000ee77b71008009010181000007ff99190101a'
p77
L1784L
tp78
a(S'_ZL16get_dns_resolverv'
p79
S'9de33015'
p80
L496L
tp81
a(S'_Z18attack_udp_generichP13attack_targethP13attack_option'
p82
S'9de310009210081000007ff7101a1003101da61008f7101a109410041008f7101a1000007ff73010'
p83
L1172L
tp84
a(S'_Z14attack_udp_vsehP13attack_targethP13attack_option'
p85
S'9de330009210081000007ff690101a101b1003ff33100810941004ff2daa10081000f690101a'
p86
L960L
tp87
a(S'_Z14attack_udp_dnshP13attack_targethP13attack_option'
p88
S'9de300009210081000007ff590101a101b'
p89
L1240L
tp90
a(S'_Z16attack_udp_plainhP13attack_targethP13attack_option'
p91
S'9de32000921008100890101810'
p92
L676L
tp93
a(S'_Z16checksum_genericPtj'
p94
S'80'
p95
L132L
tp96
a(S'_Z15checksum_tcpudpP5iphdrPvti'
p97
S'da20a2209602fee0981004010102'
p98
L220L
tp99
a(S'_ZL10mem_existsPciS_i.part.0'
p100
S'93328420920209'
p101
L100L
tp102
a(S'_Z11killer_killv'
p103
S'9de350'
p104
L40L
tp105
a(S'_Z19killer_kill_by_portt'
p106
S'0300'
p107
L1592L
tp108
a(S'_Z11killer_initv'
p109
S'0300'
p110
L2164L
tp111
a(S'_ZL14anti_gdb_entryi'
p112
S'9de350'
p113
L52L
tp114
a(S'_ZL19teardown_connectionv'
p115
S'9de350'
p116
L68L
tp117
a(S'_ZL16resolve_cnc_addrv'
p118
S'9de3500090100300901003020100'
p119
L176L
tp120
a(S'_ZL22ensure_single_instancev'
p121
S'9de33000'
p122
L444L
tp123
a(S'_Z9rand_initv'
p124
S'9de3500090100000'
p125
L124L
tp126
a(S'_Z9rand_nextv'
p127
S'9de350'
p128
L132L
tp129
a(S'_Z8rand_strPci'
p130
S'9de35080'
p131
L348L
tp132
a(S'_Z13rand_alphastrPhi'
p133
S'9de320'
p134
L420L
tp135
a(S'_ZL16resolv_skip_namePhS_Pi'
p136
S''
p137
L276L
tp138
a(S'_Z25resolv_domain_to_hostnamePcS_'
p139
S'9de35000d3'
p140
L144L
tp141
a(S'_Z19resolv_entries_freeP14resolv_entries'
p142
S'9de35002000100d008c2010000010010b0e8e00100'
p143
L48L
tp144
a(S'_Z13resolv_lookupPc'
p145
S'9de3002000901001'
p146
L1052L
tp147
a(S'_ZL18consume_any_promptP18scanner_connection'
p148
S'c61c00ff00830008847f80fb8420831838'
p149
L180L
tp150
a(S'_ZL5deobfPcPi'
p151
S'9de350006f901018005ad11008'
p152
L120L
tp153
a(S'_ZL14add_auth_entryPcS_t'
p154
S'9de3a0ffd6ae0500ba05003a'
p155
L248L
tp156
a(S'_ZL16setup_connectionP18scanner_connection'
p157
S'9de3c0c0d020'
p158
L212L
tp159
a(S'_Z15recv_strip_nulliPvii'
p160
S'9de35096101b00001800'
p161
L96L
tp162
a(S'_Z12scanner_initv'
p163
S'9de3000000001cff'
p164
L6164L
tp165
a(S'_Z12scanner_killv'
p166
S'9de350'
p167
L40L
tp168
a(S'_ZL10toggle_obfh'
p169
S'9de350'
p170
L184L
tp171
a(S'_ZL9add_entryhPci'
p172
S'9de3500090101a101a0192101900'
p173
L76L
tp174
a(S'_Z10table_initv'
p175
S'9de350'
p176
L1220L
tp177
a(S'_Z16table_unlock_valh'
p178
g137
L12L
tp179
a(S'_Z14table_lock_valh'
p180
g137
L12L
tp181
a(S'_Z18table_retrieve_valiPi'
p182
S'9de350'
p183
L84L
tp184
a(S'_Z11util_strlenPc'
p185
g137
L60L
tp186
a(S'_Z12util_strncmpPcS_i'
p187
g137
L212L
tp188
a(S'_Z11util_strcmpPcS_'
p189
g137
L204L
tp190
a(S'_Z11util_strcpyPcS_'
p191
g137
L100L
tp192
a(S'_Z11util_memcpyPvS_i'
p193
S'0280020068a0012a016f'
p194
L52L
tp195
a(S'_Z9util_zeroPvi'
p196
S'020930'
p197
L44L
tp198
a(S'_Z9util_atoiPci'
p199
S'9de350c200a0002088'
p200
L396L
tp201
a(S'_Z9util_itoaiiPc'
p202
S'0280bf'
p203
L320L
tp204
a(S'_Z14util_memsearchPciS_i'
p205
S'80'
p206
L108L
tp207
a(S'_Z12util_stristrPciS_'
p208
g137
L224L
tp209
a(S'_Z15util_local_addrv'
p210
S'9de3300078'
p211
L128L
tp212
a(S'_Z11util_fdgetsPcii'
p213
S'9de350ba100010016de6101a00a72081'
p214
L88L
tp215
a(S'__libc_start_main'
p216
S'9de330777f7787778f1005c200'
p217
L1388L
tp218
a(S'check_one_fd'
p219
S'9de3c07092100100000000000a10'
p220
L204L
tp221
a(S'__libc_check_standard_fds'
p222
S'9de3509010000201ff93321300b2007fffb02010c3'
p223
L48L
tp224
a(S'__libc_setup_tls'
p225
S'9de350030a0a58'
p226
L448L
tp227
a(S'__libc_csu_init'
p228
S'9de3503b0a'
p229
L156L
tp230
a(S'__libc_csu_fini'
p231
S'9de3503b0a030aba10'
p232
L76L
tp233
a(S'__errno_location'
p234
S'1100'
p235
L28L
tp236
a(S'__assert_fail_base'
p237
S'9de31059e0c2f71002041000cf90100100'
p238
L360L
tp239
a(S'__assert_fail'
p240
S'9de35094100511'
p241
L52L
tp242
a(S'dcgettext'
p243
g137
L28L
tp244
a(S'plural_eval'
p245
S'9de350c2000004008024a020d008ff9210197a0128b000'
p246
L328L
tp247
a(S'transcmp'
p248
S'9de350c220c0'
p249
L132L
tp250
a(S'plural_lookup.isra.2'
p251
S'9de350921019ff5e2080'
p252
L100L
tp253
a(S'_nl_find_msg'
p254
S'9de32059e0c2f777cf80767797f85e20020020c2'
p255
L2776L
tp256
a(S'__dcigettext'
p257
S'9de3b059e0c2f7778fc6779f80'
p258
L1884L
tp259
a(S'_nl_find_domain'
p260
S'9de3'
p261
L708L
tp262
a(S'_nl_load_domain'
p263
S'9de33059e0c2f710'
p264
L5796L
tp265
a(S'alias_compare'
p266
S'155a0000'
p267
L28L
tp268
a(S'read_alias_file'
p269
S'9de390'
p270
L1108L
tp271
a(S'_nl_expand_alias'
p272
S'9de350'
p273
L544L
tp274
a(S'_nl_make_l10nflist'
p275
S'9de310e7101c1018a8c2efa28e04000090101da20000d0afa820a20000d0b70201'
p276
L1228L
tp277
a(S'_nl_normalize_codeset'
p278
S'9de35002b800'
p279
L312L
tp280
a(S'_nl_explode_name'
p281
S'9de350c0c0c0c0'
p282
L596L
tp283
a(S'__gettext_free_exp'
p284
S'9de35002000000'
p285
L92L
tp286
a(S'new_exp'
p287
S'9de350'
p288
L228L
tp289
a(S'__gettextparse'
p290
S'9de3c22877f7'
p291
L2232L
tp292
a(S'__gettext_extract_plural'
p293
S'9de33059e0c2f7101800ff000800901018208501908000030509a020051884a00159c01004880a687f8570'
p294
L344L
tp295
a(S'__hash_string'
p296
S'0b00680083040001088518'
p297
L80L
tp298
a(S'_setjmp'
p299
S'1020'
p300
L8L
tp301
a(S'setjmp'
p302
S'10'
p303
L8L
tp304
a(S'__sigsetjmp'
p305
S'd222'
p306
L20L
tp307
a(S'__bsd_signal.part.0'
p308
S'9de31059e0c2f777'
p309
L168L
tp310
a(S'ssignal'
p311
g137
L100L
tp312
a(S'raise'
p313
S'9de3c22877f7'
p314
L312L
tp315
a(S'__rt_sigreturn_stub'
p316
g137
L16L
tp317
a(S'__libc_sigaction'
p318
S'9de31059e0c2f7c610005e0077'
p319
L276L
tp320
a(S'sigaction'
p321
S'84'
p322
L76L
tp323
a(S'sigprocmask'
p324
S'9de350901018101a1091d06d1a0410001001c00000cfe00100b000847f9010ff00'
p325
L96L
tp326
a(S'kill'
p327
g137
L36L
tp328
a(S'sigemptyset'
p329
S'9de350020094108053901018a0200300'
p330
L76L
tp331
a(S'sigaddset'
p332
S'867f80007a01908000800a0088208590037200c3e090'
p333
L116L
tp334
a(S'msort_with_tmp.part.0'
p335
S'9de377f710195e00b28000a6a01c1010ff901018'
p336
L824L
tp337
a(S'qsort_r'
p338
S'9de32059e0c2f770'
p339
L732L
tp340
a(S'qsort'
p341
S'9810006fff00'
p342
L16L
tp343
a(S'getenv'
p344
S'9de350030a58'
p345
L336L
tp346
a(S'__run_exit_handlers'
p347
S'9de350'
p348
L676L
tp349
a(S'exit'
p350
S'9de35090101800961001ff120100'
p351
L32L
tp352
a(S'__new_exitfn'
p353
S'9de350030a08800100fa5e00028a2090101d02c000ff020258a003c00210b0'
p354
L320L
tp355
a(S'__internal_atexit'
p356
S'9de3503b0a1001e700007fff0200c23072107218720872007f8010a0200090101c6f'
p357
L200L
tp358
a(S'__cxa_atexit'
p359
g137
L20L
tp360
a(S'__strtoll_internal'
p361
S'0300847f030a10'
p362
L36L
tp363
a(S'strtoq'
p364
S'03009610000a10'
p365
L40L
tp366
a(S'__strtoull_internal'
p367
S'0300847f030a10'
p368
L36L
tp369
a(S'strtouq'
p370
S'03009610000a10'
p371
L40L
tp372
a(S'____strtoll_l_internal'
p373
S'9de3a21000a0a001000300847f030a10'
p374
L1592L
tp375
a(S'strtoll_l'
p376
S'98100b13006f'
p377
L20L
tp378
a(S'____strtoull_l_internal'
p379
S'9de3ba1000c6a0a0a001000300847f030a10'
p380
L1412L
tp381
a(S'strtoull_l'
p382
S'98100b13006f'
p383
L20L
tp384
a(S'__correctly_grouped_prefixmb'
p385
S'9de35002c00000e0101a'
p386
L656L
tp387
a(S'asprintf'
p388
S'9de3'
p389
L104L
tp390
a(S'locked_vfxprintf'
p391
S'9de33077e759e0c2f7a000001c10190201a70018'
p392
L376L
tp393
a(S'__fxprintf'
p394
S'9de3fa77a7f477'
p395
L312L
tp396
a(S'__fxprintf_nocancel'
p397
S'9de3fa77a7f477'
p398
L328L
tp399
a(S'fclose'
p400
S'9de350c2008812781018883253b1'
p401
L644L
tp402
a(S'fflush'
p403
S'9de3500200ba'
p404
L304L
tp405
a(S'__fopen_maybe_mmap'
p406
S'c274880210000002006800c2c0000500'
p407
L96L
tp408
a(S'__fopen_internal'
p409
S'9de350901028'
p410
L232L
tp411
a(S'fopen64'
p412
S'9410016fff0100'
p413
L16L
tp414
a(S'adjust_wide_data'
p415
S'9de33059e0c2f75f'
p416
L260L
tp417
a(S'_IO_wfile_underflow'
p418
S'9de32059e0c2f78812'
p419
L1744L
tp420
a(S'_IO_wfile_seekoff'
p421
S'9de380e0c2f7c6c2a0'
p422
L2144L
tp423
a(S'_IO_wfile_underflow_maybe_mmap'
p424
S'9de3500085a2'
p425
L56L
tp426
a(S'_IO_wfile_underflow_mmap'
p427
S'9de33059e0c2f7881254'
p428
L412L
tp429
a(S'_IO_wdo_write'
p430
S'9de31059e0c2f75e20da285e20025bfa5e20'
p431
L472L
tp432
a(S'_IO_wfile_overflow'
p433
S'9de350'
p434
L780L
tp435
a(S'_IO_wfile_sync'
p436
S'9de3c2a080105800'
p437
L420L
tp438
a(S'_IO_wfile_xsputn'
p439
S'9de350b8c6f6a0'
p440
L416L
tp441
a(S'vasprintf'
p442
S'9de350c22877f71002000098100010ff0020008e778f00'
p443
L348L
tp444
a(S'backtrace_and_maps.constprop.0'
p445
S'8100'
p446
L8L
tp447
a(S'__libc_message'
p448
S'9de3f477'
p449
L776L
tp450
a(S'__libc_fatal'
p451
S'9de3503b'
p452
L36L
tp453
a(S'_IO_vtable_check'
p454
S'9de3500305'
p455
L40L
tp456
a(S'fgets_unlocked'
p457
S'9de350b8a6'
p458
L180L
tp459
a(S'_IO_file_seekoff_maybe_mmap'
p460
S'9de350fa5e2003'
p461
L100L
tp462
a(S'_IO_file_close'
p463
S'd07013006800'
p464
L16L
tp465
a(S'_IO_new_file_setbuf'
p466
S'9de350901018101a0d19c2b000c23877307728772077187708771000'
p467
L72L
tp468
a(S'_IO_file_setbuf_mmap'
p469
S'9de350'
p470
L132L
tp471
a(S'new_do_write'
p472
S'9de350ba00'
p473
L352L
tp474
a(S'_IO_new_file_underflow'
p475
S'9de350c200'
p476
L740L
tp477
a(S'_IO_file_close_mmap'
p478
S'9de350c2385e2010019222c0c0206800'
p479
L44L
tp480
a(S'mmap_remap_check'
p481
S'9de3a0'
p482
L568L
tp483
a(S'_IO_file_seek'
p484
S'd07013006800'
p485
L16L
tp486
a(S'_IO_file_sync_mmap'
p487
S'9de350c2085e20'
p488
L116L
tp489
a(S'decide_maybe_mmap'
p490
S'9de3b059e0c2f700051084a001'
p491
L468L
tp492
a(S'_IO_file_underflow_maybe_mmap'
p493
S'9de3507ffffa5e2003'
p494
L88L
tp495
a(S'_IO_file_xsgetn_maybe_mmap'
p496
S'9de3507fff00fa5e2003'
p497
L96L
tp498
a(S'_IO_new_file_seekoff'
p499
S'9de3a0'
p500
L1520L
tp501
a(S'_IO_file_stat'
p502
S'9410092010036800'
p503
L24L
tp504
a(S'_IO_new_file_write'
p505
S'9de35004801000'
p506
L136L
tp507
a(S'_IO_file_xsgetn_mmap'
p508
S'9de350f85e20fa5e20baa71a6800c200'
p509
L288L
tp510
a(S'_IO_file_xsgetn'
p511
S'9de3c238c01018c6d2085f'
p512
L540L
tp513
a(S'_IO_file_seekoff_mmap'
p514
S'9de35002c010180080235e20c600f85f'
p515
L320L
tp516
a(S'_IO_file_underflow_mmap'
p517
S'9de350c2085e2080'
p518
L176L
tp519
a(S'_IO_file_read'
p520
S'c2740270881205'
p521
L44L
tp522
a(S'_IO_new_file_xsputn'
p523
S'9de350b8c6'
p524
L452L
tp525
a(S'_IO_new_file_init_internal'
p526
S'9de350c20010021018769000c20020cfe00100'
p527
L52L
tp528
a(S'_IO_new_file_init'
p529
S'9de350c20010021018769000c20020cfe00100'
p530
L52L
tp531
a(S'_IO_file_open'
p532
S'9de350c274101800803900ecb020b60080240004'
p533
L284L
tp534
a(S'_IO_new_file_attach'
p535
S'9de350c270a0'
p536
L208L
tp537
a(S'_IO_new_do_write'
p538
S'9de3500a80a02094101a'
p539
L64L
tp540
a(S'_IO_new_file_close_it'
p541
S'9de350fa'
p542
L416L
tp543
a(S'_IO_new_file_fopen'
p544
S'9de32059e0c2f7a000c2000180130000847fb020030a10'
p545
L1312L
tp546
a(S'_IO_new_file_finish'
p547
S'9de350c270a000c2c0009010185e20'
p548
L184L
tp549
a(S'_IO_new_file_overflow'
p550
S'9de350c200'
p551
L548L
tp552
a(S'_IO_new_file_sync'
p553
S'9de3'
p554
L304L
tp555
a(S'save_for_backup'
p556
S'9de350e220c2'
p557
L368L
tp558
a(S'flush_cleanup'
p559
S'9de350030a58'
p560
L216L
tp561
a(S'_IO_un_link.part.2'
p562
S'9de32059e0c2f7'
p563
L656L
tp564
a(S'_IO_un_link'
p565
S'c2006800'
p566
L36L
tp567
a(S'_IO_link_in'
p568
S'9de32059e0c2f78812683900b8c70000941000fb9e7a'
p569
L568L
tp570
a(S'_IO_least_marker'
p571
g137
L44L
tp572
a(S'_IO_switch_to_main_get_area'
p573
g137
L52L
tp574
a(S'_IO_switch_to_backup_area'
p575
g137
L52L
tp576
a(S'_IO_switch_to_get_mode'
p577
S'9de350c2285e208015fa5e2003'
p578
L192L
tp579
a(S'_IO_free_backup_area'
p580
S'9de350c20068205e20'
p581
L80L
tp582
a(S'__overflow'
p583
S'9de350c2c000'
p584
L108L
tp585
a(S'__underflow'
p586
S'9de350c2c00080ff20c200'
p587
L340L
tp588
a(S'__uflow'
p589
S'9de350c2c00080ff20c200'
p590
L356L
tp591
a(S'_IO_setb'
p592
S'9de350d038c2c200'
p593
L104L
tp594
a(S'_IO_doallocbuf'
p595
S'9de350c238c0'
p596
L208L
tp597
a(S'_IO_default_underflow'
p598
S'81'
p599
L8L
tp600
a(S'_IO_default_uflow'
p601
S'9de350fa5e2003'
p602
L108L
tp603
a(S'_IO_default_xsputn'
p604
S'9de350b60002801000003000b02014e0101a5ee0fa5ee0800aa7008021c7b8c71a5ee0'
p605
L256L
tp606
a(S'_IO_sgetn'
p607
S'9de350fa5e2003'
p608
L88L
tp609
a(S'_IO_default_xsgetn'
p610
S'9de350b85e20fa5e20800d801ca7'
p611
L188L
tp612
a(S'_IO_default_setbuf'
p613
S'9de350f85e2003'
p614
L280L
tp615
a(S'_IO_default_seekpos'
p616
S'9de350fa5e2003'
p617
L92L
tp618
a(S'_IO_default_doallocate'
p619
S'9de350006a0008c2ba00085e20b8c2c200'
p620
L100L
tp621
a(S'_IO_enable_locks'
p622
S'030a00800d'
p623
L72L
tp624
a(S'_IO_old_init'
p625
S'03eb9212030a00d20080387283c0c274720872107220722872307268c0c0c0c080200100c0c08100'
p626
L120L
tp627
a(S'_IO_init_internal'
p628
S'9de350921019ff90101876a820'
p629
L44L
tp630
a(S'_IO_init'
p631
g137
L12L
tp632
a(S'_IO_no_init'
p633
S'9de350921019ff90101800f420f6a0c0c0c0c0c0c0c0c0c0f8763076a8cfe00100'
p634
L112L
tp635
a(S'_IO_default_sync'
p636
S'8120'
p637
L8L
tp638
a(S'_IO_default_finish'
p639
S'9de350d038c2c2'
p640
L136L
tp641
a(S'_IO_default_seekoff'
p642
S'81'
p643
L8L
tp644
a(S'_IO_sputbackc'
p645
S'9de350c2085e2080095e20'
p646
L164L
tp647
a(S'_IO_sungetc'
p648
S'9de350c2085e20800a5e20847f'
p649
L144L
tp650
a(S'_IO_adjust_column'
p651
S'860a'
p652
L88L
tp653
a(S'_IO_flush_all_lockp'
p654
S'9de32059e0c2f71400'
p655
L700L
tp656
a(S'_IO_cleanup'
p657
S'9de32059e0c2f7'
p658
L828L
tp659
a(S'_IO_flush_all'
p660
S'9010016ffe'
p661
L16L
tp662
a(S'_flushlbf'
p663
S'9de32059e0c2f7'
p664
L660L
tp665
a(S'_IO_init_marker'
p666
S'9de3507608'
p667
L116L
tp668
a(S'_IO_remove_marker'
p669
S'c20858'
p670
L80L
tp671
a(S'_IO_marker_difference'
p672
S'd020c210c3e0913a'
p673
L20L
tp674
a(S'_IO_marker_delta'
p675
S'c208c010ff00800858'
p676
L64L
tp677
a(S'_IO_seekmark'
p678
S'c208'
p679
L176L
tp680
a(S'_IO_unsave_markers'
p681
S'c2'
p682
L44L
tp683
a(S'_IO_default_pbackfail'
p684
S'9de350fa5e20f618'
p685
L364L
tp686
a(S'_IO_default_seek'
p687
S'81'
p688
L8L
tp689
a(S'_IO_default_stat'
p690
S'81'
p691
L8L
tp692
a(S'_IO_default_read'
p693
S'81'
p694
L8L
tp695
a(S'_IO_default_write'
p696
S'8120'
p697
L8L
tp698
a(S'_IO_default_showmanyc'
p699
S'81'
p700
L8L
tp701
a(S'_IO_default_imbue'
p702
S'8100'
p703
L8L
tp704
a(S'_IO_iter_begin'
p705
S'030ac3e0d0'
p706
L12L
tp707
a(S'_IO_iter_end'
p708
S'8120'
p709
L8L
tp710
a(S'_IO_iter_next'
p711
S'81'
p712
L8L
tp713
a(S'_IO_iter_file'
p714
S'8100'
p715
L8L
tp716
a(S'_IO_list_lock'
p717
S'9de350b800c220'
p718
L88L
tp719
a(S'_IO_list_unlock'
p720
S'9de3500500ff200000901020781800921081201a041000100100'
p721
L92L
tp722
a(S'_IO_list_resetlock'
p723
S'030a701870'
p724
L16L
tp725
a(S'_IO_str_underflow'
p726
S'c2285a208005c2105a00842085b086c0a000c208'
p727
L108L
tp728
a(S'_IO_str_overflow'
p729
S'9de350'
p730
L388L
tp731
a(S'enlarge_userbuf'
p732
S'9de350f6385e20'
p733
L376L
tp734
a(S'_IO_str_seekoff'
p735
S'9de350ba'
p736
L736L
tp737
a(S'_IO_str_pbackfail'
p738
g137
L52L
tp739
a(S'_IO_str_finish'
p740
S'9de350d038c2c0c200'
p741
L64L
tp742
a(S'_IO_str_init_static_internal'
p743
S'9de3502a80100029ba1000007ff8b976207618c6760876287630761076e0cfe0010080ff501a101d90101876207618'
p744
L160L
tp745
a(S'_IO_str_init_static'
p746
S'80ff38'
p747
L28L
tp748
a(S'_IO_str_init_readonly'
p749
S'9de35080ffc01019'
p750
L56L
tp751
a(S'_IO_str_count'
p752
S'c2285a20d018500220'
p753
L28L
tp754
a(S'_dl_tunable_set_mmap_threshold'
p755
S'c200a00ac3e00100c2'
p756
L44L
tp757
a(S'_dl_tunable_set_mmaps_max'
p758
g137
L24L
tp759
a(S'_dl_tunable_set_top_pad'
p760
g137
L24L
tp761
a(S'_dl_tunable_set_perturb_byte'
p762
g137
L16L
tp763
a(S'_dl_tunable_set_trim_threshold'
p764
g137
L24L
tp765
a(S'_dl_tunable_set_arena_max'
p766
g137
L16L
tp767
a(S'_dl_tunable_set_arena_test'
p768
g137
L16L
tp769
a(S'_dl_tunable_set_tcache_max'
p770
g137
L64L
tp771
a(S'_dl_tunable_set_tcache_count'
p772
g137
L16L
tp773
a(S'_dl_tunable_set_tcache_unsorted_limit'
p774
g137
L16L
tp775
a(S'mem2mem_check'
p776
S'0200'
p777
L136L
tp778
a(S'mem2chunk_check'
p779
S'8a200a52862086'
p780
L664L
tp781
a(S'int_mallinfo'
p782
S'9de350c2'
p783
L292L
tp784
a(S'__malloc_assert'
p785
S'9de33000'
p786
L104L
tp787
a(S'detach_arena'
p788
S'9de35002000100c28005c28000'
p789
L72L
tp790
a(S'get_free_list'
p791
S'9de350'
p792
L320L
tp793
a(S'malloc_printerr'
p794
S'9de3509410180090207fe9c8'
p795
L28L
tp796
a(S'top_check'
p797
S'9de350'
p798
L132L
tp799
a(S'malloc_consolidate'
p800
S'9de350c008'
p801
L728L
tp802
a(S'new_heap'
p803
S'9de350b200030a'
p804
L400L
tp805
a(S'munmap_chunk'
p806
S'9de350c208'
p807
L180L
tp808
a(S'mremap_chunk'
p809
S'9de350'
p810
L372L
tp811
a(S'ptmalloc_init'
p812
S'9de3c22877f7'
p813
L396L
tp814
a(S'arena_get2.part.2'
p815
S'9de3503b0a00c2'
p816
L1124L
tp817
a(S'arena_get_retry'
p818
S'9de350b80084'
p819
L220L
tp820
a(S'_dl_tunable_set_mallopt_check'
p821
S'c20000008420'
p822
L96L
tp823
a(S'__malloc_info.part.7'
p824
S'9de3000018'
p825
L1204L
tp826
a(S'systrim.isra.1.constprop.8'
p827
S'9de350390a5f21fa58'
p828
L204L
tp829
a(S'_int_free'
p830
S'9de33059e0c2f708840018de80a7'
p831
L2900L
tp832
a(S'sysmalloc'
p833
S'9de330c65ca1805d'
p834
L1964L
tp835
a(S'_int_malloc'
p836
S'9de3e0'
p837
L4012L
tp838
a(S'malloc_check'
p839
S'9de350802100'
p840
L192L
tp841
a(S'tcache_init.part.4'
p842
S'9de3500300847f030a10'
p843
L300L
tp844
a(S'_int_memalign'
p845
S'9de350'
p846
L524L
tp847
a(S'memalign_check'
p848
S'9de3508030a62008'
p849
L348L
tp850
a(S'free_check'
p851
S'9de35002003b0a1001e70000901018ef94921000c2b000c208c010007fa090101c6f35921008f5e6'
p852
L252L
tp853
a(S'_int_realloc'
p854
S'9de350'
p855
L972L
tp856
a(S'realloc_check'
p857
S'9de3c22877f7'
p858
L668L
tp859
a(S'__malloc_fork_lock_parent'
p860
S'9de350030a008015'
p861
L140L
tp862
a(S'__malloc_fork_unlock_parent'
p863
S'9de350030a00c20c10a004008400'
p864
L192L
tp865
a(S'__malloc_fork_unlock_child'
p866
S'030a00802300c08800000a10'
p867
L160L
tp868
a(S'__malloc_check_init'
p869
S'030a1001200500'
p870
L80L
tp871
a(S'malloc'
p872
S'9de350030a58'
p873
L860L
tp874
a(S'malloc_hook_ini'
p875
S'9de350030a'
p876
L24L
tp877
a(S'_mid_memalign'
p878
S'9de350030a58'
p879
L760L
tp880
a(S'memalign_hook_ini'
p881
S'9de350b4e0030a'
p882
L28L
tp883
a(S'free'
p884
S'9de350030a58'
p885
L240L
tp886
a(S'__malloc_arena_thread_freeres'
p887
S'9de3500300'
p888
L336L
tp889
a(S'realloc'
p890
S'9de350ba00c220c010007e0108806eb0000271'
p891
L872L
tp892
a(S'realloc_hook_ini'
p893
S'9de350030a7028007fed5dc010'
p894
L32L
tp895
a(S'memalign'
p896
S'9403086ffd'
p897
L16L
tp898
a(S'valloc'
p899
S'9de350030a0080'
p900
L64L
tp901
a(S'pvalloc'
p902
S'9de350030a00801900000084'
p903
L132L
tp904
a(S'calloc'
p905
S'9de3508400'
p906
L1000L
tp907
a(S'malloc_trim'
p908
S'9de3030a00806a000000b4a01a100100c3e500000000'
p909
L636L
tp910
a(S'malloc_usable_size'
p911
S'9de350020084'
p912
L256L
tp913
a(S'mallinfo'
p914
S'9de32059e0c2f7008038000000c0b877d7c0c0c0ba1001101ae7000092'
p915
L280L
tp916
a(S'malloc_stats'
p917
S'9de31059e0c2f700f668806eb400290a5d23330a00b2'
p918
L504L
tp919
a(S'mallopt'
p920
S'9de350030a00801400'
p921
L436L
tp922
a(S'posix_memalign'
p923
S'9de35089708a'
p924
L92L
tp925
a(S'malloc_info'
p926
S'9de3500a0000c20ca0001105199094901280eb81e09010'
p927
L92L
tp928
a(S'__default_morecore'
p929
S'9de35000901018a270'
p930
L28L
tp931
a(S'strchr'
p932
S'928a028386c00a0010857002c0c0a2020020d65a00857086c01a0300d6da'
p933
L848L
tp934
a(S'strrchr'
p935
S'928a02ab880080588770d65a000386c028102886c010857086c01a0300d6da'
p936
L420L
tp937
a(S'strcmp'
p938
g137
L408L
tp939
a(S'strcpy'
p940
S'038c00'
p941
L592L
tp942
a(S'strcspn'
p943
S'9c2301737f10087387738f7397'
p944
L560L
tp945
a(S'strdup'
p946
S'9de350009000b4207ff60200101868008120'
p947
L48L
tp948
a(S'strlen'
p949
S'9210085a00'
p950
L156L
tp951
a(S'strncmp'
p952
S'02808099'
p953
L916L
tp954
a(S'critical_factorization'
p955
g137
L312L
tp956
a(S'two_way_long_needle'
p957
S'9de3c22877f7101bff'
p958
L896L
tp959
a(S'strstr'
p960
S'9de3c22877f71018a000a2008600882010'
p961
L1032L
tp962
a(S'memcmp'
p963
S'02808a'
p964
L312L
tp965
a(S'memmove'
p966
S'840080'
p967
L496L
tp968
a(S'memset'
p969
S'928a'
p970
L572L
tp971
a(S'bzero'
p972
g137
L568L
tp973
a(S'stpcpy'
p974
S'03'
p975
L692L
tp976
a(S'strcasecmp_l'
p977
S'80105aa0000086e0c8'
p978
L76L
tp979
a(S'__memcpy_large'
p980
S'02'
p981
L284L
tp982
a(S'mempcpy'
p983
S'10'
p984
L8L
tp985
a(S'memcpy'
p986
S'880002bf08ff80d300'
p987
L1344L
tp988
a(S'rawmemchr'
p989
S'920a03d60a001085709813092b1010128b30808570d65a00981305961a0c2201da80fc9002083202'
p990
L372L
tp991
a(S'strchrnul'
p992
g137
L572L
tp993
a(S'wmempcpy'
p994
S'952a006ffdb000'
p995
L16L
tp996
a(S'mbsrtowcs'
p997
S'030a108396100100000a10'
p998
L52L
tp999
a(S'_nl_cleanup_ctype'
p1000
S'9de350fa5e20020dd2185f'
p1001
L68L
tp1002
a(S'__wcsmbs_getfct'
p1003
S'9de33059e0c2f71000'
p1004
L136L
tp1005
a(S'__wcsmbs_load_conv'
p1006
S'9de3c22877f71022'
p1007
L532L
tp1008
a(S'__wcsmbs_clone_conv'
p1009
S'9de3500300847f030a10'
p1010
L176L
tp1011
a(S'__wcsmbs_named_conv'
p1012
S'9de35094'
p1013
L92L
tp1014
a(S'__mbsrtowcs_l'
p1015
S'9de3'
p1016
L924L
tp1017
a(S'clock'
p1018
S'9de33059e0c2f7100212b0'
p1019
L112L
tp1020
a(S'time'
p1021
S'9de33059e0c2f70015baa2'
p1022
L104L
tp1023
a(S'gettimeofday'
p1024
S'9de3509010181074d06d1a0410001001c00000cfe00100b000847f9010ff00'
p1025
L88L
tp1026
a(S'__alloc_dir'
p1027
S'9de350021b28390002c02a045ee039008000a700b9'
p1028
L212L
tp1029
a(S'opendir_tail'
p1030
S'9de3b059e0c2f7a7'
p1031
L196L
tp1032
a(S'__opendirat'
p1033
S'9de350c200009010181000929532'
p1034
L80L
tp1035
a(S'opendir'
p1036
S'9de350c200009010181000933210b3e800847f030a10'
p1037
L76L
tp1038
a(S'closedir'
p1039
S'9de3500200901018'
p1040
L68L
tp1041
a(S'readdir64'
p1042
S'9de350ba000000'
p1043
L356L
tp1044
a(S'sleep'
p1045
S'9de33059e0c2f7'
p1046
L128L
tp1047
a(S'nanosleep'
p1048
S'9de350c2180090101810f991d06d1a0410001001c00000cfe001000000000000901018d06d1a0410001001c03a001081009020080a10'
p1049
L204L
tp1050
a(S'fork'
p1051
S'9de350fa01181090100000100000941000100010d96820902008c002900a80b120030a58'
p1052
L488L
tp1053
a(S'_exit'
p1054
S'9de35090101800000084a0bc1a0410001001c0200810016820902008c02008000010bc1a0410001001f87f90101810012102d06d1a0410001001f87f902008210200006f'
p1055
L196L
tp1056
a(S'getpid'
p1057
g137
L16L
tp1058
a(S'getppid'
p1059
g137
L16L
tp1060
a(S'setsid'
p1061
g137
L36L
tp1062
a(S'__sysconf_check_spec'
p1063
S'9de3b059e0c2f700'
p1064
L244L
tp1065
a(S'sysconf'
p1066
S'9de31059e0c2f700101800a6208069308092'
p1067
L984L
tp1068
a(S'sched_yield'
p1069
g137
L36L
tp1070
a(S'__get_child_max'
p1071
S'9de33059e0c2f700'
p1072
L84L
tp1073
a(S'_xstat'
p1074
S'9de3b059e0c2f700901019108b6820902008c0101a039010185fa7f71884200a'
p1075
L228L
tp1076
a(S'_fxstat'
p1077
S'9de3b059e0c2f70090101910'
p1078
L228L
tp1079
a(S'open64'
p1080
S'9de33077'
p1081
L336L
tp1082
a(S'read'
p1083
S'9de350c218009210192091d06d1a0410001001c81008000018030a10'
p1084
L204L
tp1085
a(S'write'
p1086
S'9de350c2180092101920d06d1a0410001001c81008000018030a10'
p1087
L204L
tp1088
a(S'lseek64'
p1089
S'9de3c22877f770941019101ad06d1a0410001001a20a5fa7f71884200a0d81000300902008'
p1090
L160L
tp1091
a(S'fcntl64'
p1092
S'9de3'
p1093
L340L
tp1094
a(S'close'
p1095
S'9de350c21800'
p1096
L196L
tp1097
a(S'chdir'
p1098
g137
L36L
tp1099
a(S'getcwd'
p1100
S'9de37059e0c2f71019c60300007800000004a2'
p1101
L1716L
tp1102
a(S'readlink'
p1103
g137
L36L
tp1104
a(S'unlink'
p1105
g137
L36L
tp1106
a(S'__xstat_conv'
p1107
S'9de3508080000518'
p1108
L244L
tp1109
a(S'__xstat32_conv'
p1110
S'9de350802a5e'
p1111
L208L
tp1112
a(S'__close_nocancel'
p1113
S'9de350901018d06d1a0410001001c00000cfe00100b000847f9010ff00'
p1114
L84L
tp1115
a(S'__fcntl64_nocancel_adjusted'
p1116
S'9de3c22877f70092101920206820902008c000005fa7f71884200a2400000000'
p1117
L244L
tp1118
a(S'__fcntl64_nocancel'
p1119
S'9de3f477'
p1120
L104L
tp1121
a(S'__open_nocancel'
p1122
S'9de3f477'
p1123
L200L
tp1124
a(S'__openat_nocancel'
p1125
S'9de3f697f8779ffa77a7c22877f7'
p1126
L196L
tp1127
a(S'__read_nocancel'
p1128
S'9de350901018101ad06d1a0410001001c010080000000018030a10'
p1129
L92L
tp1130
a(S'__write_nocancel'
p1131
S'9de350901018101ad06d1a0410001001c010080000000018030a10'
p1132
L92L
tp1133
a(S'getrlimit64'
p1134
S'9de35092101810001091d06d1a0410001001c00000cfe00100b000847f9010ff00'
p1135
L96L
tp1136
a(S'sbrk'
p1137
S'9de350390a5f22030a0080150200010004008400'
p1138
L200L
tp1139
a(S'ioctl'
p1140
g137
L36L
tp1141
a(S'getpagesize'
p1142
S'9de350030a'
p1143
L64L
tp1144
a(S'getdtablesize'
p1145
S'9de33059e0c2f7'
p1146
L88L
tp1147
a(S'select'
p1148
S'9de350c21800901018101a101c10e6d06d1a0410001001c00000cfe00100003d8400921019101a101c10e6d06d1a0410001001c03a00'
p1149
L228L
tp1150
a(S'mmap64'
p1151
S'9de350'
p1152
L144L
tp1153
a(S'munmap'
p1154
g137
L36L
tp1155
a(S'mprotect'
p1156
g137
L36L
tp1157
a(S'madvise'
p1158
g137
L36L
tp1159
a(S'trecurse'
p1160
S'9de350c208c8101a5e20021590101810005e20900afec294'
p1161
L184L
tp1162
a(S'tdestroy_recurse'
p1163
S'9de350d008c20100d010c201009fc65e0010dc'
p1164
L92L
tp1165
a(S'maybe_split_for_insert.isra.0'
p1166
S'900afe5a20'
p1167
L436L
tp1168
a(S'tsearch'
p1169
S'9de35002a410005e00cf285f'
p1170
L312L
tp1171
a(S'tfind'
p1172
S'9de3502a0d10'
p1173
L80L
tp1174
a(S'tdelete'
p1175
S'9de3c22877f7031b5e00c7b810285800c6802c100800'
p1176
L1476L
tp1177
a(S'twalk'
p1178
S'8420'
p1179
L48L
tp1180
a(S'tdestroy'
p1181
S'0200'
p1182
L28L
tp1183
a(S'next_line'
p1184
S'9de350e0805ec0100a10107a941011c280fa76005ec0a010'
p1185
L376L
tp1186
a(S'sysinfo_mempages'
p1187
S'9de3507ffc6b008000a6'
p1188
L128L
tp1189
a(S'__get_nprocs_conf.part.0'
p1190
S'0300'
p1191
L232L
tp1192
a(S'get_nprocs'
p1193
S'9de32059e0c2f7100010085ea101'
p1194
L796L
tp1195
a(S'get_nprocs_conf'
p1196
S'9de3c22877f700280db6e00200b8ff2c101cc2ba6080fa941003ffdfa220ba'
p1197
L240L
tp1198
a(S'get_phys_pages'
p1199
S'9de3d059e0c2f7'
p1200
L72L
tp1201
a(S'get_avphys_pages'
p1202
S'9de3d059e0c2f7'
p1203
L72L
tp1204
a(S'__getclktck'
p1205
S'030a00808120'
p1206
L24L
tp1207
a(S'__init_misc'
p1208
S'9de35002'
p1209
L68L
tp1210
a(S'mremap'
p1211
g137
L36L
tp1212
a(S'prctl'
p1213
g137
L36L
tp1214
a(S'sysinfo'
p1215
g137
L36L
tp1216
a(S'accept'
p1217
S'9de350c21800901018101ad06d1a0410001001c00000cfe0010000'
p1218
L212L
tp1219
a(S'bind'
p1220
S'9de31059e0c2f777'
p1221
L160L
tp1222
a(S'connect'
p1223
S'9de350c21800901018101ad06d1a0410001001c00000cfe0010000c1008400921019101ad06d1a0410001001c03a0001901002000018030a10'
p1224
L212L
tp1225
a(S'getsockname'
p1226
g137
L36L
tp1227
a(S'getsockopt'
p1228
g137
L36L
tp1229
a(S'listen'
p1230
S'9de33059e0c2f777e777ef92'
p1231
L144L
tp1232
a(S'recv'
p1233
S'9de350c21800901018101a1000107dd06d1a0410001001c81008000018030a10'
p1234
L228L
tp1235
a(S'recvfrom'
p1236
S'9de350c21800901018101a101c101d91d06d1a0410001001c81008000018030a10'
p1237
L228L
tp1238
a(S'send'
p1239
S'9de350c21800901018101a100010856820902008c81008000018030a10'
p1240
L228L
tp1241
a(S'sendto'
p1242
S'9de350c21800901018101a101c101d91d06d1a0410001001c81008000018030a10'
p1243
L228L
tp1244
a(S'setsockopt'
p1245
S'9de32059e0c2f777cf77d7f477df77e777ef92'
p1246
L156L
tp1247
a(S'socket'
p1248
S'9de33059e0c2f777df77e777ef92'
p1249
L148L
tp1250
a(S'__libc_alloca_cutoff'
p1251
g137
L76L
tp1252
a(S'__lll_lock_wait_private'
p1253
S'9de350c200009010181002108e68209020081002008010108000d06d1a04100010017e00ff90101800'
p1254
L148L
tp1255
a(S'__libc_enable_asynccancel'
p1256
S'9de3508600c2081080'
p1257
L136L
tp1258
a(S'__libc_disable_asynccancel'
p1259
S'9de35080'
p1260
L184L
tp1261
a(S'__register_atfork'
p1262
S'9de3503b0a1001e2000000030a08801c00842184a0d877d0'
p1263
L392L
tp1264
a(S'__unregister_atfork'
p1265
S'9de350390a1001e6000000005ea1005ea101'
p1266
L448L
tp1267
a(S'__run_fork_handlers'
p1268
S'9de3500a00051001e20000000000c2c8c8b85f'
p1269
L356L
tp1270
a(S'clock_gettime'
p1271
S'9de35090101810016820902008c02008cfe0010003009010ff0a10'
p1272
L96L
tp1273
a(S'__stack_chk_fail_local'
p1274
S'9de3501305000092120100'
p1275
L24L
tp1276
a(S'__fortify_fail_abort'
p1277
S'9de35039053b05a0ba1019ff03'
p1278
L84L
tp1279
a(S'__fortify_fail'
p1280
S'9de350921018'
p1281
L20L
tp1282
a(S'inet_aton'
p1283
S'9de33059e0c2f700'
p1284
L396L
tp1285
a(S'inet_addr'
p1286
S'9de3c22877f7'
p1287
L88L
tp1288
a(S'_dl_debug_state'
p1289
S'8100'
p1290
L8L
tp1291
a(S'_dl_debug_initialize'
p1292
S'090a11'
p1293
L120L
tp1294
a(S'do_tunable_update_val'
p1295
S'c20800a00000c21010005a2087011000880100'
p1296
L208L
tp1297
a(S'tunable_initialize'
p1298
S'9de3c20800'
p1299
L84L
tp1300
a(S'__tunable_set_val'
p1301
S'9020030a'
p1302
L28L
tp1303
a(S'__tunables_init'
p1304
S'9de35035'
p1305
L1800L
tp1306
a(S'__tunable_get_val'
p1307
S'9de350b020030a'
p1308
L160L
tp1309
a(S'_dl_aux_init'
p1310
S'9de31000'
p1311
L804L
tp1312
a(S'_dl_non_dynamic_init'
p1313
S'9de300'
p1314
L2240L
tp1315
a(S'__libc_init_secure'
p1316
S'9de350030a0080040000000072010000baa220052008000072010000ba1a1d8000200800'
p1317
L120L
tp1318
a(S'_dl_mcount_wrapper'
p1319
S'92100813006800'
p1320
L20L
tp1321
a(S'_dl_mcount_wrapper_check'
p1322
S'030a58'
p1323
L40L
tp1324
a(S'_dl_discover_osversion'
p1325
S'9de38021a2a6fb8c20b020c200a018090100d0a1bf020001e0'
p1326
L308L
tp1327
a(S'__libc_init_first'
p1328
S'9de350030084'
p1329
L188L
tp1330
a(S'__syscall_error'
p1331
S'0300847f030a10'
p1332
L32L
tp1333
a(S'__gconv_open'
p1334
S'9de33059e0c2f7ff'
p1335
L1164L
tp1336
a(S'__gconv'
p1337
S'9de380'
p1338
L472L
tp1339
a(S'__gconv_alias_compare'
p1340
S'd2005a00'
p1341
L20L
tp1342
a(S'derivation_compare'
p1343
S'9de350d000d35e000001005e'
p1344
L52L
tp1345
a(S'__gconv_get_modules_db'
p1346
S'030ac3e0d0'
p1347
L12L
tp1348
a(S'__gconv_get_alias_db'
p1349
S'030ac3e0d0'
p1350
L12L
tp1351
a(S'__gconv_release_step'
p1352
S'9de350d000c2c2c210a020c2305e20a01d90101d9010185e0000530100c081000a040008000000'
p1353
L144L
tp1354
a(S'find_derivation'
p1355
S'9de30059e0c2f77e1b77bf03049410030a00c0ab7e1977ef'
p1356
L2452L
tp1357
a(S'__gconv_compare_alias'
p1358
S'9de33059e0c2f71002'
p1359
L308L
tp1360
a(S'__gconv_find_transform'
p1361
S'9de33059e0c2f710027500110a'
p1362
L684L
tp1363
a(S'__gconv_close_transform'
p1364
S'9de350390a1001e600000100020b'
p1365
L172L
tp1366
a(S'insert_module'
p1367
S'9de350390a'
p1368
L280L
tp1369
a(S'detect_conflict'
p1370
S'9de350030a58'
p1371
L96L
tp1372
a(S'add_module.isra.0'
p1373
S'9de33059e0c2f7'
p1374
L932L
tp1375
a(S'add_alias2.isra.1.part.2'
p1376
S'9de350b480ffa490'
p1377
L120L
tp1378
a(S'__gconv_get_path'
p1379
S'9de3c22877f71001e60000210a5c22'
p1380
L876L
tp1381
a(S'__gconv_read_conf'
p1382
S'9de30059e0c2f7100577b71800011dc2c7'
p1383
L1300L
tp1384
a(S'__gconv_get_builtin_trans'
p1385
S'9de3503905'
p1386
L188L
tp1387
a(S'__gconv_btwoc_ascii'
p1388
S'80ffc3e09132'
p1389
L20L
tp1390
a(S'__gconv_transform_internal_ucs4'
p1391
S'9de32059e0c2f738e8'
p1392
L916L
tp1393
a(S'__gconv_transform_ucs4_internal'
p1394
S'9de31059e0c2f7'
p1395
L1344L
tp1396
a(S'__gconv_transform_internal_ucs4le'
p1397
S'9de31059e0c2f7'
p1398
L1240L
tp1399
a(S'__gconv_transform_ucs4le_internal'
p1400
S'9de3'
p1401
L1460L
tp1402
a(S'__gconv_transform_ascii_internal'
p1403
S'9de32059e0c2f7a8'
p1404
L708L
tp1405
a(S'__gconv_transform_internal_ascii'
p1406
S'9de3e059e0c2f7'
p1407
L2024L
tp1408
a(S'__gconv_transform_internal_utf8'
p1409
S'9de3d059e0c2f7'
p1410
L2936L
tp1411
a(S'__gconv_transform_utf8_internal'
p1412
S'9de31059e0c2f7'
p1413
L3188L
tp1414
a(S'__gconv_transform_ucs2_internal'
p1415
S'9de31059e0c2f7'
p1416
L1720L
tp1417
a(S'__gconv_transform_internal_ucs2'
p1418
S'9de3d059e0c2f7'
p1419
L2576L
tp1420
a(S'__gconv_transform_ucs2reverse_internal'
p1421
S'9de31059e0c2f7'
p1422
L1756L
tp1423
a(S'__gconv_transform_internal_ucs2reverse'
p1424
S'9de3d059e0c2f7'
p1425
L2624L
tp1426
a(S'__gconv_transliterate'
p1427
S'9de3e059e0c2f777bf77cfae101c5ec0101d02045e20c2300a15a7af0300'
p1428
L1184L
tp1429
a(S'find_module_idx'
p1430
S'9de35090101800e0'
p1431
L220L
tp1432
a(S'find_module'
p1433
S'9de3c22877f71018ff19101dba7f921018a87fc10094101cff'
p1434
L244L
tp1435
a(S'__gconv_get_cache'
p1436
S'030ae0d0'
p1437
L12L
tp1438
a(S'__gconv_load_cache'
p1439
S'9de3b059e0c2f7ff901200000a00708000009d901210a220921008ca1003005fa79f805a'
p1440
L512L
tp1441
a(S'__gconv_compare_alias_cache'
p1442
S'9de33059e0c2f758'
p1443
L168L
tp1444
a(S'__gconv_lookup_cache'
p1445
S'9de32059e0c2f75c2002'
p1446
L1144L
tp1447
a(S'__gconv_release_cache'
p1448
S'030a'
p1449
L36L
tp1450
a(S'known_compare'
p1451
S'd2005a00'
p1452
L20L
tp1453
a(S'do_release_shlib'
p1454
S'9de350800300'
p1455
L176L
tp1456
a(S'__gconv_find_shlib'
p1457
S'9de350'
p1458
L420L
tp1459
a(S'__gconv_release_shlib'
p1460
S'030a04d03000d0386fd00100'
p1461
L36L
tp1462
a(S'_nl_postload_ctype'
p1463
S'030a58'
p1464
L140L
tp1465
a(S'__current_locale_name'
p1466
S'030090021030030a10'
p1467
L40L
tp1468
a(S'__ctype_b_loc'
p1469
S'1100'
p1470
L28L
tp1471
a(S'__ctype_toupper_loc'
p1472
S'1100'
p1473
L28L
tp1474
a(S'__ctype_tolower_loc'
p1475
S'1100'
p1476
L28L
tp1477
a(S'__ctype_init'
p1478
S'030a0000180059c00000588018'
p1479
L104L
tp1480
a(S'__setfpucw'
p1481
S'9de3c22877f70c005fa7efb000b000'
p1482
L92L
tp1483
a(S'_quicksort'
p1484
S'9de3c22877f7b0a87fa80080a80077f7201a1018a31c6e1a70b21ac69010190094101c1019101300a0101c101910100010ada0101d901019'
p1485
L1076L
tp1486
a(S'__add_to_environ'
p1487
S'9de3c22877f71018c6'
p1488
L896L
tp1489
a(S'setenv'
p1490
S'9de350020010180080090000ae92103db60010150300847f030a10'
p1491
L88L
tp1492
a(S'unsetenv'
p1493
S'9de35002000000008092103d901018c203007fb190101810081001e600000100030a58'
p1494
L328L
tp1495
a(S'clearenv'
p1496
S'9de3503b0a20b8e700000100'
p1497
L208L
tp1498
a(S'secure_getenv'
p1499
S'030ac2b81205'
p1500
L40L
tp1501
a(S'read_int'
p1502
g137
L152L
tp1503
a(S'group_number'
p1504
S'9de350e0c004ff0000001009b090101c801019101d901018'
p1505
L296L
tp1506
a(S'_i18n_number_rewrite'
p1507
S'9de30059e0c2f7009012'
p1508
L584L
tp1509
a(S'_IO_helper_overflow'
p1510
S'9de3d0285e20baa7'
p1511
L204L
tp1512
a(S'printf_positional'
p1513
S'9de35084bf2877f7'
p1514
L8736L
tp1515
a(S'vfprintf'
p1516
S'9de31059e0c2f700'
p1517
L9196L
tp1518
a(S'buffered_vfprintf'
p1519
S'0300'
p1520
L704L
tp1521
a(S'hack_digit'
p1522
S'9de350c20000da28'
p1523
L356L
tp1524
a(S'_i18n_number_rewrite_0'
p1525
S'9de30059e0c2f7008a100800ad9010b60092101d90102cc7'
p1526
L584L
tp1527
a(S'__guess_grouping.part.0'
p1528
g137
L124L
tp1529
a(S'__printf_fp_l'
p1530
S'9de33059e0c2f7'
p1531
L9676L
tp1532
a(S'__printf_fp'
p1533
S'030096100a00030a10'
p1534
L44L
tp1535
a(S'__guess_grouping'
p1536
S'c200a000'
p1537
L40L
tp1538
a(S'__printf_fphex'
p1539
S'9de31059e0c2f7'
p1540
L6188L
tp1541
a(S'register_printf_modifier'
p1542
S'9de350c200a00010390000000300c204a0'
p1543
L408L
tp1544
a(S'__handle_registered_modifier_mb'
p1545
S'9de350f85e00030a58'
p1546
L288L
tp1547
a(S'__handle_registered_modifier_wc'
p1548
S'9de350f85e00030a58'
p1549
L292L
tp1550
a(S'fprintf'
p1551
S'9de3'
p1552
L104L
tp1553
a(S'read_int_0'
p1554
S'c81b33'
p1555
L208L
tp1556
a(S'group_number_0'
p1557
S'9de350e0c004ff0080cfe0901009101d901018'
p1558
L252L
tp1559
a(S'_i18n_number_rewrite_1'
p1560
S'9de33059e0c2f700c22392100800e510b8101d90102c'
p1561
L360L
tp1562
a(S'_IO_helper_overflow_0'
p1563
S'9de3'
p1564
L260L
tp1565
a(S'printf_positional_0'
p1566
S'9de384bf2877f7'
p1567
L8768L
tp1568
a(S'vfwprintf'
p1569
S'9de32059e0c2f700ba14000000011d901018'
p1570
L9464L
tp1571
a(S'buffered_vfprintf_0'
p1572
S'0300'
p1573
L724L
tp1574
a(S'sscanf'
p1575
S'9de3'
p1576
L104L
tp1577
a(S'funlockfile'
p1578
S'9de350d08802040080c20472087a0000921081201a041000100100'
p1579
L88L
tp1580
a(S'read_int_1'
p1581
g137
L152L
tp1582
a(S'__parse_one_specmb'
p1583
S'9de350c20c10ffa001a0f884a00c'
p1584
L1764L
tp1585
a(S'read_int_2'
p1586
S'c81b33'
p1587
L208L
tp1588
a(S'__parse_one_specwc'
p1589
S'9de350c20c10ffa004a0f884a020a0d0000100051000200900008050830000000000'
p1590
L1768L
tp1591
a(S'_IO_file_doallocate'
p1592
S'9de3b059e0c2f7a0'
p1593
L392L
tp1594
a(S'fputs'
p1595
S'9de3507f72901018'
p1596
L356L
tp1597
a(S'_IO_wfile_doallocate'
p1598
S'9de350c238c00000'
p1599
L112L
tp1600
a(S'fwrite'
p1601
S'9de350b8c71b'
p1602
L464L
tp1603
a(S'getdelim'
p1604
S'9de3508420'
p1605
L700L
tp1606
a(S'_IO_getline_info'
p1607
S'9de3500203'
p1608
L340L
tp1609
a(S'_IO_getline'
p1610
g137
L16L
tp1611
a(S'_IO_padn'
p1612
S'9de33059e0c2f7a6'
p1613
L372L
tp1614
a(S'vsscanf'
p1615
S'9de350c22877f710000090'
p1616
L144L
tp1617
a(S'_IO_wpadn'
p1618
S'9de30059e0c2f7a6'
p1619
L372L
tp1620
a(S'save_for_wbackup.isra.0'
p1621
S'9de350ca005e00e2'
p1622
L444L
tp1623
a(S'_IO_least_wmarker'
p1624
g137
L52L
tp1625
a(S'_IO_switch_to_main_wget_area'
p1626
S'c20022005a20c8ca50'
p1627
L56L
tp1628
a(S'_IO_switch_to_wbackup_area'
p1629
S'c20022005a20ca0858'
p1630
L56L
tp1631
a(S'_IO_wsetb'
p1632
S'9de350'
p1633
L112L
tp1634
a(S'_IO_wdefault_pbackfail'
p1635
S'9de350fa5e20f85f005f'
p1636
L352L
tp1637
a(S'_IO_wdefault_finish'
p1638
S'9de350'
p1639
L120L
tp1640
a(S'_IO_wdefault_uflow'
p1641
S'9de350fa5e2003'
p1642
L112L
tp1643
a(S'__woverflow'
p1644
S'9de350c2c00003'
p1645
L152L
tp1646
a(S'_IO_wdefault_xsputn'
p1647
S'9de350028010005e20fa5c20bac7bba71ba7'
p1648
L212L
tp1649
a(S'_IO_wdoallocbuf'
p1650
S'9de3505e202204'
p1651
L88L
tp1652
a(S'_IO_wdefault_doallocate'
p1653
S'9de3507f'
p1654
L56L
tp1655
a(S'_IO_switch_to_wget_mode'
p1656
S'9de350c2a0800dc23058'
p1657
L148L
tp1658
a(S'_IO_free_wbackup_area'
p1659
S'9de350'
p1660
L100L
tp1661
a(S'__wuflow'
p1662
S'9de350c2c00002921001'
p1663
L388L
tp1664
a(S'__wunderflow'
p1665
S'9de350c2c00002921001'
p1666
L380L
tp1667
a(S'_IO_wdefault_xsgetn'
p1668
S'9de350b85e20fa58a00a0000a71c10a7'
p1669
L204L
tp1670
a(S'_IO_sputbackwc'
p1671
S'9de350c2a080'
p1672
L160L
tp1673
a(S'_IO_sungetwc'
p1674
S'9de350c2a080'
p1675
L152L
tp1676
a(S'_IO_adjust_wcolumn'
p1677
S'87b08603'
p1678
L96L
tp1679
a(S'_IO_init_wmarker'
p1680
S'9de3507608'
p1681
L128L
tp1682
a(S'_IO_wmarker_delta'
p1683
S'c208c010ff00'
p1684
L76L
tp1685
a(S'_IO_seekwmark'
p1686
g137
L184L
tp1687
a(S'_IO_unsave_wmarkers'
p1688
S'c2'
p1689
L44L
tp1690
a(S'do_encoding'
p1691
S'c2'
p1692
L44L
tp1693
a(S'do_always_noconv'
p1694
S'8120'
p1695
L8L
tp1696
a(S'do_max_length'
p1697
S'c281'
p1698
L12L
tp1699
a(S'do_in'
p1700
S'9de32059e0c2f777effa7650c25876705e205fa8c200c05ea00194'
p1701
L232L
tp1702
a(S'do_unshift'
p1703
S'9de33059e0c2f7769076b05e2002045ee0c230ff1d92'
p1704
L216L
tp1705
a(S'do_out'
p1706
S'9de32059e0c2f777effa7690c29876b05e20c200c05ea00193a690101d'
p1707
L232L
tp1708
a(S'do_length'
p1709
S'9de32059e0c2f7'
p1710
L180L
tp1711
a(S'_IO_fwide'
p1712
S'9de32059e0c2f700c2c0002a115e20c2f71884200a560100810080f710ff6fffc2c0'
p1713
L488L
tp1714
a(S'__libc_scratch_buffer_grow_preserve'
p1715
S'9de350fa5e20f600a6c0'
p1716
L180L
tp1717
a(S'__libc_scratch_buffer_set_array_size'
p1718
S'9de350861a208720780100'
p1719
L236L
tp1720
a(S'__libc_dynarray_at_failure'
p1721
S'9de380e0c2f71019000b00c0a690'
p1722
L56L
tp1723
a(S'__libc_dynarray_emplace_enlarge'
p1724
S'9de350c208c83080'
p1725
L312L
tp1726
a(S'strerror_r'
p1727
S'9de33059e0c2f70003'
p1728
L408L
tp1729
a(S'strnlen'
p1730
S'02'
p1731
L448L
tp1732
a(S'strtok_r'
p1733
S'9de3502200'
p1734
L112L
tp1735
a(S'memchr'
p1736
S'920a0280'
p1737
L600L
tp1738
a(S'wcslen'
p1739
g137
L160L
tp1740
a(S'wmemcpy'
p1741
S'952a006f720100'
p1742
L16L
tp1743
a(S'wmemmove'
p1744
S'952a006f6b00'
p1745
L16L
tp1746
a(S'wmemset'
p1747
S'8011100a20d2'
p1748
L112L
tp1749
a(S'btowc'
p1750
S'9de3e0'
p1751
L456L
tp1752
a(S'wcrtomb'
p1753
S'9de3e0'
p1754
L540L
tp1755
a(S'wcsrtombs'
p1756
S'9de3'
p1757
L748L
tp1758
a(S'wcsnlen'
p1759
g137
L188L
tp1760
a(S'wcschrnul'
p1761
S'100302001880ff'
p1762
L52L
tp1763
a(S'rewinddir'
p1764
S'9de350ba1001e700000100941000'
p1765
L140L
tp1766
a(S'__getdents64'
p1767
S'9de350901018101ad06d1a0410001001c010080000000018030a10'
p1768
L92L
tp1769
a(S'fdopendir'
p1770
S'9de3b059e0c2f7'
p1771
L244L
tp1772
a(S'uname'
p1773
g137
L36L
tp1774
a(S'getuid'
p1775
g137
L16L
tp1776
a(S'geteuid'
p1777
g137
L16L
tp1778
a(S'getgid'
p1779
g137
L16L
tp1780
a(S'getegid'
p1781
g137
L16L
tp1782
a(S'_lxstat'
p1783
S'9de3b059e0c2f70090101910846820902008c0101a7c9010185fa7f71884200a'
p1784
L228L
tp1785
a(S'__fxstatat64'
p1786
S'9de3b059e0c2f7101a0010216820902008c0100a'
p1787
L160L
tp1788
a(S'isatty'
p1789
S'9de32059e0c2f700'
p1790
L76L
tp1791
a(S'tcgetattr'
p1792
S'9de32059e0c2f710159212'
p1793
L208L
tp1794
a(S'brk'
p1795
S'9de3'
p1796
L92L
tp1797
a(S'wctrans'
p1798
S'9de350b6000300847f030a10'
p1799
L156L
tp1800
a(S'towctrans'
p1801
S'02180002830100'
p1802
L128L
tp1803
a(S'__readonly_area'
p1804
S'9de32059e0c2f7000bff9012b8b802000020220077d780c0b60096101c100aff9e90'
p1805
L536L
tp1806
a(S'_Qp_cmp'
p1807
S'9de3c22877f75e00bb5e003000'
p1808
L588L
tp1809
a(S'is_dst'
p1810
S'9de3507f'
p1811
L196L
tp1812
a(S'is_trusted_path_normalize'
p1813
S'9de35002b2'
p1814
L488L
tp1815
a(S'add_name_to_object.isra.6'
p1816
S'9de3502a00d2006800020b00005800'
p1817
L212L
tp1818
a(S'lose.isra.8'
p1819
S'9de35080'
p1820
L116L
tp1821
a(S'_dl_map_object_from_fd.constprop.13'
p1822
S'9de3e85fa87f859010007794'
p1823
L3728L
tp1824
a(S'add_path.isra.5.constprop.14'
p1825
S'9de3508015'
p1826
L216L
tp1827
a(S'open_verify.isra.9.constprop.15'
p1828
S'9de330ff1310f8779fa61008002b0a00007f0100c00177f7'
p1829
L1464L
tp1830
a(S'open_path.isra.10'
p1831
S'9de3705ec07797'
p1832
L1488L
tp1833
a(S'_dl_dst_count'
p1834
S'9de350901018ffb0202a00000d0100'
p1835
L156L
tp1836
a(S'_dl_dst_substitute'
p1837
S'9de350'
p1838
L404L
tp1839
a(S'expand_dynamic_string_token'
p1840
S'9de3507fff1019c2ba6f5a8bff9010195e23c2800410005a910100030a58'
p1841
L224L
tp1842
a(S'fillin_rpath'
p1843
S'9de3'
p1844
L700L
tp1845
a(S'cache_rpath.part.12'
p1846
S'9de350b4a01ac010ff5e2058'
p1847
L572L
tp1848
a(S'_dl_init_paths'
p1849
S'9de350030a58'
p1850
L636L
tp1851
a(S'_dl_map_object'
p1852
S'9de3b0c7c280f700a4'
p1853
L2100L
tp1854
a(S'_dl_rtld_di_serinfo'
p1855
S'9de330'
p1856
L512L
tp1857
a(S'check_match'
p1858
S'9de350'
p1859
L460L
tp1860
a(S'do_lookup_x'
p1861
S'9de3e0778fa8e2'
p1862
L2316L
tp1863
a(S'_dl_lookup_symbol_x'
p1864
S'9de3e0'
p1865
L2552L
tp1866
a(S'_dl_setup_hash'
p1867
S'9de350c2b0c05e2058'
p1868
L196L
tp1869
a(S'_dl_add_to_namespace_list'
p1870
S'9de3500300'
p1871
L212L
tp1872
a(S'_dl_new_object'
p1873
S'9de3507f50'
p1874
L664L
tp1875
a(S'_dl_try_allocate_static_tls'
p1876
S'9de350c280285e24030a58'
p1877
L220L
tp1878
a(S'_dl_allocate_static_tls'
p1879
S'9de350c2800900'
p1880
L72L
tp1881
a(S'_dl_nothread_init_static_tls'
p1882
S'9de350d0'
p1883
L48L
tp1884
a(S'_dl_protect_relro'
p1885
S'9de350'
p1886
L128L
tp1887
a(S'_dl_reloc_bad_type'
p1888
S'9de320'
p1889
L196L
tp1890
a(S'_dl_relocate_object'
p1891
S'9de3a00300808b'
p1892
L7216L
tp1893
a(S'_dl_important_hwcaps'
p1894
S'9de31010006b20ba5fa7f700e0e3a07e01208702e08302080a7fba00a820e4'
p1895
L1796L
tp1896
a(S'_dl_debug_vdprintf'
p1897
S'9de3'
p1898
L1412L
tp1899
a(S'_dl_sysdep_read_whole_file'
p1900
S'9de3c0107f5b'
p1901
L120L
tp1902
a(S'_dl_debug_printf'
p1903
S'9de396'
p1904
L60L
tp1905
a(S'_dl_debug_printf_c'
p1906
S'9de396'
p1907
L60L
tp1908
a(S'_dl_dprintf'
p1909
S'9de396'
p1910
L52L
tp1911
a(S'_dl_name_match_p'
p1912
S'9de3509010180b5e'
p1913
L104L
tp1914
a(S'_dl_higher_prime_number'
p1915
g137
L168L
tp1916
a(S'_dl_strtoul'
p1917
S'8400c2003888e08009a00032f6180018981001'
p1918
L412L
tp1919
a(S'_dl_start_profile'
p1920
S'9de3d000'
p1921
L1684L
tp1922
a(S'_dl_mcount'
p1923
S'9de31000c2f480e0000000'
p1924
L944L
tp1925
a(S'allocate_dtv'
p1926
S'9de350030a101058'
p1927
L60L
tp1928
a(S'oom'
p1929
S'9de350901002007ffca592127f50ef90107f00'
p1930
L32L
tp1931
a(S'_dl_next_tls_modid'
p1932
S'9de350'
p1933
L264L
tp1934
a(S'_dl_count_modids'
p1935
S'030a0880040081'
p1936
L112L
tp1937
a(S'_dl_get_tls_static_info'
p1938
S'030a58'
p1939
L28L
tp1940
a(S'_dl_allocate_tls_storage'
p1941
S'9de350030a58'
p1942
L116L
tp1943
a(S'_dl_allocate_tls_init'
p1944
S'9de350020000e620'
p1945
L624L
tp1946
a(S'_dl_allocate_tls'
p1947
S'9de350020001007ffe9010186fffe8ff00006fff'
p1948
L44L
tp1949
a(S'_dl_deallocate_tls'
p1950
S'9de350f6085eff020c00b8ff5bd0005eff80fbb800'
p1951
L108L
tp1952
a(S'_dl_tls_get_addr_soft'
p1953
S'c2022259e0'
p1954
L148L
tp1955
a(S'_dl_add_to_slotinfo'
p1956
S'9de350f85e24030a68'
p1957
L248L
tp1958
a(S'_dl_get_origin'
p1959
S'9de300b711'
p1960
L428L
tp1961
a(S'_dl_scope_free'
p1962
S'9de350fa0118003b0aff183bf85f'
p1963
L220L
tp1964
a(S'_dl_make_stack_executable'
p1965
S'9de350d000000558'
p1966
L100L
tp1967
a(S'_dl_runtime_resolve_0'
p1968
S'9de3255920a000052900a66c00a32c0a2c05a004100411'
p1969
L96L
tp1970
a(S'_dl_runtime_resolve_1'
p1971
S'9de39330d00822009e92028100'
p1972
L36L
tp1973
a(S'_dl_profile_save_regs'
p1974
S'e0a7ff73'
p1975
L132L
tp1976
a(S'_dl_profile_invoke'
p1977
S'a0049c23031018101a101c101d0200a60300e0e86f'
p1978
L184L
tp1979
a(S'_dl_runtime_profile_0'
p1980
S'9de3b000ff5920a000052900a66c00a32c0a2c05a00410041130aa1008ff960325e0a8'
p1981
L144L
tp1982
a(S'_dl_runtime_profile_1'
p1983
S'9de3b030d008229410'
p1984
L84L
tp1985
a(S'length_mismatch'
p1986
S'9de3509010020010f98bff90107f00'
p1987
L32L
tp1988
a(S'_dl_exception_create'
p1989
S'9de350222000'
p1990
L144L
tp1991
a(S'_dl_exception_create_format'
p1992
S'9de3f697f8779f027e77a77f3c901019020277f7'
p1993
L572L
tp1994
a(S'_dl_exception_free'
p1995
S'9de3507f33c0c0c08100'
p1996
L32L
tp1997
a(S'_dl_cache_libcmp'
p1998
g137
L332L
tp1999
a(S'_dl_load_cache_lookup'
p2000
S'9de3230a0498808600105ea1ff'
p2001
L1644L
tp2002
a(S'_dl_unload_cache'
p2003
S'9de3503b0a'
p2004
L56L
tp2005
a(S'do_dlopen'
p2006
S'9de3'
p2007
L64L
tp2008
a(S'dlerror_run'
p2009
S'9de33059e0c2f7101977ef94'
p2010
L144L
tp2011
a(S'__libc_dlclose'
p2012
S'921008002413006f'
p2013
L24L
tp2014
a(S'__libc_dlsym'
p2015
S'9de32059e0c2f777d777df0000ff9012b0a2a7ef020b1084a3045fa7e7c8588058'
p2016
L144L
tp2017
a(S'__libc_dlvsym'
p2018
S'9de31059e0c2f777bf77'
p2019
L336L
tp2020
a(S'do_dlsym_private'
p2021
S'9de32059e0c2f710c2df02'
p2022
L140L
tp2023
a(S'do_dlsym'
p2024
S'9de3d20073b7761873af981000'
p2025
L60L
tp2026
a(S'do_dlvsym'
p2027
S'9de3d20073b7761873af'
p2028
L56L
tp2029
a(S'do_dlclose'
p2030
g137
L12L
tp2031
a(S'__libc_dlsym_private'
p2032
S'9de32059e0c2f777d777df0000ff901224a2a7ef020b1084a3045fa7e7c8588058'
p2033
L144L
tp2034
a(S'__libc_register_dl_open_hook'
p2035
S'9de3509010180010'
p2036
L76L
tp2037
a(S'__libc_dlopen_mode'
p2038
S'9de32059e0c2f777d7'
p2039
L128L
tp2040
a(S'fatal_error'
p2041
S'9de31059e0c2f758'
p2042
L180L
tp2043
a(S'_dl_signal_exception'
p2044
S'9de3500300847f030a10'
p2045
L104L
tp2046
a(S'_dl_signal_error'
p2047
S'9de3500300'
p2048
L104L
tp2049
a(S'_dl_catch_exception'
p2050
S'9de380e0c2f718030a10'
p2051
L236L
tp2052
a(S'_dl_catch_error'
p2053
S'9de33059e0c2f7101b'
p2054
L116L
tp2055
a(S'siglongjmp'
p2056
S'937a0172d22291d06f'
p2057
L16L
tp2058
a(S'__mpn_cmp'
p2059
S'94021583035a015a009202800968'
p2060
L108L
tp2061
a(S'__mpn_divrem'
p2062
S'9de3301018'
p2063
L2188L
tp2064
a(S'__mpn_lshift'
p2065
S'83035a7f'
p2066
L204L
tp2067
a(S'__mpn_rshift'
p2068
g137
L192L
tp2069
a(S'__mpn_mul'
p2070
S'9de3c22877f7'
p2071
L880L
tp2072
a(S'__mpn_mul_1'
p2073
S'9de39e201a0590100020b083035ac0318b70b8c005b130b2181000'
p2074
L152L
tp2075
a(S'__mpn_impn_mul_n_basecase'
p2076
S'9de350d65e80a2000234'
p2077
L272L
tp2078
a(S'__mpn_impn_mul_n'
p2079
S'9de350'
p2080
L1056L
tp2081
a(S'__mpn_impn_sqr_n_basecase'
p2082
S'9de350d65e00'
p2083
L272L
tp2084
a(S'__mpn_impn_sqr_n'
p2085
S'9de350'
p2086
L948L
tp2087
a(S'__mpn_mul_n'
p2088
S'9de3c22877f7'
p2089
L204L
tp2090
a(S'__mpn_sub_n'
p2091
S'8a008303020129c20dd65a0d9970'
p2092
L76L
tp2093
a(S'__mpn_submul_1'
p2094
S'9de39e201a2b03e096b72002b1'
p2095
L164L
tp2096
a(S'__mpn_extract_double'
p2097
S'9c03875ba883'
p2098
L224L
tp2099
a(S'__mpn_extract_long_double'
p2100
S'9c03875ba883'
p2101
L436L
tp2102
a(S'_itoa_word'
p2103
g137
L244L
tp2104
a(S'_fitoa_word'
p2105
S'9de32059e0c2f71018101a'
p2106
L136L
tp2107
a(S'snprintf'
p2108
S'9de3'
p2109
L1144L
tp2110
a(S'read_int_3'
p2111
g137
L152L
tp2112
a(S'char_buffer_add_slow'
p2113
S'9de350c200c000005e20f85e207f'
p2114
L100L
tp2115
a(S'_IO_vfscanf_internal'
p2116
S'9de3'
p2117
L21884L
tp2118
a(S'vfscanf'
p2119
S'9610006f'
p2120
L16L
tp2121
a(S'_IO_strn_overflow'
p2122
S'9de350b85e20800dc2282896100000'
p2123
L84L
tp2124
a(S'vsnprintf'
p2125
S'9de31059e0c2f777b27fba100010ff0020f600'
p2126
L192L
tp2127
a(S'init'
p2128
S'9de3500300'
p2129
L80L
tp2130
a(S'__dlerror'
p2131
S'9de3c22877f7100259c0130592127f91680300'
p2132
L600L
tp2133
a(S'check_free.isra.0'
p2134
S'9de35002009010180010'
p2135
L52L
tp2136
a(S'free_key_mem'
p2137
S'9de3507fffd0181010180000c0000010208100'
p2138
L56L
tp2139
a(S'_dlerror_run'
p2140
S'9de3500300'
p2141
L380L
tp2142
a(S'__libc_register_dlfcn_hook'
p2143
S'9de350901018002adf12020000'
p2144
L44L
tp2145
a(S'__dladdr'
p2146
S'961000c06800'
p2147
L20L
tp2148
a(S'__dladdr1'
p2149
S'800800961000c0680096100a6f'
p2150
L48L
tp2151
a(S'dlinfo_doit'
p2152
S'9de350c21000'
p2153
L220L
tp2154
a(S'__dlinfo'
p2155
S'9de32059e0c2f777df77d7'
p2156
L96L
tp2157
a(S'dlmopen_doit'
p2158
S'9de3c200c02000'
p2159
L124L
tp2160
a(S'__dlmopen'
p2161
S'9de32059e0c2f777cf77d7f4'
p2162
L128L
tp2163
a(S'strerror'
p2164
S'9de350901018adb01000c23b0a'
p2165
L100L
tp2166
a(S'strspn'
p2167
S'9c2301737f10087387738f7397'
p2168
L560L
tp2169
a(S'strsep'
p2170
S'9de350fa5e00020bff1d80'
p2171
L72L
tp2172
a(S'mbrlen'
p2173
g137
L36L
tp2174
a(S'mbrtowc'
p2175
S'9de3'
p2176
L536L
tp2177
a(S'profil_counter'
p2178
S'c20810ff58a20200c883'
p2179
L116L
tp2180
a(S'profil'
p2181
S'9de390c22877f7c6c228c010000000d8a220390a207fd3802c10ff00b370702000f4701800f6'
p2182
L392L
tp2183
a(S'__profile_frequency'
p2184
S'030ac3e0d0'
p2185
L12L
tp2186
a(S'_dl_fixup'
p2187
S'9de3305e20c27058a0045ee0852001830377f75e04101858a015b80880a10280100058a0e028028028f8980302030810001002011800d00073afc09001085f'
p2188
L980L
tp2189
a(S'_dl_profile_fixup'
p2190
S'9de3305e23'
p2191
L588L
tp2192
a(S'_dl_call_pltexit'
p2193
S'8100'
p2194
L8L
tp2195
a(S'add_to_global'
p2196
S'9de350e02280ba5e2286ffe0090087'
p2197
L560L
tp2198
a(S'_dl_find_dso_for_object'
p2199
S'9de350030a'
p2200
L184L
tp2201
a(S'_dl_open'
p2202
S'9de38068'
p2203
L452L
tp2204
a(S'_dl_show_scope'
p2205
S'9de350d2080000'
p2206
L344L
tp2207
a(S'dl_open_worker'
p2208
S'9de3305e00921024'
p2209
L1800L
tp2210
a(S'remove_slotinfo'
p2211
S'9de350'
p2212
L308L
tp2213
a(S'_dl_close_worker'
p2214
S'9de3b0'
p2215
L3764L
tp2216
a(S'_dl_close'
p2217
S'9de3500300'
p2218
L160L
tp2219
a(S'_dl_sort_maps'
p2220
S'9de32077870077d7847f94'
p2221
L604L
tp2222
a(S'_dl_addr'
p2223
S'9de3500300'
p2224
L932L
tp2225
a(S'_dl_addr_inside_object'
p2226
g137
L104L
tp2227
a(S'__strtof_internal'
p2228
S'0300847f030a10'
p2229
L36L
tp2230
a(S'strtof32'
p2231
S'03009410000a10'
p2232
L40L
tp2233
a(S'__strtod_internal'
p2234
S'0300847f030a10'
p2235
L36L
tp2236
a(S'strtof64'
p2237
S'03009410000a10'
p2238
L40L
tp2239
a(S'__strtold_internal'
p2240
S'0300847f030a10'
p2241
L36L
tp2242
a(S'strtold'
p2243
S'03009410000a10'
p2244
L40L
tp2245
a(S'round_and_return'
p2246
S'9de3c22877f730005fa7ef'
p2247
L884L
tp2248
a(S'str_to_mpn.isra.0'
p2249
S'9de350c023b1037aa22c20208620a200a820c200a002'
p2250
L860L
tp2251
a(S'____strtof_l_internal'
p2252
S'9de3c22877f71000c658'
p2253
L9608L
tp2254
a(S'strtof_l'
p2255
S'96100ac06ff6'
p2256
L20L
tp2257
a(S'round_and_return_0'
p2258
S'9de3c22877f730005fa7ef'
p2259
L904L
tp2260
a(S'str_to_mpn.isra.0_0'
p2261
S'9de350c023b1037aa22c20208620a200a820c200a002'
p2262
L860L
tp2263
a(S'____strtod_l_internal'
p2264
S'9de33059e0c2f71000c658'
p2265
L9616L
tp2266
a(S'strtof64_l'
p2267
S'96100ac06ff6'
p2268
L20L
tp2269
a(S'round_and_return_1'
p2270
S'9de33059e0c2f730005fa7df1000a000083b20006802200000967c800510ffa60200a30c01c7'
p2271
L1384L
tp2272
a(S'str_to_mpn.isra.0_1'
p2273
S'9de350c023b1037aa22c20208620a200a820c200a002'
p2274
L860L
tp2275
a(S'____strtold_l_internal'
p2276
S'0300'
p2277
L12512L
tp2278
a(S'strtold_l'
p2279
S'96100ac06f'
p2280
L20L
tp2281
a(S'__strtof_nan'
p2282
S'9de33059e0c2f740847f84bf19008701100090c0ffba28831800a0'
p2283
L256L
tp2284
a(S'__strtod_nan'
p2285
S'9de33059e0c2f740847f84bf19008701100090c0ffba28831800a0'
p2286
L276L
tp2287
a(S'__strtold_nan'
p2288
S'9de33059e0c2f740847f84bf19008701100090c0ffba28831800a0'
p2289
L292L
tp2290
a(S'__mpn_add_n'
p2291
S'8a008303020129c20dd65a0d9970'
p2292
L76L
tp2293
a(S'__mpn_addmul_1'
p2294
S'9de39e201a2b03e096b72002b1'
p2295
L164L
tp2296
a(S'__mpn_construct_float'
p2297
S'9c037f2aff5a00932a03e0941201a8c18b'
p2298
L56L
tp2299
a(S'__mpn_construct_double'
p2300
S'9c030030952aff2a832c12208073871b'
p2301
L68L
tp2302
a(S'__mpn_construct_long_double'
p2303
g137
L116L
tp2304
a(S'dlopen_doit'
p2305
S'9de3d22003'
p2306
L152L
tp2307
a(S'__dlopen'
p2308
S'9de32059e0c2f777d7'
p2309
L124L
tp2310
a(S'dlclose_doit'
p2311
g137
L12L
tp2312
a(S'__dlclose'
p2313
S'9de350921018001d80'
p2314
L32L
tp2315
a(S'dlsym_doit'
p2316
S'9de350'
p2317
L32L
tp2318
a(S'__dlsym'
p2319
S'9de32059e0c2f777d70300'
p2320
L156L
tp2321
a(S'dlvsym_doit'
p2322
S'9de350d65e20'
p2323
L36L
tp2324
a(S'__dlvsym'
p2325
S'9de32059e0c2f777d7f6e70000c077df007f5c9690128005d05fa7ef80000000c00000007f5c875fa7f71884200a0400000000'
p2326
L160L
tp2327
a(S'strncasecmp_l'
p2328
S'84008620'
p2329
L108L
tp2330
a(S'setitimer'
p2331
g137
L36L
tp2332
a(S'_Qp_add'
p2333
S'9de3c22877f710ff5e005e8033103197318a1dde085ea0'
p2334
L4096L
tp2335
a(S'_Qp_mul'
p2336
S'9de33059e0c2f710'
p2337
L3080L
tp2338
a(S'_dl_build_local_scope'
p2339
S'9de3507600'
p2340
L132L
tp2341
a(S'openaux'
p2342
S'9de350d0003000022c5e20800410015a2395323020ff08762000'
p2343
L68L
tp2344
a(S'_dl_map_object_deps'
p2345
S'9de3b0'
p2346
L3612L
tp2347
a(S'call_init.part.0'
p2348
S'9de350c22c0400235e20'
p2349
L316L
tp2350
a(S'_dl_init'
p2351
S'9de350e02100d030c2f85e2110007c0188185f20fa'
p2352
L352L
tp2353
a(S'_dl_check_map_versions'
p2354
S'9de3e07787778f5e20c0000058'
p2355
L1760L
tp2356
a(S'_dl_check_all_versions'
p2357
S'9de3500200b80000'
p2358
L92L
tp2359
a(S'call_dl_lookup'
p2360
S'9de3c2185e00'
p2361
L56L
tp2362
a(S'do_sym'
p2363
S'9de3e059e0c2f7ff2d030a'
p2364
L592L
tp2365
a(S'_dl_vsym'
p2366
S'9de33059e0c2f777'
p2367
L276L
tp2368
a(S'_dl_sym'
p2369
S'98100213006fff00'
p2370
L20L
tp2371
a(S'__clzdi2'
p2372
S'9de350'
p2373
L116L
tp2374
a(S'__bswapsi2'
p2375
S'8720831810'
p2376
L56L
tp2377
a(S'read_encoded_value_with_base'
p2378
S'9de35080'
p2379
L540L
tp2380
a(S'base_of_encoded_value'
p2381
S'9de35080'
p2382
L136L
tp2383
a(S'execute_cfa_program'
p2384
S'9de330007f500ba6001a347680e6'
p2385
L2344L
tp2386
a(S'init_dwarf_reg_size_table'
p2387
S'9de3508420'
p2388
L456L
tp2389
a(S'uw_frame_state_for'
p2390
S'9de3901019'
p2391
L1452L
tp2392
a(S'execute_stack_op'
p2393
S'9de3'
p2394
L2628L
tp2395
a(S'uw_update_context_1'
p2396
S'9de350b4a49423921018d7e9'
p2397
L1116L
tp2398
a(S'uw_init_context_1'
p2399
S'9de3'
p2400
L708L
tp2401
a(S'uw_update_context'
p2402
S'9de350921019'
p2403
L184L
tp2404
a(S'_Unwind_RaiseException_Phase2'
p2405
S'9de370'
p2406
L244L
tp2407
a(S'_Unwind_ForcedUnwind_Phase2'
p2408
S'9de3705e20e220b620101c'
p2409
L244L
tp2410
a(S'uw_install_context_1'
p2411
S'9de3'
p2412
L492L
tp2413
a(S'_Unwind_GetGR'
p2414
S'9de35080'
p2415
L128L
tp2416
a(S'_Unwind_GetCFA'
p2417
S'81'
p2418
L8L
tp2419
a(S'_Unwind_SetGR'
p2420
S'9de35080'
p2421
L132L
tp2422
a(S'_Unwind_GetIP'
p2423
S'81'
p2424
L8L
tp2425
a(S'_Unwind_GetIPInfo'
p2426
S'c2705a233081'
p2427
L20L
tp2428
a(S'_Unwind_SetIP'
p2429
S'81'
p2430
L8L
tp2431
a(S'_Unwind_GetLanguageSpecificData'
p2432
S'81'
p2433
L8L
tp2434
a(S'_Unwind_GetRegionStart'
p2435
S'81'
p2436
L8L
tp2437
a(S'_Unwind_FindEnclosingFunction'
p2438
S'9de330000dc2f77a0100'
p2439
L36L
tp2440
a(S'_Unwind_GetDataRelBase'
p2441
S'81'
p2442
L8L
tp2443
a(S'_Unwind_GetTextRelBase'
p2444
S'81'
p2445
L8L
tp2446
a(S'__frame_state_for'
p2447
S'9de38023921000cd901001a0ba779f92101db020802b0000'
p2448
L244L
tp2449
a(S'_Unwind_DebugHook'
p2450
S'8100'
p2451
L8L
tp2452
a(S'_Unwind_RaiseException'
p2453
S'9de39081'
p2454
L316L
tp2455
a(S'_Unwind_ForcedUnwind'
p2456
S'9de3'
p2457
L148L
tp2458
a(S'_Unwind_Resume'
p2459
S'9de3'
p2460
L168L
tp2461
a(S'_Unwind_Resume_or_Rethrow'
p2462
S'9de3'
p2463
L172L
tp2464
a(S'_Unwind_DeleteException'
p2465
S'9de350c208c00000c0100100'
p2466
L36L
tp2467
a(S'_Unwind_Backtrace'
p2468
S'9de380bd'
p2469
L144L
tp2470
a(S'frame_downheap'
p2471
S'9de350a0a40000a20000100a5e80c6'
p2472
L224L
tp2473
a(S'frame_heapsort'
p2474
S'9de350fa5ea00100'
p2475
L168L
tp2476
a(S'size_of_encoded_value'
p2477
S'9de35080158010000000800aa0207f010080fdb020810081208120'
p2478
L100L
tp2479
a(S'read_encoded_value_with_base_0'
p2480
S'9de3508080ae0500807c28051002c0'
p2481
L540L
tp2482
a(S'get_cie_encoding'
p2483
S'9de3bafe'
p2484
L328L
tp2485
a(S'fde_unencoded_compare'
p2486
S'9de392'
p2487
L76L
tp2488
a(S'base_from_object.isra.3'
p2489
S'9de3508019a00008'
p2490
L116L
tp2491
a(S'fde_single_encoding_compare'
p2492
S'9de3fa5e2094'
p2493
L124L
tp2494
a(S'linear_search_fdes'
p2495
S'9de3d0203235ba1011'
p2496
L368L
tp2497
a(S'fde_mixed_encoding_compare'
p2498
S'9de3c204'
p2499
L164L
tp2500
a(S'classify_object_over_fdes'
p2501
S'9de330'
p2502
L372L
tp2503
a(S'add_fdes'
p2504
S'9de3d02030ba1013'
p2505
L360L
tp2506
a(S'_Unwind_IteratePhdrCallback'
p2507
S'9de310'
p2508
L1240L
tp2509
a(S'search_object'
p2510
S'9de330'
p2511
L1776L
tp2512
a(S'__register_frame_info_bases.part.7'
p2513
S'9de350f4760876107600761828'
p2514
L176L
tp2515
a(S'__register_frame_info_bases'
p2516
S'02000100c20000'
p2517
L44L
tp2518
a(S'__register_frame_info'
p2519
S'02000100c20000961000c06fff01008100'
p2520
L48L
tp2521
a(S'__register_frame'
p2522
S'9de350c2000010300000b800ff'
p2523
L48L
tp2524
a(S'__register_frame_info_table_bases'
p2525
S'9de350f4760876107600761828'
p2526
L176L
tp2527
a(S'__register_frame_info_table'
p2528
S'961000c06fff0100'
p2529
L20L
tp2530
a(S'__register_frame_table'
p2531
S'9de350901030b800ff93'
p2532
L28L
tp2533
a(S'__deregister_frame_info_bases'
p2534
S'9de350'
p2535
L360L
tp2536
a(S'__deregister_frame_info'
p2537
g137
L12L
tp2538
a(S'__deregister_frame'
p2539
S'9de350c2000000000000ff6eb9'
p2540
L44L
tp2541
a(S'_Unwind_Find_FDE'
p2542
S'9de320007f09000d'
p2543
L568L
tp2544
a(S'base_of_encoded_value_0'
p2545
S'9de3508014'
p2546
L124L
tp2547
a(S'read_encoded_value_with_base_1'
p2548
S'9de3508079'
p2549
L540L
tp2550
a(S'__gcc_personality_v0'
p2551
S'9de300'
p2552
L616L
tp2553
a(S'dl_iterate_phdr'
p2554
S'9de30059e0c2f71002'
p2555
L304L
tp2556
a(S'__do_global_ctors_aux'
p2557
S'9de350030a3b00ba'
p2558
L76L
tp2559
a(S'call___do_global_ctors_aux'
p2560
S'9de3508100'
p2561
L12L
tp2562
a(S'_fini'
p2563
S'9de3507f3c01008100'
p2564
L20L
tp2565
a.