(lp0
(S'_init'
p1
S'9de350'
p2
L72L
tp3
a(S'abort'
p4
S'9de33059e0c2f710'
p5
L524L
tp6
a(S'fini'
p7
S'030a'
p8
L20L
tp9
a(S'_start'
p10
S'bc23af9403'
p11
L64L
tp12
a(S'__sparc_get_pc_thunk.l7'
p13
S'81'
p14
L8L
tp15
a(S'deregister_tm_clones'
p16
S'9de350030a000012000201000010832010800b00001083201002040000000000'
p17
L108L
tp18
a(S'register_tm_clones'
p19
S'9de350030a000012000201000028'
p20
L124L
tp21
a(S'__do_global_dtors_aux'
p22
S'9de350'
p23
L288L
tp24
a(S'call___do_global_dtors_aux'
p25
S'9de3508100'
p26
L12L
tp27
a(S'frame_dummy'
p28
S'9de3500300051083201002'
p29
L92L
tp30
a(S'call_frame_dummy'
p31
S'9de3508100'
p32
L12L
tp33
a(S'_Z15attack_app_httphP13attack_targethP13attack_option'
p34
S'0300189de30100ae05ff000010187787a8c27f1002'
p35
L18092L
tp36
a(S'_Z11attack_initv'
p37
S'9de350'
p38
L328L
tp39
a(S'_Z15attack_kill_allv'
p40
S'9de3'
p41
L200L
tp42
a(S'_Z12attack_parsePci'
p43
S'9de330777f1019'
p44
L1304L
tp45
a(S'_Z12attack_startihhP13attack_targethP13attack_option'
p46
S'9de3'
p47
L484L
tp48
a(S'_Z18attack_get_opt_strhP13attack_optionhPc'
p49
S'9de3'
p50
L176L
tp51
a(S'_Z18attack_get_opt_inthP13attack_optionhi'
p52
S'9de3'
p53
L148L
tp54
a(S'_Z17attack_get_opt_iphP13attack_optionhj'
p55
S'9de3'
p56
L144L
tp57
a(S'_ZL10add_attackhPFvhP13attack_targethP13attack_optionE'
p58
S'9de3'
p59
L256L
tp60
a(S'_ZL9free_optsP13attack_optioni'
p61
S'9de3'
p62
L172L
tp63
a(S'_Z13attack_gre_iphP13attack_targethP13attack_option'
p64
S'9de3d00050ae05'
p65
L2676L
tp66
a(S'_Z14attack_gre_ethhP13attack_targethP13attack_option'
p67
S'9de3b000ae05e70100ba10187787a8c27f1002'
p68
L2988L
tp69
a(S'_Z14attack_tcp_synhP13attack_targethP13attack_option'
p70
S'9de3e000ae05e40100ba10187787a8c27f1002'
p71
L2992L
tp72
a(S'_Z14attack_tcp_ackhP13attack_targethP13attack_option'
p73
S'9de3d000ae05e20100ba10187787a8c27f1002'
p74
L2912L
tp75
a(S'_Z16attack_tcp_stomphP13attack_targethP13attack_option'
p76
S'9de3a07fdf0100b810187787a8c27f1002'
p77
L3600L
tp78
a(S'_Z18attack_udp_generichP13attack_targethP13attack_option'
p79
S'9de3'
p80
L2076L
tp81
a(S'_Z14attack_udp_vsehP13attack_targethP13attack_option'
p82
S'9de3'
p83
L1900L
tp84
a(S'_Z14attack_udp_dnshP13attack_targethP13attack_option'
p85
S'9de3b000ae05d7d0000010187787a8c27f1002'
p86
L2388L
tp87
a(S'_Z16attack_udp_plainhP13attack_targethP13attack_option'
p88
S'9de3107787a8c27f1002'
p89
L1320L
tp90
a(S'_ZL16get_dns_resolverv'
p91
S'9de310000010'
p92
L868L
tp93
a(S'_Z16checksum_genericPtj'
p94
S'9de350'
p95
L180L
tp96
a(S'_Z15checksum_tcpudpP5iphdrPvti'
p97
S'9de330777f7787101b'
p98
L456L
tp99
a(S'_Z11killer_initv'
p100
S'9de300'
p101
L2332L
tp102
a(S'_Z11killer_killv'
p103
S'9de350'
p104
L72L
tp105
a(S'_Z19killer_kill_by_portt'
p106
S'0300'
p107
L3464L
tp108
a(S'_ZL14has_exe_accessv'
p109
S'9de300'
p110
L616L
tp111
a(S'_ZL17memory_scan_matchPc'
p112
S'9de300a8c0'
p113
L1052L
tp114
a(S'_ZL10mem_existsPciS_i'
p115
S'9de3'
p116
L280L
tp117
a(S'main'
p118
S'9de3000031ff'
p119
L4132L
tp120
a(S'_ZL14anti_gdb_entryi'
p121
S'9de350'
p122
L72L
tp123
a(S'_ZL16resolve_cnc_addrv'
p124
S'9de3'
p125
L284L
tp126
a(S'_ZL20establish_connectionv'
p127
S'9de350'
p128
L352L
tp129
a(S'_ZL19teardown_connectionv'
p130
S'9de350'
p131
L128L
tp132
a(S'_ZL22ensure_single_instancev'
p133
S'9de330002c05'
p134
L800L
tp135
a(S'_ZL21unlock_tbl_if_nodebugPc'
p136
S'9de3d0002bff750000a80304'
p137
L688L
tp138
a(S'_Z9rand_initv'
p139
S'9de350'
p140
L208L
tp141
a(S'_Z9rand_nextv'
p142
S'9de3'
p143
L308L
tp144
a(S'_Z8rand_strPci'
p145
S'9de350'
p146
L244L
tp147
a(S'_Z13rand_alphastrPhi'
p148
S'9de320777f1019'
p149
L416L
tp150
a(S'_Z25resolv_domain_to_hostnamePcS_'
p151
S'9de330777f77875fa8000000c2fbc27f77efc27f00c2e7'
p152
L268L
tp153
a(S'_ZL16resolv_skip_namePhS_Pi'
p154
S'9de3'
p155
L264L
tp156
a(S'_Z13resolv_lookupPc'
p157
S'9de300a8921010000100'
p158
L2904L
tp159
a(S'_Z19resolv_entries_freeP14resolv_entries'
p160
S'9de350'
p161
L88L
tp162
a(S'_Z15recv_strip_nulliPvii'
p163
S'9de3'
p164
L244L
tp165
a(S'_Z12scanner_initv'
p166
S'9de3e000ae05bf00000100'
p167
L9456L
tp168
a(S'_Z12scanner_killv'
p169
S'9de350'
p170
L72L
tp171
a(S'_ZL16setup_connectionP18scanner_connection'
p172
S'9de3'
p173
L396L
tp174
a(S'_ZL13get_random_ipv'
p175
S'9de37ff1a2c2fbc2fbc2fac2fb8308'
p176
L848L
tp177
a(S'_ZL12consume_iacsP18scanner_connection'
p178
S'9de320001bff00777f'
p179
L876L
tp180
a(S'_ZL18consume_any_promptP18scanner_connection'
p181
S'9de3'
p182
L336L
tp183
a(S'_ZL19consume_user_promptP18scanner_connection'
p184
S'9de3'
p185
L588L
tp186
a(S'_ZL19consume_pass_promptP18scanner_connection'
p187
S'9de3'
p188
L436L
tp189
a(S'_ZL19consume_resp_promptP18scanner_connection'
p190
S'9de3'
p191
L336L
tp192
a(S'_ZL14add_auth_entryPcS_t'
p193
S'9de3'
p194
L672L
tp195
a(S'_ZL17random_auth_entryv'
p196
S'9de3'
p197
L376L
tp198
a(S'_ZL14report_workingjtP12scanner_auth'
p199
S'9de3201019778f'
p200
L824L
tp201
a(S'_ZL5deobfPcPi'
p202
S'9de3'
p203
L352L
tp204
a(S'_ZL11can_consumeP18scanner_connectionPhi'
p205
S'9de3'
p206
L100L
tp207
a(S'_Z10table_initv'
p208
S'9de350'
p209
L1636L
tp210
a(S'_Z16table_unlock_valh'
p211
S'9de3'
p212
L100L
tp213
a(S'_Z14table_lock_valh'
p214
S'9de3'
p215
L100L
tp216
a(S'_Z18table_retrieve_valiPi'
p217
S'9de3'
p218
L124L
tp219
a(S'_ZL9add_entryhPci'
p220
S'9de3'
p221
L196L
tp222
a(S'_ZL10toggle_obfh'
p223
S'9de330001405ae8110'
p224
L452L
tp225
a(S'_Z11util_strlenPc'
p226
S'9de3'
p227
L100L
tp228
a(S'_Z12util_strncmpPcS_i'
p229
S'9de3'
p230
L260L
tp231
a(S'_Z11util_strcmpPcS_'
p232
S'9de3'
p233
L232L
tp234
a(S'_Z11util_strcpyPcS_'
p235
S'9de3'
p236
L84L
tp237
a(S'_Z11util_memcpyPvS_i'
p238
S'9de3'
p239
L124L
tp240
a(S'_Z9util_zeroPvi'
p241
S'9de3'
p242
L96L
tp243
a(S'_Z9util_atoiPci'
p244
S'9de320777f1019'
p245
L836L
tp246
a(S'_Z9util_itoaiiPc'
p247
S'9de3101019778f'
p248
L460L
tp249
a(S'_Z14util_memsearchPciS_i'
p250
S'9de3'
p251
L268L
tp252
a(S'_Z12util_stristrPciS_'
p253
S'9de330777f1019778f'
p254
L416L
tp255
a(S'_Z15util_local_addrv'
p256
S'9de330'
p257
L260L
tp258
a(S'_Z11util_fdgetsPcii'
p259
S'9de3'
p260
L260L
tp261
a(S'_ZL12util_isupperc'
p262
S'9de350'
p263
L96L
tp264
a(S'_ZL12util_isalphac'
p265
S'9de350'
p266
L144L
tp267
a(S'_ZL12util_isspacec'
p268
S'9de350'
p269
L144L
tp270
a(S'_ZL12util_isdigitc'
p271
S'9de350'
p272
L96L
tp273
a(S'__libc_start_main'
p274
S'9de330777f7787778f1005c200'
p275
L1388L
tp276
a(S'check_one_fd'
p277
S'9de3c07092100100000000000a10'
p278
L204L
tp279
a(S'__libc_check_standard_fds'
p280
S'9de3509010000201ff93321300b2007fffb02010c3'
p281
L48L
tp282
a(S'__libc_setup_tls'
p283
S'9de350030a0a58'
p284
L448L
tp285
a(S'__libc_csu_init'
p286
S'9de3503b0a00ba10c0c63b0a10005f00009fc01018a6c0'
p287
L156L
tp288
a(S'__libc_csu_fini'
p289
S'9de3503b0a00ba10208570028000f8ba5f00'
p290
L76L
tp291
a(S'__errno_location'
p292
S'1100'
p293
L28L
tp294
a(S'__assert_fail_base'
p295
S'9de31059e0c2f71002041000a65f901001006c'
p296
L360L
tp297
a(S'__assert_fail'
p298
S'9de35094100511'
p299
L52L
tp300
a(S'dcgettext'
p301
S''
p302
L28L
tp303
a(S'plural_eval'
p304
S'9de350c2000004008024a020d008ff9210197a0128b000'
p305
L328L
tp306
a(S'transcmp'
p307
S'9de350c220c0'
p308
L132L
tp309
a(S'plural_lookup.isra.2'
p310
S'9de350921019ff5e2080'
p311
L100L
tp312
a(S'_nl_find_msg'
p313
S'9de32059e0c2f777cf80767797f85e20020020c2'
p314
L2776L
tp315
a(S'__dcigettext'
p316
S'9de3b059e0c2f7778fc6779f80'
p317
L1884L
tp318
a(S'_nl_find_domain'
p319
S'9de3'
p320
L708L
tp321
a(S'_nl_load_domain'
p322
S'9de33059e0c2f710'
p323
L5796L
tp324
a(S'alias_compare'
p325
S'155a0000'
p326
L28L
tp327
a(S'read_alias_file'
p328
S'9de390'
p329
L1108L
tp330
a(S'_nl_expand_alias'
p331
S'9de350'
p332
L544L
tp333
a(S'_nl_make_l10nflist'
p334
S'9de310f590101c1018a8c2efa28e04000090101da20000d0afa820a20000d0b70201'
p335
L1228L
tp336
a(S'_nl_normalize_codeset'
p337
S'9de35002b800'
p338
L312L
tp339
a(S'_nl_explode_name'
p340
S'9de350c0c0c0c0'
p341
L596L
tp342
a(S'__gettext_free_exp'
p343
S'9de35002000000'
p344
L92L
tp345
a(S'new_exp'
p346
S'9de350'
p347
L228L
tp348
a(S'__gettextparse'
p349
S'9de3c22877f7'
p350
L2232L
tp351
a(S'__gettext_extract_plural'
p352
S'9de33059e0c2f71018000d13050800901018208501908000030509a02005186884008970'
p353
L344L
tp354
a(S'__hash_string'
p355
S'0b00680083040001088518'
p356
L80L
tp357
a(S'_setjmp'
p358
S'1020'
p359
L8L
tp360
a(S'setjmp'
p361
S'10'
p362
L8L
tp363
a(S'__sigsetjmp'
p364
S'd222'
p365
L20L
tp366
a(S'__bsd_signal.part.0'
p367
S'9de31059e0c2f777'
p368
L168L
tp369
a(S'ssignal'
p370
g302
L100L
tp371
a(S'raise'
p372
S'9de3c22877f7'
p373
L312L
tp374
a(S'__rt_sigreturn_stub'
p375
g302
L16L
tp376
a(S'__libc_sigaction'
p377
S'9de31059e0c2f7c610005e0077'
p378
L276L
tp379
a(S'sigaction'
p380
S'84'
p381
L76L
tp382
a(S'sigprocmask'
p383
S'9de350901018101a1091d06d1a0410001001c00000cfe00100b000847f9010ff0068'
p384
L96L
tp385
a(S'kill'
p386
g302
L36L
tp387
a(S'sigemptyset'
p388
S'9de3500200941080'
p389
L76L
tp390
a(S'sigaddset'
p391
S'867f80007a01908000800a0088208590037200c3e090'
p392
L116L
tp393
a(S'atoi'
p394
S'9de35090101803921000cfe00100'
p395
L32L
tp396
a(S'msort_with_tmp.part.0'
p397
S'9de377f710195e00b28000a6a01c1010ff901018'
p398
L824L
tp399
a(S'qsort_r'
p400
S'9de32059e0c2f770'
p401
L732L
tp402
a(S'qsort'
p403
S'9810006fff00'
p404
L16L
tp405
a(S'getenv'
p406
S'9de350030a58'
p407
L336L
tp408
a(S'__run_exit_handlers'
p409
S'9de350'
p410
L676L
tp411
a(S'exit'
p412
S'9de3509010180068941001ff120100'
p413
L32L
tp414
a(S'__new_exitfn'
p415
S'9de350030a08800100fa5e00028a2090101d02c000ff020258a003c00210b0'
p416
L320L
tp417
a(S'__internal_atexit'
p418
S'9de3503b0a1001e700007fff0200c23072107218720872007f8010a0200090101c6f'
p419
L200L
tp420
a(S'__cxa_atexit'
p421
g302
L20L
tp422
a(S'__strtoll_internal'
p423
S'0300847f030a10'
p424
L36L
tp425
a(S'strtoq'
p426
S'03009610000a10'
p427
L40L
tp428
a(S'__strtoull_internal'
p429
S'0300847f030a10'
p430
L36L
tp431
a(S'strtouq'
p432
S'03009610000a10'
p433
L40L
tp434
a(S'____strtoll_l_internal'
p435
S'9de3a21000a0a001000300847f030a10'
p436
L1592L
tp437
a(S'strtoll_l'
p438
S'98100b13006f'
p439
L20L
tp440
a(S'____strtoull_l_internal'
p441
S'9de3ba1000c6a0a0a001000300847f030a10'
p442
L1412L
tp443
a(S'strtoull_l'
p444
S'98100b13006f'
p445
L20L
tp446
a(S'__correctly_grouped_prefixmb'
p447
S'9de35002c00000e6101a'
p448
L656L
tp449
a(S'asprintf'
p450
S'9de3'
p451
L104L
tp452
a(S'locked_vfxprintf'
p453
S'9de33077e759e0c2f7a000002210'
p454
L376L
tp455
a(S'__fxprintf'
p456
S'9de3fa77a7f477'
p457
L312L
tp458
a(S'__fxprintf_nocancel'
p459
S'9de3fa77a7f477'
p460
L328L
tp461
a(S'fclose'
p462
S'9de350c2008812781018883253b1'
p463
L644L
tp464
a(S'fflush'
p465
S'9de3500200ba'
p466
L304L
tp467
a(S'__fopen_maybe_mmap'
p468
S'c274880210000002006800c2c000050057'
p469
L96L
tp470
a(S'__fopen_internal'
p471
S'9de350901028'
p472
L232L
tp473
a(S'fopen64'
p474
S'9410016fff0100'
p475
L16L
tp476
a(S'adjust_wide_data'
p477
S'9de33059e0c2f75f'
p478
L260L
tp479
a(S'_IO_wfile_underflow'
p480
S'9de32059e0c2f78812'
p481
L1744L
tp482
a(S'_IO_wfile_seekoff'
p483
S'9de380e0c2f7c6c2a0'
p484
L2144L
tp485
a(S'_IO_wfile_underflow_maybe_mmap'
p486
S'9de3500085a2'
p487
L56L
tp488
a(S'_IO_wfile_underflow_mmap'
p489
S'9de33059e0c2f7881254'
p490
L412L
tp491
a(S'_IO_wdo_write'
p492
S'9de31059e0c2f75e20da285e20025bfa5e20'
p493
L472L
tp494
a(S'_IO_wfile_overflow'
p495
S'9de350'
p496
L780L
tp497
a(S'_IO_wfile_sync'
p498
S'9de3c2a080105800'
p499
L420L
tp500
a(S'_IO_wfile_xsputn'
p501
S'9de350b8c6f6a0'
p502
L416L
tp503
a(S'vasprintf'
p504
S'9de350c22877f71002000098100010ff0020008e778f0058'
p505
L348L
tp506
a(S'backtrace_and_maps.constprop.0'
p507
S'8100'
p508
L8L
tp509
a(S'__libc_message'
p510
S'9de3f477'
p511
L776L
tp512
a(S'__libc_fatal'
p513
S'9de3503b'
p514
L36L
tp515
a(S'_IO_vtable_check'
p516
S'9de350030510c000080000ff90123800'
p517
L40L
tp518
a(S'fgets_unlocked'
p519
S'9de350b8a6'
p520
L180L
tp521
a(S'_IO_file_seekoff_maybe_mmap'
p522
S'9de350fa5e2003'
p523
L100L
tp524
a(S'_IO_file_close'
p525
S'd07013006800'
p526
L16L
tp527
a(S'_IO_new_file_setbuf'
p528
S'9de350901018101a0d19c2b000c23877307728772077187708771000'
p529
L72L
tp530
a(S'_IO_file_setbuf_mmap'
p531
S'9de350'
p532
L132L
tp533
a(S'new_do_write'
p534
S'9de350ba0057'
p535
L352L
tp536
a(S'_IO_new_file_underflow'
p537
S'9de350c200'
p538
L740L
tp539
a(S'_IO_file_close_mmap'
p540
S'9de350c2385e2010015c9222c0c0206800'
p541
L44L
tp542
a(S'mmap_remap_check'
p543
S'9de3a0'
p544
L568L
tp545
a(S'_IO_file_seek'
p546
S'd07013006800'
p547
L16L
tp548
a(S'_IO_file_sync_mmap'
p549
S'9de350c2085e20'
p550
L116L
tp551
a(S'decide_maybe_mmap'
p552
S'9de3b059e0c2f70057051084a001'
p553
L468L
tp554
a(S'_IO_file_underflow_maybe_mmap'
p555
S'9de3507ffffa5e2003'
p556
L88L
tp557
a(S'_IO_file_xsgetn_maybe_mmap'
p558
S'9de3507fff00fa5e2003'
p559
L96L
tp560
a(S'_IO_new_file_seekoff'
p561
S'9de3a0'
p562
L1520L
tp563
a(S'_IO_file_stat'
p564
S'9410092010036800'
p565
L24L
tp566
a(S'_IO_new_file_write'
p567
S'9de35004801000'
p568
L136L
tp569
a(S'_IO_file_xsgetn_mmap'
p570
S'9de350f85e20fa5e20baa71a6800c200'
p571
L288L
tp572
a(S'_IO_file_xsgetn'
p573
S'9de3c238c01018c6d2085f'
p574
L540L
tp575
a(S'_IO_file_seekoff_mmap'
p576
S'9de35002c010180080235e20c60057f85f'
p577
L320L
tp578
a(S'_IO_file_underflow_mmap'
p579
S'9de350c2085e2080'
p580
L176L
tp581
a(S'_IO_file_read'
p582
S'c2740270881205'
p583
L44L
tp584
a(S'_IO_new_file_xsputn'
p585
S'9de350b8c6'
p586
L452L
tp587
a(S'_IO_new_file_init_internal'
p588
S'9de350c20010021018769000c20020cfe00100'
p589
L52L
tp590
a(S'_IO_new_file_init'
p591
S'9de350c20010021018769000c20020cfe00100'
p592
L52L
tp593
a(S'_IO_file_open'
p594
S'9de350c274101800803900021008000004'
p595
L284L
tp596
a(S'_IO_new_file_attach'
p597
S'9de350c270a0'
p598
L208L
tp599
a(S'_IO_new_do_write'
p600
S'9de3500a80a02094101a'
p601
L64L
tp602
a(S'_IO_new_file_close_it'
p603
S'9de350fa'
p604
L416L
tp605
a(S'_IO_new_file_fopen'
p606
S'9de32059e0c2f7a000c2000180130000847fb020030a10'
p607
L1312L
tp608
a(S'_IO_new_file_finish'
p609
S'9de350c270a000c2c0009010185e20'
p610
L184L
tp611
a(S'_IO_new_file_overflow'
p612
S'9de350c200'
p613
L548L
tp614
a(S'_IO_new_file_sync'
p615
S'9de3'
p616
L304L
tp617
a(S'save_for_backup'
p618
S'9de350e220c2'
p619
L368L
tp620
a(S'flush_cleanup'
p621
S'9de350030a58'
p622
L216L
tp623
a(S'_IO_un_link.part.2'
p624
S'9de32059e0c2f7'
p625
L656L
tp626
a(S'_IO_un_link'
p627
S'c2006800'
p628
L36L
tp629
a(S'_IO_link_in'
p630
S'9de32059e0c2f78812683900b8c70000941000fb7590'
p631
L568L
tp632
a(S'_IO_least_marker'
p633
g302
L44L
tp634
a(S'_IO_switch_to_main_get_area'
p635
g302
L52L
tp636
a(S'_IO_switch_to_backup_area'
p637
g302
L52L
tp638
a(S'_IO_switch_to_get_mode'
p639
S'9de350c2285e208015fa5e2003'
p640
L192L
tp641
a(S'_IO_free_backup_area'
p642
S'9de350c20068205e20'
p643
L80L
tp644
a(S'__overflow'
p645
S'9de350c2c000'
p646
L108L
tp647
a(S'__underflow'
p648
S'9de350c2c00080ff20c200'
p649
L340L
tp650
a(S'__uflow'
p651
S'9de350c2c00080ff20c200'
p652
L356L
tp653
a(S'_IO_setb'
p654
S'9de350d038c2c200'
p655
L104L
tp656
a(S'_IO_doallocbuf'
p657
S'9de350c238c0'
p658
L208L
tp659
a(S'_IO_default_underflow'
p660
S'81'
p661
L8L
tp662
a(S'_IO_default_uflow'
p663
S'9de350fa5e2003'
p664
L108L
tp665
a(S'_IO_default_xsputn'
p666
S'9de350b60002801000005921'
p667
L256L
tp668
a(S'_IO_sgetn'
p669
S'9de350fa5e2003'
p670
L88L
tp671
a(S'_IO_default_xsgetn'
p672
S'9de350b85e20fa5e20800d801ca7'
p673
L188L
tp674
a(S'_IO_default_setbuf'
p675
S'9de350f85e2003'
p676
L280L
tp677
a(S'_IO_default_seekpos'
p678
S'9de350fa5e2003'
p679
L92L
tp680
a(S'_IO_default_doallocate'
p681
S'9de350006a0008c2ba00085e20b8c2c200'
p682
L100L
tp683
a(S'_IO_enable_locks'
p684
S'030a00800d'
p685
L72L
tp686
a(S'_IO_old_init'
p687
S'03eb9212030a00d20080387283c0c274720872107220722872307268c0c0c0c080200100c0c08100'
p688
L120L
tp689
a(S'_IO_init_internal'
p690
S'9de350921019ff90101876a820'
p691
L44L
tp692
a(S'_IO_init'
p693
g302
L12L
tp694
a(S'_IO_no_init'
p695
S'9de350921019ff90101800f420f6a0c0c0c0c0c0c0c0c0c0f8763076a8cfe00100'
p696
L112L
tp697
a(S'_IO_default_sync'
p698
S'8120'
p699
L8L
tp700
a(S'_IO_default_finish'
p701
S'9de350d038c2c2'
p702
L136L
tp703
a(S'_IO_default_seekoff'
p704
S'81'
p705
L8L
tp706
a(S'_IO_sputbackc'
p707
S'9de350c2085e2080095e20'
p708
L164L
tp709
a(S'_IO_sungetc'
p710
S'9de350c2085e20800a5e20847f'
p711
L144L
tp712
a(S'_IO_adjust_column'
p713
S'860a'
p714
L88L
tp715
a(S'_IO_flush_all_lockp'
p716
S'9de32059e0c2f71400'
p717
L700L
tp718
a(S'_IO_cleanup'
p719
S'9de32059e0c2f7'
p720
L828L
tp721
a(S'_IO_flush_all'
p722
S'9010016ffe'
p723
L16L
tp724
a(S'_flushlbf'
p725
S'9de32059e0c2f7'
p726
L660L
tp727
a(S'_IO_init_marker'
p728
S'9de3507608'
p729
L116L
tp730
a(S'_IO_remove_marker'
p731
S'c20858'
p732
L80L
tp733
a(S'_IO_marker_difference'
p734
S'd020c210c3e0913a'
p735
L20L
tp736
a(S'_IO_marker_delta'
p737
S'c208c010ff00800858'
p738
L64L
tp739
a(S'_IO_seekmark'
p740
S'c208'
p741
L176L
tp742
a(S'_IO_unsave_markers'
p743
S'c2'
p744
L44L
tp745
a(S'_IO_default_pbackfail'
p746
S'9de350fa5e20f618'
p747
L364L
tp748
a(S'_IO_default_seek'
p749
S'81'
p750
L8L
tp751
a(S'_IO_default_stat'
p752
S'81'
p753
L8L
tp754
a(S'_IO_default_read'
p755
S'81'
p756
L8L
tp757
a(S'_IO_default_write'
p758
S'8120'
p759
L8L
tp760
a(S'_IO_default_showmanyc'
p761
S'81'
p762
L8L
tp763
a(S'_IO_default_imbue'
p764
S'8100'
p765
L8L
tp766
a(S'_IO_iter_begin'
p767
S'030ac3e0d098'
p768
L12L
tp769
a(S'_IO_iter_end'
p770
S'8120'
p771
L8L
tp772
a(S'_IO_iter_next'
p773
S'81'
p774
L8L
tp775
a(S'_IO_iter_file'
p776
S'8100'
p777
L8L
tp778
a(S'_IO_list_lock'
p779
S'9de350b800725f'
p780
L88L
tp781
a(S'_IO_list_unlock'
p782
S'9de3500500ff200000901018781000921081201a041000100100'
p783
L92L
tp784
a(S'_IO_list_resetlock'
p785
S'030a701070'
p786
L16L
tp787
a(S'_IO_str_underflow'
p788
S'c2285a208005c2105a00842085b086c0a000c208'
p789
L108L
tp790
a(S'_IO_str_overflow'
p791
S'9de350'
p792
L388L
tp793
a(S'enlarge_userbuf'
p794
S'9de350f6385e20'
p795
L376L
tp796
a(S'_IO_str_seekoff'
p797
S'9de350ba'
p798
L736L
tp799
a(S'_IO_str_pbackfail'
p800
g302
L52L
tp801
a(S'_IO_str_finish'
p802
S'9de350d038c2c0c200'
p803
L64L
tp804
a(S'_IO_str_init_static_internal'
p805
S'9de3502a80100029ba1000007ff8b976207618c6760876287630761076e0cfe0010080ff501a101d90101876207618'
p806
L160L
tp807
a(S'_IO_str_init_static'
p808
S'80ff38'
p809
L28L
tp810
a(S'_IO_str_init_readonly'
p811
S'9de35080ffc01019'
p812
L56L
tp813
a(S'_IO_str_count'
p814
S'c2285a20d018500220'
p815
L28L
tp816
a(S'_dl_tunable_set_mmap_threshold'
p817
S'c200a00ac3e00100c238c3e0c25c'
p818
L44L
tp819
a(S'_dl_tunable_set_mmaps_max'
p820
g302
L24L
tp821
a(S'_dl_tunable_set_top_pad'
p822
g302
L24L
tp823
a(S'_dl_tunable_set_perturb_byte'
p824
g302
L16L
tp825
a(S'_dl_tunable_set_trim_threshold'
p826
g302
L24L
tp827
a(S'_dl_tunable_set_arena_max'
p828
g302
L16L
tp829
a(S'_dl_tunable_set_arena_test'
p830
g302
L16L
tp831
a(S'_dl_tunable_set_tcache_max'
p832
g302
L64L
tp833
a(S'_dl_tunable_set_tcache_count'
p834
g302
L16L
tp835
a(S'_dl_tunable_set_tcache_unsorted_limit'
p836
g302
L16L
tp837
a(S'mem2mem_check'
p838
S'0200'
p839
L136L
tp840
a(S'mem2chunk_check'
p841
S'8a200a52862086'
p842
L664L
tp843
a(S'int_mallinfo'
p844
S'9de350c2'
p845
L292L
tp846
a(S'__malloc_assert'
p847
S'9de330006c'
p848
L104L
tp849
a(S'detach_arena'
p850
S'9de35002000100c28005c28000'
p851
L72L
tp852
a(S'get_free_list'
p853
S'9de350'
p854
L320L
tp855
a(S'malloc_printerr'
p856
S'9de3509410180038'
p857
L28L
tp858
a(S'top_check'
p859
S'9de350'
p860
L132L
tp861
a(S'malloc_consolidate'
p862
S'9de350c008'
p863
L728L
tp864
a(S'new_heap'
p865
S'9de350b200030a'
p866
L400L
tp867
a(S'munmap_chunk'
p868
S'9de350c208'
p869
L180L
tp870
a(S'mremap_chunk'
p871
S'9de350'
p872
L372L
tp873
a(S'ptmalloc_init'
p874
S'9de3c22877f7'
p875
L396L
tp876
a(S'arena_get2.part.2'
p877
S'9de3503b0a006a5f'
p878
L1124L
tp879
a(S'arena_get_retry'
p880
S'9de350b8006a'
p881
L220L
tp882
a(S'_dl_tunable_set_mallopt_check'
p883
S'c2000000721001200500'
p884
L96L
tp885
a(S'__malloc_info.part.7'
p886
S'9de3000018'
p887
L1204L
tp888
a(S'systrim.isra.1.constprop.8'
p889
S'9de350390a5f20fa58'
p890
L204L
tp891
a(S'_int_free'
p892
S'9de33059e0c2f708840018de80a7'
p893
L2900L
tp894
a(S'sysmalloc'
p895
S'9de330c65ca13868201000006a'
p896
L1964L
tp897
a(S'_int_malloc'
p898
S'9de3e0'
p899
L4012L
tp900
a(S'malloc_check'
p901
S'9de3508021006a1001e7000001007f5a010092'
p902
L192L
tp903
a(S'tcache_init.part.4'
p904
S'9de3500300847f030a10'
p905
L300L
tp906
a(S'_int_memalign'
p907
S'9de350'
p908
L524L
tp909
a(S'memalign_check'
p910
S'9de3508030a62008'
p911
L348L
tp912
a(S'free_check'
p913
S'9de35002003b0a1001e70000901018ef94921000c2b000c208c010007f98801c101c6f35921008f5e6'
p914
L252L
tp915
a(S'_int_realloc'
p916
S'9de350'
p917
L972L
tp918
a(S'realloc_check'
p919
S'9de3c22877f7'
p920
L668L
tp921
a(S'__malloc_fork_lock_parent'
p922
S'9de350030a008015'
p923
L140L
tp924
a(S'__malloc_fork_unlock_parent'
p925
S'9de350030a006a0086e0882080120078000090100258a880fa'
p926
L192L
tp927
a(S'__malloc_fork_unlock_child'
p928
S'030a0080230072200300847f030a10'
p929
L160L
tp930
a(S'__malloc_check_init'
p931
S'030a1001200500'
p932
L80L
tp933
a(S'malloc'
p934
S'9de350030a58'
p935
L860L
tp936
a(S'malloc_hook_ini'
p937
S'9de350030a'
p938
L24L
tp939
a(S'_mid_memalign'
p940
S'9de350030a58'
p941
L760L
tp942
a(S'memalign_hook_ini'
p943
S'9de350b4e0030a'
p944
L28L
tp945
a(S'free'
p946
S'9de350030a58'
p947
L240L
tp948
a(S'__malloc_arena_thread_freeres'
p949
S'9de3500300'
p950
L336L
tp951
a(S'realloc'
p952
S'9de350ba006a58'
p953
L872L
tp954
a(S'realloc_hook_ini'
p955
S'9de350030a7020006a'
p956
L32L
tp957
a(S'memalign'
p958
S'9403086ffd'
p959
L16L
tp960
a(S'valloc'
p961
S'9de350030a0080'
p962
L64L
tp963
a(S'pvalloc'
p964
S'9de350030a0080190000006c84'
p965
L132L
tp966
a(S'calloc'
p967
S'9de3508400'
p968
L1000L
tp969
a(S'malloc_trim'
p970
S'9de3030a00806a0000006cb4a01a100100c3e500000000'
p971
L636L
tp972
a(S'malloc_usable_size'
p973
S'9de350020084'
p974
L256L
tp975
a(S'mallinfo'
p976
S'9de32059e0c2f70080380000006a77cfb877d7c0c0c0ba1001101ae7000092'
p977
L280L
tp978
a(S'malloc_stats'
p979
S'9de31059e0c2f7006a5d'
p980
L504L
tp981
a(S'mallopt'
p982
S'9de350030a008014006a1001e700007fe898b020805b0304b120b130'
p983
L436L
tp984
a(S'posix_memalign'
p985
S'9de35089708a'
p986
L92L
tp987
a(S'malloc_info'
p988
S'9de3500a00006a00800a001990ae9012006feb81e09010'
p989
L92L
tp990
a(S'__default_morecore'
p991
S'9de35000901018a270'
p992
L28L
tp993
a(S'strchr'
p994
S'928a028386c00a0010857002c0c0a2020020d65a00857086c01a0300d6da'
p995
L848L
tp996
a(S'strrchr'
p997
S'928a02ab880080588770d65a000386c028102886c010857086c01a0300d6da'
p998
L420L
tp999
a(S'strcmp'
p1000
g302
L408L
tp1001
a(S'strcpy'
p1002
S'038c00'
p1003
L592L
tp1004
a(S'strcspn'
p1005
S'9c2301737f10087387738f7397'
p1006
L560L
tp1007
a(S'strdup'
p1008
S'9de350009000b4207ff60200101868008120'
p1009
L48L
tp1010
a(S'strlen'
p1011
S'9210085a00'
p1012
L156L
tp1013
a(S'strncmp'
p1014
S'02808099'
p1015
L916L
tp1016
a(S'critical_factorization'
p1017
g302
L312L
tp1018
a(S'two_way_long_needle'
p1019
S'9de3c22877f7101bff'
p1020
L896L
tp1021
a(S'strstr'
p1022
S'9de3c22877f71018a000a2008600882010'
p1023
L1032L
tp1024
a(S'memcmp'
p1025
S'02808a'
p1026
L312L
tp1027
a(S'memmove'
p1028
S'840080'
p1029
L496L
tp1030
a(S'memset'
p1031
S'928a'
p1032
L572L
tp1033
a(S'bzero'
p1034
g302
L568L
tp1035
a(S'stpcpy'
p1036
S'03'
p1037
L692L
tp1038
a(S'strcasecmp_l'
p1039
S'80105aa0000086e0c8'
p1040
L76L
tp1041
a(S'__memcpy_large'
p1042
S'02'
p1043
L284L
tp1044
a(S'mempcpy'
p1045
S'10'
p1046
L8L
tp1047
a(S'memcpy'
p1048
S'880002bf08ff80d300'
p1049
L1344L
tp1050
a(S'rawmemchr'
p1051
S'920a03d60a001085709813092b1010128b30808570d65a00981305961a0c2201da80fc9002083202'
p1052
L372L
tp1053
a(S'strchrnul'
p1054
g302
L572L
tp1055
a(S'wmempcpy'
p1056
S'952a006ffdb000'
p1057
L16L
tp1058
a(S'mbsrtowcs'
p1059
S'030a108396100100000a10'
p1060
L52L
tp1061
a(S'_nl_cleanup_ctype'
p1062
S'9de350fa5e20020dd2185f'
p1063
L68L
tp1064
a(S'__wcsmbs_getfct'
p1065
S'9de33059e0c2f71000'
p1066
L136L
tp1067
a(S'__wcsmbs_load_conv'
p1068
S'9de3c22877f71022'
p1069
L532L
tp1070
a(S'__wcsmbs_clone_conv'
p1071
S'9de3500300847f030a10'
p1072
L176L
tp1073
a(S'__wcsmbs_named_conv'
p1074
S'9de35094'
p1075
L92L
tp1076
a(S'__mbsrtowcs_l'
p1077
S'9de3'
p1078
L924L
tp1079
a(S'clock'
p1080
S'9de33059e0c2f7100212b0'
p1081
L112L
tp1082
a(S'time'
p1083
S'9de33059e0c2f70015baa2'
p1084
L104L
tp1085
a(S'gettimeofday'
p1086
S'9de3509010181074d06d1a0410001001c00000cfe00100b000847f9010ff0068'
p1087
L88L
tp1088
a(S'__alloc_dir'
p1089
S'9de350021b28390002c02a045ee039008000a700b9'
p1090
L212L
tp1091
a(S'opendir_tail'
p1092
S'9de3b059e0c2f7a7'
p1093
L196L
tp1094
a(S'__opendirat'
p1095
S'9de350c200009010181000929532'
p1096
L80L
tp1097
a(S'opendir'
p1098
S'9de350c200009010181000933210b3e800847f030a10'
p1099
L76L
tp1100
a(S'closedir'
p1101
S'9de3500200901018'
p1102
L68L
tp1103
a(S'readdir64'
p1104
S'9de350ba00000068b6e00100b4200101e600000100c21868'
p1105
L356L
tp1106
a(S'sleep'
p1107
S'9de33059e0c2f7'
p1108
L128L
tp1109
a(S'nanosleep'
p1110
S'9de350c2180090101810f991d06d1a0410001001c00000cfe001000000000000901018d06d1a0410001001c03a001081009020080a10'
p1111
L204L
tp1112
a(S'fork'
p1113
S'9de350fa01181090100000100000941000100010d96820902008c002900a80b120030a58'
p1114
L488L
tp1115
a(S'_exit'
p1116
S'9de350901018000000688400'
p1117
L196L
tp1118
a(S'getpid'
p1119
g302
L16L
tp1120
a(S'getppid'
p1121
g302
L16L
tp1122
a(S'setsid'
p1123
g302
L36L
tp1124
a(S'__sysconf_check_spec'
p1125
S'9de3b059e0c2f70068b8000000013c9012a07fed'
p1126
L244L
tp1127
a(S'sysconf'
p1128
S'9de31059e0c2f700101800a6208069308092'
p1129
L984L
tp1130
a(S'sched_yield'
p1131
g302
L36L
tp1132
a(S'__get_child_max'
p1133
S'9de33059e0c2f700'
p1134
L84L
tp1135
a(S'_xstat'
p1136
S'9de3b059e0c2f700901019108b6820902008c0101a039010185fa7f71884200a'
p1137
L228L
tp1138
a(S'_fxstat'
p1139
S'9de3b059e0c2f70090101910'
p1140
L228L
tp1141
a(S'open64'
p1142
S'9de33077'
p1143
L336L
tp1144
a(S'read'
p1145
S'9de350c218009210192091d06d1a0410001001c81008000018030a10'
p1146
L204L
tp1147
a(S'write'
p1148
S'9de350c2180092101920d06d1a0410001001c81008000018030a10'
p1149
L204L
tp1150
a(S'lseek64'
p1151
S'9de3c22877f770941019101ad06d1a0410001001a20a5fa7f71884200a0d81000300902008'
p1152
L160L
tp1153
a(S'fcntl64'
p1154
S'9de3'
p1155
L340L
tp1156
a(S'close'
p1157
S'9de350c21800'
p1158
L196L
tp1159
a(S'chdir'
p1160
g302
L36L
tp1161
a(S'getcwd'
p1162
S'9de37059e0c2f71019c60300007800000004a2'
p1163
L1716L
tp1164
a(S'readlink'
p1165
g302
L36L
tp1166
a(S'unlink'
p1167
g302
L36L
tp1168
a(S'__xstat_conv'
p1169
S'9de3508080000518'
p1170
L244L
tp1171
a(S'__xstat32_conv'
p1172
S'9de350802a5e'
p1173
L208L
tp1174
a(S'__close_nocancel'
p1175
S'9de350901018d06d1a0410001001c00000cfe00100b000847f9010ff0068'
p1176
L84L
tp1177
a(S'__fcntl64_nocancel_adjusted'
p1178
S'9de3c22877f70092101920206820902008c000005fa7f71884200a2400000000'
p1179
L244L
tp1180
a(S'__fcntl64_nocancel'
p1181
S'9de3f477'
p1182
L104L
tp1183
a(S'__open_nocancel'
p1184
S'9de3f477'
p1185
L200L
tp1186
a(S'__openat_nocancel'
p1187
S'9de3f697f8779ffa77a7c22877f7'
p1188
L196L
tp1189
a(S'__read_nocancel'
p1190
S'9de350901018101ad06d1a0410001001c010080000000018030a10'
p1191
L92L
tp1192
a(S'__write_nocancel'
p1193
S'9de350901018101ad06d1a0410001001c010080000000018030a10'
p1194
L92L
tp1195
a(S'getrlimit64'
p1196
S'9de35092101810001091d06d1a0410001001c00000cfe00100b000847f9010ff0068'
p1197
L96L
tp1198
a(S'sbrk'
p1199
S'9de350390a5f22030a0080150200010004008400'
p1200
L200L
tp1201
a(S'ioctl'
p1202
g302
L36L
tp1203
a(S'getpagesize'
p1204
S'9de350030a'
p1205
L64L
tp1206
a(S'getdtablesize'
p1207
S'9de33059e0c2f7'
p1208
L88L
tp1209
a(S'select'
p1210
S'9de350c21800901018101a101c10e6d06d1a0410001001c00000cfe00100003d8400921019101a101c10e6d06d1a0410001001c03a00'
p1211
L228L
tp1212
a(S'mmap64'
p1213
S'9de350'
p1214
L144L
tp1215
a(S'munmap'
p1216
g302
L36L
tp1217
a(S'mprotect'
p1218
g302
L36L
tp1219
a(S'madvise'
p1220
g302
L36L
tp1221
a(S'trecurse'
p1222
S'9de350c208c8101a5e20021590101810005e20900afec294'
p1223
L184L
tp1224
a(S'tdestroy_recurse'
p1225
S'9de350d008c20100d010c201009fc65e0010c6ff9210195e2002'
p1226
L92L
tp1227
a(S'maybe_split_for_insert.isra.0'
p1228
S'900afe5a20'
p1229
L436L
tp1230
a(S'tsearch'
p1231
S'9de35002a410005e00cf285f'
p1232
L312L
tp1233
a(S'tfind'
p1234
S'9de3502a0d10'
p1235
L80L
tp1236
a(S'tdelete'
p1237
S'9de3c22877f7031b5e00c7b810285800c6802c100800'
p1238
L1476L
tp1239
a(S'twalk'
p1240
S'8420'
p1241
L48L
tp1242
a(S'tdestroy'
p1243
S'0200'
p1244
L28L
tp1245
a(S'next_line'
p1246
S'9de350e0805ec0100a10107a941011c280fa76005ec0a010'
p1247
L376L
tp1248
a(S'sysinfo_mempages'
p1249
S'9de3507ffc6b008000a6'
p1250
L128L
tp1251
a(S'__get_nprocs_conf.part.0'
p1252
S'0300'
p1253
L232L
tp1254
a(S'get_nprocs'
p1255
S'9de32059e0c2f7100010085ea101'
p1256
L796L
tp1257
a(S'get_nprocs_conf'
p1258
S'9de3c22877f700a8ff0db6e00200b8ff2c101cc2ba6080fa941003ffcf90'
p1259
L240L
tp1260
a(S'get_phys_pages'
p1261
S'9de3d059e0c2f7'
p1262
L72L
tp1263
a(S'get_avphys_pages'
p1264
S'9de3d059e0c2f7'
p1265
L72L
tp1266
a(S'__getclktck'
p1267
S'030a00808120'
p1268
L24L
tp1269
a(S'__init_misc'
p1270
S'9de35002'
p1271
L68L
tp1272
a(S'mremap'
p1273
g302
L36L
tp1274
a(S'prctl'
p1275
g302
L36L
tp1276
a(S'sysinfo'
p1277
g302
L36L
tp1278
a(S'accept'
p1279
S'9de350c21800901018101ad06d1a0410001001c00000cfe0010000'
p1280
L212L
tp1281
a(S'bind'
p1282
S'9de31059e0c2f777'
p1283
L160L
tp1284
a(S'connect'
p1285
S'9de350c21800901018101ad06d1a0410001001c00000cfe0010000c1008400921019101ad06d1a0410001001c03a0001901002000018030a10'
p1286
L212L
tp1287
a(S'getsockname'
p1288
g302
L36L
tp1289
a(S'getsockopt'
p1290
g302
L36L
tp1291
a(S'listen'
p1292
S'9de33059e0c2f777e777ef92'
p1293
L144L
tp1294
a(S'recv'
p1295
S'9de350c21800901018101a1000107dd06d1a0410001001c81008000018030a10'
p1296
L228L
tp1297
a(S'recvfrom'
p1298
S'9de350c21800901018101a101c101d91d06d1a0410001001c81008000018030a10'
p1299
L228L
tp1300
a(S'send'
p1301
S'9de350c21800901018101a100010856820902008c81008000018030a10'
p1302
L228L
tp1303
a(S'sendto'
p1304
S'9de350c21800901018101a101c101d91d06d1a0410001001c81008000018030a10'
p1305
L228L
tp1306
a(S'setsockopt'
p1307
S'9de32059e0c2f777cf77d7f477df77e777ef92'
p1308
L156L
tp1309
a(S'socket'
p1310
S'9de33059e0c2f777df77e777ef92'
p1311
L148L
tp1312
a(S'__libc_alloca_cutoff'
p1313
g302
L76L
tp1314
a(S'__lll_lock_wait_private'
p1315
S'9de350c200009010181002108e68209020081002008010108000d06d1a04100010017e00ff90101800'
p1316
L148L
tp1317
a(S'__libc_enable_asynccancel'
p1318
S'9de3508600c2081080'
p1319
L136L
tp1320
a(S'__libc_disable_asynccancel'
p1321
S'9de35080'
p1322
L184L
tp1323
a(S'__register_atfork'
p1324
S'9de3503b0a1001e2000000030a08801c0072'
p1325
L392L
tp1326
a(S'__unregister_atfork'
p1327
S'9de350390a1001e6000000005ea1005ea101'
p1328
L448L
tp1329
a(S'__run_fork_handlers'
p1330
S'9de3500a00051001e20000000000725f'
p1331
L356L
tp1332
a(S'clock_gettime'
p1333
S'9de35090101810016820902008c02008cfe0010003009010ff0a10'
p1334
L96L
tp1335
a(S'__stack_chk_fail_local'
p1336
S'9de3501305000092120100'
p1337
L24L
tp1338
a(S'__fortify_fail_abort'
p1339
S'9de350390576002068'
p1340
L84L
tp1341
a(S'__fortify_fail'
p1342
S'9de350921018'
p1343
L20L
tp1344
a(S'ntohl'
p1345
S'8100'
p1346
L8L
tp1347
a(S'ntohs'
p1348
S'8100'
p1349
L8L
tp1350
a(S'inet_aton'
p1351
S'9de33059e0c2f70068b8'
p1352
L396L
tp1353
a(S'inet_addr'
p1354
S'9de3c22877f7'
p1355
L88L
tp1356
a(S'_dl_debug_state'
p1357
S'8100'
p1358
L8L
tp1359
a(S'_dl_debug_initialize'
p1360
S'090a11588490'
p1361
L120L
tp1362
a(S'do_tunable_update_val'
p1363
S'c20800a00000c21010005a2087011000880100'
p1364
L208L
tp1365
a(S'tunable_initialize'
p1366
S'9de3c20800'
p1367
L84L
tp1368
a(S'__tunable_set_val'
p1369
S'9020030a109000'
p1370
L28L
tp1371
a(S'__tunables_init'
p1372
S'9de35035'
p1373
L1800L
tp1374
a(S'__tunable_get_val'
p1375
S'9de350b020030a108618000800801ca0e0841858a018e0850100'
p1376
L160L
tp1377
a(S'_dl_aux_init'
p1378
S'9de310007670b8027e00765aa2cf'
p1379
L804L
tp1380
a(S'_dl_non_dynamic_init'
p1381
S'9de300765f21030a0a703870d05ee2'
p1382
L2240L
tp1383
a(S'__libc_init_secure'
p1384
S'9de350030a0080040000000072010000baa220052008000072010000ba1a1d8000200800'
p1385
L120L
tp1386
a(S'_dl_mcount_wrapper'
p1387
S'92100813006800'
p1388
L20L
tp1389
a(S'_dl_mcount_wrapper_check'
p1390
S'030a58'
p1391
L40L
tp1392
a(S'_dl_discover_osversion'
p1393
S'9de38025802910000900a018090100d0a1bf020001e0'
p1394
L308L
tp1395
a(S'__libc_init_first'
p1396
S'9de350030084'
p1397
L188L
tp1398
a(S'__syscall_error'
p1399
S'0300847f030a10'
p1400
L32L
tp1401
a(S'__gconv_open'
p1402
S'9de33059e0c2f7ffba0200ffb60201c2a21000009210'
p1403
L1164L
tp1404
a(S'__gconv'
p1405
S'9de380'
p1406
L472L
tp1407
a(S'__gconv_alias_compare'
p1408
S'd2005a00'
p1409
L20L
tp1410
a(S'derivation_compare'
p1411
S'9de350d000d35e000001005e'
p1412
L52L
tp1413
a(S'__gconv_get_modules_db'
p1414
S'030ac3e0d0'
p1415
L12L
tp1416
a(S'__gconv_get_alias_db'
p1417
S'030ac3e0d0'
p1418
L12L
tp1419
a(S'__gconv_release_step'
p1420
S'9de350d000c2c2c210a020c2305e20a01d90101d9010185e0000530100c081000a040008000000fd9612f89410e2127f7e9012d800'
p1421
L144L
tp1422
a(S'find_derivation'
p1423
S'9de30059e0c2f77e1b77bf03049410030a00c0ab7e1977ef'
p1424
L2452L
tp1425
a(S'__gconv_compare_alias'
p1426
S'9de33059e0c2f71002'
p1427
L308L
tp1428
a(S'__gconv_find_transform'
p1429
S'9de33059e0c2f710027500110a127f219012f83b0a1001e400000000101b0000901018001008007658'
p1430
L684L
tp1431
a(S'__gconv_close_transform'
p1432
S'9de350390a1001e600000100020b'
p1433
L172L
tp1434
a(S'insert_module'
p1435
S'9de350390a'
p1436
L280L
tp1437
a(S'detect_conflict'
p1438
S'9de350030a58'
p1439
L96L
tp1440
a(S'add_module.isra.0'
p1441
S'9de33059e0c2f7'
p1442
L932L
tp1443
a(S'add_alias2.isra.1.part.2'
p1444
S'9de350b480ff8ac2ba1018207fdb18770000d0080076121d921202000100c200'
p1445
L120L
tp1446
a(S'__gconv_get_path'
p1447
S'9de3c22877f71001e60000210a5c22'
p1448
L876L
tp1449
a(S'__gconv_read_conf'
p1450
S'9de30059e0c2f7100577b71800011dc2c7'
p1451
L1300L
tp1452
a(S'__gconv_get_builtin_trans'
p1453
S'9de3503905fdb8121003'
p1454
L188L
tp1455
a(S'__gconv_btwoc_ascii'
p1456
S'80ffc3e09132'
p1457
L20L
tp1458
a(S'__gconv_transform_internal_ucs4'
p1459
S'9de32059e0c2f738e8'
p1460
L916L
tp1461
a(S'__gconv_transform_ucs4_internal'
p1462
S'9de31059e0c2f7'
p1463
L1344L
tp1464
a(S'__gconv_transform_internal_ucs4le'
p1465
S'9de31059e0c2f7'
p1466
L1240L
tp1467
a(S'__gconv_transform_ucs4le_internal'
p1468
S'9de3'
p1469
L1460L
tp1470
a(S'__gconv_transform_ascii_internal'
p1471
S'9de32059e0c2f7a8'
p1472
L708L
tp1473
a(S'__gconv_transform_internal_ascii'
p1474
S'9de3e059e0c2f7'
p1475
L2024L
tp1476
a(S'__gconv_transform_internal_utf8'
p1477
S'9de3d059e0c2f7'
p1478
L2936L
tp1479
a(S'__gconv_transform_utf8_internal'
p1480
S'9de31059e0c2f7'
p1481
L3188L
tp1482
a(S'__gconv_transform_ucs2_internal'
p1483
S'9de31059e0c2f7'
p1484
L1720L
tp1485
a(S'__gconv_transform_internal_ucs2'
p1486
S'9de3d059e0c2f7'
p1487
L2576L
tp1488
a(S'__gconv_transform_ucs2reverse_internal'
p1489
S'9de31059e0c2f7'
p1490
L1756L
tp1491
a(S'__gconv_transform_internal_ucs2reverse'
p1492
S'9de3d059e0c2f7'
p1493
L2624L
tp1494
a(S'__gconv_transliterate'
p1495
S'9de3e059e0c2f777bf77cfae101c5ec0101d02045e20c2300a15a7af0300'
p1496
L1184L
tp1497
a(S'find_module_idx'
p1498
S'9de350901018007458'
p1499
L220L
tp1500
a(S'find_module'
p1501
S'9de3c22877f71018ff19101dba7f921018a87fc10094101cff7e10190290101dd0005a20c2285a20c2c0'
p1502
L244L
tp1503
a(S'__gconv_get_cache'
p1504
S'030ae0d0'
p1505
L12L
tp1506
a(S'__gconv_load_cache'
p1507
S'9de3b059e0c2f7ff9012800ac2d07810000000'
p1508
L512L
tp1509
a(S'__gconv_compare_alias_cache'
p1510
S'9de33059e0c2f758'
p1511
L168L
tp1512
a(S'__gconv_lookup_cache'
p1513
S'9de32059e0c2f75c2002'
p1514
L1144L
tp1515
a(S'__gconv_release_cache'
p1516
S'030a'
p1517
L36L
tp1518
a(S'known_compare'
p1519
S'd2005a00'
p1520
L20L
tp1521
a(S'do_release_shlib'
p1522
S'9de350800300'
p1523
L176L
tp1524
a(S'__gconv_find_shlib'
p1525
S'9de350'
p1526
L420L
tp1527
a(S'__gconv_release_shlib'
p1528
S'030a04d028007458'
p1529
L36L
tp1530
a(S'_nl_postload_ctype'
p1531
S'030a58'
p1532
L140L
tp1533
a(S'__current_locale_name'
p1534
S'030090021030030a10'
p1535
L40L
tp1536
a(S'__ctype_b_loc'
p1537
S'1100'
p1538
L28L
tp1539
a(S'__ctype_toupper_loc'
p1540
S'1100'
p1541
L28L
tp1542
a(S'__ctype_tolower_loc'
p1543
S'1100'
p1544
L28L
tp1545
a(S'__ctype_init'
p1546
S'030a0000180059c00000588018'
p1547
L104L
tp1548
a(S'__setfpucw'
p1549
S'9de3c22877f70c005fa7efb000b000'
p1550
L92L
tp1551
a(S'_quicksort'
p1552
S'9de3c22877f7b0a87fa80080a80077f7201a1018a31c6e1a70b21ac69010190094101c1019101300a0101c101910100010ada0101d901019'
p1553
L1076L
tp1554
a(S'__add_to_environ'
p1555
S'9de3c22877f71018c6'
p1556
L896L
tp1557
a(S'setenv'
p1558
S'9de350020010180080090000ae38c2b60010150300847f030a10'
p1559
L88L
tp1560
a(S'unsetenv'
p1561
S'9de35002000000008092103d901018c203007fb190101810081001e600000100030a58'
p1562
L328L
tp1563
a(S'clearenv'
p1564
S'9de3503b0a20b8e700000100'
p1565
L208L
tp1566
a(S'secure_getenv'
p1567
S'030a008005'
p1568
L40L
tp1569
a(S'read_int'
p1570
g302
L152L
tp1571
a(S'group_number'
p1572
S'9de350e0c004ff0000001009b090101c801019101d901018'
p1573
L296L
tp1574
a(S'_i18n_number_rewrite'
p1575
S'9de30059e0c2f70090127010080010b60092101d90102cc7'
p1576
L584L
tp1577
a(S'_IO_helper_overflow'
p1578
S'9de3d0285e20baa7'
p1579
L204L
tp1580
a(S'printf_positional'
p1581
S'9de35084bf2877f7'
p1582
L8736L
tp1583
a(S'vfprintf'
p1584
S'9de31059e0c2f70068a00101'
p1585
L9196L
tp1586
a(S'buffered_vfprintf'
p1587
S'0300'
p1588
L704L
tp1589
a(S'hack_digit'
p1590
S'9de350c20000da28'
p1591
L356L
tp1592
a(S'_i18n_number_rewrite_0'
p1593
S'9de30059e0c2f7008e100800b110b60092101d90102cc7'
p1594
L584L
tp1595
a(S'__guess_grouping.part.0'
p1596
g302
L124L
tp1597
a(S'__printf_fp_l'
p1598
S'9de33059e0c2f7'
p1599
L9676L
tp1600
a(S'__printf_fp'
p1601
S'030096100a00030a10'
p1602
L44L
tp1603
a(S'__guess_grouping'
p1604
S'c200a000'
p1605
L40L
tp1606
a(S'__printf_fphex'
p1607
S'9de31059e0c2f7'
p1608
L6188L
tp1609
a(S'register_printf_modifier'
p1610
S'9de350c200a00010390000000300c204a0'
p1611
L408L
tp1612
a(S'__handle_registered_modifier_mb'
p1613
S'9de350f85e00030a58'
p1614
L288L
tp1615
a(S'__handle_registered_modifier_wc'
p1616
S'9de350f85e00030a58'
p1617
L292L
tp1618
a(S'fprintf'
p1619
S'9de3'
p1620
L104L
tp1621
a(S'read_int_0'
p1622
S'c81b33'
p1623
L208L
tp1624
a(S'group_number_0'
p1625
S'9de350e0c004ff0080cfe0901009101d901018'
p1626
L252L
tp1627
a(S'_i18n_number_rewrite_1'
p1628
S'9de33059e0c2f700'
p1629
L360L
tp1630
a(S'_IO_helper_overflow_0'
p1631
S'9de3'
p1632
L260L
tp1633
a(S'printf_positional_0'
p1634
S'9de384bf2877f7'
p1635
L8768L
tp1636
a(S'vfwprintf'
p1637
S'9de32059e0c2f70068a0011d901018'
p1638
L9464L
tp1639
a(S'buffered_vfprintf_0'
p1640
S'0300'
p1641
L724L
tp1642
a(S'sscanf'
p1643
S'9de3'
p1644
L104L
tp1645
a(S'funlockfile'
p1646
S'9de350d08802040080c20472087a0000921081201a041000100100'
p1647
L88L
tp1648
a(S'read_int_1'
p1649
g302
L152L
tp1650
a(S'__parse_one_specmb'
p1651
S'9de350c20c10ffa001a0f884a00c'
p1652
L1764L
tp1653
a(S'read_int_2'
p1654
S'c81b33'
p1655
L208L
tp1656
a(S'__parse_one_specwc'
p1657
S'9de350c20c10ffa004a0f884a020a0d0000100051000200900008050830000000000'
p1658
L1768L
tp1659
a(S'_IO_file_doallocate'
p1660
S'9de3b059e0c2f7a0'
p1661
L392L
tp1662
a(S'fputs'
p1663
S'9de3507f72901018'
p1664
L356L
tp1665
a(S'_IO_wfile_doallocate'
p1666
S'9de350c238c00000'
p1667
L112L
tp1668
a(S'fwrite'
p1669
S'9de350b8c71b'
p1670
L464L
tp1671
a(S'getdelim'
p1672
S'9de3508420'
p1673
L700L
tp1674
a(S'_IO_getline_info'
p1675
S'9de3500203'
p1676
L340L
tp1677
a(S'_IO_getline'
p1678
g302
L16L
tp1679
a(S'_IO_padn'
p1680
S'9de33059e0c2f7a6'
p1681
L372L
tp1682
a(S'vsscanf'
p1683
S'9de350c22877f710000090'
p1684
L144L
tp1685
a(S'_IO_wpadn'
p1686
S'9de30059e0c2f7a6'
p1687
L372L
tp1688
a(S'save_for_wbackup.isra.0'
p1689
S'9de350ca005e00e2'
p1690
L444L
tp1691
a(S'_IO_least_wmarker'
p1692
g302
L52L
tp1693
a(S'_IO_switch_to_main_wget_area'
p1694
S'c20022005a20c8ca50'
p1695
L56L
tp1696
a(S'_IO_switch_to_wbackup_area'
p1697
S'c20022005a20ca0858'
p1698
L56L
tp1699
a(S'_IO_wsetb'
p1700
S'9de350'
p1701
L112L
tp1702
a(S'_IO_wdefault_pbackfail'
p1703
S'9de350fa5e20f85f005f'
p1704
L352L
tp1705
a(S'_IO_wdefault_finish'
p1706
S'9de350'
p1707
L120L
tp1708
a(S'_IO_wdefault_uflow'
p1709
S'9de350fa5e2003'
p1710
L112L
tp1711
a(S'__woverflow'
p1712
S'9de350c2c00003'
p1713
L152L
tp1714
a(S'_IO_wdefault_xsputn'
p1715
S'9de350028010005e20fa5c20bac7bba71ba7'
p1716
L212L
tp1717
a(S'_IO_wdoallocbuf'
p1718
S'9de3505e202204'
p1719
L88L
tp1720
a(S'_IO_wdefault_doallocate'
p1721
S'9de3507f040008c2'
p1722
L56L
tp1723
a(S'_IO_switch_to_wget_mode'
p1724
S'9de350c2a0800dc23058'
p1725
L148L
tp1726
a(S'_IO_free_wbackup_area'
p1727
S'9de350'
p1728
L100L
tp1729
a(S'__wuflow'
p1730
S'9de350c2c00002921001'
p1731
L388L
tp1732
a(S'__wunderflow'
p1733
S'9de350c2c00002921001'
p1734
L380L
tp1735
a(S'_IO_wdefault_xsgetn'
p1736
S'9de350b85e20fa58a00a0000a71c10a7'
p1737
L204L
tp1738
a(S'_IO_sputbackwc'
p1739
S'9de350c2a080'
p1740
L160L
tp1741
a(S'_IO_sungetwc'
p1742
S'9de350c2a080'
p1743
L152L
tp1744
a(S'_IO_adjust_wcolumn'
p1745
S'87b08603'
p1746
L96L
tp1747
a(S'_IO_init_wmarker'
p1748
S'9de3507608'
p1749
L128L
tp1750
a(S'_IO_wmarker_delta'
p1751
S'c208c010ff00'
p1752
L76L
tp1753
a(S'_IO_seekwmark'
p1754
g302
L184L
tp1755
a(S'_IO_unsave_wmarkers'
p1756
S'c2'
p1757
L44L
tp1758
a(S'do_encoding'
p1759
S'c2'
p1760
L44L
tp1761
a(S'do_always_noconv'
p1762
S'8120'
p1763
L8L
tp1764
a(S'do_max_length'
p1765
S'c281'
p1766
L12L
tp1767
a(S'do_in'
p1768
S'9de32059e0c2f777effa7650c25876705e205fa8c200c05ea00194'
p1769
L232L
tp1770
a(S'do_unshift'
p1771
S'9de33059e0c2f7769076b05e2002045ee0c230ff1d92'
p1772
L216L
tp1773
a(S'do_out'
p1774
S'9de32059e0c2f777effa7690c29876b05e20c200c05ea00193a690101d'
p1775
L232L
tp1776
a(S'do_length'
p1777
S'9de32059e0c2f7'
p1778
L180L
tp1779
a(S'_IO_fwide'
p1780
S'9de32059e0c2f700c2c0002a115e20c2f71884200a560100810080f710ff6fffc2c0'
p1781
L488L
tp1782
a(S'__libc_scratch_buffer_grow_preserve'
p1783
S'9de350fa5e20f600a6c0'
p1784
L180L
tp1785
a(S'__libc_scratch_buffer_set_array_size'
p1786
S'9de350861a208720780100'
p1787
L236L
tp1788
a(S'__libc_dynarray_at_failure'
p1789
S'9de380e0c2f710190034'
p1790
L56L
tp1791
a(S'__libc_dynarray_emplace_enlarge'
p1792
S'9de350c208c83080'
p1793
L312L
tp1794
a(S'strerror_r'
p1795
S'9de33059e0c2f70003'
p1796
L408L
tp1797
a(S'strnlen'
p1798
S'02'
p1799
L448L
tp1800
a(S'strtok_r'
p1801
S'9de3502200'
p1802
L112L
tp1803
a(S'memchr'
p1804
S'920a0280'
p1805
L600L
tp1806
a(S'wcslen'
p1807
g302
L160L
tp1808
a(S'wmemcpy'
p1809
S'952a006f720100'
p1810
L16L
tp1811
a(S'wmemmove'
p1812
S'952a006f6b00'
p1813
L16L
tp1814
a(S'wmemset'
p1815
S'8011100a20d2'
p1816
L112L
tp1817
a(S'btowc'
p1818
S'9de3e0'
p1819
L456L
tp1820
a(S'wcrtomb'
p1821
S'9de3e0'
p1822
L540L
tp1823
a(S'wcsrtombs'
p1824
S'9de3'
p1825
L748L
tp1826
a(S'wcsnlen'
p1827
g302
L188L
tp1828
a(S'wcschrnul'
p1829
S'100302001880ff'
p1830
L52L
tp1831
a(S'rewinddir'
p1832
S'9de350ba1001e700000100941000'
p1833
L140L
tp1834
a(S'__getdents64'
p1835
S'9de350901018101ad06d1a0410001001c010080000000018030a10'
p1836
L92L
tp1837
a(S'fdopendir'
p1838
S'9de3b059e0c2f7'
p1839
L244L
tp1840
a(S'uname'
p1841
g302
L36L
tp1842
a(S'getuid'
p1843
g302
L16L
tp1844
a(S'geteuid'
p1845
g302
L16L
tp1846
a(S'getgid'
p1847
g302
L16L
tp1848
a(S'getegid'
p1849
g302
L16L
tp1850
a(S'_lxstat'
p1851
S'9de3b059e0c2f70090101910846820902008c0101a7c9010185fa7f71884200a'
p1852
L228L
tp1853
a(S'__fxstatat64'
p1854
S'9de3b059e0c2f7101a0010216820902008c0100a'
p1855
L160L
tp1856
a(S'isatty'
p1857
S'9de32059e0c2f700'
p1858
L76L
tp1859
a(S'tcgetattr'
p1860
S'9de32059e0c2f710159212'
p1861
L208L
tp1862
a(S'brk'
p1863
S'9de3'
p1864
L92L
tp1865
a(S'wctrans'
p1866
S'9de350b6000300847f030a10'
p1867
L156L
tp1868
a(S'towctrans'
p1869
S'02180002830100'
p1870
L128L
tp1871
a(S'__readonly_area'
p1872
S'9de32059e0c2f70034127f2b901238c2b802000020220077d780c0b60096101c100aff'
p1873
L536L
tp1874
a(S'_Qp_cmp'
p1875
S'9de3c22877f75e00bb5e003000'
p1876
L588L
tp1877
a(S'is_dst'
p1878
S'9de3507f'
p1879
L196L
tp1880
a(S'is_trusted_path_normalize'
p1881
S'9de35002b2'
p1882
L488L
tp1883
a(S'add_name_to_object.isra.6'
p1884
S'9de3502a00d2006800020b00005800'
p1885
L212L
tp1886
a(S'lose.isra.8'
p1887
S'9de35080'
p1888
L116L
tp1889
a(S'_dl_map_object_from_fd.constprop.13'
p1890
S'9de3e85fa87f85d094'
p1891
L3728L
tp1892
a(S'add_path.isra.5.constprop.14'
p1893
S'9de3508015'
p1894
L216L
tp1895
a(S'open_verify.isra.9.constprop.15'
p1896
S'9de330ff1310f8779fa61008002b0a00007f0100c00177f7'
p1897
L1464L
tp1898
a(S'open_path.isra.10'
p1899
S'9de3705ec07797'
p1900
L1488L
tp1901
a(S'_dl_dst_count'
p1902
S'9de350901018ffb0202a00008100'
p1903
L156L
tp1904
a(S'_dl_dst_substitute'
p1905
S'9de350'
p1906
L404L
tp1907
a(S'expand_dynamic_string_token'
p1908
S'9de3507fff1019c2ba6f5a73e85a815e23c2800410005a790000007658'
p1909
L224L
tp1910
a(S'fillin_rpath'
p1911
S'9de3'
p1912
L700L
tp1913
a(S'cache_rpath.part.12'
p1914
S'9de350b4a01ac010ff5e2058'
p1915
L572L
tp1916
a(S'_dl_init_paths'
p1917
S'9de350030a58'
p1918
L636L
tp1919
a(S'_dl_map_object'
p1920
S'9de3b0c7c2e81af7006ca4'
p1921
L2100L
tp1922
a(S'_dl_rtld_di_serinfo'
p1923
S'9de330'
p1924
L512L
tp1925
a(S'check_match'
p1926
S'9de350'
p1927
L460L
tp1928
a(S'do_lookup_x'
p1929
S'9de3e0778fa8e2'
p1930
L2316L
tp1931
a(S'_dl_lookup_symbol_x'
p1932
S'9de3e0'
p1933
L2552L
tp1934
a(S'_dl_setup_hash'
p1935
S'9de350c2b0c05e2058'
p1936
L196L
tp1937
a(S'_dl_add_to_namespace_list'
p1938
S'9de3500300'
p1939
L212L
tp1940
a(S'_dl_new_object'
p1941
S'9de3507f50901019100119101800d02824'
p1942
L664L
tp1943
a(S'_dl_try_allocate_static_tls'
p1944
S'9de350c280285e24030a58'
p1945
L220L
tp1946
a(S'_dl_allocate_static_tls'
p1947
S'9de350c2800900'
p1948
L72L
tp1949
a(S'_dl_nothread_init_static_tls'
p1950
S'9de350d0'
p1951
L48L
tp1952
a(S'_dl_protect_relro'
p1953
S'9de350'
p1954
L128L
tp1955
a(S'_dl_reloc_bad_type'
p1956
S'9de320'
p1957
L196L
tp1958
a(S'_dl_relocate_object'
p1959
S'9de3a00300808b'
p1960
L7216L
tp1961
a(S'_dl_important_hwcaps'
p1962
S'9de31010006b20ba5fa7f700735ae3a07e01208702e08302080a7fba0076100058'
p1963
L1796L
tp1964
a(S'_dl_debug_vdprintf'
p1965
S'9de3'
p1966
L1412L
tp1967
a(S'_dl_sysdep_read_whole_file'
p1968
S'9de3c0107f5b86a2009210085739a2a7a70a'
p1969
L120L
tp1970
a(S'_dl_debug_printf'
p1971
S'9de396'
p1972
L60L
tp1973
a(S'_dl_debug_printf_c'
p1974
S'9de396'
p1975
L60L
tp1976
a(S'_dl_dprintf'
p1977
S'9de396'
p1978
L52L
tp1979
a(S'_dl_name_match_p'
p1980
S'9de350901018d20800'
p1981
L104L
tp1982
a(S'_dl_higher_prime_number'
p1983
g302
L168L
tp1984
a(S'_dl_strtoul'
p1985
S'8400c2003888e08009a00032f6180018981001'
p1986
L412L
tp1987
a(S'_dl_start_profile'
p1988
S'9de3d0007658'
p1989
L1684L
tp1990
a(S'_dl_mcount'
p1991
S'9de31000740080e00000007458'
p1992
L944L
tp1993
a(S'allocate_dtv'
p1994
S'9de350030a101058'
p1995
L60L
tp1996
a(S'oom'
p1997
S'9de3509010020038fca592127f50e7107f00'
p1998
L32L
tp1999
a(S'_dl_next_tls_modid'
p2000
S'9de350'
p2001
L264L
tp2002
a(S'_dl_count_modids'
p2003
S'030a0880040075c3e0d088007658'
p2004
L112L
tp2005
a(S'_dl_get_tls_static_info'
p2006
S'030a58'
p2007
L28L
tp2008
a(S'_dl_allocate_tls_storage'
p2009
S'9de350030a58'
p2010
L116L
tp2011
a(S'_dl_allocate_tls_init'
p2012
S'9de350020000755e20'
p2013
L624L
tp2014
a(S'_dl_allocate_tls'
p2015
S'9de350020001007ffe9010186fffe8ff00006fff'
p2016
L44L
tp2017
a(S'_dl_deallocate_tls'
p2018
S'9de350f6085eff020c0075'
p2019
L108L
tp2020
a(S'_dl_tls_get_addr_soft'
p2021
S'c2022259e0'
p2022
L148L
tp2023
a(S'_dl_add_to_slotinfo'
p2024
S'9de350f85e24030a68'
p2025
L248L
tp2026
a(S'_dl_get_origin'
p2027
S'9de300b711'
p2028
L428L
tp2029
a(S'_dl_scope_free'
p2030
S'9de350fa0118003b0aff183bf85f'
p2031
L220L
tp2032
a(S'_dl_make_stack_executable'
p2033
S'9de350d000006c0558'
p2034
L100L
tp2035
a(S'_dl_runtime_resolve_0'
p2036
S'9de3255920a000052900a66c00a32c0a2c05a004100411'
p2037
L96L
tp2038
a(S'_dl_runtime_resolve_1'
p2039
S'9de39330d00822009e92028100'
p2040
L36L
tp2041
a(S'_dl_profile_save_regs'
p2042
S'e0a7ff73'
p2043
L132L
tp2044
a(S'_dl_profile_invoke'
p2045
S'a0049c23031018101a101c101d0200a60300e0e86f'
p2046
L184L
tp2047
a(S'_dl_runtime_profile_0'
p2048
S'9de3b000ff5920a000052900a66c00a32c0a2c05a00410041130aa1008ff960325e0a8'
p2049
L144L
tp2050
a(S'_dl_runtime_profile_1'
p2051
S'9de3b030d008229410'
p2052
L84L
tp2053
a(S'length_mismatch'
p2054
S'9de3509010020039f98bff90107f00'
p2055
L32L
tp2056
a(S'_dl_exception_create'
p2057
S'9de350222000303c901019'
p2058
L144L
tp2059
a(S'_dl_exception_create_format'
p2060
S'9de3f697f8779f027e77a77f3b901019020277f7'
p2061
L572L
tp2062
a(S'_dl_exception_free'
p2063
S'9de3507f33c0c0c08100'
p2064
L32L
tp2065
a(S'_dl_cache_libcmp'
p2066
g302
L332L
tp2067
a(S'_dl_load_cache_lookup'
p2068
S'9de3230a0490808600395ea1ff'
p2069
L1644L
tp2070
a(S'_dl_unload_cache'
p2071
S'9de3503b0a'
p2072
L56L
tp2073
a(S'do_dlopen'
p2074
S'9de3'
p2075
L64L
tp2076
a(S'dlerror_run'
p2077
S'9de33059e0c2f7101977ef94'
p2078
L144L
tp2079
a(S'__libc_dlclose'
p2080
S'92100800'
p2081
L24L
tp2082
a(S'__libc_dlsym'
p2083
S'9de32059e0c2f777d777df0000ff9012d000020b1084a3045fa7e7c8588058'
p2084
L144L
tp2085
a(S'__libc_dlvsym'
p2086
S'9de31059e0c2f777bf77'
p2087
L336L
tp2088
a(S'do_dlsym_private'
p2089
S'9de32059e0c2f710c2df02'
p2090
L140L
tp2091
a(S'do_dlsym'
p2092
S'9de3d20073b7761873af981000'
p2093
L60L
tp2094
a(S'do_dlvsym'
p2095
S'9de3d20073b7761873af'
p2096
L56L
tp2097
a(S'do_dlclose'
p2098
g302
L12L
tp2099
a(S'__libc_dlsym_private'
p2100
S'9de32059e0c2f777d777df0000ff9012800d020b1084a3045fa7e7c8588058'
p2101
L144L
tp2102
a(S'__libc_register_dl_open_hook'
p2103
S'9de3509010180039'
p2104
L76L
tp2105
a(S'__libc_dlopen_mode'
p2106
S'9de32059e0c2f777d7'
p2107
L128L
tp2108
a(S'fatal_error'
p2109
S'9de31059e0c2f758'
p2110
L180L
tp2111
a(S'_dl_signal_exception'
p2112
S'9de3500300847f030a10'
p2113
L104L
tp2114
a(S'_dl_signal_error'
p2115
S'9de3500300'
p2116
L104L
tp2117
a(S'_dl_catch_exception'
p2118
S'9de380e0c2f718030a10'
p2119
L236L
tp2120
a(S'_dl_catch_error'
p2121
S'9de33059e0c2f7101b'
p2122
L116L
tp2123
a(S'siglongjmp'
p2124
S'937a0172d22291d06f'
p2125
L16L
tp2126
a(S'__mpn_cmp'
p2127
S'94021583035a015a009202800968'
p2128
L108L
tp2129
a(S'__mpn_divrem'
p2130
S'9de3301018'
p2131
L2188L
tp2132
a(S'__mpn_lshift'
p2133
S'83035a7f'
p2134
L204L
tp2135
a(S'__mpn_rshift'
p2136
g302
L192L
tp2137
a(S'__mpn_mul'
p2138
S'9de3c22877f7'
p2139
L880L
tp2140
a(S'__mpn_mul_1'
p2141
S'9de39e201a0590100020b083035ac0318b70b8c005b130b2181000'
p2142
L152L
tp2143
a(S'__mpn_impn_mul_n_basecase'
p2144
S'9de350d65e80a2000234'
p2145
L272L
tp2146
a(S'__mpn_impn_mul_n'
p2147
S'9de350'
p2148
L1056L
tp2149
a(S'__mpn_impn_sqr_n_basecase'
p2150
S'9de350d65e00'
p2151
L272L
tp2152
a(S'__mpn_impn_sqr_n'
p2153
S'9de350'
p2154
L948L
tp2155
a(S'__mpn_mul_n'
p2156
S'9de3c22877f7'
p2157
L204L
tp2158
a(S'__mpn_sub_n'
p2159
S'8a008303020129c20dd65a0d9970'
p2160
L76L
tp2161
a(S'__mpn_submul_1'
p2162
S'9de39e201a2b03e096b72002b1'
p2163
L164L
tp2164
a(S'__mpn_extract_double'
p2165
S'9c03875ba883'
p2166
L224L
tp2167
a(S'__mpn_extract_long_double'
p2168
S'9c03875ba883'
p2169
L436L
tp2170
a(S'_itoa_word'
p2171
g302
L244L
tp2172
a(S'_fitoa_word'
p2173
S'9de32059e0c2f71018101a'
p2174
L136L
tp2175
a(S'snprintf'
p2176
S'9de3'
p2177
L1144L
tp2178
a(S'read_int_3'
p2179
g302
L152L
tp2180
a(S'char_buffer_add_slow'
p2181
S'9de350c200c000005e20f85e207f'
p2182
L100L
tp2183
a(S'_IO_vfscanf_internal'
p2184
S'9de3'
p2185
L21884L
tp2186
a(S'vfscanf'
p2187
S'9610006f'
p2188
L16L
tp2189
a(S'_IO_strn_overflow'
p2190
S'9de350b85e20800dc2282896100000'
p2191
L84L
tp2192
a(S'vsnprintf'
p2193
S'9de31059e0c2f777b27fba100010ff0020f6'
p2194
L192L
tp2195
a(S'init'
p2196
S'9de3500300'
p2197
L80L
tp2198
a(S'__dlerror'
p2199
S'9de3c22877f7100259c0130574127f68100000c00074fa6814c2ba'
p2200
L600L
tp2201
a(S'check_free.isra.0'
p2202
S'9de35002009010180039'
p2203
L52L
tp2204
a(S'free_key_mem'
p2205
S'9de3507fffd0181010180000c000740010208100'
p2206
L56L
tp2207
a(S'_dlerror_run'
p2208
S'9de3500300'
p2209
L380L
tp2210
a(S'__libc_register_dlfcn_hook'
p2211
S'9de35090101800537fdf120200006e'
p2212
L44L
tp2213
a(S'__dladdr'
p2214
S'961000c06800'
p2215
L20L
tp2216
a(S'__dladdr1'
p2217
S'800800961000c0680096100a6f'
p2218
L48L
tp2219
a(S'dlinfo_doit'
p2220
S'9de350c21000'
p2221
L220L
tp2222
a(S'__dlinfo'
p2223
S'9de32059e0c2f777df77d7'
p2224
L96L
tp2225
a(S'dlmopen_doit'
p2226
S'9de3c200c02000'
p2227
L124L
tp2228
a(S'__dlmopen'
p2229
S'9de32059e0c2f777cf77d7f4'
p2230
L128L
tp2231
a(S'strerror'
p2232
S'9de350901018adac921000c23b0a'
p2233
L100L
tp2234
a(S'strspn'
p2235
S'9c2301737f10087387738f7397'
p2236
L560L
tp2237
a(S'strsep'
p2238
S'9de350fa5e00020bff1d80'
p2239
L72L
tp2240
a(S'mbrlen'
p2241
g302
L36L
tp2242
a(S'mbrtowc'
p2243
S'9de3'
p2244
L536L
tp2245
a(S'profil_counter'
p2246
S'c20810ff58a20200740083'
p2247
L116L
tp2248
a(S'profil'
p2249
S'9de390c22877f7c6c220c01000007400d8a220390a207fd292'
p2250
L392L
tp2251
a(S'__profile_frequency'
p2252
S'030ac3e0d0f8'
p2253
L12L
tp2254
a(S'_dl_fixup'
p2255
S'9de3305e20c27058a0045ee0852001830377f75e04101858a015b80880a10280100058a0e028028028f8980302030810001002011800d00073afc09001085f'
p2256
L980L
tp2257
a(S'_dl_profile_fixup'
p2258
S'9de3305e23'
p2259
L588L
tp2260
a(S'_dl_call_pltexit'
p2261
S'8100'
p2262
L8L
tp2263
a(S'add_to_global'
p2264
S'9de350e02280ba5e2286ffe0090087'
p2265
L560L
tp2266
a(S'_dl_find_dso_for_object'
p2267
S'9de350030a'
p2268
L184L
tp2269
a(S'_dl_open'
p2270
S'9de38068'
p2271
L452L
tp2272
a(S'_dl_show_scope'
p2273
S'9de350d2080000'
p2274
L344L
tp2275
a(S'dl_open_worker'
p2276
S'9de3305e00921024'
p2277
L1800L
tp2278
a(S'remove_slotinfo'
p2279
S'9de350'
p2280
L308L
tp2281
a(S'_dl_close_worker'
p2282
S'9de3b0'
p2283
L3764L
tp2284
a(S'_dl_close'
p2285
S'9de3500300'
p2286
L160L
tp2287
a(S'_dl_sort_maps'
p2288
S'9de32077870077d7847f94'
p2289
L604L
tp2290
a(S'_dl_addr'
p2291
S'9de3500300'
p2292
L932L
tp2293
a(S'_dl_addr_inside_object'
p2294
g302
L104L
tp2295
a(S'__strtof_internal'
p2296
S'0300847f030a10'
p2297
L36L
tp2298
a(S'strtof32'
p2299
S'03009410000a10'
p2300
L40L
tp2301
a(S'__strtod_internal'
p2302
S'0300847f030a10'
p2303
L36L
tp2304
a(S'strtof64'
p2305
S'03009410000a10'
p2306
L40L
tp2307
a(S'__strtold_internal'
p2308
S'0300847f030a10'
p2309
L36L
tp2310
a(S'strtold'
p2311
S'03009410000a10'
p2312
L40L
tp2313
a(S'round_and_return'
p2314
S'9de3c22877f730005fa7ef'
p2315
L884L
tp2316
a(S'str_to_mpn.isra.0'
p2317
S'9de350c023b1037aa22c20208620a200a820c200a002'
p2318
L860L
tp2319
a(S'____strtof_l_internal'
p2320
S'9de3c22877f71000c658'
p2321
L9608L
tp2322
a(S'strtof_l'
p2323
S'96100ac06ff6'
p2324
L20L
tp2325
a(S'round_and_return_0'
p2326
S'9de3c22877f730005fa7ef'
p2327
L904L
tp2328
a(S'str_to_mpn.isra.0_0'
p2329
S'9de350c023b1037aa22c20208620a200a820c200a002'
p2330
L860L
tp2331
a(S'____strtod_l_internal'
p2332
S'9de33059e0c2f71000c658'
p2333
L9616L
tp2334
a(S'strtof64_l'
p2335
S'96100ac06ff6'
p2336
L20L
tp2337
a(S'round_and_return_1'
p2338
S'9de33059e0c2f730005fa7df1000a000083b20006802200000967c800510ffa60200a30c01c7'
p2339
L1384L
tp2340
a(S'str_to_mpn.isra.0_1'
p2341
S'9de350c023b1037aa22c20208620a200a820c200a002'
p2342
L860L
tp2343
a(S'____strtold_l_internal'
p2344
S'0300'
p2345
L12512L
tp2346
a(S'strtold_l'
p2347
S'96100ac06f'
p2348
L20L
tp2349
a(S'__strtof_nan'
p2350
S'9de33059e0c2f740847f84bf19008701100090c0ffba28831800a0'
p2351
L256L
tp2352
a(S'__strtod_nan'
p2353
S'9de33059e0c2f740847f84bf19008701100090c0ffba28831800a0'
p2354
L276L
tp2355
a(S'__strtold_nan'
p2356
S'9de33059e0c2f740847f84bf19008701100090c0ffba28831800a0'
p2357
L292L
tp2358
a(S'__mpn_add_n'
p2359
S'8a008303020129c20dd65a0d9970'
p2360
L76L
tp2361
a(S'__mpn_addmul_1'
p2362
S'9de39e201a2b03e096b72002b1'
p2363
L164L
tp2364
a(S'__mpn_construct_float'
p2365
S'9c037f2aff5a00932a03e0941201a8c18b'
p2366
L56L
tp2367
a(S'__mpn_construct_double'
p2368
S'9c030030952aff2a832c12208073871b'
p2369
L68L
tp2370
a(S'__mpn_construct_long_double'
p2371
g302
L116L
tp2372
a(S'dlopen_doit'
p2373
S'9de3d22003'
p2374
L152L
tp2375
a(S'__dlopen'
p2376
S'9de32059e0c2f777d7'
p2377
L124L
tp2378
a(S'dlclose_doit'
p2379
g302
L12L
tp2380
a(S'__dlclose'
p2381
S'9de350921018001d80'
p2382
L32L
tp2383
a(S'dlsym_doit'
p2384
S'9de350'
p2385
L32L
tp2386
a(S'__dlsym'
p2387
S'9de32059e0c2f777d70300'
p2388
L156L
tp2389
a(S'dlvsym_doit'
p2390
S'9de350d65e20'
p2391
L36L
tp2392
a(S'__dlvsym'
p2393
S'9de32059e0c2f777d7f6e70000c077df006c7f3392'
p2394
L160L
tp2395
a(S'strncasecmp_l'
p2396
S'84008620'
p2397
L108L
tp2398
a(S'setitimer'
p2399
g302
L36L
tp2400
a(S'_Qp_add'
p2401
S'9de3c22877f710ff5e005e8033103197318a1dde085ea0'
p2402
L4096L
tp2403
a(S'_Qp_mul'
p2404
S'9de33059e0c2f710'
p2405
L3080L
tp2406
a(S'_dl_build_local_scope'
p2407
S'9de3507600'
p2408
L132L
tp2409
a(S'openaux'
p2410
S'9de350d0003000022c5e20800410015a2395323020ff08762000'
p2411
L68L
tp2412
a(S'_dl_map_object_deps'
p2413
S'9de3b0'
p2414
L3612L
tp2415
a(S'call_init.part.0'
p2416
S'9de350c22c0400235e20'
p2417
L316L
tp2418
a(S'_dl_init'
p2419
S'9de350e02100765f'
p2420
L352L
tp2421
a(S'_dl_check_map_versions'
p2422
S'9de3e07787778f5e20c0000058'
p2423
L1760L
tp2424
a(S'_dl_check_all_versions'
p2425
S'9de3500200b80000'
p2426
L92L
tp2427
a(S'call_dl_lookup'
p2428
S'9de3c2185e00'
p2429
L56L
tp2430
a(S'do_sym'
p2431
S'9de3e059e0c2f7ff2d030a'
p2432
L592L
tp2433
a(S'_dl_vsym'
p2434
S'9de33059e0c2f777'
p2435
L276L
tp2436
a(S'_dl_sym'
p2437
S'98100213006fff00'
p2438
L20L
tp2439
a(S'__clzdi2'
p2440
S'9de350'
p2441
L116L
tp2442
a(S'__bswapsi2'
p2443
S'8720831810'
p2444
L56L
tp2445
a(S'read_encoded_value_with_base'
p2446
S'9de350808b256c022d807c28051002c0'
p2447
L540L
tp2448
a(S'base_of_encoded_value'
p2449
S'9de35080'
p2450
L136L
tp2451
a(S'execute_cfa_program'
p2452
S'9de330007f24ae05001a347680e6'
p2453
L2344L
tp2454
a(S'init_dwarf_reg_size_table'
p2455
S'9de3508420'
p2456
L456L
tp2457
a(S'uw_frame_state_for'
p2458
S'9de3901019'
p2459
L1452L
tp2460
a(S'execute_stack_op'
p2461
S'9de3'
p2462
L2628L
tp2463
a(S'uw_update_context_1'
p2464
S'9de350b4a49423921018d7e1101a007f1dd85fa77f3001c810'
p2465
L1116L
tp2466
a(S'uw_init_context_1'
p2467
S'9de3'
p2468
L708L
tp2469
a(S'uw_update_context'
p2470
S'9de350921019'
p2471
L184L
tp2472
a(S'_Unwind_RaiseException_Phase2'
p2473
S'9de370'
p2474
L244L
tp2475
a(S'_Unwind_ForcedUnwind_Phase2'
p2476
S'9de3705e20e220b620101c'
p2477
L244L
tp2478
a(S'uw_install_context_1'
p2479
S'9de3'
p2480
L492L
tp2481
a(S'_Unwind_GetGR'
p2482
S'9de3508081e114000518035e230d70'
p2483
L128L
tp2484
a(S'_Unwind_GetCFA'
p2485
S'81'
p2486
L8L
tp2487
a(S'_Unwind_SetGR'
p2488
S'9de3508081e014000518700570'
p2489
L132L
tp2490
a(S'_Unwind_GetIP'
p2491
S'81'
p2492
L8L
tp2493
a(S'_Unwind_GetIPInfo'
p2494
S'c2705a233081'
p2495
L20L
tp2496
a(S'_Unwind_SetIP'
p2497
S'81'
p2498
L8L
tp2499
a(S'_Unwind_GetLanguageSpecificData'
p2500
S'81'
p2501
L8L
tp2502
a(S'_Unwind_GetRegionStart'
p2503
S'81'
p2504
L8L
tp2505
a(S'_Unwind_FindEnclosingFunction'
p2506
S'9de330000dc2f77a0100'
p2507
L36L
tp2508
a(S'_Unwind_GetDataRelBase'
p2509
S'81'
p2510
L8L
tp2511
a(S'_Unwind_GetTextRelBase'
p2512
S'81'
p2513
L8L
tp2514
a(S'__frame_state_for'
p2515
S'9de38023921000cd901001a0ba779f92101db020802b0000'
p2516
L244L
tp2517
a(S'_Unwind_DebugHook'
p2518
S'8100'
p2519
L8L
tp2520
a(S'_Unwind_RaiseException'
p2521
S'9de39081'
p2522
L316L
tp2523
a(S'_Unwind_ForcedUnwind'
p2524
S'9de3'
p2525
L148L
tp2526
a(S'_Unwind_Resume'
p2527
S'9de3'
p2528
L168L
tp2529
a(S'_Unwind_Resume_or_Rethrow'
p2530
S'9de3'
p2531
L172L
tp2532
a(S'_Unwind_DeleteException'
p2533
S'9de350c208c00000c0100100'
p2534
L36L
tp2535
a(S'_Unwind_Backtrace'
p2536
S'9de380bd'
p2537
L144L
tp2538
a(S'frame_downheap'
p2539
S'9de350a0a40000a20000100a5e80c6'
p2540
L224L
tp2541
a(S'frame_heapsort'
p2542
S'9de350fa5ea00100'
p2543
L168L
tp2544
a(S'size_of_encoded_value'
p2545
S'9de35080158010000000800aa0207f180000'
p2546
L100L
tp2547
a(S'read_encoded_value_with_base_0'
p2548
S'9de350807f'
p2549
L540L
tp2550
a(S'get_cie_encoding'
p2551
S'9de3bafeff'
p2552
L328L
tp2553
a(S'fde_unencoded_compare'
p2554
S'9de392'
p2555
L76L
tp2556
a(S'base_from_object.isra.3'
p2557
S'9de3508019a00008'
p2558
L116L
tp2559
a(S'fde_single_encoding_compare'
p2560
S'9de3fa5e2094'
p2561
L124L
tp2562
a(S'linear_search_fdes'
p2563
S'9de3d0203235ba1011'
p2564
L368L
tp2565
a(S'fde_mixed_encoding_compare'
p2566
S'9de3c204'
p2567
L164L
tp2568
a(S'classify_object_over_fdes'
p2569
S'9de330'
p2570
L372L
tp2571
a(S'add_fdes'
p2572
S'9de3d02030ba1013'
p2573
L360L
tp2574
a(S'_Unwind_IteratePhdrCallback'
p2575
S'9de310'
p2576
L1240L
tp2577
a(S'search_object'
p2578
S'9de330'
p2579
L1776L
tp2580
a(S'__register_frame_info_bases.part.7'
p2581
S'9de350f4760876107600761828'
p2582
L176L
tp2583
a(S'__register_frame_info_bases'
p2584
S'02000100c20000'
p2585
L44L
tp2586
a(S'__register_frame_info'
p2587
S'02000100c20000961000c06fff01008100'
p2588
L48L
tp2589
a(S'__register_frame'
p2590
S'9de350c2000010300000b800ff'
p2591
L48L
tp2592
a(S'__register_frame_info_table_bases'
p2593
S'9de350f4760876107600761828'
p2594
L176L
tp2595
a(S'__register_frame_info_table'
p2596
S'961000c06fff0100'
p2597
L20L
tp2598
a(S'__register_frame_table'
p2599
S'9de350901030b800ff93'
p2600
L28L
tp2601
a(S'__deregister_frame_info_bases'
p2602
S'9de350'
p2603
L360L
tp2604
a(S'__deregister_frame_info'
p2605
g302
L12L
tp2606
a(S'__deregister_frame'
p2607
S'9de350c2000000000000ff6eb9'
p2608
L44L
tp2609
a(S'_Unwind_Find_FDE'
p2610
S'9de320007f120300'
p2611
L568L
tp2612
a(S'base_of_encoded_value_0'
p2613
S'9de3508014'
p2614
L124L
tp2615
a(S'read_encoded_value_with_base_1'
p2616
S'9de3508078'
p2617
L540L
tp2618
a(S'__gcc_personality_v0'
p2619
S'9de300'
p2620
L616L
tp2621
a(S'dl_iterate_phdr'
p2622
S'9de30059e0c2f71002'
p2623
L304L
tp2624
a(S'__do_global_ctors_aux'
p2625
S'9de350030a0000'
p2626
L76L
tp2627
a(S'call___do_global_ctors_aux'
p2628
S'9de3508100'
p2629
L12L
tp2630
a(S'_fini'
p2631
S'9de3507f108100'
p2632
L20L
tp2633
a.