(lp0
(S'_init'
p1
S'3c00279cb103ffafbc00bc0000003c00279cb10380000039dc2009000000000000003c00279cb0038000273909000000000000e008'
p2
L140L
tp3
a(S'_ftext'
p4
S'3c00279cb003'
p5
L188L
tp6
a(S'frame_dummy'
p7
S'3c00279cafe499e027bd00afbc8080'
p8
L128L
tp9
a(S'__start'
p10
S'0300040000003c00279caf5403f821a50027a60001f803ff8f81afa200'
p11
L100L
tp12
a(S'attack_app_http'
p13
S'3c00279cae'
p14
L9980L
tp15
a(S'attack_get_opt_str'
p16
S'300e300090a200100ca3009062040000460024002504fa0021e008e021000010'
p17
L84L
tp18
a(S'attack_start'
p19
S'3c00279c8727bd00afb52cb428b220b018998100a8300093b44b03f809'
p20
L396L
tp21
a(S'attack_parse'
p22
S'3c00279c8699e027bd0000b74cafb648afb544afb440afb33cb238b030a288140024'
p23
L784L
tp24
a(S'attack_kill_all'
p25
S'3c00279c83e027bd00b01890'
p26
L456L
tp27
a(S'attack_get_opt_ip'
p28
S'3c00279c8184ff80300090a200100ca3009062040000c224002588fa0021e008e021001000'
p29
L116L
tp30
a(S'attack_get_opt_int'
p31
S'3c00279c8099e0300e300090a200100ca3009062040000c224002588fa0021e008e021001000'
p32
L116L
tp33
a(S'attack_init'
p34
S'3c00279c8021bd00b220b01899'
p35
L1028L
tp36
a(S'attack_gre_eth'
p37
S'3c0003ffbf00afb690afb58cb384b17cb078bc'
p38
L2012L
tp39
a(S'attack_gre_ip'
p40
S'3c0003ffafbe0000b56cafb468afb260afb15cafb058afbc'
p41
L1828L
tp42
a(S'attack_tcp_stomp'
p43
S'3c0003'
p44
L2364L
tp45
a(S'attack_tcp_ack'
p46
S'3c0003ffbf00afb6a0afb498afb394afb290afb18cbc'
p47
L2152L
tp48
a(S'attack_tcp_syn'
p49
S'3c0003ffbf00afb698afb594afb490afb38cb184bc'
p50
L2040L
tp51
a(S'attack_udp_plain'
p52
S'3c0003ffafbe0000b54cafb448afb344afb240afb13cb03899'
p53
L872L
tp54
a(S'attack_udp_generic'
p55
S'3c0003ffafbe0000b55cafb458afb354afb250afb14cafb048afbc'
p56
L1656L
tp57
a(S'attack_udp_vse'
p58
S'3c0003ffafbe0000b554afb450afb34cafb248afb144afb040afbc'
p59
L1236L
tp60
a(S'attack_udp_dns'
p61
S'3c0003f7bf08afb698afb594afb490afb38cb184bc'
p62
L2112L
tp63
a(S'checksum_generic'
p64
S'2c001400003094'
p65
L92L
tp66
a(S'checksum_tcpudp'
p67
S'00008c1000'
p68
L172L
tp69
a(S'killer_kill'
p70
S'3c000381440003002400'
p71
L32L
tp72
a(S'killer_kill_by_port'
p73
S'3c0003ddafbe2222b55cafb458afb354afb250afb14cafb048afbc81302802f80910'
p74
L2308L
tp75
a(S'killer_init'
p76
S'3c0003deafbf21afb704b600b4f8afb3f4afb2'
p77
L3224L
tp78
a(S'anti_gdb_entry'
p79
S'3c000380'
p80
L32L
tp81
a(S'ensure_single_instance'
p82
S'3c0003ffafb344afb240afb13cb03899'
p83
L568L
tp84
a(S'resolve_cnc_addr'
p85
S'3c0003'
p86
L324L
tp87
a(S'main'
p88
S'3c0003f970bf0688b6800678b374b270b16cafb068'
p89
L3736L
tp90
a(S'rand_next'
p91
S'3c0003808aa08f8002c01c0000188c35a802024310ad24a0ad0500ad42'
p92
L92L
tp93
a(S'rand_init'
p94
S'3c0003'
p95
L172L
tp96
a(S'rand_alphastr'
p97
S'3c000380ff27ae00241ef4afb134b03080a03824008c008c00c40800ace20000ace50cc8e7106000a09880918090809980028f2d35a0348308c2240010301f30c210011801280120904600900090'
p98
L368L
tp99
a(S'rand_str'
p100
S'3c00034021a0502198808f180ca8eba4'
p101
L236L
tp102
a(S'resolv_entries_free'
p103
S'3c0003ffafbf00afbc0000009980402003f809000000000021b0182008bd00b018e008'
p104
L108L
tp105
a(S'resolv_lookup'
p106
S'3c0003eef8afbf11afb7fcafb6f8afb5f4afb4'
p107
L1616L
tp108
a(S'scanner_kill'
p109
S'3c0003818c03002400'
p110
L32L
tp111
a(S'setup_connection'
p112
S'3c0003ffafbf00b028'
p113
L284L
tp114
a(S'add_auth_entry'
p115
S'3c0003'
p116
L512L
tp117
a(S'scanner_init'
p118
S'3c0003f860afbf0798afb794afb690afb58cb384b17cb078bc8103f809000040188f00'
p119
L8372L
tp120
a(S'table_retrieve_val'
p121
S'3c0003'
p122
L52L
tp123
a(S'table_lock_val'
p124
S'3c0003'
p125
L228L
tp126
a(S'table_unlock_val'
p127
S'3c0003'
p128
L228L
tp129
a(S'table_init'
p130
S'3c0003ffafbf00afb734b630b428b220b01899820000200900'
p131
L3040L
tp132
a(S'util_strlen'
p133
S'800040000000000014'
p134
L44L
tp135
a(S'util_strcpy'
p136
S'8000400000000000000014'
p137
L100L
tp138
a(S'util_memcpy'
p139
S'1000003800000118240014'
p140
L44L
tp141
a(S'util_zero'
p142
S'1028a084010003000000'
p143
L32L
tp144
a(S'util_memsearch'
p145
S'0050214000000024'
p146
L104L
tp147
a(S'util_atoi'
p148
S'2400240024008001'
p149
L360L
tp150
a(S'util_fdgets'
p151
S'3c0003ffafbf00b630b428b220b0188000b000902100'
p152
L216L
tp153
a(S'util_local_addr'
p154
S'3c0003ffafbf00b030998103f809bc00'
p155
L228L
tp156
a(S'util_stristr'
p157
S'800000004000001880000014'
p158
L172L
tp159
a(S'util_strcmp'
p160
S'800040000000000014'
p161
L148L
tp162
a(S'util_strncmp'
p163
S'800040008080000014'
p164
L180L
tp165
a(S'util_itoa'
p166
S'27bd00000024002400a0c00010030027bd00a360200050210027a9000000280a00240014000000a008ff0012ff00212821282100004000000000210000'
p167
L304L
tp168
a(S'fcntl'
p169
S'3c0003'
p170
L136L
tp171
a(S'fcntl64'
p172
S'3c0003'
p173
L104L
tp174
a(S'chdir'
p175
S'3c0003ffafbf00afbcac009981002120090000500024'
p176
L88L
tp177
a(S'close'
p178
S'3c0003ffafbf00afbc'
p179
L84L
tp180
a(S'fork'
p181
S'3c0003ffafbf00afbca200009981002120090000500024'
p182
L84L
tp183
a(S'getpid'
p184
S'3c0003ffafbf00afbcb4000c9981002120090000500024'
p185
L84L
tp186
a(S'getppid'
p187
S'3c0003ffafbf00afbce0000c9981002120090000500024'
p188
L84L
tp189
a(S'ioctl'
p190
S'3c0003'
p191
L104L
tp192
a(S'kill'
p193
S'3c0003ffafbf00afbc'
p194
L88L
tp195
a(S'open'
p196
S'3c0003'
p197
L124L
tp198
a(S'creat'
p199
S'3c0003803003002403'
p200
L28L
tp201
a(S'prctl'
p202
S'3c0003'
p203
L120L
tp204
a(S'read'
p205
S'3c0003ffafbf00afbca3000c9981002120090000500024'
p206
L84L
tp207
a(S'readlink'
p208
S'3c0003ffafbf00afbcf5000c9981002120090000500024'
p209
L84L
tp210
a(S'select'
p211
S'3c0003'
p212
L120L
tp213
a(S'setsid'
p214
S'3c0003ffafbf00afbce2000c9981002120090000500024'
p215
L84L
tp216
a(S'sigprocmask'
p217
S'3c0003ffafbf00afbc'
p218
L148L
tp219
a(S'time'
p220
S'3c0003ffafbf00afbcad000c9981002120090000500024'
p221
L84L
tp222
a(S'unlink'
p223
S'3c0003ffafbf00afbcaa00009981002120090000500024'
p224
L84L
tp225
a(S'write'
p226
S'3c0003ffafbf00afbca4009981002120090000500024'
p227
L84L
tp228
a(S'closedir'
p229
S'3c0003ffafbf00b230b028808e00240027b318'
p230
L292L
tp231
a(S'opendir'
p232
S'3c0003ffbf00afb0b0bc800003f8090004000021004e009021402003f809a500'
p233
L408L
tp234
a(S'readdir'
p235
S'3c0003ffafbf00b02899818f3000f809a400'
p236
L256L
tp237
a(S'__errno_location'
p238
S'3c000380e00800'
p239
L24L
tp240
a(S'clock'
p241
S'3c0003ffafbf00'
p242
L108L
tp243
a(S'memset'
p244
S'280015801000002800402308030003c885008821c806000038003801302400ac85f814'
p245
L144L
tp246
a(S'memmove'
p247
S'3c0003ffafbf00afbc10002b800018'
p248
L816L
tp249
a(S'inet_addr'
p250
S'3c0003'
p251
L72L
tp252
a(S'accept'
p253
S'3c0003ffafbf00afbc10000c9981002120090000500024'
p254
L84L
tp255
a(S'bind'
p256
S'3c0003ffafbf00afbc10000c9981002120090000500024'
p257
L84L
tp258
a(S'connect'
p259
S'3c0003ffafbf00afbc10000c9981002120090000500024'
p260
L84L
tp261
a(S'getsockname'
p262
S'3c0003ffafbf00afbc10009981002120090000500024'
p263
L84L
tp264
a(S'getsockopt'
p265
S'3c0003'
p266
L120L
tp267
a(S'listen'
p268
S'3c0003ffafbf00afbc10000c9981002120090000500024'
p269
L84L
tp270
a(S'recv'
p271
S'3c0003ffafbf00afbc10000c9981002120090000500024'
p272
L84L
tp273
a(S'recvfrom'
p274
S'3c0003'
p275
L128L
tp276
a(S'send'
p277
S'3c0003ffafbf00afbc10000c9981002120090000500024'
p278
L84L
tp279
a(S'sendto'
p280
S'3c0003'
p281
L128L
tp282
a(S'setsockopt'
p283
S'3c0003'
p284
L120L
tp285
a(S'socket'
p286
S'3c0003ffafbf00afbc10000c9981002120090000500024'
p287
L84L
tp288
a(S'raise'
p289
S'3c0003ffafbf00afbc8000002009800228'
p290
L76L
tp291
a(S'sigaddset'
p292
S'3c0003ffafbf00'
p293
L104L
tp294
a(S'sigemptyset'
p295
S'3c0003ffafbf00'
p296
L60L
tp297
a(S'signal'
p298
S'3c0003feafbf01afbc'
p299
L252L
tp300
a(S'__sigismember'
p301
S'24'
p302
L40L
tp303
a(S'__sigaddset'
p304
S'24'
p305
L44L
tp306
a(S'__sigdelset'
p307
S'24'
p308
L48L
tp309
a(S'malloc'
p310
S'3c0003ffafbf00b020802c'
p311
L492L
tp312
a(S'calloc'
p313
S'3c0003'
p314
L180L
tp315
a(S'free'
p316
S'3c0003'
p317
L396L
tp318
a(S'realloc'
p319
S'3c0003ffafbf00afb324b220b018a098210000200900000000000514002400'
p320
L472L
tp321
a(S'__heap_alloc'
p322
S'8c'
p323
L188L
tp324
a(S'__heap_alloc_at'
p325
S'8c0024008c000000102400a82b000000150000'
p326
L184L
tp327
a(S'__heap_link_free_area'
p328
S'aca700c0aca6001000acc5048500e0020000000000'
p329
L44L
tp330
a(S'__heap_link_free_area_after'
p331
S'100000001000acc5048500e0'
p332
L28L
tp333
a(S'__heap_free'
p334
S'3c0003'
p335
L364L
tp336
a(S'atol'
p337
S'3c0003800021200800'
p338
L28L
tp339
a(S'strtol'
p340
S'3c00038103002400'
p341
L28L
tp342
a(S'_stdlib_strto_l'
p343
S'3c0003ffafbf00afb52cb428b220b018'
p344
L592L
tp345
a(S'exit'
p346
S'3c0003ffafbf00b02899818f0000f80900210000840900000000000000130003f8092021000000212009000000'
p347
L240L
tp348
a(S'sleep'
p349
S'3c0003'
p350
L564L
tp351
a(S'__uClibc_fini'
p352
S'3c0003ffafbf00afbc80800000230006008000002009000010ff10801824'
p353
L196L
tp354
a(S'__pthread_return_0'
p355
S'03000010'
p356
L8L
tp357
a(S'_pthread_cleanup_push_defer'
p358
S'03000000'
p359
L8L
tp360
a(S'__check_one_fd'
p361
S'3c0003'
p362
L136L
tp363
a(S'__uClibc_init'
p364
S'3c0003ffafbf008f008c34000000020181008f'
p365
L140L
tp366
a(S'__uClibc_main'
p367
S'3c0003ffbf00b39cafb298afb194afb090afbc10'
p368
L872L
tp369
a(S'sigaction'
p370
S'3c0003ffafb260afb15cafb058afbc80c0'
p371
L232L
tp372
a(S'__syscall_rt_sigaction'
p373
S'3c0003ffafbf00afbc10000c9981002120090000500024'
p374
L84L
tp375
a(S'_exit'
p376
S'3c0003'
p377
L80L
tp378
a(S'fstat'
p379
S'3c0003ffbf00bc0000282410000c99810021200900005000100024'
p380
L140L
tp381
a(S'__getdents'
p382
S'3c0003'
p383
L200L
tp384
a(S'__getdents64'
p385
S'3c0003'
p386
L452L
tp387
a(S'getegid'
p388
S'3c0003ffafbf00afbcd2000c9981002120090000500024'
p389
L88L
tp390
a(S'geteuid'
p391
S'3c0003ffafbf00afbcd1000c9981002120090000500024'
p392
L88L
tp393
a(S'getgid'
p394
S'3c0003ffafbf00afbccf00009981002120090000500024'
p395
L84L
tp396
a(S'getuid'
p397
S'3c0003ffafbf00afbc'
p398
L84L
tp399
a(S'lseek64'
p400
S'3c0003ffafbe21b020c027bd308f00c7e0a210000cbd81100000212009000004ff000300000080100000c38f00c203e828b020e008'
p401
L168L
tp402
a(S'nanosleep'
p403
S'3c0003ffafbf00afbc10000c9981002120090000500024'
p404
L84L
tp405
a(S'sbrk'
p406
S'3c0003'
p407
L144L
tp408
a(S'times'
p409
S'3c0003ffafbf00afbccb00009981002120090000500024'
p410
L84L
tp411
a(S'__xstat64_conv'
p412
S'3c0003'
p413
L288L
tp414
a(S'__xstat_conv'
p415
S'3c0003'
p416
L276L
tp417
a(S'memcpy'
p418
S'280015800003050011008828a800000011000038003801308c00aa008c008c008c002400ac88e089e48ae8ac'
p419
L308L
tp420
a(S'inet_aton'
p421
S'3c0003000058210a010029008000024000210030084000004021000524ff29011024840108c01043100018690046383008ff29044000140010000012100084016220400000000012002529050000140000000300240024000300acab0003000010'
p422
L244L
tp423
a(S'abort'
p424
S'3c0003'
p425
L428L
tp426
a(S'_dl_aux_init'
p427
S'3c000300'
p428
L44L
tp429
a(S'brk'
p430
S'3c0003ffafbf00'
p431
L112L
tp432
a(S'__do_global_ctors_aux'
p433
S'3c0003'
p434
L108L
tp435
a(S'_fini'
p436
S'3c0003ffafbc00bc0000003c000380000039202009000000000000e008'
p437
L92L
tp438
a.