(lp0
(S'_init'
p1
S'0ddfe200eb33ebaf1b'
p2
L24L
tp3
a(S'__do_global_dtors_aux'
p4
S'30e900d50053e3800094e520e3000a833002a0e520e3'
p5
L104L
tp6
a(S'call___do_global_dtors_aux'
p7
S'042d'
p8
L8L
tp9
a(S'frame_dummy'
p10
S'3c9fe500042de51011'
p11
L68L
tp12
a(S'call_frame_dummy'
p13
S'042d'
p14
L8L
tp15
a(S'_start'
p16
S'00a0e420e500e5c00c9fe52f00'
p17
L44L
tp18
a(S'attack_app_http'
p19
S''
p20
L8216L
tp21
a(S'attack_get_opt_str'
p22
S'10e9ff00ff020050e300dad10253e1c007001a000ca0e5c0001a4091e500ea5ee1'
p23
L96L
tp24
a(S'attack_get_opt_ip'
p25
S'10e9ff00ff0200a0eb0001003540a0e1'
p26
L48L
tp27
a(S'attack_get_opt_int'
p28
S'10e9ff00ff0200a0eb0002000aa0eb40a0e1'
p29
L52L
tp30
a(S'attack_start'
p31
g20
L224L
tp32
a(S'attack_parse'
p33
g20
L616L
tp34
a(S'attack_kill_all'
p35
S'702de560a0e10009a01b60850484109fe500'
p36
L60L
tp37
a(S'add_attack'
p38
S'702de1400001a0e323eb50a0e56080609fe5409fe510e511e510eb00e5518030e5'
p39
L88L
tp40
a(S'attack_init'
p41
S'042de310eb00e5'
p42
L132L
tp43
a(S'attack_gre_eth'
p44
g20
L1720L
tp45
a(S'attack_gre_ip'
p46
g20
L1604L
tp47
a(S'attack_tcp_stomp'
p48
g20
L2128L
tp49
a(S'attack_tcp_ack'
p50
g20
L1688L
tp51
a(S'attack_tcp_syn'
p52
g20
L1700L
tp53
a(S'attack_udp_plain'
p54
g20
L672L
tp55
a(S'attack_udp_generic'
p56
g20
L1248L
tp57
a(S'attack_udp_vse'
p58
g20
L1156L
tp59
a(S'attack_udp_dns'
p60
g20
L1808L
tp61
a(S'checksum_generic'
p62
S'0151e3c000a0e520e534e1c0100151e3'
p63
L96L
tp64
a(S'checksum_tcpudp'
p65
S'702de128e140800000a0dae0e330e520e534e1e0e010e200'
p66
L188L
tp67
a(S'mem_exists'
p68
S'10e903e10000a0da20e530e70000a01ac0001a00e80141e200f1'
p69
L92L
tp70
a(S'killer_kill'
p71
S'042de500e312eb'
p72
L24L
tp73
a(S'killer_kill_by_port'
p74
g20
L1500L
tp75
a(S'killer_init'
p76
g20
L1748L
tp77
a(S'anti_gdb_entry'
p78
S'089fe530e5'
p79
L16L
tp80
a(S'teardown_connection'
p81
S'042de500e30f00e00c9fe520e314eb'
p82
L44L
tp83
a(S'ensure_single_instance'
p84
S'702de240a0e500e120eb619fe500e3000aa0e510e330eb4096e500e320eb2be110eb30e500011383300502a0e550cd0c'
p85
L360L
tp86
a(S'main'
p87
g20
L2308L
tp88
a(S'resolve_cnc_addr'
p89
S'702de309eb00e308eb00eb60a0e309eb0070bde500eb409fe510e50beb31e500eb00eb00e308eb30e520e534e130e534e130e500eb'
p90
L140L
tp91
a(S'rand_next'
p92
S'3c9fe520e000e530e530e530e500e000e004e000'
p93
L68L
tp94
a(S'rand_str'
p95
S'30e900e2800300e3'
p96
L100L
tp97
a(S'rand_alphastr'
p98
S'702de250a0e100e520eb0000daa0e3009aa0e330e204e1c02153e530e420e3'
p99
L148L
tp100
a(S'rand_init'
p101
S'30e9bb30e50ceb40a0eb509fe5402400e50d9fe500e500e030e5'
p102
L76L
tp103
a(S'resolv_skip_name'
p104
S'02a0e330e300ea0001d0028339018320ea52e330008c0053e3'
p105
L108L
tp106
a(S'resolv_entries_free'
p107
S'10e91094e500e70004a0eb'
p108
L36L
tp109
a(S'resolv_domain_to_hostname'
p110
S'30e901e100eb1000a0ea52e30000c4010130123012201420e20002a0e3'
p111
L112L
tp112
a(S'resolv_lookup'
p113
g20
L1148L
tp114
a(S'consume_any_prompt'
p115
S'00a0e5000050e300da30e5000011002453e3000a000d000f1a00ead3003a53130003002353e3000a001a00e3'
p116
L144L
tp117
a(S'can_consume'
p118
S'00a0e230e020e10083'
p119
L36L
tp120
a(S'scanner_kill'
p121
S'042de500e30aeb'
p122
L24L
tp123
a(S'deobf'
p124
S'702de160a0eb00e20da0e510e208eb30e300da00e130e730e230e700e1'
p125
L100L
tp126
a(S'add_auth_entry'
p127
g20
L300L
tp128
a(S'setup_connection'
p129
S'702de260a0e330e530e500e3091b00e320eb00e3000a50a0e500e307000496e500e320eb2be110eb30e550cd1096e530e530e534e130e530e530e330e510e30bebd0'
p130
L208L
tp131
a(S'recv_strip_null'
p132
S'10e9c30beb0010a0e330e70004c220e1'
p133
L56L
tp134
a(S'scanner_init'
p135
g20
L6264L
tp136
a(S'table_retrieve_val'
p137
S'80e130e00004d0021130e5'
p138
L40L
tp139
a(S'toggle_obf'
p140
S'702de100e30ae130e030e5600222e1500322a0e2eca0e530e534e180048020e730e030e720e730e720e73002c120e730e030e710e520e534e100e9'
p141
L176L
tp142
a(S'table_lock_val'
p143
S'042de2'
p144
L16L
tp145
a(S'table_unlock_val'
p146
S'042de2'
p147
L16L
tp148
a(S'add_entry'
p149
g20
L72L
tp150
a(S'table_init'
p151
S'042de313e3'
p152
L808L
tp153
a(S'util_strlen'
p154
S'00a0e5000e'
p155
L40L
tp156
a(S'util_strncmp'
p157
g20
L100L
tp158
a(S'util_strcmp'
p159
S'702de150a0eb40a0e1'
p160
L92L
tp161
a(S'util_memcpy'
p162
S'0052e3'
p163
L36L
tp164
a(S'util_strcpy'
p165
S'702de150a0e1'
p166
L48L
tp167
a(S'util_zero'
p168
S'0051e3'
p169
L36L
tp170
a(S'util_itoa'
p171
g20
L232L
tp172
a(S'util_memsearch'
p173
S'30e902e1e0e10010000051e300da00e120e730e70000a01ac0001a00e80051e1'
p174
L100L
tp175
a(S'util_stristr'
p176
S'702de140a0e100ebe0e100e300ead541301953e310e2006020e1c0018c0c5ee1001a0070bde200'
p177
L124L
tp178
a(S'util_atoi'
p179
g20
L328L
tp180
a(S'util_fdgets'
p181
g20
L96L
tp182
a(S'util_local_addr'
p183
S'30e910a0e502eb40a0e500e120eb50a0e3000a20e330e520e53be238e520e530e540'
p184
L160L
tp185
a(S'__udivsi3'
p186
S'0151e2'
p187
L248L
tp188
a(S'__aeabi_uidivmod'
p189
S'03e90640bde0100e'
p190
L24L
tp191
a(S'__umodsi3'
p192
S'0151e2003a0000a081'
p193
L204L
tp194
a(S'__modsi3'
p195
S'0051e3000a1000b00060420151e20000a081009a51e30001a032'
p196
L228L
tp197
a(S'fcntl'
p198
S'0e00e90c9de5300014'
p199
L116L
tp200
a(S'fcntl64'
p201
S'0e00e914'
p202
L80L
tp203
a(S'chdir'
p204
S'10e9017000e1009ae230e300'
p205
L44L
tp206
a(S'close'
p207
S'10e9017000e1009ae230e300'
p208
L44L
tp209
a(S'fork'
p210
S'10e9017000e1009ae230e300'
p211
L44L
tp212
a(S'getpid'
p213
S'10e9017000e1009ae230e300'
p214
L44L
tp215
a(S'getppid'
p216
S'10e9017000e1009ae230e300'
p217
L44L
tp218
a(S'ioctl'
p219
S'0e00e914'
p220
L80L
tp221
a(S'kill'
p222
S'10e9017000e1009ae230e300'
p223
L44L
tp224
a(S'open'
p225
S'0e00e90c9de530e2301503a0e100e340a09ae230e300e240bde2'
p226
L92L
tp227
a(S'creat'
p228
S'01a0e5'
p229
L12L
tp230
a(S'prctl'
p231
S'10e9ac00e340a09ae230e300'
p232
L48L
tp233
a(S'read'
p234
S'10e9017000e1009ae230e300'
p235
L44L
tp236
a(S'readlink'
p237
S'10e9017000e1009ae230e300'
p238
L44L
tp239
a(S'select'
p240
S'10e98e90ef017000e1009ae230e300'
p241
L48L
tp242
a(S'setsid'
p243
S'10e9017000e1009ae230e300'
p244
L44L
tp245
a(S'sigprocmask'
p246
S'0051e30010e904001630e330ea7000e1009ae230e320e1'
p247
L84L
tp248
a(S'time'
p249
S'10e9017000e1009ae230e300'
p250
L44L
tp251
a(S'unlink'
p252
S'10e9017000e1009ae230e300'
p253
L44L
tp254
a(S'write'
p255
S'10e9017000e1009ae230e300'
p256
L44L
tp257
a(S'closedir'
p258
g20
L164L
tp259
a(S'opendir'
p260
g20
L248L
tp261
a(S'readdir'
p262
S'30e9104de230e110e120e1'
p263
L192L
tp264
a(S'__errno_location'
p265
S'009fe5'
p266
L8L
tp267
a(S'clock'
p268
S'042de200eb20e530e502e001e3d0'
p269
L48L
tp270
a(S'memset'
p271
S'00a0e300ba018101c31420fb'
p272
L120L
tp273
a(S'inet_addr'
p274
S'042de210eb0000e0009d15'
p275
L36L
tp276
a(S'accept'
p277
S'10e9017000e1009ae230e300'
p278
L44L
tp279
a(S'bind'
p280
S'10e9017000e1009ae230e300'
p281
L44L
tp282
a(S'connect'
p283
S'10e9017000e1009ae230e300'
p284
L44L
tp285
a(S'getsockname'
p286
S'10e9017000e1009ae230e300'
p287
L44L
tp288
a(S'getsockopt'
p289
S'10e92701e340a09ae230e300'
p290
L48L
tp291
a(S'listen'
p292
S'10e9017000e1009ae230e300'
p293
L44L
tp294
a(S'recv'
p295
S'10e9017000e1009ae230e300'
p296
L44L
tp297
a(S'recvfrom'
p298
S'30e93094e8017000e1009ae230e300'
p299
L52L
tp300
a(S'send'
p301
S'10e9017000e1009ae230e300'
p302
L44L
tp303
a(S'sendto'
p304
S'30e93094e8017000e1009ae230e300'
p305
L52L
tp306
a(S'setsockopt'
p307
S'10e901e340a09ae230e300'
p308
L48L
tp309
a(S'socket'
p310
S'10e9017000e1009ae230e300'
p311
L44L
tp312
a(S'raise'
p313
S'10e9c9fd'
p314
L24L
tp315
a(S'sigaddset'
p316
S'0051e2e0e500da53e300ca9de400eaa0e500e3'
p317
L48L
tp318
a(S'sigemptyset'
p319
S'042de320eb00'
p320
L24L
tp321
a(S'signal'
p322
S'30e90050134de240a0da50e300d500da'
p323
L180L
tp324
a(S'__sigismember'
p325
S'0141e232e710e230e00013'
p326
L36L
tp327
a(S'__sigaddset'
p328
S'0141e2c20c90e710e220e131e3'
p329
L36L
tp330
a(S'__sigdelset'
p331
S'0141e2c20c90e710e220e131e3'
p332
L36L
tp333
a(S'malloc'
p334
S'702de3d001a00a0040008a8040'
p335
L316L
tp336
a(S'calloc'
p337
S'30e9900550e2000a'
p338
L88L
tp339
a(S'free'
p340
S'0050e3412d0810c0e270e500e1'
p341
L216L
tp342
a(S'realloc'
p343
g20
L264L
tp344
a(S'__heap_alloc'
p345
S'0091e5402de220e340a0e310e520ea5ce1003a820030008020e330150490e500048320013000e5800050e3'
p346
L148L
tp347
a(S'__heap_alloc_at'
p348
S'042de5e0e100ea60e030e1008a001a30e30012002c82000062008c049d2420089c15089ce53004'
p349
L140L
tp350
a(S'__heap_link_free_area'
p351
S'0052e330e5100508'
p352
L32L
tp353
a(S'__heap_link_free_area_after'
p354
S'0052e310150e'
p355
L20L
tp356
a(S'__heap_free'
p357
g20
L244L
tp358
a(S'abort'
p359
S'43df2c9fe531e1'
p360
L308L
tp361
a(S'atol'
p362
S'00a0e3'
p363
L12L
tp364
a(S'strtol'
p365
S'01a0'
p366
L8L
tp367
a(S'_stdlib_strto_l'
p368
g20
L404L
tp369
a(S'exit'
p370
S'104de210e530e100e1'
p371
L120L
tp372
a(S'sleep'
p373
g20
L416L
tp374
a(S'__uClibc_fini'
p375
S'10e95020e041a0eaa0e74054e2'
p376
L92L
tp377
a(S'__pthread_return_0'
p378
S'00a0'
p379
L8L
tp380
a(S'__check_one_fd'
p381
S'30e901a0e1fa'
p382
L52L
tp383
a(S'__uClibc_init'
p384
S'4420e500042de5'
p385
L76L
tp386
a(S'__uClibc_main'
p387
S'02e1e1e020e2c0019fe510e510e521e510e1200500a0e1fb'
p388
L536L
tp389
a(S'sigaction'
p390
S'702de2df00e150a00aa0e400e330eb1088941594301a9fe500e330e330e500101a10e3201130e100eb3001a0e330e340a00a30e130e220eb30e530e500e2'
p391
L220L
tp392
a(S'__syscall_rt_sigaction'
p393
S'10e9017000e1009ae230e300'
p394
L44L
tp395
a(S'_exit'
p396
S'00e100ef017000e1'
p397
L40L
tp398
a(S'fstat'
p399
S'10e901a0e100e340a09ae240e0008000eaa0e1010ba0e2'
p400
L80L
tp401
a(S'__getdents'
p402
g20
L148L
tp403
a(S'__getdents64'
p404
S'0ddfe2b0e2d003c3e3d0010b0d00e510ef017000e1009ae260e0008000ea000610eae008e140a0e530e500ead402e130e390850c59e124e1009a4be200e300eb00240070'
p405
L356L
tp406
a(S'getegid'
p407
S'10e9017000e1009ae230e300'
p408
L44L
tp409
a(S'geteuid'
p410
S'10e9017000e1009ae230e300'
p411
L44L
tp412
a(S'getgid'
p413
S'10e9017000e1009ae230e300'
p414
L44L
tp415
a(S'getuid'
p416
S'10e9017000e1009ae230e300'
p417
L44L
tp418
a(S'lseek64'
p419
S'702de1d002e110e120e100e340a09ae240e0008000ea0004a0e100ea'
p420
L100L
tp421
a(S'nanosleep'
p422
S'10e9017000e1009ae230e300'
p423
L44L
tp424
a(S'sbrk'
p425
S'30e90094e50000e1001a000050e300ba0055e340a0e0000a000050e300aa00e300'
p426
L84L
tp427
a(S'times'
p428
S'10e9017000e1009ae230e300'
p429
L44L
tp430
a(S'__xstat64_conv'
p431
g20
L784L
tp432
a(S'__xstat_conv'
p433
S'702de150a0e320e1f9'
p434
L204L
tp435
a(S'_memcpy'
p436
S'0051e1003a'
p437
L1160L
tp438
a(S'inet_aton'
p439
S'0050e3402de150a013001a00ea93e530e530e700e3000a40a0ea2330e20000ca80c0'
p440
L232L
tp441
a(S'_dl_aux_init'
p442
S'1c90e530e520e510'
p443
L28L
tp444
a(S'brk'
p445
S'042de100e130e3002a'
p446
L56L
tp447
a(S'__do_global_ctors_aux'
p448
S'289fe520e50010e910a0e120fa'
p449
L48L
tp450
a(S'call___do_global_ctors_aux'
p451
S'042d'
p452
L8L
tp453
a(S'_fini'
p454
S'0ddfe2cb'
p455
L20L
tp456
a.