(lp0
(S'_init'
p1
S'9de350'
p2
L72L
tp3
a(S'abort'
p4
S'9de33059e0c2f710'
p5
L524L
tp6
a(S'fini'
p7
S'030a'
p8
L20L
tp9
a(S'main'
p10
S'9de300000090101d0090101d0096ae052092101d9010010090101400'
p11
L2616L
tp12
a(S'_start'
p13
S'bc23af940301001904901220136c'
p14
L72L
tp15
a(S'__sparc_get_pc_thunk.l7'
p16
S'81'
p17
L8L
tp18
a(S'deregister_tm_clones'
p19
S'9de350030a000012000201000010832010800b00001083201002040000000000'
p20
L108L
tp21
a(S'register_tm_clones'
p22
S'9de350030a000012000201000028'
p23
L124L
tp24
a(S'__do_global_dtors_aux'
p25
S'9de350'
p26
L288L
tp27
a(S'call___do_global_dtors_aux'
p28
S'9de3508100'
p29
L12L
tp30
a(S'frame_dummy'
p31
S'9de3500300051083201002'
p32
L92L
tp33
a(S'call_frame_dummy'
p34
S'9de3508100'
p35
L12L
tp36
a(S'_Z15attack_app_httphP13attack_targethP13attack_option'
p37
S'0300189de30110000b90101a001200'
p38
L9260L
tp39
a(S'_Z11attack_initv'
p40
S'9de350921010779010010032f6e003'
p41
L920L
tp42
a(S'_Z15attack_kill_allv'
p43
S'9de350'
p44
L440L
tp45
a(S'_Z12attack_startihhP13attack_targethP13attack_option'
p46
S'9de3500000a0f4f4ae052084ff908000000000008d01008024a200'
p47
L264L
tp48
a(S'_Z12attack_parsePci'
p49
S'9de350808fa000f8'
p50
L604L
tp51
a(S'_Z18attack_get_opt_strhP13attack_optionhPc'
p52
S'020000000a80105a0002ff2801'
p53
L88L
tp54
a(S'_Z18attack_get_opt_inthP13attack_optionhi'
p55
S'02000100c20800d00002ff2801'
p56
L108L
tp57
a(S'_Z17attack_get_opt_iphP13attack_optionhj'
p58
S'02000100c20800d00002ff2801'
p59
L108L
tp60
a(S'_Z13attack_gre_iphP13attack_targethP13attack_option'
p61
S'9de30000100877df1002ff90101a101b1003'
p62
L1536L
tp63
a(S'_Z14attack_gre_ethhP13attack_targethP13attack_option'
p64
S'9de3'
p65
L1692L
tp66
a(S'_Z14attack_tcp_synhP13attack_targethP13attack_option'
p67
S'9de3'
p68
L1568L
tp69
a(S'_Z14attack_tcp_ackhP13attack_targethP13attack_option'
p70
S'9de3e01018002aef23100870ee77e7101b1002'
p71
L1652L
tp72
a(S'_Z16attack_tcp_stomphP13attack_targethP13attack_option'
p73
S'9de3c0'
p74
L1784L
tp75
a(S'_ZL16get_dns_resolverv'
p76
S'9de330'
p77
L564L
tp78
a(S'_Z18attack_udp_generichP13attack_targethP13attack_option'
p79
S'9de3100010081000007ff790101a1003101c30f790101a109410041008f792101c1000007ff790101a101c77e710'
p80
L1216L
tp81
a(S'_Z14attack_udp_vsehP13attack_targethP13attack_option'
p82
S'9de330009210081000007ff5fb90101a101b1003fff490101a009610941004ffee90101a101b100590101a'
p83
L960L
tp84
a(S'_Z14attack_udp_dnshP13attack_targethP13attack_option'
p85
S'9de300009210081000007ff50b10ff3430'
p86
L1240L
tp87
a(S'_Z16attack_udp_plainhP13attack_targethP13attack_option'
p88
S'9de330009210081008681810'
p89
L848L
tp90
a(S'_Z16checksum_genericPtj'
p91
S'80'
p92
L132L
tp93
a(S'_Z15checksum_tcpudpP5iphdrPvti'
p94
S'da20a2209602fee0981004010102'
p95
L220L
tp96
a(S'_Z11killer_killv'
p97
S'9de350'
p98
L40L
tp99
a(S'_Z19killer_kill_by_portt'
p100
S'0300'
p101
L1592L
tp102
a(S'_Z11killer_initv'
p103
S'0300'
p104
L2440L
tp105
a(S'_ZL14anti_gdb_entryi'
p106
S'9de350'
p107
L52L
tp108
a(S'_ZL19teardown_connectionv'
p109
S'9de350'
p110
L68L
tp111
a(S'_ZL16resolve_cnc_addrv'
p112
S'9de3500015921000'
p113
L176L
tp114
a(S'_ZL22ensure_single_instancev'
p115
S'9de33000'
p116
L444L
tp117
a(S'_Z9rand_initv'
p118
S'9de35000901000001dae0500'
p119
L124L
tp120
a(S'_Z9rand_nextv'
p121
S'9de350'
p122
L132L
tp123
a(S'_Z8rand_strPci'
p124
S'9de350801dae05003500'
p125
L348L
tp126
a(S'_Z13rand_alphastrPhi'
p127
S'9de320'
p128
L424L
tp129
a(S'_Z13resolv_lookupPc'
p130
S'9de300200090100110080c90101d'
p131
L1444L
tp132
a(S'_Z19resolv_entries_freeP14resolv_entries'
p133
S'9de35002000100d008c2010000010010fecfe00100'
p134
L48L
tp135
a(S'_ZL16setup_connectionP18scanner_connection'
p136
S'9de3c0c0d020'
p137
L212L
tp138
a(S'_ZL14add_auth_entryPcS_t'
p139
S'9de350'
p140
L876L
tp141
a(S'_Z12scanner_initv'
p142
S'9de330760100'
p143
L7948L
tp144
a(S'_Z12scanner_killv'
p145
S'9de350'
p146
L40L
tp147
a(S'_Z10table_initv'
p148
S'9de3500010'
p149
L2160L
tp150
a(S'_Z16table_unlock_valh'
p151
S'9de35089301810'
p152
L192L
tp153
a(S'_Z14table_lock_valh'
p154
S'9de35089301810'
p155
L192L
tp156
a(S'_Z18table_retrieve_valiPi'
p157
S'9de350'
p158
L84L
tp159
a(S'_Z11util_strlenPc'
p160
S''
p161
L60L
tp162
a(S'_Z12util_strncmpPcS_i'
p163
g161
L212L
tp164
a(S'_Z11util_strcmpPcS_'
p165
g161
L204L
tp166
a(S'_Z11util_strcpyPcS_'
p167
g161
L352L
tp168
a(S'_Z11util_memcpyPvS_i'
p169
S'0280bf0802'
p170
L300L
tp171
a(S'_Z9util_zeroPvi'
p172
S'02082095320168008100'
p173
L40L
tp174
a(S'_Z9util_atoiPci'
p175
S'9de350c200a0002088'
p176
L400L
tp177
a(S'_Z9util_itoaiiPc'
p178
S'9de320c60200'
p179
L296L
tp180
a(S'_Z14util_memsearchPciS_i'
p181
S'80'
p182
L108L
tp183
a(S'_Z12util_stristrPciS_'
p184
g161
L224L
tp185
a(S'_Z15util_local_addrv'
p186
S'9de3300078'
p187
L128L
tp188
a(S'_Z11util_fdgetsPcii'
p189
S'9de350ba100010016de98004a72081'
p190
L88L
tp191
a(S'__libc_start_main'
p192
S'9de330777f7787778f1005c200'
p193
L1388L
tp194
a(S'check_one_fd'
p195
S'9de3c07092100100000000000a10'
p196
L204L
tp197
a(S'__libc_check_standard_fds'
p198
S'9de3509010000201ff93321300b2007fffb02010c3'
p199
L48L
tp200
a(S'__libc_setup_tls'
p201
S'9de350030a0a58'
p202
L448L
tp203
a(S'__libc_csu_init'
p204
S'9de3503b0a'
p205
L156L
tp206
a(S'__libc_csu_fini'
p207
S'9de3503b0a030aba10'
p208
L76L
tp209
a(S'__errno_location'
p210
S'1100'
p211
L28L
tp212
a(S'__assert_fail_base'
p213
S'9de31059e0c2f71002041000cb90100100'
p214
L360L
tp215
a(S'__assert_fail'
p216
S'9de35094100511'
p217
L52L
tp218
a(S'dcgettext'
p219
g161
L28L
tp220
a(S'plural_eval'
p221
S'9de350c2000004008024a020d008ff9210197a0128b000'
p222
L328L
tp223
a(S'transcmp'
p224
S'9de350c220c0'
p225
L132L
tp226
a(S'plural_lookup.isra.2'
p227
S'9de350921019ff5e2080'
p228
L100L
tp229
a(S'_nl_find_msg'
p230
S'9de32059e0c2f777cf80767797f85e20020020c2'
p231
L2776L
tp232
a(S'__dcigettext'
p233
S'9de3b059e0c2f7778fc6779f80'
p234
L1884L
tp235
a(S'_nl_find_domain'
p236
S'9de3'
p237
L708L
tp238
a(S'_nl_load_domain'
p239
S'9de33059e0c2f710'
p240
L5796L
tp241
a(S'alias_compare'
p242
S'155a0000'
p243
L28L
tp244
a(S'read_alias_file'
p245
S'9de390'
p246
L1108L
tp247
a(S'_nl_expand_alias'
p248
S'9de350'
p249
L544L
tp250
a(S'_nl_make_l10nflist'
p251
S'9de310e9a61018a8c2efa28e04000090101da20000d0afa820a20000d0b70201'
p252
L1228L
tp253
a(S'_nl_normalize_codeset'
p254
S'9de35002b8000a5ee38a1810000887b0'
p255
L312L
tp256
a(S'_nl_explode_name'
p257
S'9de350c0c0c0c0'
p258
L596L
tp259
a(S'__gettext_free_exp'
p260
S'9de35002000000'
p261
L92L
tp262
a(S'new_exp'
p263
S'9de350'
p264
L228L
tp265
a(S'__gettextparse'
p266
S'9de3c22877f7'
p267
L2232L
tp268
a(S'__gettext_extract_plural'
p269
S'9de33059e0c2f710180001000800901018208501908000030509a020051884a00159c01004880a687f8570'
p270
L344L
tp271
a(S'__hash_string'
p272
S'0b00680083040001088518'
p273
L80L
tp274
a(S'_setjmp'
p275
S'1020'
p276
L8L
tp277
a(S'setjmp'
p278
S'10'
p279
L8L
tp280
a(S'__sigsetjmp'
p281
S'd222'
p282
L20L
tp283
a(S'__bsd_signal.part.0'
p284
S'9de31059e0c2f777'
p285
L168L
tp286
a(S'ssignal'
p287
g161
L100L
tp288
a(S'raise'
p289
S'9de3c22877f7'
p290
L312L
tp291
a(S'__rt_sigreturn_stub'
p292
g161
L16L
tp293
a(S'__libc_sigaction'
p294
S'9de31059e0c2f7c610005e0077'
p295
L276L
tp296
a(S'sigaction'
p297
S'84'
p298
L76L
tp299
a(S'sigprocmask'
p300
S'9de350901018101a1091d06d1a0410001001c00000cfe00100b000847f9010ff00'
p301
L96L
tp302
a(S'kill'
p303
g161
L36L
tp304
a(S'sigemptyset'
p305
S'9de350020094108055901018a0200300'
p306
L76L
tp307
a(S'sigaddset'
p308
S'867f80007a01908000800a0088208590037200c3e090'
p309
L116L
tp310
a(S'msort_with_tmp.part.0'
p311
S'9de377f710195e00b28000a6a01c1010ff901018'
p312
L824L
tp313
a(S'qsort_r'
p314
S'9de32059e0c2f770'
p315
L732L
tp316
a(S'qsort'
p317
S'9810006fff00'
p318
L16L
tp319
a(S'getenv'
p320
S'9de350030a58'
p321
L336L
tp322
a(S'__run_exit_handlers'
p323
S'9de350'
p324
L676L
tp325
a(S'exit'
p326
S'9de35090101800961001ff120100'
p327
L32L
tp328
a(S'__new_exitfn'
p329
S'9de350030a08800100fa5e00028a2090101d02c000ff020258a003c00210b0'
p330
L320L
tp331
a(S'__internal_atexit'
p332
S'9de3503b0a1001e700007fff0200c23072107218720872007f8010a0200090101c6f'
p333
L200L
tp334
a(S'__cxa_atexit'
p335
g161
L20L
tp336
a(S'__strtoll_internal'
p337
S'0300847f030a10'
p338
L36L
tp339
a(S'strtoq'
p340
S'03009610000a10'
p341
L40L
tp342
a(S'__strtoull_internal'
p343
S'0300847f030a10'
p344
L36L
tp345
a(S'strtouq'
p346
S'03009610000a10'
p347
L40L
tp348
a(S'____strtoll_l_internal'
p349
S'9de3a21000a0a001000300847f030a10'
p350
L1592L
tp351
a(S'strtoll_l'
p352
S'98100b13006f'
p353
L20L
tp354
a(S'____strtoull_l_internal'
p355
S'9de3ba1000c6a0a0a001000300847f030a10'
p356
L1412L
tp357
a(S'strtoull_l'
p358
S'98100b13006f'
p359
L20L
tp360
a(S'__correctly_grouped_prefixmb'
p361
S'9de35002c00000e2101a'
p362
L656L
tp363
a(S'asprintf'
p364
S'9de3'
p365
L104L
tp366
a(S'locked_vfxprintf'
p367
S'9de33077e759e0c2f7a00000'
p368
L376L
tp369
a(S'__fxprintf'
p370
S'9de3fa77a7f477'
p371
L312L
tp372
a(S'__fxprintf_nocancel'
p373
S'9de3fa77a7f477'
p374
L328L
tp375
a(S'fclose'
p376
S'9de350c2008812781018883253b1'
p377
L644L
tp378
a(S'fflush'
p379
S'9de3500200ba'
p380
L304L
tp381
a(S'__fopen_maybe_mmap'
p382
S'c274880210000002006800c2c000050032100172d85a20810003'
p383
L96L
tp384
a(S'__fopen_internal'
p385
S'9de350901028'
p386
L232L
tp387
a(S'fopen64'
p388
S'9410016fff0100'
p389
L16L
tp390
a(S'adjust_wide_data'
p391
S'9de33059e0c2f75f'
p392
L260L
tp393
a(S'_IO_wfile_underflow'
p394
S'9de32059e0c2f78812'
p395
L1744L
tp396
a(S'_IO_wfile_seekoff'
p397
S'9de380e0c2f7c6c2a0'
p398
L2144L
tp399
a(S'_IO_wfile_underflow_maybe_mmap'
p400
S'9de3500085a2'
p401
L56L
tp402
a(S'_IO_wfile_underflow_mmap'
p403
S'9de33059e0c2f7881254'
p404
L412L
tp405
a(S'_IO_wdo_write'
p406
S'9de31059e0c2f75e20da285e20025bfa5e20'
p407
L472L
tp408
a(S'_IO_wfile_overflow'
p409
S'9de350'
p410
L780L
tp411
a(S'_IO_wfile_sync'
p412
S'9de3c2a080105800'
p413
L420L
tp414
a(S'_IO_wfile_xsputn'
p415
S'9de350b8c6f6a0'
p416
L416L
tp417
a(S'vasprintf'
p418
S'9de350c22877f71002000098100010ff0020008e778f0033101d92101d00'
p419
L348L
tp420
a(S'backtrace_and_maps.constprop.0'
p421
S'8100'
p422
L8L
tp423
a(S'__libc_message'
p424
S'9de3f477'
p425
L776L
tp426
a(S'__libc_fatal'
p427
S'9de3503b'
p428
L36L
tp429
a(S'_IO_vtable_check'
p430
S'9de3500305'
p431
L40L
tp432
a(S'fgets_unlocked'
p433
S'9de350b8a6'
p434
L180L
tp435
a(S'_IO_file_seekoff_maybe_mmap'
p436
S'9de350fa5e2003'
p437
L100L
tp438
a(S'_IO_file_close'
p439
S'd07013006800'
p440
L16L
tp441
a(S'_IO_new_file_setbuf'
p442
S'9de350901018101a0d19c2b000c23877307728772077187708771000'
p443
L72L
tp444
a(S'_IO_file_setbuf_mmap'
p445
S'9de350'
p446
L132L
tp447
a(S'new_do_write'
p448
S'9de350ba00325e20b6e1c60000340004'
p449
L352L
tp450
a(S'_IO_new_file_underflow'
p451
S'9de350c200'
p452
L740L
tp453
a(S'_IO_file_close_mmap'
p454
S'9de350c2385e2010019222c0c0206800'
p455
L44L
tp456
a(S'mmap_remap_check'
p457
S'9de3a0'
p458
L568L
tp459
a(S'_IO_file_seek'
p460
S'd07013006800'
p461
L16L
tp462
a(S'_IO_file_sync_mmap'
p463
S'9de350c2085e20'
p464
L116L
tp465
a(S'decide_maybe_mmap'
p466
S'9de3b059e0c2f700321084a001'
p467
L468L
tp468
a(S'_IO_file_underflow_maybe_mmap'
p469
S'9de3507ffffa5e2003'
p470
L88L
tp471
a(S'_IO_file_xsgetn_maybe_mmap'
p472
S'9de3507fff00fa5e2003'
p473
L96L
tp474
a(S'_IO_new_file_seekoff'
p475
S'9de3a0'
p476
L1520L
tp477
a(S'_IO_file_stat'
p478
S'9410092010036800'
p479
L24L
tp480
a(S'_IO_new_file_write'
p481
S'9de35004801000'
p482
L136L
tp483
a(S'_IO_file_xsgetn_mmap'
p484
S'9de350f85e20fa5e20baa71a6800c200'
p485
L288L
tp486
a(S'_IO_file_xsgetn'
p487
S'9de3c238c01018c6d2085f'
p488
L540L
tp489
a(S'_IO_file_seekoff_mmap'
p490
S'9de35002c010180080235e20c600325f'
p491
L320L
tp492
a(S'_IO_file_underflow_mmap'
p493
S'9de350c2085e2080'
p494
L176L
tp495
a(S'_IO_file_read'
p496
S'c2740270881205'
p497
L44L
tp498
a(S'_IO_new_file_xsputn'
p499
S'9de350b8c6'
p500
L452L
tp501
a(S'_IO_new_file_init_internal'
p502
S'9de350c20010021018769000c20020cfe00100'
p503
L52L
tp504
a(S'_IO_new_file_init'
p505
S'9de350c20010021018769000c20020cfe00100'
p506
L52L
tp507
a(S'_IO_file_open'
p508
S'9de350c274101800803900eeb020b60080240004'
p509
L284L
tp510
a(S'_IO_new_file_attach'
p511
S'9de350c270a0'
p512
L208L
tp513
a(S'_IO_new_do_write'
p514
S'9de3500a80a02094101a'
p515
L64L
tp516
a(S'_IO_new_file_close_it'
p517
S'9de350fa'
p518
L416L
tp519
a(S'_IO_new_file_fopen'
p520
S'9de32059e0c2f7a000c2000180130000847fb020030a10'
p521
L1312L
tp522
a(S'_IO_new_file_finish'
p523
S'9de350c270a000c2c0009010185e20'
p524
L184L
tp525
a(S'_IO_new_file_overflow'
p526
S'9de350c200'
p527
L548L
tp528
a(S'_IO_new_file_sync'
p529
S'9de3'
p530
L304L
tp531
a(S'save_for_backup'
p532
S'9de350e220c2'
p533
L368L
tp534
a(S'flush_cleanup'
p535
S'9de350030a58'
p536
L216L
tp537
a(S'_IO_un_link.part.2'
p538
S'9de32059e0c2f7'
p539
L656L
tp540
a(S'_IO_un_link'
p541
S'c2006800'
p542
L36L
tp543
a(S'_IO_link_in'
p544
S'9de32059e0c2f78812683900b8c70000941000fb'
p545
L568L
tp546
a(S'_IO_least_marker'
p547
g161
L44L
tp548
a(S'_IO_switch_to_main_get_area'
p549
g161
L52L
tp550
a(S'_IO_switch_to_backup_area'
p551
g161
L52L
tp552
a(S'_IO_switch_to_get_mode'
p553
S'9de350c2285e208015fa5e2003'
p554
L192L
tp555
a(S'_IO_free_backup_area'
p556
S'9de350c20068205e20'
p557
L80L
tp558
a(S'__overflow'
p559
S'9de350c2c000'
p560
L108L
tp561
a(S'__underflow'
p562
S'9de350c2c00080ff20c200'
p563
L340L
tp564
a(S'__uflow'
p565
S'9de350c2c00080ff20c200'
p566
L356L
tp567
a(S'_IO_setb'
p568
S'9de350d038c2c200'
p569
L104L
tp570
a(S'_IO_doallocbuf'
p571
S'9de350c238c0'
p572
L208L
tp573
a(S'_IO_default_underflow'
p574
S'81'
p575
L8L
tp576
a(S'_IO_default_uflow'
p577
S'9de350fa5e2003'
p578
L108L
tp579
a(S'_IO_default_xsputn'
p580
S'9de350b600028010000034003214e0101a5ee0fa5ee0800aa7008021c7b8c71a5ee0'
p581
L256L
tp582
a(S'_IO_sgetn'
p583
S'9de350fa5e2003'
p584
L88L
tp585
a(S'_IO_default_xsgetn'
p586
S'9de350b85e20fa5e20800d801ca7'
p587
L188L
tp588
a(S'_IO_default_setbuf'
p589
S'9de350f85e2003'
p590
L280L
tp591
a(S'_IO_default_seekpos'
p592
S'9de350fa5e2003'
p593
L92L
tp594
a(S'_IO_default_doallocate'
p595
S'9de350006a0008c2ba00085e20b8c2c200'
p596
L100L
tp597
a(S'_IO_enable_locks'
p598
S'030a00800d'
p599
L72L
tp600
a(S'_IO_old_init'
p601
S'03eb9212030a00d20080387283c0c274720872107220722872307268c0c0c0c080200100c0c08100'
p602
L120L
tp603
a(S'_IO_init_internal'
p604
S'9de350921019ff90101876a820'
p605
L44L
tp606
a(S'_IO_init'
p607
g161
L12L
tp608
a(S'_IO_no_init'
p609
S'9de350921019ff90101800f420f6a0c0c0c0c0c0c0c0c0c0f8763076a8cfe00100'
p610
L112L
tp611
a(S'_IO_default_sync'
p612
S'8120'
p613
L8L
tp614
a(S'_IO_default_finish'
p615
S'9de350d038c2c2'
p616
L136L
tp617
a(S'_IO_default_seekoff'
p618
S'81'
p619
L8L
tp620
a(S'_IO_sputbackc'
p621
S'9de350c2085e2080095e20'
p622
L164L
tp623
a(S'_IO_sungetc'
p624
S'9de350c2085e20800a5e20847f'
p625
L144L
tp626
a(S'_IO_adjust_column'
p627
S'860a'
p628
L88L
tp629
a(S'_IO_flush_all_lockp'
p630
S'9de32059e0c2f71400'
p631
L700L
tp632
a(S'_IO_cleanup'
p633
S'9de32059e0c2f7'
p634
L828L
tp635
a(S'_IO_flush_all'
p636
S'9010016ffe'
p637
L16L
tp638
a(S'_flushlbf'
p639
S'9de32059e0c2f7'
p640
L660L
tp641
a(S'_IO_init_marker'
p642
S'9de3507608'
p643
L116L
tp644
a(S'_IO_remove_marker'
p645
S'c20858'
p646
L80L
tp647
a(S'_IO_marker_difference'
p648
S'd020c210c3e0913a'
p649
L20L
tp650
a(S'_IO_marker_delta'
p651
S'c208c010ff00800858'
p652
L64L
tp653
a(S'_IO_seekmark'
p654
S'c208'
p655
L176L
tp656
a(S'_IO_unsave_markers'
p657
S'c2'
p658
L44L
tp659
a(S'_IO_default_pbackfail'
p660
S'9de350fa5e20f618'
p661
L364L
tp662
a(S'_IO_default_seek'
p663
S'81'
p664
L8L
tp665
a(S'_IO_default_stat'
p666
S'81'
p667
L8L
tp668
a(S'_IO_default_read'
p669
S'81'
p670
L8L
tp671
a(S'_IO_default_write'
p672
S'8120'
p673
L8L
tp674
a(S'_IO_default_showmanyc'
p675
S'81'
p676
L8L
tp677
a(S'_IO_default_imbue'
p678
S'8100'
p679
L8L
tp680
a(S'_IO_iter_begin'
p681
S'030ac3e0d0'
p682
L12L
tp683
a(S'_IO_iter_end'
p684
S'8120'
p685
L8L
tp686
a(S'_IO_iter_next'
p687
S'81'
p688
L8L
tp689
a(S'_IO_iter_file'
p690
S'8100'
p691
L8L
tp692
a(S'_IO_list_lock'
p693
S'9de350b800c220'
p694
L88L
tp695
a(S'_IO_list_unlock'
p696
S'9de3500500ff200000901020781800921081201a041000100100'
p697
L92L
tp698
a(S'_IO_list_resetlock'
p699
S'030a701870'
p700
L16L
tp701
a(S'_IO_str_underflow'
p702
S'c2285a208005c2105a00842085b086c0a000c208'
p703
L108L
tp704
a(S'_IO_str_overflow'
p705
S'9de350'
p706
L388L
tp707
a(S'enlarge_userbuf'
p708
S'9de350f6385e20'
p709
L376L
tp710
a(S'_IO_str_seekoff'
p711
S'9de350ba'
p712
L736L
tp713
a(S'_IO_str_pbackfail'
p714
g161
L52L
tp715
a(S'_IO_str_finish'
p716
S'9de350d038c2c0c200'
p717
L64L
tp718
a(S'_IO_str_init_static_internal'
p719
S'9de3502a80100029ba1000007ff8b976207618c6760876287630761076e0cfe0010080ff501a101d90101876207618'
p720
L160L
tp721
a(S'_IO_str_init_static'
p722
S'80ff38'
p723
L28L
tp724
a(S'_IO_str_init_readonly'
p725
S'9de35080ffc01019'
p726
L56L
tp727
a(S'_IO_str_count'
p728
S'c2285a20d018500220'
p729
L28L
tp730
a(S'_dl_tunable_set_mmap_threshold'
p731
S'c200a00ac3e00100c2'
p732
L44L
tp733
a(S'_dl_tunable_set_mmaps_max'
p734
g161
L24L
tp735
a(S'_dl_tunable_set_top_pad'
p736
g161
L24L
tp737
a(S'_dl_tunable_set_perturb_byte'
p738
g161
L16L
tp739
a(S'_dl_tunable_set_trim_threshold'
p740
g161
L24L
tp741
a(S'_dl_tunable_set_arena_max'
p742
g161
L16L
tp743
a(S'_dl_tunable_set_arena_test'
p744
g161
L16L
tp745
a(S'_dl_tunable_set_tcache_max'
p746
g161
L64L
tp747
a(S'_dl_tunable_set_tcache_count'
p748
g161
L16L
tp749
a(S'_dl_tunable_set_tcache_unsorted_limit'
p750
g161
L16L
tp751
a(S'mem2mem_check'
p752
S'0200'
p753
L136L
tp754
a(S'mem2chunk_check'
p755
S'8a200a52862086'
p756
L664L
tp757
a(S'int_mallinfo'
p758
S'9de350c2'
p759
L292L
tp760
a(S'__malloc_assert'
p761
S'9de33000'
p762
L104L
tp763
a(S'detach_arena'
p764
S'9de35002000100c28005c28000'
p765
L72L
tp766
a(S'get_free_list'
p767
S'9de350'
p768
L320L
tp769
a(S'malloc_printerr'
p770
S'9de3509410180013'
p771
L28L
tp772
a(S'top_check'
p773
S'9de350'
p774
L132L
tp775
a(S'malloc_consolidate'
p776
S'9de350c008'
p777
L728L
tp778
a(S'new_heap'
p779
S'9de350b200030a'
p780
L400L
tp781
a(S'munmap_chunk'
p782
S'9de350c208'
p783
L180L
tp784
a(S'mremap_chunk'
p785
S'9de350'
p786
L372L
tp787
a(S'ptmalloc_init'
p788
S'9de3c22877f7'
p789
L396L
tp790
a(S'arena_get2.part.2'
p791
S'9de3503b0a00c2'
p792
L1124L
tp793
a(S'arena_get_retry'
p794
S'9de350b80084'
p795
L220L
tp796
a(S'_dl_tunable_set_mallopt_check'
p797
S'c20000008420'
p798
L96L
tp799
a(S'__malloc_info.part.7'
p800
S'9de3000018'
p801
L1204L
tp802
a(S'systrim.isra.1.constprop.8'
p803
S'9de350390a5f21fa58'
p804
L204L
tp805
a(S'_int_free'
p806
S'9de33059e0c2f708840018de80a7'
p807
L2900L
tp808
a(S'sysmalloc'
p809
S'9de330c65ca1805d'
p810
L1964L
tp811
a(S'_int_malloc'
p812
S'9de3e0'
p813
L4012L
tp814
a(S'malloc_check'
p815
S'9de350802100'
p816
L192L
tp817
a(S'tcache_init.part.4'
p818
S'9de3500300847f030a10'
p819
L300L
tp820
a(S'_int_memalign'
p821
S'9de350'
p822
L524L
tp823
a(S'memalign_check'
p824
S'9de3508030a62008'
p825
L348L
tp826
a(S'free_check'
p827
S'9de35002003b0a1001e70000901018ef94921000c2b000c208c010007fa090101c6f35921008f5e6'
p828
L252L
tp829
a(S'_int_realloc'
p830
S'9de350'
p831
L972L
tp832
a(S'realloc_check'
p833
S'9de3c22877f7'
p834
L668L
tp835
a(S'__malloc_fork_lock_parent'
p836
S'9de350030a008015'
p837
L140L
tp838
a(S'__malloc_fork_unlock_parent'
p839
S'9de350030a00c20c10a004008400'
p840
L192L
tp841
a(S'__malloc_fork_unlock_child'
p842
S'030a00802300c08800000a10'
p843
L160L
tp844
a(S'__malloc_check_init'
p845
S'030a1001200500'
p846
L80L
tp847
a(S'malloc'
p848
S'9de350030a58'
p849
L860L
tp850
a(S'malloc_hook_ini'
p851
S'9de350030a'
p852
L24L
tp853
a(S'_mid_memalign'
p854
S'9de350030a58'
p855
L760L
tp856
a(S'memalign_hook_ini'
p857
S'9de350b4e0030a'
p858
L28L
tp859
a(S'free'
p860
S'9de350030a58'
p861
L240L
tp862
a(S'__malloc_arena_thread_freeres'
p863
S'9de3500300'
p864
L336L
tp865
a(S'realloc'
p866
S'9de350ba00c220c010007e0108806eb0000271'
p867
L872L
tp868
a(S'realloc_hook_ini'
p869
S'9de350030a7028007fed5dc010'
p870
L32L
tp871
a(S'memalign'
p872
S'9403086ffd'
p873
L16L
tp874
a(S'valloc'
p875
S'9de350030a0080'
p876
L64L
tp877
a(S'pvalloc'
p878
S'9de350030a00801900000084'
p879
L132L
tp880
a(S'calloc'
p881
S'9de3508400'
p882
L1000L
tp883
a(S'malloc_trim'
p884
S'9de3030a00806a000000b4a01a100100c3e500000000'
p885
L636L
tp886
a(S'malloc_usable_size'
p887
S'9de350020084'
p888
L256L
tp889
a(S'mallinfo'
p890
S'9de32059e0c2f7008038000000c0b877d7c0c0c0ba1001101ae7000092'
p891
L280L
tp892
a(S'malloc_stats'
p893
S'9de31059e0c2f700f668806eb400290a5d23330a00b2'
p894
L504L
tp895
a(S'mallopt'
p896
S'9de350030a00801400'
p897
L436L
tp898
a(S'posix_memalign'
p899
S'9de35089708a'
p900
L92L
tp901
a(S'malloc_info'
p902
S'9de3500a0000c20ca0001105199096901280eb81e09010'
p903
L92L
tp904
a(S'__default_morecore'
p905
S'9de35000b00080'
p906
L28L
tp907
a(S'strchr'
p908
S'928a028386c00a0010857002c0c0a2020020d65a00857086c01a0300d6da'
p909
L848L
tp910
a(S'strrchr'
p911
S'928a02ab880080588770d65a000386c028102886c010857086c01a0300d6da'
p912
L420L
tp913
a(S'strcmp'
p914
g161
L408L
tp915
a(S'strcpy'
p916
S'038c00'
p917
L592L
tp918
a(S'strcspn'
p919
S'9c2301737f10087387738f7397'
p920
L560L
tp921
a(S'strdup'
p922
S'9de350009000b4207ff60200101868008120'
p923
L48L
tp924
a(S'strlen'
p925
S'9210085a00'
p926
L156L
tp927
a(S'strncmp'
p928
S'02808099'
p929
L916L
tp930
a(S'critical_factorization'
p931
g161
L312L
tp932
a(S'two_way_long_needle'
p933
S'9de3c22877f7101bff'
p934
L896L
tp935
a(S'strstr'
p936
S'9de3c22877f71018a000a2008600882010'
p937
L1032L
tp938
a(S'memcmp'
p939
S'02808a'
p940
L312L
tp941
a(S'memmove'
p942
S'840080'
p943
L496L
tp944
a(S'memset'
p945
S'928a'
p946
L572L
tp947
a(S'bzero'
p948
g161
L568L
tp949
a(S'stpcpy'
p950
S'03'
p951
L692L
tp952
a(S'strcasecmp_l'
p953
S'80105aa0000086e0c8'
p954
L76L
tp955
a(S'__memcpy_large'
p956
S'02'
p957
L284L
tp958
a(S'mempcpy'
p959
S'10'
p960
L8L
tp961
a(S'memcpy'
p962
S'880002bf08ff80d300'
p963
L1344L
tp964
a(S'rawmemchr'
p965
S'920a03d60a001085709813092b1010128b30808570d65a00981305961a0c2201da80fc9002083202'
p966
L372L
tp967
a(S'strchrnul'
p968
g161
L572L
tp969
a(S'wmempcpy'
p970
S'952a006ffdb000'
p971
L16L
tp972
a(S'mbsrtowcs'
p973
S'030a108396100100000a10'
p974
L52L
tp975
a(S'_nl_cleanup_ctype'
p976
S'9de350fa5e20020dd2185f'
p977
L68L
tp978
a(S'__wcsmbs_getfct'
p979
S'9de33059e0c2f71000'
p980
L136L
tp981
a(S'__wcsmbs_load_conv'
p982
S'9de3c22877f71022'
p983
L532L
tp984
a(S'__wcsmbs_clone_conv'
p985
S'9de3500300847f030a10'
p986
L176L
tp987
a(S'__wcsmbs_named_conv'
p988
S'9de35094'
p989
L92L
tp990
a(S'__mbsrtowcs_l'
p991
S'9de3'
p992
L924L
tp993
a(S'clock'
p994
S'9de33059e0c2f7100212b0'
p995
L112L
tp996
a(S'time'
p997
S'9de33059e0c2f70015baa2'
p998
L104L
tp999
a(S'gettimeofday'
p1000
S'9de3509010181074d06d1a0410001001c00000cfe00100b000847f9010ff00'
p1001
L88L
tp1002
a(S'__alloc_dir'
p1003
S'9de350021b28390002c02a045ee039008000a700b9'
p1004
L212L
tp1005
a(S'opendir_tail'
p1006
S'9de3b059e0c2f7a7'
p1007
L196L
tp1008
a(S'__opendirat'
p1009
S'9de350c200009010181000929532'
p1010
L80L
tp1011
a(S'opendir'
p1012
S'9de350c200009010181000933210b3e800847f030a10'
p1013
L76L
tp1014
a(S'closedir'
p1015
S'9de3500200901018'
p1016
L68L
tp1017
a(S'readdir64'
p1018
S'9de350ba000000'
p1019
L356L
tp1020
a(S'sleep'
p1021
S'9de33059e0c2f7'
p1022
L128L
tp1023
a(S'nanosleep'
p1024
S'9de350c2180090101810f991d06d1a0410001001c00000cfe001000000000000901018d06d1a0410001001c03a001081009020080a10'
p1025
L204L
tp1026
a(S'fork'
p1027
S'9de350fa01181090100000100000941000100010d96820902008c002900a80b120030a58'
p1028
L488L
tp1029
a(S'_exit'
p1030
S'9de35090101800000084a0bc1a0410001001c0200810016820902008c02008000010bc1a0410001001f87f90101810012102d06d1a0410001001f87f902008210200006f'
p1031
L196L
tp1032
a(S'getpid'
p1033
g161
L16L
tp1034
a(S'getppid'
p1035
g161
L16L
tp1036
a(S'setsid'
p1037
g161
L36L
tp1038
a(S'__sysconf_check_spec'
p1039
S'9de3b059e0c2f700'
p1040
L244L
tp1041
a(S'sysconf'
p1042
S'9de31059e0c2f700101800a6208069308092'
p1043
L984L
tp1044
a(S'sched_yield'
p1045
g161
L36L
tp1046
a(S'__get_child_max'
p1047
S'9de33059e0c2f700'
p1048
L84L
tp1049
a(S'_xstat'
p1050
S'9de3b059e0c2f700901019108b6820902008c0101a039010185fa7f71884200a'
p1051
L228L
tp1052
a(S'_fxstat'
p1053
S'9de3b059e0c2f70090101910'
p1054
L228L
tp1055
a(S'open64'
p1056
S'9de33077'
p1057
L336L
tp1058
a(S'read'
p1059
S'9de350c218009210192091d06d1a0410001001c81008000018030a10'
p1060
L204L
tp1061
a(S'write'
p1062
S'9de350c2180092101920d06d1a0410001001c81008000018030a10'
p1063
L204L
tp1064
a(S'lseek64'
p1065
S'9de3c22877f770941019101ad06d1a0410001001a20a5fa7f71884200a0d81000300902008'
p1066
L160L
tp1067
a(S'fcntl64'
p1068
S'9de3'
p1069
L340L
tp1070
a(S'close'
p1071
S'9de350c21800'
p1072
L196L
tp1073
a(S'chdir'
p1074
g161
L36L
tp1075
a(S'getcwd'
p1076
S'9de37059e0c2f71019c60300007800000004a2'
p1077
L1716L
tp1078
a(S'readlink'
p1079
g161
L36L
tp1080
a(S'unlink'
p1081
g161
L36L
tp1082
a(S'__xstat_conv'
p1083
S'9de3508080000518'
p1084
L244L
tp1085
a(S'__xstat32_conv'
p1086
S'9de350802a5e'
p1087
L208L
tp1088
a(S'__close_nocancel'
p1089
S'9de350901018d06d1a0410001001c00000cfe00100b000847f9010ff00'
p1090
L84L
tp1091
a(S'__fcntl64_nocancel_adjusted'
p1092
S'9de3c22877f70092101920206820902008c000005fa7f71884200a2400000000'
p1093
L244L
tp1094
a(S'__fcntl64_nocancel'
p1095
S'9de3f477'
p1096
L104L
tp1097
a(S'__open_nocancel'
p1098
S'9de3f477'
p1099
L200L
tp1100
a(S'__openat_nocancel'
p1101
S'9de3f697f8779ffa77a7c22877f7'
p1102
L196L
tp1103
a(S'__read_nocancel'
p1104
S'9de350901018101ad06d1a0410001001c010080000000018030a10'
p1105
L92L
tp1106
a(S'__write_nocancel'
p1107
S'9de350901018101ad06d1a0410001001c010080000000018030a10'
p1108
L92L
tp1109
a(S'getrlimit64'
p1110
S'9de35092101810001091d06d1a0410001001c00000cfe00100b000847f9010ff00'
p1111
L96L
tp1112
a(S'sbrk'
p1113
S'9de350390a5f22030a0080150200010004008400'
p1114
L200L
tp1115
a(S'ioctl'
p1116
g161
L36L
tp1117
a(S'getpagesize'
p1118
S'9de350030a'
p1119
L64L
tp1120
a(S'getdtablesize'
p1121
S'9de33059e0c2f7'
p1122
L88L
tp1123
a(S'select'
p1124
S'9de350c21800901018101a101c10e6d06d1a0410001001c00000cfe00100003d8400921019101a101c10e6d06d1a0410001001c03a00'
p1125
L228L
tp1126
a(S'mmap64'
p1127
S'9de350'
p1128
L144L
tp1129
a(S'munmap'
p1130
g161
L36L
tp1131
a(S'mprotect'
p1132
g161
L36L
tp1133
a(S'madvise'
p1134
g161
L36L
tp1135
a(S'trecurse'
p1136
S'9de350c208c8101a5e20021590101810005e20900afec294'
p1137
L184L
tp1138
a(S'tdestroy_recurse'
p1139
S'9de350d008c20100d010c201009fc65e0010da'
p1140
L92L
tp1141
a(S'maybe_split_for_insert.isra.0'
p1142
S'900afe5a20'
p1143
L436L
tp1144
a(S'tsearch'
p1145
S'9de35002a410005e00cf285f'
p1146
L312L
tp1147
a(S'tfind'
p1148
S'9de3502a0d10'
p1149
L80L
tp1150
a(S'tdelete'
p1151
S'9de3c22877f7031b5e00c7b810285800c6802c100800'
p1152
L1476L
tp1153
a(S'twalk'
p1154
S'8420'
p1155
L48L
tp1156
a(S'tdestroy'
p1157
S'0200'
p1158
L28L
tp1159
a(S'next_line'
p1160
S'9de350e0805ec0100a10107a941011c280fa76005ec0a010'
p1161
L376L
tp1162
a(S'sysinfo_mempages'
p1163
S'9de3507ffc6b008000a6'
p1164
L128L
tp1165
a(S'__get_nprocs_conf.part.0'
p1166
S'0300'
p1167
L232L
tp1168
a(S'get_nprocs'
p1169
S'9de32059e0c2f7100010085ea101'
p1170
L796L
tp1171
a(S'get_nprocs_conf'
p1172
S'9de3c22877f700280db6e00200b8ff2c101cc2ba6080fa941003ffdfa220ba'
p1173
L240L
tp1174
a(S'get_phys_pages'
p1175
S'9de3d059e0c2f7'
p1176
L72L
tp1177
a(S'get_avphys_pages'
p1178
S'9de3d059e0c2f7'
p1179
L72L
tp1180
a(S'__getclktck'
p1181
S'030a00808120'
p1182
L24L
tp1183
a(S'__init_misc'
p1184
S'9de35002'
p1185
L68L
tp1186
a(S'mremap'
p1187
g161
L36L
tp1188
a(S'prctl'
p1189
g161
L36L
tp1190
a(S'sysinfo'
p1191
g161
L36L
tp1192
a(S'accept'
p1193
S'9de350c21800901018101ad06d1a0410001001c00000cfe0010000'
p1194
L212L
tp1195
a(S'bind'
p1196
S'9de31059e0c2f777'
p1197
L160L
tp1198
a(S'connect'
p1199
S'9de350c21800901018101ad06d1a0410001001c00000cfe0010000c1008400921019101ad06d1a0410001001c03a0001901002000018030a10'
p1200
L212L
tp1201
a(S'getsockname'
p1202
g161
L36L
tp1203
a(S'getsockopt'
p1204
g161
L36L
tp1205
a(S'listen'
p1206
S'9de33059e0c2f777e777ef92'
p1207
L144L
tp1208
a(S'recv'
p1209
S'9de350c21800901018101a1000107dd06d1a0410001001c81008000018030a10'
p1210
L228L
tp1211
a(S'recvfrom'
p1212
S'9de350c21800901018101a101c101d91d06d1a0410001001c81008000018030a10'
p1213
L228L
tp1214
a(S'send'
p1215
S'9de350c21800901018101a100010856820902008c81008000018030a10'
p1216
L228L
tp1217
a(S'sendto'
p1218
S'9de350c21800901018101a101c101d91d06d1a0410001001c81008000018030a10'
p1219
L228L
tp1220
a(S'setsockopt'
p1221
S'9de32059e0c2f777cf77d7f477df77e777ef92'
p1222
L156L
tp1223
a(S'socket'
p1224
S'9de33059e0c2f777df77e777ef92'
p1225
L148L
tp1226
a(S'__libc_alloca_cutoff'
p1227
g161
L76L
tp1228
a(S'__lll_lock_wait_private'
p1229
S'9de350c200009010181002108e68209020081002008010108000d06d1a04100010017e00ff90101800'
p1230
L148L
tp1231
a(S'__libc_enable_asynccancel'
p1232
S'9de3508600c2081080'
p1233
L136L
tp1234
a(S'__libc_disable_asynccancel'
p1235
S'9de35080'
p1236
L184L
tp1237
a(S'__register_atfork'
p1238
S'9de3503b0a1001e2000000030a08801c00842184a0d877d0'
p1239
L392L
tp1240
a(S'__unregister_atfork'
p1241
S'9de350390a1001e6000000005ea1005ea101'
p1242
L448L
tp1243
a(S'__run_fork_handlers'
p1244
S'9de3500a00051001e20000000000c2c8c8b85f'
p1245
L356L
tp1246
a(S'clock_gettime'
p1247
S'9de35090101810016820902008c02008cfe0010003009010ff0a10'
p1248
L96L
tp1249
a(S'__stack_chk_fail_local'
p1250
S'9de3501305000092120100'
p1251
L24L
tp1252
a(S'__fortify_fail_abort'
p1253
S'9de35039053b05a0ba1019ff03'
p1254
L84L
tp1255
a(S'__fortify_fail'
p1256
S'9de350921018'
p1257
L20L
tp1258
a(S'inet_aton'
p1259
S'9de33059e0c2f700'
p1260
L396L
tp1261
a(S'inet_addr'
p1262
S'9de3c22877f7'
p1263
L88L
tp1264
a(S'_dl_debug_state'
p1265
S'8100'
p1266
L8L
tp1267
a(S'_dl_debug_initialize'
p1268
S'090a11'
p1269
L120L
tp1270
a(S'do_tunable_update_val'
p1271
S'c20800a00000c21010005a2087011000880100'
p1272
L208L
tp1273
a(S'tunable_initialize'
p1274
S'9de3c20800'
p1275
L84L
tp1276
a(S'__tunable_set_val'
p1277
S'9020030a'
p1278
L28L
tp1279
a(S'__tunables_init'
p1280
S'9de35035'
p1281
L1800L
tp1282
a(S'__tunable_get_val'
p1283
S'9de350b020030a'
p1284
L160L
tp1285
a(S'_dl_aux_init'
p1286
S'9de31000'
p1287
L804L
tp1288
a(S'_dl_non_dynamic_init'
p1289
S'9de300'
p1290
L2240L
tp1291
a(S'__libc_init_secure'
p1292
S'9de350030a0080040000000072010000baa220052008000072010000ba1a1d8000200800'
p1293
L120L
tp1294
a(S'_dl_mcount_wrapper'
p1295
S'92100813006800'
p1296
L20L
tp1297
a(S'_dl_mcount_wrapper_check'
p1298
S'030a58'
p1299
L40L
tp1300
a(S'_dl_discover_osversion'
p1301
S'9de38021a2a6fb8c20b020c200a018090100d0a1bf020001e0'
p1302
L308L
tp1303
a(S'__libc_init_first'
p1304
S'9de350030084'
p1305
L188L
tp1306
a(S'__syscall_error'
p1307
S'0300847f030a10'
p1308
L32L
tp1309
a(S'__gconv_open'
p1310
S'9de33059e0c2f7ff'
p1311
L1164L
tp1312
a(S'__gconv'
p1313
S'9de380'
p1314
L472L
tp1315
a(S'__gconv_alias_compare'
p1316
S'd2005a00'
p1317
L20L
tp1318
a(S'derivation_compare'
p1319
S'9de350d000d35e000001005e'
p1320
L52L
tp1321
a(S'__gconv_get_modules_db'
p1322
S'030ac3e0d0'
p1323
L12L
tp1324
a(S'__gconv_get_alias_db'
p1325
S'030ac3e0d0'
p1326
L12L
tp1327
a(S'__gconv_release_step'
p1328
S'9de350d000c2c2c210a020c2305e20a01d90101d9010185e0000530100c081000a040008000000d810e2127f7e9012580100'
p1329
L144L
tp1330
a(S'find_derivation'
p1331
S'9de30059e0c2f77e1b77bf03049410030a00c0ab7e1977ef'
p1332
L2452L
tp1333
a(S'__gconv_compare_alias'
p1334
S'9de33059e0c2f71002'
p1335
L308L
tp1336
a(S'__gconv_find_transform'
p1337
S'9de33059e0c2f710027500110a'
p1338
L684L
tp1339
a(S'__gconv_close_transform'
p1340
S'9de350390a1001e600000100020b'
p1341
L172L
tp1342
a(S'insert_module'
p1343
S'9de350390a'
p1344
L280L
tp1345
a(S'detect_conflict'
p1346
S'9de350030a58'
p1347
L96L
tp1348
a(S'add_module.isra.0'
p1349
S'9de33059e0c2f7'
p1350
L932L
tp1351
a(S'add_alias2.isra.1.part.2'
p1352
S'9de350b480ffa2ba1018207fdb18770000d0080094121d921202000100c200'
p1353
L120L
tp1354
a(S'__gconv_get_path'
p1355
S'9de3c22877f71001e60000210a5c22'
p1356
L876L
tp1357
a(S'__gconv_read_conf'
p1358
S'9de30059e0c2f7100577b71800011dc2c7'
p1359
L1300L
tp1360
a(S'__gconv_get_builtin_trans'
p1361
S'9de3503905d8121003'
p1362
L188L
tp1363
a(S'__gconv_btwoc_ascii'
p1364
S'80ffc3e09132'
p1365
L20L
tp1366
a(S'__gconv_transform_internal_ucs4'
p1367
S'9de32059e0c2f738e8'
p1368
L916L
tp1369
a(S'__gconv_transform_ucs4_internal'
p1370
S'9de31059e0c2f7'
p1371
L1344L
tp1372
a(S'__gconv_transform_internal_ucs4le'
p1373
S'9de31059e0c2f7'
p1374
L1240L
tp1375
a(S'__gconv_transform_ucs4le_internal'
p1376
S'9de3'
p1377
L1460L
tp1378
a(S'__gconv_transform_ascii_internal'
p1379
S'9de32059e0c2f7a8'
p1380
L708L
tp1381
a(S'__gconv_transform_internal_ascii'
p1382
S'9de3e059e0c2f7'
p1383
L2024L
tp1384
a(S'__gconv_transform_internal_utf8'
p1385
S'9de3d059e0c2f7'
p1386
L2936L
tp1387
a(S'__gconv_transform_utf8_internal'
p1388
S'9de31059e0c2f7'
p1389
L3188L
tp1390
a(S'__gconv_transform_ucs2_internal'
p1391
S'9de31059e0c2f7'
p1392
L1720L
tp1393
a(S'__gconv_transform_internal_ucs2'
p1394
S'9de3d059e0c2f7'
p1395
L2576L
tp1396
a(S'__gconv_transform_ucs2reverse_internal'
p1397
S'9de31059e0c2f7'
p1398
L1756L
tp1399
a(S'__gconv_transform_internal_ucs2reverse'
p1400
S'9de3d059e0c2f7'
p1401
L2624L
tp1402
a(S'__gconv_transliterate'
p1403
S'9de3e059e0c2f777bf77cfae101c5ec0101d02045e20c2300a15a7af0300'
p1404
L1184L
tp1405
a(S'find_module_idx'
p1406
S'9de35090101800e0'
p1407
L220L
tp1408
a(S'find_module'
p1409
S'9de3c22877f71018ff19101dba7f921018a87fc10094101cff'
p1410
L244L
tp1411
a(S'__gconv_get_cache'
p1412
S'030ae0d0'
p1413
L12L
tp1414
a(S'__gconv_load_cache'
p1415
S'9de3b059e0c2f7ff901200000a00708000009d901210a220921008ca1003005fa79f805a'
p1416
L512L
tp1417
a(S'__gconv_compare_alias_cache'
p1418
S'9de33059e0c2f758'
p1419
L168L
tp1420
a(S'__gconv_lookup_cache'
p1421
S'9de32059e0c2f75c2002'
p1422
L1144L
tp1423
a(S'__gconv_release_cache'
p1424
S'030a'
p1425
L36L
tp1426
a(S'known_compare'
p1427
S'd2005a00'
p1428
L20L
tp1429
a(S'do_release_shlib'
p1430
S'9de350800300'
p1431
L176L
tp1432
a(S'__gconv_find_shlib'
p1433
S'9de350'
p1434
L420L
tp1435
a(S'__gconv_release_shlib'
p1436
S'030a04d03000d0386fd00100'
p1437
L36L
tp1438
a(S'_nl_postload_ctype'
p1439
S'030a58'
p1440
L140L
tp1441
a(S'__current_locale_name'
p1442
S'030090021030030a10'
p1443
L40L
tp1444
a(S'__ctype_b_loc'
p1445
S'1100'
p1446
L28L
tp1447
a(S'__ctype_toupper_loc'
p1448
S'1100'
p1449
L28L
tp1450
a(S'__ctype_tolower_loc'
p1451
S'1100'
p1452
L28L
tp1453
a(S'__ctype_init'
p1454
S'030a0000180059c00000588018'
p1455
L104L
tp1456
a(S'__setfpucw'
p1457
S'9de3c22877f70c005fa7efb000b000'
p1458
L92L
tp1459
a(S'_quicksort'
p1460
S'9de3c22877f7b0a87fa80080a80077f7201a1018a31c6e1a70b21ac69010190094101c1019101300a0101c101910100010ada0101d901019'
p1461
L1076L
tp1462
a(S'__add_to_environ'
p1463
S'9de3c22877f71018c6'
p1464
L896L
tp1465
a(S'setenv'
p1466
S'9de350020010180080090000ae92103db60010150300847f030a10'
p1467
L88L
tp1468
a(S'unsetenv'
p1469
S'9de35002000000008092103d901018c203007fb190101810081001e600000100030a58'
p1470
L328L
tp1471
a(S'clearenv'
p1472
S'9de3503b0a20b8e700000100'
p1473
L208L
tp1474
a(S'secure_getenv'
p1475
S'030ac2b81205'
p1476
L40L
tp1477
a(S'read_int'
p1478
g161
L152L
tp1479
a(S'group_number'
p1480
S'9de350e0c004ff0000001009b090101c801019101d901018'
p1481
L296L
tp1482
a(S'_i18n_number_rewrite'
p1483
S'9de30059e0c2f7009012'
p1484
L584L
tp1485
a(S'_IO_helper_overflow'
p1486
S'9de3d0285e20baa7'
p1487
L204L
tp1488
a(S'printf_positional'
p1489
S'9de35084bf2877f7'
p1490
L8736L
tp1491
a(S'vfprintf'
p1492
S'9de31059e0c2f700'
p1493
L9196L
tp1494
a(S'buffered_vfprintf'
p1495
S'0300'
p1496
L704L
tp1497
a(S'hack_digit'
p1498
S'9de350c20000da28'
p1499
L356L
tp1500
a(S'_i18n_number_rewrite_0'
p1501
S'9de30059e0c2f7008a100800ad9010b60092101d90102cc7'
p1502
L584L
tp1503
a(S'__guess_grouping.part.0'
p1504
g161
L124L
tp1505
a(S'__printf_fp_l'
p1506
S'9de33059e0c2f7'
p1507
L9676L
tp1508
a(S'__printf_fp'
p1509
S'030096100a00030a10'
p1510
L44L
tp1511
a(S'__guess_grouping'
p1512
S'c200a000'
p1513
L40L
tp1514
a(S'__printf_fphex'
p1515
S'9de31059e0c2f7'
p1516
L6188L
tp1517
a(S'register_printf_modifier'
p1518
S'9de350c200a00010390000000300c204a0'
p1519
L408L
tp1520
a(S'__handle_registered_modifier_mb'
p1521
S'9de350f85e00030a58'
p1522
L288L
tp1523
a(S'__handle_registered_modifier_wc'
p1524
S'9de350f85e00030a58'
p1525
L292L
tp1526
a(S'fprintf'
p1527
S'9de3'
p1528
L104L
tp1529
a(S'read_int_0'
p1530
S'c81b33'
p1531
L208L
tp1532
a(S'group_number_0'
p1533
S'9de350e0c004ff0080cfe0901009101d901018'
p1534
L252L
tp1535
a(S'_i18n_number_rewrite_1'
p1536
S'9de33059e0c2f700c22392100800e510b8101d90102c'
p1537
L360L
tp1538
a(S'_IO_helper_overflow_0'
p1539
S'9de3'
p1540
L260L
tp1541
a(S'printf_positional_0'
p1542
S'9de384bf2877f7'
p1543
L8768L
tp1544
a(S'vfwprintf'
p1545
S'9de32059e0c2f700ba14000000011d901018'
p1546
L9464L
tp1547
a(S'buffered_vfprintf_0'
p1548
S'0300'
p1549
L724L
tp1550
a(S'sscanf'
p1551
S'9de3'
p1552
L104L
tp1553
a(S'funlockfile'
p1554
S'9de350d08802040080c20472087a0000921081201a041000100100'
p1555
L88L
tp1556
a(S'read_int_1'
p1557
g161
L152L
tp1558
a(S'__parse_one_specmb'
p1559
S'9de350c20c10ffa001a0f884a00c'
p1560
L1764L
tp1561
a(S'read_int_2'
p1562
S'c81b33'
p1563
L208L
tp1564
a(S'__parse_one_specwc'
p1565
S'9de350c20c10ffa004a0f884a020a0d0000100051000200900008050830000000000'
p1566
L1768L
tp1567
a(S'_IO_file_doallocate'
p1568
S'9de3b059e0c2f7a0'
p1569
L392L
tp1570
a(S'fputs'
p1571
S'9de3507f72901018'
p1572
L356L
tp1573
a(S'_IO_wfile_doallocate'
p1574
S'9de350c238c00000'
p1575
L112L
tp1576
a(S'fwrite'
p1577
S'9de350b8c71b'
p1578
L464L
tp1579
a(S'getdelim'
p1580
S'9de3508420'
p1581
L700L
tp1582
a(S'_IO_getline_info'
p1583
S'9de3500203'
p1584
L340L
tp1585
a(S'_IO_getline'
p1586
g161
L16L
tp1587
a(S'_IO_padn'
p1588
S'9de33059e0c2f7a6'
p1589
L372L
tp1590
a(S'vsscanf'
p1591
S'9de350c22877f710000090'
p1592
L144L
tp1593
a(S'_IO_wpadn'
p1594
S'9de30059e0c2f7a6'
p1595
L372L
tp1596
a(S'save_for_wbackup.isra.0'
p1597
S'9de350ca005e00e2'
p1598
L444L
tp1599
a(S'_IO_least_wmarker'
p1600
g161
L52L
tp1601
a(S'_IO_switch_to_main_wget_area'
p1602
S'c20022005a20c8ca50'
p1603
L56L
tp1604
a(S'_IO_switch_to_wbackup_area'
p1605
S'c20022005a20ca0858'
p1606
L56L
tp1607
a(S'_IO_wsetb'
p1608
S'9de350'
p1609
L112L
tp1610
a(S'_IO_wdefault_pbackfail'
p1611
S'9de350fa5e20f85f005f'
p1612
L352L
tp1613
a(S'_IO_wdefault_finish'
p1614
S'9de350'
p1615
L120L
tp1616
a(S'_IO_wdefault_uflow'
p1617
S'9de350fa5e2003'
p1618
L112L
tp1619
a(S'__woverflow'
p1620
S'9de350c2c00003'
p1621
L152L
tp1622
a(S'_IO_wdefault_xsputn'
p1623
S'9de350028010005e20fa5c20bac7bba71ba7'
p1624
L212L
tp1625
a(S'_IO_wdoallocbuf'
p1626
S'9de3505e202204'
p1627
L88L
tp1628
a(S'_IO_wdefault_doallocate'
p1629
S'9de3507f1c0008c2'
p1630
L56L
tp1631
a(S'_IO_switch_to_wget_mode'
p1632
S'9de350c2a0800dc23058'
p1633
L148L
tp1634
a(S'_IO_free_wbackup_area'
p1635
S'9de350'
p1636
L100L
tp1637
a(S'__wuflow'
p1638
S'9de350c2c00002921001'
p1639
L388L
tp1640
a(S'__wunderflow'
p1641
S'9de350c2c00002921001'
p1642
L380L
tp1643
a(S'_IO_wdefault_xsgetn'
p1644
S'9de350b85e20fa58a00a0000a71c10a7'
p1645
L204L
tp1646
a(S'_IO_sputbackwc'
p1647
S'9de350c2a080'
p1648
L160L
tp1649
a(S'_IO_sungetwc'
p1650
S'9de350c2a080'
p1651
L152L
tp1652
a(S'_IO_adjust_wcolumn'
p1653
S'87b08603'
p1654
L96L
tp1655
a(S'_IO_init_wmarker'
p1656
S'9de3507608'
p1657
L128L
tp1658
a(S'_IO_wmarker_delta'
p1659
S'c208c010ff00'
p1660
L76L
tp1661
a(S'_IO_seekwmark'
p1662
g161
L184L
tp1663
a(S'_IO_unsave_wmarkers'
p1664
S'c2'
p1665
L44L
tp1666
a(S'do_encoding'
p1667
S'c2'
p1668
L44L
tp1669
a(S'do_always_noconv'
p1670
S'8120'
p1671
L8L
tp1672
a(S'do_max_length'
p1673
S'c281'
p1674
L12L
tp1675
a(S'do_in'
p1676
S'9de32059e0c2f777effa7650c25876705e205fa8c200c05ea00194'
p1677
L232L
tp1678
a(S'do_unshift'
p1679
S'9de33059e0c2f7769076b05e2002045ee0c230ff1d92'
p1680
L216L
tp1681
a(S'do_out'
p1682
S'9de32059e0c2f777effa7690c29876b05e20c200c05ea00193a690101d'
p1683
L232L
tp1684
a(S'do_length'
p1685
S'9de32059e0c2f7'
p1686
L180L
tp1687
a(S'_IO_fwide'
p1688
S'9de32059e0c2f700c2c0002a115e20c2f71884200a560100810080f710ff6fffc2c0'
p1689
L488L
tp1690
a(S'__libc_scratch_buffer_grow_preserve'
p1691
S'9de350fa5e20f600a6c0'
p1692
L180L
tp1693
a(S'__libc_scratch_buffer_set_array_size'
p1694
S'9de350861a208720780100'
p1695
L236L
tp1696
a(S'__libc_dynarray_at_failure'
p1697
S'9de380e0c2f710190090a7'
p1698
L56L
tp1699
a(S'__libc_dynarray_emplace_enlarge'
p1700
S'9de350c208c83080'
p1701
L312L
tp1702
a(S'strerror_r'
p1703
S'9de33059e0c2f70003'
p1704
L408L
tp1705
a(S'strnlen'
p1706
S'02'
p1707
L448L
tp1708
a(S'strtok_r'
p1709
S'9de3502200'
p1710
L112L
tp1711
a(S'memchr'
p1712
S'920a0280'
p1713
L600L
tp1714
a(S'wcslen'
p1715
g161
L160L
tp1716
a(S'wmemcpy'
p1717
S'952a006f720100'
p1718
L16L
tp1719
a(S'wmemmove'
p1720
S'952a006f6b00'
p1721
L16L
tp1722
a(S'wmemset'
p1723
S'8011100a20d2'
p1724
L112L
tp1725
a(S'btowc'
p1726
S'9de3e0'
p1727
L456L
tp1728
a(S'wcrtomb'
p1729
S'9de3e0'
p1730
L540L
tp1731
a(S'wcsrtombs'
p1732
S'9de3'
p1733
L748L
tp1734
a(S'wcsnlen'
p1735
g161
L188L
tp1736
a(S'wcschrnul'
p1737
S'100302001880ff'
p1738
L52L
tp1739
a(S'rewinddir'
p1740
S'9de350ba1001e700000100941000'
p1741
L140L
tp1742
a(S'__getdents64'
p1743
S'9de350901018101ad06d1a0410001001c010080000000018030a10'
p1744
L92L
tp1745
a(S'fdopendir'
p1746
S'9de3b059e0c2f7'
p1747
L244L
tp1748
a(S'uname'
p1749
g161
L36L
tp1750
a(S'getuid'
p1751
g161
L16L
tp1752
a(S'geteuid'
p1753
g161
L16L
tp1754
a(S'getgid'
p1755
g161
L16L
tp1756
a(S'getegid'
p1757
g161
L16L
tp1758
a(S'_lxstat'
p1759
S'9de3b059e0c2f70090101910846820902008c0101a7c9010185fa7f71884200a'
p1760
L228L
tp1761
a(S'__fxstatat64'
p1762
S'9de3b059e0c2f7101a0010216820902008c0100a'
p1763
L160L
tp1764
a(S'isatty'
p1765
S'9de32059e0c2f700'
p1766
L76L
tp1767
a(S'tcgetattr'
p1768
S'9de32059e0c2f710159212'
p1769
L208L
tp1770
a(S'brk'
p1771
S'9de3'
p1772
L92L
tp1773
a(S'wctrans'
p1774
S'9de350b6000300847f030a10'
p1775
L156L
tp1776
a(S'towctrans'
p1777
S'02180002830100'
p1778
L128L
tp1779
a(S'__readonly_area'
p1780
S'9de32059e0c2f70092637f2b12b8b802000020220077d780c0b60096101c100aff9e90'
p1781
L536L
tp1782
a(S'_Qp_cmp'
p1783
S'9de3c22877f75e00bb5e003000'
p1784
L588L
tp1785
a(S'is_dst'
p1786
S'9de3507f'
p1787
L196L
tp1788
a(S'is_trusted_path_normalize'
p1789
S'9de35002b2'
p1790
L488L
tp1791
a(S'add_name_to_object.isra.6'
p1792
S'9de3502a00d2006800020b00005800'
p1793
L212L
tp1794
a(S'lose.isra.8'
p1795
S'9de35080'
p1796
L116L
tp1797
a(S'_dl_map_object_from_fd.constprop.13'
p1798
S'9de3e85fa87f859010007794'
p1799
L3728L
tp1800
a(S'add_path.isra.5.constprop.14'
p1801
S'9de3508015'
p1802
L216L
tp1803
a(S'open_verify.isra.9.constprop.15'
p1804
S'9de330ff1310f8779fa61008002b0a00007f0100c00177f7'
p1805
L1464L
tp1806
a(S'open_path.isra.10'
p1807
S'9de3705ec07797'
p1808
L1488L
tp1809
a(S'_dl_dst_count'
p1810
S'9de350901018ffb0202a00001100000011'
p1811
L156L
tp1812
a(S'_dl_dst_substitute'
p1813
S'9de350'
p1814
L404L
tp1815
a(S'expand_dynamic_string_token'
p1816
S'9de3507fff1019c2ba6f5a8bff9010195e23c2800410005a910100030a58'
p1817
L224L
tp1818
a(S'fillin_rpath'
p1819
S'9de3'
p1820
L700L
tp1821
a(S'cache_rpath.part.12'
p1822
S'9de350b4a01ac010ff5e2058'
p1823
L572L
tp1824
a(S'_dl_init_paths'
p1825
S'9de350030a58'
p1826
L636L
tp1827
a(S'_dl_map_object'
p1828
S'9de3b0c7c280f700a4'
p1829
L2100L
tp1830
a(S'_dl_rtld_di_serinfo'
p1831
S'9de330'
p1832
L512L
tp1833
a(S'check_match'
p1834
S'9de350'
p1835
L460L
tp1836
a(S'do_lookup_x'
p1837
S'9de3e0778fa8e2'
p1838
L2316L
tp1839
a(S'_dl_lookup_symbol_x'
p1840
S'9de3e0'
p1841
L2552L
tp1842
a(S'_dl_setup_hash'
p1843
S'9de350c2b0c05e2058'
p1844
L196L
tp1845
a(S'_dl_add_to_namespace_list'
p1846
S'9de3500300'
p1847
L212L
tp1848
a(S'_dl_new_object'
p1849
S'9de3507f50'
p1850
L664L
tp1851
a(S'_dl_try_allocate_static_tls'
p1852
S'9de350c280285e24030a58'
p1853
L220L
tp1854
a(S'_dl_allocate_static_tls'
p1855
S'9de350c280090012ff9010180000120000e2d208150000'
p1856
L72L
tp1857
a(S'_dl_nothread_init_static_tls'
p1858
S'9de350d0'
p1859
L48L
tp1860
a(S'_dl_protect_relro'
p1861
S'9de350'
p1862
L128L
tp1863
a(S'_dl_reloc_bad_type'
p1864
S'9de320'
p1865
L196L
tp1866
a(S'_dl_relocate_object'
p1867
S'9de3a00300808b'
p1868
L7216L
tp1869
a(S'_dl_important_hwcaps'
p1870
S'9de31010006b20ba5fa7f700e0e3a07e01208702e08302080a7fba00a820e4'
p1871
L1796L
tp1872
a(S'_dl_debug_vdprintf'
p1873
S'9de3'
p1874
L1412L
tp1875
a(S'_dl_sysdep_read_whole_file'
p1876
S'9de3c0107f5b'
p1877
L120L
tp1878
a(S'_dl_debug_printf'
p1879
S'9de396'
p1880
L60L
tp1881
a(S'_dl_debug_printf_c'
p1882
S'9de396'
p1883
L60L
tp1884
a(S'_dl_dprintf'
p1885
S'9de396'
p1886
L52L
tp1887
a(S'_dl_name_match_p'
p1888
S'9de3509010180b5e'
p1889
L104L
tp1890
a(S'_dl_higher_prime_number'
p1891
g161
L168L
tp1892
a(S'_dl_strtoul'
p1893
S'8400c2003888e08009a00032f6180018981001'
p1894
L412L
tp1895
a(S'_dl_start_profile'
p1896
S'9de3d000'
p1897
L1684L
tp1898
a(S'_dl_mcount'
p1899
S'9de31000c2f480e0000000'
p1900
L944L
tp1901
a(S'allocate_dtv'
p1902
S'9de350030a101058'
p1903
L60L
tp1904
a(S'oom'
p1905
S'9de3509010020013fca592127f50ef90107f00'
p1906
L32L
tp1907
a(S'_dl_next_tls_modid'
p1908
S'9de350'
p1909
L264L
tp1910
a(S'_dl_count_modids'
p1911
S'030a0880040081'
p1912
L112L
tp1913
a(S'_dl_get_tls_static_info'
p1914
S'030a58'
p1915
L28L
tp1916
a(S'_dl_allocate_tls_storage'
p1917
S'9de350030a58'
p1918
L116L
tp1919
a(S'_dl_allocate_tls_init'
p1920
S'9de350020000e620'
p1921
L624L
tp1922
a(S'_dl_allocate_tls'
p1923
S'9de350020001007ffe9010186fffe8ff00006fff'
p1924
L44L
tp1925
a(S'_dl_deallocate_tls'
p1926
S'9de350f6085eff020c00b8ff59d0005eff80fbb800'
p1927
L108L
tp1928
a(S'_dl_tls_get_addr_soft'
p1929
S'c2022259e0'
p1930
L148L
tp1931
a(S'_dl_add_to_slotinfo'
p1932
S'9de350f85e24030a68'
p1933
L248L
tp1934
a(S'_dl_get_origin'
p1935
S'9de300b711'
p1936
L428L
tp1937
a(S'_dl_scope_free'
p1938
S'9de350fa0118003b0aff183bf85f'
p1939
L220L
tp1940
a(S'_dl_make_stack_executable'
p1941
S'9de350d000000558'
p1942
L100L
tp1943
a(S'_dl_runtime_resolve_0'
p1944
S'9de3255920a000052900a66c00a32c0a2c05a004100411'
p1945
L96L
tp1946
a(S'_dl_runtime_resolve_1'
p1947
S'9de39330d00822009e92028100'
p1948
L36L
tp1949
a(S'_dl_profile_save_regs'
p1950
S'e0a7ff73'
p1951
L132L
tp1952
a(S'_dl_profile_invoke'
p1953
S'a0049c23031018101a101c101d0200a60300e0e86f'
p1954
L184L
tp1955
a(S'_dl_runtime_profile_0'
p1956
S'9de3b000ff5920a000052900a66c00a32c0a2c05a00410041130aa1008ff960325e0a8'
p1957
L144L
tp1958
a(S'_dl_runtime_profile_1'
p1959
S'9de3b030d008229410'
p1960
L84L
tp1961
a(S'length_mismatch'
p1962
S'9de3509010020014'
p1963
L32L
tp1964
a(S'_dl_exception_create'
p1965
S'9de3502220000b3c901019'
p1966
L144L
tp1967
a(S'_dl_exception_create_format'
p1968
S'9de3f697f8779f027e77a77f3c901019020277f7'
p1969
L572L
tp1970
a(S'_dl_exception_free'
p1971
S'9de3507f33c0c0c08100'
p1972
L32L
tp1973
a(S'_dl_cache_libcmp'
p1974
g161
L332L
tp1975
a(S'_dl_load_cache_lookup'
p1976
S'9de3230a04988086001400f85ea1ff'
p1977
L1644L
tp1978
a(S'_dl_unload_cache'
p1979
S'9de3503b0a'
p1980
L56L
tp1981
a(S'do_dlopen'
p1982
S'9de3'
p1983
L64L
tp1984
a(S'dlerror_run'
p1985
S'9de33059e0c2f7101977ef94'
p1986
L144L
tp1987
a(S'__libc_dlclose'
p1988
S'921008002413006f'
p1989
L24L
tp1990
a(S'__libc_dlsym'
p1991
S'9de32059e0c2f777d777df0000ff9012b0a2a7ef020b1084a3045fa7e7c8588058'
p1992
L144L
tp1993
a(S'__libc_dlvsym'
p1994
S'9de31059e0c2f777bf77'
p1995
L336L
tp1996
a(S'do_dlsym_private'
p1997
S'9de32059e0c2f710c2df02'
p1998
L140L
tp1999
a(S'do_dlsym'
p2000
S'9de3d20073b7761873af981000'
p2001
L60L
tp2002
a(S'do_dlvsym'
p2003
S'9de3d20073b7761873af'
p2004
L56L
tp2005
a(S'do_dlclose'
p2006
g161
L12L
tp2007
a(S'__libc_dlsym_private'
p2008
S'9de32059e0c2f777d777df0000ff901224a2a7ef020b1084a3045fa7e7c8588058'
p2009
L144L
tp2010
a(S'__libc_register_dl_open_hook'
p2011
S'9de3509010180014'
p2012
L76L
tp2013
a(S'__libc_dlopen_mode'
p2014
S'9de32059e0c2f777d7'
p2015
L128L
tp2016
a(S'fatal_error'
p2017
S'9de31059e0c2f758'
p2018
L180L
tp2019
a(S'_dl_signal_exception'
p2020
S'9de3500300847f030a10'
p2021
L104L
tp2022
a(S'_dl_signal_error'
p2023
S'9de3500300'
p2024
L104L
tp2025
a(S'_dl_catch_exception'
p2026
S'9de380e0c2f718030a10'
p2027
L236L
tp2028
a(S'_dl_catch_error'
p2029
S'9de33059e0c2f7101b'
p2030
L116L
tp2031
a(S'siglongjmp'
p2032
S'937a0172d22291d06f'
p2033
L16L
tp2034
a(S'__mpn_cmp'
p2035
S'94021583035a015a009202800968'
p2036
L108L
tp2037
a(S'__mpn_divrem'
p2038
S'9de3301018'
p2039
L2188L
tp2040
a(S'__mpn_lshift'
p2041
S'83035a7f'
p2042
L204L
tp2043
a(S'__mpn_rshift'
p2044
g161
L192L
tp2045
a(S'__mpn_mul'
p2046
S'9de3c22877f7'
p2047
L880L
tp2048
a(S'__mpn_mul_1'
p2049
S'9de39e201a0590100020b083035ac0318b70b8c005b130b2181000'
p2050
L152L
tp2051
a(S'__mpn_impn_mul_n_basecase'
p2052
S'9de350d65e80a2000234'
p2053
L272L
tp2054
a(S'__mpn_impn_mul_n'
p2055
S'9de350'
p2056
L1056L
tp2057
a(S'__mpn_impn_sqr_n_basecase'
p2058
S'9de350d65e00'
p2059
L272L
tp2060
a(S'__mpn_impn_sqr_n'
p2061
S'9de350'
p2062
L948L
tp2063
a(S'__mpn_mul_n'
p2064
S'9de3c22877f7'
p2065
L204L
tp2066
a(S'__mpn_sub_n'
p2067
S'8a008303020129c20dd65a0d9970'
p2068
L76L
tp2069
a(S'__mpn_submul_1'
p2070
S'9de39e201a2b03e096b72002b1'
p2071
L164L
tp2072
a(S'__mpn_extract_double'
p2073
S'9c03875ba883'
p2074
L224L
tp2075
a(S'__mpn_extract_long_double'
p2076
S'9c03875ba883'
p2077
L436L
tp2078
a(S'_itoa_word'
p2079
g161
L244L
tp2080
a(S'_fitoa_word'
p2081
S'9de32059e0c2f71018101a'
p2082
L136L
tp2083
a(S'snprintf'
p2084
S'9de3'
p2085
L1144L
tp2086
a(S'read_int_3'
p2087
g161
L152L
tp2088
a(S'char_buffer_add_slow'
p2089
S'9de350c200c000005e20f85e207f'
p2090
L100L
tp2091
a(S'_IO_vfscanf_internal'
p2092
S'9de3'
p2093
L21884L
tp2094
a(S'vfscanf'
p2095
S'9610006f'
p2096
L16L
tp2097
a(S'_IO_strn_overflow'
p2098
S'9de350b85e20800dc2282896100000'
p2099
L84L
tp2100
a(S'vsnprintf'
p2101
S'9de31059e0c2f777b27fba100010ff0020f6'
p2102
L192L
tp2103
a(S'init'
p2104
S'9de3500300'
p2105
L80L
tp2106
a(S'__dlerror'
p2107
S'9de3c22877f7100259c0130592127f8d12180000c0007f8d000200ba'
p2108
L600L
tp2109
a(S'check_free.isra.0'
p2110
S'9de35002009010180014ff9992128004000000006f10'
p2111
L52L
tp2112
a(S'free_key_mem'
p2113
S'9de3507fffd01810000300'
p2114
L56L
tp2115
a(S'_dlerror_run'
p2116
S'9de3500300'
p2117
L380L
tp2118
a(S'__libc_register_dlfcn_hook'
p2119
S'9de350901018007fdf12020000'
p2120
L44L
tp2121
a(S'__dladdr'
p2122
S'961000c06800'
p2123
L20L
tp2124
a(S'__dladdr1'
p2125
S'800800961000c0680096100a6f'
p2126
L48L
tp2127
a(S'dlinfo_doit'
p2128
S'9de350c21000'
p2129
L220L
tp2130
a(S'__dlinfo'
p2131
S'9de32059e0c2f777df77d7'
p2132
L96L
tp2133
a(S'dlmopen_doit'
p2134
S'9de3c200c02000'
p2135
L124L
tp2136
a(S'__dlmopen'
p2137
S'9de32059e0c2f777cf77d7f4'
p2138
L128L
tp2139
a(S'strerror'
p2140
S'9de350901018adb01000c23b0a'
p2141
L100L
tp2142
a(S'strspn'
p2143
S'9c2301737f10087387738f7397'
p2144
L560L
tp2145
a(S'strsep'
p2146
S'9de350fa5e00020bff1d80'
p2147
L72L
tp2148
a(S'mbrlen'
p2149
g161
L36L
tp2150
a(S'mbrtowc'
p2151
S'9de3'
p2152
L536L
tp2153
a(S'profil_counter'
p2154
S'c20810ff58a20200c883'
p2155
L116L
tp2156
a(S'profil'
p2157
S'9de390c22877f7c6c228c010000000d8a220390a207fd392'
p2158
L392L
tp2159
a(S'__profile_frequency'
p2160
S'030ac3e0d0'
p2161
L12L
tp2162
a(S'_dl_fixup'
p2163
S'9de3305e20c27058a0045ee0852001830377f75e04101858a015b80880a10280100058a0e028028028f8980302030810001002011800d00073afc09001085f'
p2164
L980L
tp2165
a(S'_dl_profile_fixup'
p2166
S'9de3305e23'
p2167
L588L
tp2168
a(S'_dl_call_pltexit'
p2169
S'8100'
p2170
L8L
tp2171
a(S'add_to_global'
p2172
S'9de350e02280ba5e2286ffe0090087'
p2173
L560L
tp2174
a(S'_dl_find_dso_for_object'
p2175
S'9de350030a'
p2176
L184L
tp2177
a(S'_dl_open'
p2178
S'9de38068'
p2179
L452L
tp2180
a(S'_dl_show_scope'
p2181
S'9de350d2080000'
p2182
L344L
tp2183
a(S'dl_open_worker'
p2184
S'9de3305e00921024'
p2185
L1800L
tp2186
a(S'remove_slotinfo'
p2187
S'9de350'
p2188
L308L
tp2189
a(S'_dl_close_worker'
p2190
S'9de3b0'
p2191
L3764L
tp2192
a(S'_dl_close'
p2193
S'9de3500300'
p2194
L160L
tp2195
a(S'_dl_sort_maps'
p2196
S'9de32077870077d7847f94'
p2197
L604L
tp2198
a(S'_dl_addr'
p2199
S'9de3500300'
p2200
L932L
tp2201
a(S'_dl_addr_inside_object'
p2202
g161
L104L
tp2203
a(S'__strtof_internal'
p2204
S'0300847f030a10'
p2205
L36L
tp2206
a(S'strtof32'
p2207
S'03009410000a10'
p2208
L40L
tp2209
a(S'__strtod_internal'
p2210
S'0300847f030a10'
p2211
L36L
tp2212
a(S'strtof64'
p2213
S'03009410000a10'
p2214
L40L
tp2215
a(S'__strtold_internal'
p2216
S'0300847f030a10'
p2217
L36L
tp2218
a(S'strtold'
p2219
S'03009410000a10'
p2220
L40L
tp2221
a(S'round_and_return'
p2222
S'9de3c22877f730005fa7ef'
p2223
L884L
tp2224
a(S'str_to_mpn.isra.0'
p2225
S'9de350c023b1037aa22c20208620a200a820c200a002'
p2226
L860L
tp2227
a(S'____strtof_l_internal'
p2228
S'9de3c22877f71000c658'
p2229
L9608L
tp2230
a(S'strtof_l'
p2231
S'96100ac06ff6'
p2232
L20L
tp2233
a(S'round_and_return_0'
p2234
S'9de3c22877f730005fa7ef'
p2235
L904L
tp2236
a(S'str_to_mpn.isra.0_0'
p2237
S'9de350c023b1037aa22c20208620a200a820c200a002'
p2238
L860L
tp2239
a(S'____strtod_l_internal'
p2240
S'9de33059e0c2f71000c658'
p2241
L9616L
tp2242
a(S'strtof64_l'
p2243
S'96100ac06ff6'
p2244
L20L
tp2245
a(S'round_and_return_1'
p2246
S'9de33059e0c2f730005fa7df1000a000083b20006802200000967c800510ffa60200a30c01c7'
p2247
L1384L
tp2248
a(S'str_to_mpn.isra.0_1'
p2249
S'9de350c023b1037aa22c20208620a200a820c200a002'
p2250
L860L
tp2251
a(S'____strtold_l_internal'
p2252
S'0300'
p2253
L12512L
tp2254
a(S'strtold_l'
p2255
S'96100ac06f'
p2256
L20L
tp2257
a(S'__strtof_nan'
p2258
S'9de33059e0c2f740847f84bf19008701100090c0ffba28831800a0'
p2259
L256L
tp2260
a(S'__strtod_nan'
p2261
S'9de33059e0c2f740847f84bf19008701100090c0ffba28831800a0'
p2262
L276L
tp2263
a(S'__strtold_nan'
p2264
S'9de33059e0c2f740847f84bf19008701100090c0ffba28831800a0'
p2265
L292L
tp2266
a(S'__mpn_add_n'
p2267
S'8a008303020129c20dd65a0d9970'
p2268
L76L
tp2269
a(S'__mpn_addmul_1'
p2270
S'9de39e201a2b03e096b72002b1'
p2271
L164L
tp2272
a(S'__mpn_construct_float'
p2273
S'9c037f2aff5a00932a03e0941201a8c18b'
p2274
L56L
tp2275
a(S'__mpn_construct_double'
p2276
S'9c030030952aff2a832c12208073871b'
p2277
L68L
tp2278
a(S'__mpn_construct_long_double'
p2279
g161
L116L
tp2280
a(S'dlopen_doit'
p2281
S'9de3d22003'
p2282
L152L
tp2283
a(S'__dlopen'
p2284
S'9de32059e0c2f777d7'
p2285
L124L
tp2286
a(S'dlclose_doit'
p2287
g161
L12L
tp2288
a(S'__dlclose'
p2289
S'9de350921018001d80'
p2290
L32L
tp2291
a(S'dlsym_doit'
p2292
S'9de350'
p2293
L32L
tp2294
a(S'__dlsym'
p2295
S'9de32059e0c2f777d70300'
p2296
L156L
tp2297
a(S'dlvsym_doit'
p2298
S'9de350d65e20'
p2299
L36L
tp2300
a(S'__dlvsym'
p2301
S'9de32059e0c2f777d7f6e70000c077df007f589690128005d05fa7ef80000000c00000007f58875fa7f71884200a0400000000'
p2302
L160L
tp2303
a(S'strncasecmp_l'
p2304
S'84008620'
p2305
L108L
tp2306
a(S'setitimer'
p2307
g161
L36L
tp2308
a(S'_Qp_add'
p2309
S'9de3c22877f710ff5e005e8033103197318a1dde085ea0'
p2310
L4096L
tp2311
a(S'_Qp_mul'
p2312
S'9de33059e0c2f710'
p2313
L3080L
tp2314
a(S'_dl_build_local_scope'
p2315
S'9de3507600'
p2316
L132L
tp2317
a(S'openaux'
p2318
S'9de350d0003000022c5e20800410015a2395323020ff08762000'
p2319
L68L
tp2320
a(S'_dl_map_object_deps'
p2321
S'9de3b0'
p2322
L3612L
tp2323
a(S'call_init.part.0'
p2324
S'9de350c22c0400235e20'
p2325
L316L
tp2326
a(S'_dl_init'
p2327
S'9de350e02100d030c2f85e2110007c0188185f20fa'
p2328
L352L
tp2329
a(S'_dl_check_map_versions'
p2330
S'9de3e07787778f5e20c0000058'
p2331
L1760L
tp2332
a(S'_dl_check_all_versions'
p2333
S'9de3500200b80000'
p2334
L92L
tp2335
a(S'call_dl_lookup'
p2336
S'9de3c2185e00'
p2337
L56L
tp2338
a(S'do_sym'
p2339
S'9de3e059e0c2f7ff2d030a'
p2340
L592L
tp2341
a(S'_dl_vsym'
p2342
S'9de33059e0c2f777'
p2343
L276L
tp2344
a(S'_dl_sym'
p2345
S'98100213006fff00'
p2346
L20L
tp2347
a(S'__clzdi2'
p2348
S'9de350'
p2349
L116L
tp2350
a(S'__bswapsi2'
p2351
S'8720831810'
p2352
L56L
tp2353
a(S'read_encoded_value_with_base'
p2354
S'9de3508088cbae0500807c28051002c0'
p2355
L540L
tp2356
a(S'base_of_encoded_value'
p2357
S'9de35080'
p2358
L136L
tp2359
a(S'execute_cfa_program'
p2360
S'9de330007f23a6001a347680e6'
p2361
L2344L
tp2362
a(S'init_dwarf_reg_size_table'
p2363
S'9de3508420'
p2364
L456L
tp2365
a(S'uw_frame_state_for'
p2366
S'9de3901019'
p2367
L1452L
tp2368
a(S'execute_stack_op'
p2369
S'9de3'
p2370
L2628L
tp2371
a(S'uw_update_context_1'
p2372
S'9de350b4a49423921018d7e9'
p2373
L1116L
tp2374
a(S'uw_init_context_1'
p2375
S'9de3'
p2376
L708L
tp2377
a(S'uw_update_context'
p2378
S'9de350921019'
p2379
L184L
tp2380
a(S'_Unwind_RaiseException_Phase2'
p2381
S'9de370'
p2382
L244L
tp2383
a(S'_Unwind_ForcedUnwind_Phase2'
p2384
S'9de3705e20e220b620101c'
p2385
L244L
tp2386
a(S'uw_install_context_1'
p2387
S'9de3'
p2388
L492L
tp2389
a(S'_Unwind_GetGR'
p2390
S'9de350807efeae05000518035e230d70'
p2391
L128L
tp2392
a(S'_Unwind_GetCFA'
p2393
S'81'
p2394
L8L
tp2395
a(S'_Unwind_SetGR'
p2396
S'9de350807efeae05000518700570'
p2397
L132L
tp2398
a(S'_Unwind_GetIP'
p2399
S'81'
p2400
L8L
tp2401
a(S'_Unwind_GetIPInfo'
p2402
S'c2705a233081'
p2403
L20L
tp2404
a(S'_Unwind_SetIP'
p2405
S'81'
p2406
L8L
tp2407
a(S'_Unwind_GetLanguageSpecificData'
p2408
S'81'
p2409
L8L
tp2410
a(S'_Unwind_GetRegionStart'
p2411
S'81'
p2412
L8L
tp2413
a(S'_Unwind_FindEnclosingFunction'
p2414
S'9de330000dc2f77a0100'
p2415
L36L
tp2416
a(S'_Unwind_GetDataRelBase'
p2417
S'81'
p2418
L8L
tp2419
a(S'_Unwind_GetTextRelBase'
p2420
S'81'
p2421
L8L
tp2422
a(S'__frame_state_for'
p2423
S'9de38023921000cd901001a0ba779f92101db020802b0000'
p2424
L244L
tp2425
a(S'_Unwind_DebugHook'
p2426
S'8100'
p2427
L8L
tp2428
a(S'_Unwind_RaiseException'
p2429
S'9de39081'
p2430
L316L
tp2431
a(S'_Unwind_ForcedUnwind'
p2432
S'9de3'
p2433
L148L
tp2434
a(S'_Unwind_Resume'
p2435
S'9de3'
p2436
L168L
tp2437
a(S'_Unwind_Resume_or_Rethrow'
p2438
S'9de3'
p2439
L172L
tp2440
a(S'_Unwind_DeleteException'
p2441
S'9de350c208c00000c0100100'
p2442
L36L
tp2443
a(S'_Unwind_Backtrace'
p2444
S'9de380bd'
p2445
L144L
tp2446
a(S'frame_downheap'
p2447
S'9de350a0a40000a20000100a5e80c6'
p2448
L224L
tp2449
a(S'frame_heapsort'
p2450
S'9de350fa5ea00100'
p2451
L168L
tp2452
a(S'size_of_encoded_value'
p2453
S'9de35080158010000000800aa0207f3d00'
p2454
L100L
tp2455
a(S'read_encoded_value_with_base_0'
p2456
S'9de350807cfeae0500807c28051002c0'
p2457
L540L
tp2458
a(S'get_cie_encoding'
p2459
S'9de3bafe'
p2460
L328L
tp2461
a(S'fde_unencoded_compare'
p2462
S'9de392'
p2463
L76L
tp2464
a(S'base_from_object.isra.3'
p2465
S'9de3508019a00008'
p2466
L116L
tp2467
a(S'fde_single_encoding_compare'
p2468
S'9de3fa5e2094'
p2469
L124L
tp2470
a(S'linear_search_fdes'
p2471
S'9de3d0203235ba1011'
p2472
L368L
tp2473
a(S'fde_mixed_encoding_compare'
p2474
S'9de3c204'
p2475
L164L
tp2476
a(S'classify_object_over_fdes'
p2477
S'9de330'
p2478
L372L
tp2479
a(S'add_fdes'
p2480
S'9de3d02030ba1013'
p2481
L360L
tp2482
a(S'_Unwind_IteratePhdrCallback'
p2483
S'9de310'
p2484
L1240L
tp2485
a(S'search_object'
p2486
S'9de330'
p2487
L1776L
tp2488
a(S'__register_frame_info_bases.part.7'
p2489
S'9de350f4760876107600761828'
p2490
L176L
tp2491
a(S'__register_frame_info_bases'
p2492
S'02000100c20000'
p2493
L44L
tp2494
a(S'__register_frame_info'
p2495
S'02000100c20000961000c06fff01008100'
p2496
L48L
tp2497
a(S'__register_frame'
p2498
S'9de350c2000010300000b800ff'
p2499
L48L
tp2500
a(S'__register_frame_info_table_bases'
p2501
S'9de350f4760876107600761828'
p2502
L176L
tp2503
a(S'__register_frame_info_table'
p2504
S'961000c06fff0100'
p2505
L20L
tp2506
a(S'__register_frame_table'
p2507
S'9de350901030b800ff93'
p2508
L28L
tp2509
a(S'__deregister_frame_info_bases'
p2510
S'9de350'
p2511
L360L
tp2512
a(S'__deregister_frame_info'
p2513
g161
L12L
tp2514
a(S'__deregister_frame'
p2515
S'9de350c2000000000000ff6eb9'
p2516
L44L
tp2517
a(S'_Unwind_Find_FDE'
p2518
S'9de32000ae0500'
p2519
L568L
tp2520
a(S'base_of_encoded_value_0'
p2521
S'9de3508014'
p2522
L124L
tp2523
a(S'read_encoded_value_with_base_1'
p2524
S'9de3508075'
p2525
L540L
tp2526
a(S'__gcc_personality_v0'
p2527
S'9de300'
p2528
L616L
tp2529
a(S'dl_iterate_phdr'
p2530
S'9de30059e0c2f71002'
p2531
L304L
tp2532
a(S'__do_global_ctors_aux'
p2533
S'9de350030a3b00ba'
p2534
L76L
tp2535
a(S'call___do_global_ctors_aux'
p2536
S'9de3508100'
p2537
L12L
tp2538
a(S'_fini'
p2539
S'9de3507f388100'
p2540
L20L
tp2541
a.