(lp0
(S'.init_proc'
p1
S'0ddfe200eb2d1b'
p2
L24L
tp3
a(S'ioctl'
p4
S'00'
p5
L12L
tp6
a(S'recv'
p7
S'00'
p8
L12L
tp9
a(S'connect'
p10
S'00'
p11
L12L
tp12
a(S'sigemptyset'
p13
S'00'
p14
L12L
tp15
a(S'memmove'
p16
S'00'
p17
L12L
tp18
a(S'getpid'
p19
S'00'
p20
L12L
tp21
a(S'prctl'
p22
S'00'
p23
L12L
tp24
a(S'memcpy'
p25
S'00'
p26
L12L
tp27
a(S'readlink'
p28
S'00'
p29
L12L
tp30
a(S'malloc'
p31
S'00'
p32
L12L
tp33
a(S'sleep'
p34
S'00'
p35
L12L
tp36
a(S'recvfrom'
p37
S'00'
p38
L12L
tp39
a(S'socket'
p40
S'00'
p41
L12L
tp42
a(S'select'
p43
S'00'
p44
L12L
tp45
a(S'readdir'
p46
S'00'
p47
L12L
tp48
a(S'sigaddset'
p49
S'00'
p50
L12L
tp51
a(S'send'
p52
S'00'
p53
L12L
tp54
a(S'abort'
p55
S'00'
p56
L12L
tp57
a(S'accept'
p58
S'00'
p59
L12L
tp60
a(S'calloc'
p61
S'00'
p62
L12L
tp63
a(S'write'
p64
S'00'
p65
L12L
tp66
a(S'kill'
p67
S'00'
p68
L12L
tp69
a(S'bind'
p70
S'00'
p71
L12L
tp72
a(S'inet_addr'
p73
S'00'
p74
L12L
tp75
a(S'chdir'
p76
S'00'
p77
L12L
tp78
a(S'setsockopt'
p79
S'00'
p80
L12L
tp81
a(S'signal'
p82
S'00'
p83
L12L
tp84
a(S'read'
p85
S'00'
p86
L12L
tp87
a(S'unlink'
p88
S'00'
p89
L12L
tp90
a(S'sendto'
p91
S'00'
p92
L12L
tp93
a(S'realloc'
p94
S'00'
p95
L12L
tp96
a(S'listen'
p97
S'00'
p98
L12L
tp99
a(S'fork'
p100
S'00'
p101
L12L
tp102
a(S'__uClibc_main'
p103
S'00'
p104
L12L
tp105
a(S'memset'
p106
S'00'
p107
L12L
tp108
a(S'getppid'
p109
S'00'
p110
L12L
tp111
a(S'time'
p112
S'00'
p113
L12L
tp114
a(S'opendir'
p115
S'00'
p116
L12L
tp117
a(S'getsockopt'
p118
S'00'
p119
L12L
tp120
a(S'__errno_location'
p121
S'00'
p122
L12L
tp123
a(S'exit'
p124
S'00'
p125
L12L
tp126
a(S'atoi'
p127
S'00'
p128
L12L
tp129
a(S'open'
p130
S'00'
p131
L12L
tp132
a(S'clock'
p133
S'00'
p134
L12L
tp135
a(S'setsid'
p136
S'00'
p137
L12L
tp138
a(S'closedir'
p139
S'00'
p140
L12L
tp141
a(S'fcntl'
p142
S'00'
p143
L12L
tp144
a(S'close'
p145
S'00'
p146
L12L
tp147
a(S'raise'
p148
S'00'
p149
L12L
tp150
a(S'free'
p151
S'00'
p152
L12L
tp153
a(S'sigprocmask'
p154
S'00'
p155
L12L
tp156
a(S'getsockname'
p157
S'00'
p158
L12L
tp159
a(S'__do_global_dtors_aux'
p160
S'30e900d50053e3800094e520e3000a833002a0e520e3'
p161
L104L
tp162
a(S'call___do_global_dtors_aux'
p163
S'042d'
p164
L8L
tp165
a(S'frame_dummy'
p166
S'3c9fe500042de51011'
p167
L68L
tp168
a(S'call_frame_dummy'
p169
S'042d'
p170
L8L
tp171
a(S'_start'
p172
S'00a0e420e500e5c00c9fe5'
p173
L44L
tp174
a(S'attack_app_http'
p175
S''
p176
L7608L
tp177
a(S'attack_get_opt_str'
p178
S'ff000050e3402de240a0dad10253e1c00400090004dc0253e1c0e0e2000ca01aa0e804a0'
p179
L100L
tp180
a(S'attack_start'
p181
g176
L232L
tp182
a(S'attack_parse'
p183
g176
L596L
tp184
a(S'attack_kill_all'
p185
S'30e90094e5001f001a94e550a0e3508421000894e500048423000c94e50008e5001a000c8427001a94e50010e5001a0014842b001c94e50018e5001a8430e809a0eb000050e35084'
p186
L332L
tp187
a(S'attack_get_opt_ip'
p188
S'ff000050e3402de100dad1ff020253e1c00400090004dc0352e1c0e0e2000ca01aa0e80050e3'
p189
L108L
tp190
a(S'attack_get_opt_int'
p191
S'ff000050e3402de100dad1ff020253e1c00400090004dc0352e1c0e0e2000ca01aa0e80050e3'
p192
L112L
tp193
a(S'attack_init'
p194
g176
L776L
tp195
a(S'attack_gre_eth'
p196
g176
L1912L
tp197
a(S'attack_gre_ip'
p198
g176
L1816L
tp199
a(S'attack_tcp_stomp'
p200
g176
L2168L
tp201
a(S'attack_tcp_ack'
p202
g176
L1904L
tp203
a(S'attack_tcp_syn'
p204
g176
L1856L
tp205
a(S'attack_udp_plain'
p206
g176
L744L
tp207
a(S'attack_udp_generic'
p208
g176
L1672L
tp209
a(S'attack_udp_vse'
p210
g176
L1216L
tp211
a(S'attack_udp_dns'
p212
g176
L1960L
tp213
a(S'checksum_generic'
p214
S'0151e3c000a0e520e51002e100038c0280'
p215
L92L
tp216
a(S'checksum_tcpudp'
p217
S'02a0e3402de1688000080000a0e520e5c08300e0e010ca5ce3300504a0e128e528e030e118e030e0280a38e100e1'
p218
L176L
tp219
a(S'killer_kill'
p220
S'089fe500e3e6'
p221
L16L
tp222
a(S'killer_kill_by_port'
p223
g176
L1380L
tp224
a(S'killer_init'
p225
g176
L1932L
tp226
a(S'anti_gdb_entry'
p227
S'089fe530e5'
p228
L16L
tp229
a(S'ensure_single_instance'
p230
g176
L356L
tp231
a(S'resolve_cnc_addr'
p232
S'702de30beb10e30beb03eb50a0e30beb0058609fe5809402eb10e50f0094e700e503eb00eb10e30beb20e530e534e114e100e530e540bd'
p233
L140L
tp234
a(S'main'
p235
g176
L2500L
tp236
a(S'rand_next'
p237
S'702de5609fe530e5e0e5409fe53522009ee5c004e010e52070'
p238
L72L
tp239
a(S'rand_init'
p240
S'30e942e0eb30e5'
p241
L76L
tp242
a(S'rand_alphastr'
p243
g176
L276L
tp244
a(S'rand_str'
p245
g176
L212L
tp246
a(S'resolv_entries_free'
p247
S'10e91094e500cc'
p248
L36L
tp249
a(S'resolv_lookup'
p250
g176
L1356L
tp251
a(S'scanner_kill'
p252
S'089fe500e3de'
p253
L16L
tp254
a(S'setup_connection'
p255
S'702de100e260a0e360'
p256
L208L
tp257
a(S'add_auth_entry'
p258
g176
L408L
tp259
a(S'scanner_init'
p260
g176
L6508L
tp261
a(S'table_retrieve_val'
p262
S'209fe501e000053015021130'
p263
L40L
tp264
a(S'table_lock_val'
p265
S'80e1402de330e10ae030e220e530e504e134e138e2500322ff02'
p266
L176L
tp267
a(S'table_unlock_val'
p268
S'80e1402de330e10ae030e220e530e504e134e138e2500322ff02'
p269
L176L
tp270
a(S'table_init'
p271
g176
L1956L
tp272
a(S'util_strlen'
p273
S'00a0e5000e'
p274
L40L
tp275
a(S'util_strcpy'
p276
S'00d10053e3000ac001dc0053e3'
p277
L84L
tp278
a(S'util_memcpy'
p279
S'0052e3'
p280
L36L
tp281
a(S'util_zero'
p282
S'0051e3'
p283
L36L
tp284
a(S'util_memsearch'
p285
S'0153e1402de150a0e100da00e380fb'
p286
L104L
tp287
a(S'util_atoi'
p288
g176
L300L
tp289
a(S'util_fdgets'
p290
g176
L96L
tp291
a(S'util_local_addr'
p292
g176
L156L
tp293
a(S'util_stristr'
p294
g176
L140L
tp295
a(S'util_strcmp'
p296
S'00d00053e3c000a0e230e700fb'
p297
L132L
tp298
a(S'util_strncmp'
p299
S'042de50002a0010000a0e230e700fb'
p300
L144L
tp301
a(S'util_itoa'
p302
g176
L280L
tp303
a(S'__udivsi3'
p304
S'0151e2'
p305
L248L
tp306
a(S'__aeabi_uidivmod'
p307
S'03e90640bde0100e'
p308
L24L
tp309
a(S'__umodsi3'
p310
S'0151e2003a0000a081'
p311
L204L
tp312
a(S'__modsi3'
p313
S'0051e3000a1000b00060420151e20000a081009a51e30001a032'
p314
L228L
tp315
a(S'__do_global_ctors_aux'
p316
S'289fe520e50010e910a0e120fa'
p317
L48L
tp318
a(S'call___do_global_ctors_aux'
p319
S'042d'
p320
L8L
tp321
a(S'.term_proc'
p322
S'0ddfe2d2ebaf1b'
p323
L20L
tp324
a.