(lp0
(S'_init'
p1
S'9421e008a690012400c94800242120a64e80'
p2
L36L
tp3
a(S'__do_global_dtors_aux'
p4
S'9421'
p5
L148L
tp6
a(S'call___do_global_dtors_aux'
p7
S'7c0290011401142110a64e80'
p8
L28L
tp9
a(S'frame_dummy'
p10
S'3d08a639009421'
p11
L108L
tp12
a(S'call_frame_dummy'
p13
S'7c0290011401142110a64e80'
p14
L28L
tp15
a(S'_start'
p16
S'7c0b213dad416038009421'
p17
L72L
tp18
a(S'attack_app_http'
p19
S'9421a6bdbd33a01b9623a333c0900148002538b438e37c1ba3197fe338007c1ba3183c107c1b'
p20
L6484L
tp21
a(S'attack_get_opt_str'
p22
S'3801a648001c040484082840be0048000c897800e4c33380'
p23
L52L
tp24
a(S'attack_get_opt_ip'
p25
S'9421'
p26
L68L
tp27
a(S'attack_get_opt_int'
p28
S'9421'
p29
L72L
tp30
a(S'attack_start'
p31
S'7c02bf7f7801249e23bd33fb3b1a48002f83419e00bd6dcd83419e008341be10898449c1690000e378002180480038008581eb7fe37fdb29a67fd380'
p32
L224L
tp33
a(S'attack_parse'
p34
S'2ba69421c02301447c1b9d012f840483419e01a3012f9900419e0104fa7f'
p35
L504L
tp36
a(S'attack_kill_all'
p37
S'7c023de10ce9007f00802f8341be6b00001f0039c2ff049f4800ff48008014e10c2110a64e80'
p38
L96L
tp39
a(S'add_attack'
p40
S'9421d0a6bf807c1b992360003800008802787b883a84043d7d89840901107f19981c8421142130a64e80'
p41
L120L
tp42
a(S'attack_init'
p43
S'7c023c1038008430'
p44
L192L
tp45
a(S'attack_gre_eth'
p46
S'9421a0bd99238090017c2bdd786f1b007c1ba4eb38007fe34b'
p47
L1168L
tp48
a(S'attack_gre_ip'
p49
S'9421a0bd9a90017c2bdd786f1b007c1ba4eb38007fe34bff7dc060'
p50
L1064L
tp51
a(S'attack_tcp_stomp'
p52
S'94217008a6bd9723809001947c2bdc787878007c1b807fc378007fe338007c1ba3453800546360'
p53
L1396L
tp54
a(S'attack_tcp_ack'
p55
S'942180bd9a90018478dd78610048007978a4eb38007fe34b'
p56
L1196L
tp57
a(S'attack_tcp_syn'
p58
S'942180bd9b238090018478dd786100007c1ba4eb38007fe34b'
p59
L1196L
tp60
a(S'attack_udp_plain'
p61
S'9421b008a6be9f23809001547c2bdd787978007c1b807fcb780038007feb60'
p62
L496L
tp63
a(S'attack_udp_generic'
p64
S'9421a0be9a7c2bdd78017c1b007c1ba4eb38007fe34bff99380060'
p65
L864L
tp66
a(S'attack_udp_vse'
p67
S'9421b008a6be9a9001547c2bdd787378007c1ba4eb38007fe34b'
p68
L804L
tp69
a(S'attack_udp_dns'
p70
S'942180bd8e788090018478bc1b007c1ba4eb38007fe34b'
p71
L1392L
tp72
a(S'checksum_generic'
p73
S'54897e290103480014030084'
p74
L88L
tp75
a(S'checksum_tcpudp'
p76
S'2f86007e290129a6390081000001a64800108402028601'
p77
L156L
tp78
a(S'mem_exists'
p79
S'7f203800a640bd007d58ae39010b0048000060004800100060004e803801ff380000'
p80
L84L
tp81
a(S'killer_kill'
p82
S'7c023d8090011469a938007c03'
p83
L44L
tp84
a(S'killer_kill_by_port'
p85
S'9421a03810bf7c78610290014800381038294ae580380048003b003800480038eb7fe34800c97feb48001540be0039009921180119011b000060004800074800093501634c'
p86
L1276L
tp87
a(S'killer_init'
p88
S'7c0238000104007c1b000069c8ff050260003817b00061004b'
p89
L1544L
tp90
a(S'anti_gdb_entry'
p91
S'3d6010395c782b68'
p92
L20L
tp93
a(S'teardown_connection'
p94
S'7c0293e10ce0027f2f83419e0048003d3801008014e10c2110a64e80'
p95
L72L
tp96
a(S'ensure_single_instance'
p97
S'7c02380038020144380090010844'
p98
L364L
tp99
a(S'main'
p100
S'7c02bf7878013b23004800a14800a300480038eb380038381144211038053c1038e4804c'
p101
L2068L
tp102
a(S'resolve_cnc_addr'
p103
S'7c023803012400218038032000d57f7860004800019f00419e009f00006d890078a05b963bfb78007d485055293a901d024800bd3820a060001d20bb2120a64e80'
p104
L172L
tp105
a(S'rand_next'
p106
S'3c103c108102e0026cfe6058284a786378083078637c4a7806c248c2c2c280'
p107
L80L
tp108
a(S'rand_str'
p109
S'9421'
p110
L128L
tp111
a(S'rand_alphastr'
p112
S'9421c038007c23807c1b84080051480068409d00'
p113
L176L
tp114
a(S'rand_init'
p115
S'7c02380080900124002169d57d780093bc321c30817809380124212008a64e80'
p116
L104L
tp117
a(S'resolv_skip_name'
p118
S'38003900003800890039014a1429'
p119
L116L
tp120
a(S'resolv_entries_free'
p121
S'9421'
p122
L68L
tp123
a(S'resolv_domain_to_hostname'
p124
S'9421e008a6bf7d78839001249f2300396301eb2f833801bd007c0338007c0388002f802f0000002801000a00eb3900480010283901ff015b787d01ff3800981d00a1007c03'
p125
L172L
tp126
a(S'resolv_lookup'
p127
S'942130a6381060009001d441007f78a4eb7fd3a1ff7fd3006d38007f1aa3004800e948004d3b'
p128
L856L
tp129
a(S'consume_any_prompt'
p130
S'9421'
p131
L136L
tp132
a(S'can_consume'
p133
S'8018631ca42a6314631010d000'
p134
L32L
tp135
a(S'scanner_kill'
p136
S'7c023d8090011469a580142110a64e80'
p137
L44L
tp138
a(S'deobf'
p139
S'7c02bf9d2301247c78000063013500e37c1ba500480000600039ef2f890029010338007c037cf8ae68007cf9ae3901'
p140
L148L
tp141
a(S'add_auth_entry'
p142
S'9421c0be808102787ba07c238910ba0048008dbb780378bcc13c9c57bdc1297ce9140108b398090cbcc1bd'
p143
L240L
tp144
a(S'setup_connection'
p145
S'9421d0a63800bfc17c1bc378013400802f83419e004800b93800480095381b7f1c80901f009e0000000038007feb4c'
p146
L232L
tp147
a(S'recv_strip_null'
p148
S'7c0293e10c9f23011400b1030000480030ae2f80409e0000417cf9ae3900424000'
p149
L100L
tp150
a(S'scanner_init'
p151
S'7c02be0184222f833d695c2f83419e1535906901600048003169206000380038007c039001142000000000'
p152
L5520L
tp153
a(S'table_retrieve_val'
p154
S'2c003d633829'
p155
L40L
tp156
a(S'toggle_obf'
p157
S'3d6338200229'
p158
L132L
tp159
a(S'add_entry'
p160
S'9421e008a6bfbc237d78a300007fe37c1b003dbdc201247d145d49b30008a6bb212000'
p161
L96L
tp162
a(S'table_init'
p163
S'7c023c103803841e900114e10c'
p164
L1032L
tp165
a(S'util_strlen'
p166
S'7c1b60004800086301ae2f80409eff4e80'
p167
L32L
tp168
a(S'util_memcpy'
p169
S'3803880084016301ff4e80'
p170
L36L
tp171
a(S'util_strcpy'
p172
S'9421'
p173
L72L
tp174
a(S'util_zero'
p175
S'3800a648000c03006301'
p176
L32L
tp177
a(S'util_itoa'
p178
S'9421c093e13cbf00009a40be0063d0000100006000980129000000'
p179
L208L
tp180
a(S'util_memsearch'
p181
S'7f207c1bbd003901033900000001a648003058ae3901ae7f307f48000040ba004e8039006301ff38ff00'
p182
L104L
tp183
a(S'util_atoi'
p184
S'89003801067d4b78802f0009'
p185
L332L
tp186
a(S'util_fdgets'
p187
S'7c02bf7d7801249b23bc1bc07ffb78833806cde9003b00409e00de01d8409c0088002f80409eff7f'
p188
L132L
tp189
a(S'util_local_addr'
p190
S'7c02bfc1900134001000413800380038004800f93d837c1b2908a078000000380091211000354800c178a1fb7800e5e37800bd7c030134c138007c03'
p191
L164L
tp192
a(S'util_stristr'
p193
S'7c1b00000039007c28409eff2f840024017840007d0338007c038900630150ae39010bbf54002b'
p194
L160L
tp195
a(S'util_strcmp'
p196
S'3900003901ae2f80409eff39004800082901ae2f80409eff7f48002901038800380184014800004200e84e80380000'
p197
L108L
tp198
a(S'util_strncmp'
p199
S'3900003901ae2f80409eff39004800082901ae2f80409eff7f28419c008900a5007c03480028630184014800004200e84e80380000'
p200
L120L
tp201
a(S'ioctl'
p202
S'7c029421d0747f5000780134013801100003ab2b01089e005040419d0080800000203c80006c80409e0000287800ed48000c8048007d7f78004038ff38'
p203
L232L
tp204
a(S'fcntl'
p205
S'7c02390093e12c013404f42b00211000379121102003a100'
p206
L132L
tp207
a(S'fcntl64'
p208
S'7c0293e12c013401380110000300cc90a1007c0074107c1ba2078560'
p209
L100L
tp210
a(S'chdir'
p211
S'7c0293e10c0114000c000274107c1ba2073d38ffe10c2110a64e80'
p212
L72L
tp213
a(S'close'
p214
S'7c0293e10c0114000644000274107c1ba206f593e30060'
p215
L72L
tp216
a(S'fork'
p217
S'7c0293e10c011400020274107c1ba206ad93e30060'
p218
L72L
tp219
a(S'getpid'
p220
S'7c0293e10c01140014000274107c1ba20693e30060'
p221
L72L
tp222
a(S'getppid'
p223
S'7c0293e10c0114004044000274107c1ba2061d38ffe10c2110a64e80'
p224
L72L
tp225
a(S'kill'
p226
S'7c0293e10c011400257c0074107c1ba2050060'
p227
L72L
tp228
a(S'open'
p229
S'7c02390093e12c01348090a100390091210c21102003a94b78000274107c1ba2050060'
p230
L120L
tp231
a(S'creat'
p232
S'7c23804c'
p233
L16L
tp234
a(S'prctl'
p235
S'7c0293e10c011400ab44000274107c1ba2050060'
p236
L72L
tp237
a(S'read'
p238
S'7c0293e10c011400030274107c1ba20493e30060'
p239
L72L
tp240
a(S'readlink'
p241
S'7c0293e10c0114005544000274107c1ba20493e30060'
p242
L72L
tp243
a(S'select'
p244
S'7c0293e10c0114008e0274107c1ba20493e30060'
p245
L72L
tp246
a(S'setsid'
p247
S'7c0293e10c0114004244000274107c1ba20393e30060'
p248
L72L
tp249
a(S'sigprocmask'
p250
S'2c007c027c1bc02b0000ae93e10c'
p251
L120L
tp252
a(S'time'
p253
S'7c0293e10c0114000d7c0074107c1ba20338ffe10c2110a64e80'
p254
L72L
tp255
a(S'unlink'
p256
S'7c0293e10c0114000a0274107c1ba20293e30060'
p257
L72L
tp258
a(S'write'
p259
S'7c0293e10c01140004000274107c1ba20238ffe10c2110a64e80'
p260
L72L
tp261
a(S'closedir'
p262
S'7c023c10bf7f780134a3003800eb7f788040be0239'
p263
L164L
tp264
a(S'opendir'
p265
S'7c023800e000'
p266
L272L
tp267
a(S'readdir'
p268
S'9421d0a63c10bfa31b8408eb90013400780080043f007f00bd00801400210041a10048003c00001f003f007f0ca9007c021f001d007c582f80419eff8048007febbb08a638004e80'
p269
L192L
tp270
a(S'__errno_location'
p271
S'3c1038d800'
p272
L12L
tp273
a(S'clock'
p274
S'9421e008a6380800807c02012463102120a654637e80'
p275
L56L
tp276
a(S'memcpy'
p277
S'54a9'
p278
L156L
tp279
a(S'memmove'
p280
S'7f18682bbcffe814432a'
p281
L164L
tp282
a(S'memset'
p283
S'54a92363fc514a44514a80'
p284
L144L
tp285
a(S'strcpy'
p286
S'7d1829ff8401807c49ae409eff4e80'
p287
L32L
tp288
a(S'tcgetattr'
p289
S'9421c0bf9f2380a1749001444c'
p290
L156L
tp291
a(S'tcsetattr'
p292
S'2f8401a69421b041007c1b01547c2b9e002f8402002f8400c0419e00480010c0480020fce93800900300003fc08000a0009f008118410089008034df38210c6100914100012bc14b'
p293
L356L
tp294
a(S'inet_addr'
p295
S'9421e008a6380000a52f8338ff008080242120a64e80'
p296
L52L
tp297
a(S'accept'
p298
S'9421e008a690610038053800a11380242120a64e80'
p299
L52L
tp300
a(S'bind'
p301
S'9421e008a690610038028124a11280242120a64e80'
p302
L52L
tp303
a(S'connect'
p304
S'9421e008a690610038038124a11280242120a64e80'
p305
L52L
tp306
a(S'getsockname'
p307
S'9421e008a69061003806908108a11238007c03'
p308
L52L
tp309
a(S'getsockopt'
p310
S'9421d0a6906100389000900134a100e1181201342130a64e80'
p311
L60L
tp312
a(S'listen'
p313
S'9421e008a69061003804810800292120a64e80'
p314
L48L
tp315
a(S'recv'
p316
S'9421e008a6906100380a8124a10000f180242120a64e80'
p317
L56L
tp318
a(S'recvfrom'
p319
S'9421d0a6906100380c8108a100e11800b101342130a64e80'
p320
L64L
tp321
a(S'send'
p322
S'9421e008a690610038098124a100007901242120a64e80'
p323
L56L
tp324
a(S'sendto'
p325
S'9421d0a6906100380b8134a100e11800392130a64e80'
p326
L64L
tp327
a(S'setsockopt'
p328
S'9421d0a6906100380e908108a100e1181080342130a64e80'
p329
L60L
tp330
a(S'socket'
p331
S'9421e008a690610038018124a11080242120a64e80'
p332
L52L
tp333
a(S'raise'
p334
S'7c02bf7d780124ff5d8024a4ebbb2120a64bff'
p335
L48L
tp336
a(S'sigaddset'
p337
S'7c02900114802f80408118f8b1001639'
p338
L76L
tp339
a(S'sigemptyset'
p340
S'7c0238004b'
p341
L44L
tp342
a(S'signal'
p343
S'2f84'
p344
L224L
tp345
a(S'__sigismember'
p346
S'38fa5484'
p347
L40L
tp348
a(S'__sigaddset'
p349
S'3801fa5484'
p350
L40L
tp351
a(S'__sigdelset'
p352
S'38'
p353
L40L
tp354
a(S'malloc'
p355
S'2c007c02bf0134a20038'
p356
L344L
tp357
a(S'calloc'
p358
S'2f837c02bfe4d69001149e001f1b7f0041bef579000c0300007ffb78'
p359
L112L
tp360
a(S'free'
p361
S'2c007c02bf0124'
p362
L256L
tp363
a(S'realloc'
p364
S'2c007c02bf7c780124a2'
p365
L304L
tp366
a(S'__heap_alloc'
p367
S'8103002b00390c230000007f584041bc008a40409c00690000090809088800007d53780804001853780300000b90090048509100380c808100409eff80'
p368
L160L
tp369
a(S'__heap_alloc_at'
p370
S'817805007d58503900894041bd2040be007f289c0005009c008100419e000b084b008100419e002a0480912800007c18a3004e808100ff4e80'
p371
L156L
tp372
a(S'__heap_link_free_area'
p373
S'2f8500a400419e008504000886000090860800'
p374
L44L
tp375
a(S'__heap_link_free_area_after'
p376
S'2c0041'
p377
L28L
tp378
a(S'__heap_free'
p379
S'7c027c1b6000bf0124e30014001000eb78ff049f0038000040409e'
p380
L300L
tp381
a(S'atol'
p382
S'38004800'
p383
L12L
tp384
a(S'strtol'
p385
S'38004800'
p386
L8L
tp387
a(S'_stdlib_strto_l'
p388
S'7c023d211499230134be337f7849c108ff0169700040'
p389
L436L
tp390
a(S'exit'
p391
S'9421d0a63c10bfa0c1c138787f78c378013400c5eb4800b5200280419e007ffb7809a64e80c378804800954800f53d29008900004bffe37800'
p392
L132L
tp393
a(S'sleep'
p394
S'7c1b08a6942140bf01c4013920a6380039000091490039ff107d3a00'
p395
L468L
tp396
a(S'__uClibc_fini'
p397
S'3d20020239c0697d16700114001829007c032f9f003b'
p398
L148L
tp399
a(S'__pthread_return_0'
p400
S'380000'
p401
L8L
tp402
a(S'__check_one_fd'
p403
S'9421'
p404
L96L
tp405
a(S'__uClibc_init'
p406
S'7c023d200029000114090080409e00003d0bd400009a3d29008900008014e10c2110a64bff8014e10c2110a64e80'
p407
L128L
tp408
a(S'__uClibc_main'
p409
S'7c023d21947c2b01b4807c022bc000a010915dc109d0787978dc781e007c3b8a000090bd003800'
p410
L620L
tp411
a(S'__socketcall'
p412
S'7c0293e10c01140044000274107c1ba2e80060'
p413
L72L
tp414
a(S'_exit'
p415
S'7c02bf7e780114000178000274107c1b'
p416
L60L
tp417
a(S'fstat'
p418
S'9421907c023b0023006c7feb44000274103b1b'
p419
L116L
tp420
a(S'__getdents'
p421
S'7c02bf9f230124007d7e7981140044810cbf00901f007f00bf'
p422
L144L
tp423
a(S'__getdents64'
p424
S'7c0281000500be00d078216e7c23b77876780117541b38007fdb000274107c1b'
p425
L344L
tp426
a(S'getegid'
p427
S'7c0293e10c011400320274107c1ba2e593e30060'
p428
L72L
tp429
a(S'geteuid'
p430
S'7c0293e10c011400310274107c1ba2e493e30060'
p431
L72L
tp432
a(S'getgid'
p433
S'7c0293e10c0114002f44000274107c1ba2e493e30060'
p434
L72L
tp435
a(S'getuid'
p436
S'7c0293e10c011400180274107c1ba2e493e30060'
p437
L72L
tp438
a(S'lseek64'
p439
S'7c027c'
p440
L128L
tp441
a(S'nanosleep'
p442
S'7c0293e10c011400a27c0074107c1ba2e393e30060'
p443
L72L
tp444
a(S'sbrk'
p445
S'7c02bfe0027e78600080ec2f8040be0500009e0080ec7c036014be0500003b'
p446
L112L
tp447
a(S'times'
p448
S'7c0293e10c0114002b0274107c1ba2e293e30060'
p449
L72L
tp450
a(S'__xstat64_conv'
p451
S'9421e008a638007c237c78807feb900124ff295c003d003c083d001c101c141d00901d001d0081915d003c303d001c383c4081915d00001d001d001d008120a64e80'
p452
L204L
tp453
a(S'__xstat_conv'
p454
S'9421e008a638007c237c78807feb900124ff5d803900901d0080901d00901d001d00901d001d00913d001c1c1d00901d001d00901d00901d00901d008120a64e80'
p455
L176L
tp456
a(S'mempcpy'
p457
S'7c02bf7c780124bde180247c1481a638004e80'
p458
L52L
tp459
a(S'inet_aton'
p460
S'2c0041'
p461
L192L
tp462
a(S'sigaction'
p463
S'9421c03900bf9f23be1b0144380041'
p464
L196L
tp465
a(S'_dl_aux_init'
p466
S'801c2002200209e8'
p467
L28L
tp468
a(S'brk'
p469
S'9421'
p470
L52L
tp471
a(S'__syscall_rt_sigaction'
p472
S'7c0293e10c011400ad44000274107c1ba2dd93e30060'
p473
L72L
tp474
a(S'__syscall_error'
p475
S'7c02bf7d780124'
p476
L52L
tp477
a(S'__do_global_ctors_aux'
p478
S'7c023d2904e10c0114e9'
p479
L80L
tp480
a(S'call___do_global_ctors_aux'
p481
S'7c0290011401142110a64e80'
p482
L28L
tp483
a(S'_fini'
p484
S'9421e008a6900124ff01242120a64e80'
p485
L32L
tp486
a.