(lp0
(S'_init'
p1
S'08e9'
p2
L12L
tp3
a(S'_Unwind_GetDataRelBase'
p4
S'10e9'
p5
L8L
tp6
a(S'_Unwind_GetTextRelBase'
p7
S'10e9'
p8
L8L
tp9
a(S'abort'
p10
S'48529fe532e5402deb6d40e2de0093e5000c'
p11
L592L
tp12
a(S'fini'
p13
S'009fe54a01'
p14
L8L
tp15
a(S'_start'
p16
S'00a0e420e500e5c00c9fe500'
p17
L44L
tp18
a(S'deregister_tm_clones'
p19
S'189fe530e1ff0130e3ff01ff'
p20
L32L
tp21
a(S'register_tm_clones'
p22
S'249fe510e011e0100130e3ff01ff'
p23
L44L
tp24
a(S'__do_global_dtors_aux'
p25
S'10e900d40053e3801c9fe5000100149fe500e330e5'
p26
L56L
tp27
a(S'frame_dummy'
p28
S'209fe50005402de500e140bd'
p29
L40L
tp30
a(S'_Z15attack_app_httphP13attack_targethP13attack_option'
p31
S''
p32
L8532L
tp33
a(S'_ZL10add_attackhPFvhP13attack_targethP13attack_optionE'
p34
S'702de140a0e300eb50a0e54080609fe560'
p35
L96L
tp36
a(S'_Z11attack_initv'
p37
S'10e9fc409fe540'
p38
L268L
tp39
a(S'_Z15attack_kill_allv'
p40
g32
L84L
tp41
a(S'_Z12attack_startihhP13attack_targethP13attack_option'
p42
g32
L204L
tp43
a(S'_Z12attack_parsePci'
p44
S'05ff91'
p45
L616L
tp46
a(S'_Z18attack_get_opt_strhP13attack_optionhPc'
p47
S'0050e300da402de100e500088107000ae0e2000510e2405ce500'
p48
L88L
tp49
a(S'_Z18attack_get_opt_inthP13attack_optionhi'
p50
S'10e900a0eb0002000aa0eb80'
p51
L44L
tp52
a(S'_Z17attack_get_opt_iphP13attack_optionhj'
p53
S'10e900a0eb0001003f960010a0'
p54
L40L
tp55
a(S'_Z13attack_gre_iphP13attack_targethP13attack_option'
p56
g32
L1344L
tp57
a(S'_Z14attack_gre_ethhP13attack_targethP13attack_option'
p58
g32
L1436L
tp59
a(S'_Z14attack_tcp_synhP13attack_targethP13attack_option'
p60
g32
L1432L
tp61
a(S'_Z14attack_tcp_ackhP13attack_targethP13attack_option'
p62
g32
L1496L
tp63
a(S'_Z16attack_tcp_stomphP13attack_targethP13attack_option'
p64
g32
L1688L
tp65
a(S'_ZL16get_dns_resolverv'
p66
S'702de200eb10e314eb10eb40a0e314eb0000ba20e210e181e100eb00eb10e314eb20e100eb40a0e314eb00000a55e100da10e00004a0e3e0e260a0ea52e300008a000a0006c00355e1000a20e500'
p67
L372L
tp68
a(S'_Z18attack_udp_generichP13attack_targethP13attack_option'
p69
g32
L1052L
tp70
a(S'_Z14attack_udp_vsehP13attack_targethP13attack_option'
p71
g32
L940L
tp72
a(S'_Z14attack_udp_dnshP13attack_targethP13attack_option'
p73
g32
L1204L
tp74
a(S'_Z16attack_udp_plainhP13attack_targethP13attack_option'
p75
g32
L624L
tp76
a(S'_Z16checksum_genericPtj'
p77
S'0151e3009acce3c030e030e1'
p78
L104L
tp79
a(S'_Z15checksum_tcpudpP5iphdrPvti'
p80
g32
L180L
tp81
a(S'_ZL10mem_existsPciS_i'
p82
S'0153e100ca80c0110010e90051e1000a40d00cd20e00c0018c0c53e1'
p83
L104L
tp84
a(S'_Z11killer_killv'
p85
S'10e90c9fe530e500'
p86
L28L
tp87
a(S'_Z19killer_kill_by_portt'
p88
g32
L1464L
tp89
a(S'_Z11killer_initv'
p90
g32
L1656L
tp91
a(S'_ZL14anti_gdb_entryi'
p92
S'109fe530e520e5ff'
p93
L24L
tp94
a(S'_ZL19teardown_connectionv'
p95
S'10e903'
p96
L60L
tp97
a(S'_ZL16resolve_cnc_addrv'
p98
S'702de30da0e30d0000e100eb0080330000d4e7000195e7509fe550'
p99
L128L
tp100
a(S'_ZL22ensure_single_instancev'
p101
S'702de2419fe540'
p102
L380L
tp103
a(S'main'
p104
g32
L2132L
tp105
a(S'_Z9rand_initv'
p106
S'702de371eb30e000eb40a0eb509fe550'
p107
L92L
tp108
a(S'_Z9rand_nextv'
p109
S'4c10e000e030e000e500e010e510e030e509e000e004e000'
p110
L84L
tp111
a(S'_Z8rand_strPci'
p112
S'702de14051e200cabdeb00e20080f8'
p113
L84L
tp114
a(S'_Z13rand_alphastrPhi'
p115
g32
L176L
tp116
a(S'_ZL16resolv_skip_namePhS_Pi'
p117
S'042de330e3e0e100ea5ce3300230e50007000a'
p118
L108L
tp119
a(S'_Z25resolv_domain_to_hostnamePcS_'
p120
S'702de150a0e109ebc0e0e3508500850e50a0e0000a0001d20053e30000c405e012e0123015f1'
p121
L112L
tp122
a(S'_Z19resolv_entries_freeP14resolv_entries'
p123
S'10e91094e50000007f0004a0eb'
p124
L40L
tp125
a(S'_Z13resolv_lookupPc'
p126
g32
L1032L
tp127
a(S'_ZL18consume_any_promptP18scanner_connection'
p128
S'1890e5200052e300da30e5c030e200025c131080000a000150e410fb30e200025113a08a0000a0e1ffe120ea'
p129
L128L
tp130
a(S'_ZL5deobfPcPi'
p131
S'702de140a0eb009e600000e1200610eb100700da300141e210e520e220e500fa'
p132
L100L
tp133
a(S'_ZL14add_auth_entryPcS_t'
p134
g32
L196L
tp135
a(S'_ZL16setup_connectionP18scanner_connection'
p136
S'702de240a0e320e120e520e500001a20e300eb001d60a0e51ce3000494e520e300eb2be300eb30e130b4d4b2cd309fe530e5300c8410a0e10010'
p137
L212L
tp138
a(S'_Z15recv_strip_nulliPvii'
p139
S'10e97eeb001044e220e330e50000c1'
p140
L56L
tp141
a(S'_Z12scanner_initv'
p142
g32
L6204L
tp143
a(S'_Z12scanner_killv'
p144
S'10e90c9fe530e51f00'
p145
L28L
tp146
a(S'_ZL10toggle_obfh'
p147
S'9c30e0c003'
p148
L164L
tp149
a(S'_ZL9add_entryhPci'
p150
g32
L64L
tp151
a(S'_Z10table_initv'
p152
S'10e9e09fe510e3'
p153
L1008L
tp154
a(S'_Z16table_unlock_valh'
p155
S'10e9'
p156
L12L
tp157
a(S'_Z14table_lock_valh'
p158
S'10e9'
p159
L12L
tp160
a(S'_Z18table_retrieve_valiPi'
p161
S'0051e3000a9fe530e030e130e530e7ff'
p162
L44L
tp163
a(S'_Z11util_strlenPc'
p164
S'00a0e4000500e220e400fb'
p165
L48L
tp166
a(S'_Z12util_strncmpPcS_i'
p167
g32
L96L
tp168
a(S'_Z11util_strcmpPcS_'
p169
S'702de150a0eb60a0e1'
p170
L88L
tp171
a(S'_Z11util_memcpyPvS_i'
p172
S'0052e3ff0100028101e00251e1'
p173
L36L
tp174
a(S'_Z11util_strcpyPcS_'
p175
S'702de150a0e1'
p176
L48L
tp177
a(S'_Z9util_zeroPvi'
p178
S'0051e3ff0110e330e400fc'
p179
L32L
tp180
a(S'_Z9util_atoiPci'
p181
S'f84f2de100eaa0e4202053e300f8'
p182
L316L
tp183
a(S'_Z9util_itoaiiPc'
p184
g32
L216L
tp185
a(S'_Z14util_memsearchPciS_i'
p186
S'0153e100ca51e300da2de2100160e200ea000c8050fce540d20455e1e013'
p187
L116L
tp188
a(S'_Z12util_stristrPciS_'
p189
S'702de140a0e100ebc004860c41e0000fda20e430e74042e20020e20030e1e013'
p190
L120L
tp191
a(S'_Z15util_local_addrv'
p192
S'30e910a0e509'
p193
L20L
tp194
a(S'_Z11util_fdgetsPcii'
p195
g32
L104L
tp196
a(S'__udivsi3'
p197
S'0151e2ff013a006b9a00106fe12f6fe1301f308310201000e120205002a22020200e50e1202020200da22020200ce1202020200b02a22020200a02a22020200902a22020200802a22020200750e1202020200650e12020202005a220202004e1202020200302a22020200202a22020200102a22020200002a22000e10013ffe12f6fe12030a0e10000e09700'
p198
L492L
tp199
a(S'__aeabi_uidivmod'
p200
S'0051e3'
p201
L32L
tp202
a(S'__divsi3'
p203
S'0051e300'
p204
L8L
tp205
a(S'.divsi3_skip_div0_test'
p206
S'01200061420151e2000a30420153e1009a00136fe16f0240e020'
p207
L520L
tp208
a(S'__aeabi_idivmod'
p209
S'0051e3'
p210
L32L
tp211
a(S'__aeabi_ldiv0'
p212
S'02e9a1'
p213
L16L
tp214
a(S'selfrel_offset31'
p215
S'0090e501e3310300'
p216
L24L
tp217
a(S'search_EIT_table'
p218
S'0051e3000a472de260a0e190a0e04f84c4e151a0e000eb0000a0e2000a0008000140e200ec'
p219
L152L
tp220
a(S'__gnu_unwind_get_pr_addr'
p221
S'4430e3300a0009000050e3000a00e120e7ffe100e0ffe120e7ff'
p222
L76L
tp223
a(S'get_eit_entry'
p224
S'189fe531e0402de7d00053e340a0e2000a'
p225
L288L
tp226
a(S'restore_non_core_regs'
p227
S'0090e5402de340a01a00e3000a300a0008130d00e38010e887000094e500e3'
p228
L136L
tp229
a(S'_Unwind_decode_typeinfo_ptr.isra.0'
p230
S'0090e50003901703a0'
p231
L20L
tp232
a(S'__gnu_unwind_24bit.isra.1'
p233
S'09a0'
p234
L8L
tp235
a(S'unwind_phase2'
p236
S'702de150a0e500eb6050e2001a95e5301094e510e3ffe100f1'
p237
L100L
tp238
a(S'unwind_phase2_forced'
p239
g32
L340L
tp240
a(S'_Unwind_GetCFA'
p241
S'4400'
p242
L8L
tp243
a(S'__gnu_Unwind_RaiseException'
p244
g32
L168L
tp245
a(S'__gnu_Unwind_ForcedUnwind'
p246
S'042de510e510e520e4'
p247
L36L
tp248
a(S'__gnu_Unwind_Resume'
p249
S'702de530e3301a30e140a0e110e3ffe10004000850e3001a00eb00e5'
p250
L116L
tp251
a(S'__gnu_Unwind_Resume_or_Rethrow'
p252
S'0c90e50003003c91e520e3'
p253
L32L
tp254
a(S'_Unwind_DeleteException'
p255
S'0890e5001eff0110e3ff'
p256
L24L
tp257
a(S'_Unwind_VRS_Get'
p258
S'0451e3f1'
p259
L104L
tp260
a(S'_Unwind_GetGR'
p261
S'042de230e110e510eb00e2'
p262
L44L
tp263
a(S'_Unwind_VRS_Set'
p264
S'0451e3f1'
p265
L104L
tp266
a(S'_Unwind_SetGR'
p267
S'042de230e520e520e1'
p268
L44L
tp269
a(S'__gnu_Unwind_Backtrace'
p270
g32
L200L
tp271
a(S'__gnu_unwind_pr_common'
p272
g32
L1136L
tp273
a(S'__aeabi_unwind_cpp_pr0'
p274
S'00a0'
p275
L8L
tp276
a(S'__aeabi_unwind_cpp_pr1'
p277
S'01a0'
p278
L8L
tp279
a(S'__aeabi_unwind_cpp_pr2'
p280
S'02a0'
p281
L8L
tp282
a(S'_Unwind_VRS_Pop'
p283
g32
L1016L
tp284
a(S'restore_core_regs'
p285
S'348000e9009d'
p286
L20L
tp287
a(S'__gnu_Unwind_Restore_VFP'
p288
S'2190ec1eff'
p289
L8L
tp290
a(S'__gnu_Unwind_Save_VFP'
p291
S'2180ff'
p292
L8L
tp293
a(S'__gnu_Unwind_Restore_VFP_D'
p294
S'2090ec1eff'
p295
L8L
tp296
a(S'__gnu_Unwind_Save_VFP_D'
p297
S'2080ff'
p298
L8L
tp299
a(S'__gnu_Unwind_Restore_VFP_D_16_to_31'
p300
S'20d01eff'
p301
L8L
tp302
a(S'__gnu_Unwind_Save_VFP_D_16_to_31'
p303
S'20c0ff'
p304
L8L
tp305
a(S'__gnu_Unwind_Restore_WMMXD'
p306
S'02'
p307
L68L
tp308
a(S'__gnu_Unwind_Save_WMMXD'
p309
S'02e002e002e002e002ec02ec02ec02ec02e002e002e002e002e002e01eff'
p310
L68L
tp311
a(S'__gnu_Unwind_Restore_WMMXC'
p312
S'01b001b01eff'
p313
L20L
tp314
a(S'__gnu_Unwind_Save_WMMXC'
p315
S'01a0fc012f'
p316
L20L
tp317
a(S'___Unwind_RaiseException'
p318
S'002de90c2de2fc'
p319
L36L
tp320
a(S'___Unwind_Resume'
p321
S'002de90c2de2fc'
p322
L24L
tp323
a(S'___Unwind_Resume_or_Rethrow'
p324
S'002de90c2de2fc'
p325
L36L
tp326
a(S'___Unwind_ForcedUnwind'
p327
S'002de90c2de2fc'
p328
L36L
tp329
a(S'___Unwind_Backtrace'
p330
S'002de90c2de2fd'
p331
L36L
tp332
a(S'next_unwind_byte'
p333
S'08d00052e3001a30e5000f0a90e530048210e5c008c024e120e1ffe1200090e520e5'
p334
L96L
tp335
a(S'_Unwind_GetGR.constprop.0'
p336
S'042de230e220e120eb00e2'
p337
L44L
tp338
a(S'__gnu_unwind_execute'
p339
g32
L972L
tp340
a(S'__gnu_unwind_frame'
p341
S'4c20e530e2c003e1c00720e510e520e5c014'
p342
L68L
tp343
a(S'_Unwind_GetRegionStart'
p344
S'10e94800'
p345
L16L
tp346
a(S'_Unwind_GetLanguageSpecificData'
p347
S'10e94c00e530e0'
p348
L28L
tp349
a(S'__libc_start_main'
p350
S'804adf149fe500e5e0e50000e222e101150082c2e83f6f111111300490e400fc'
p351
L804L
tp352
a(S'check_one_fd'
p353
g32
L48L
tp354
a(S'__libc_check_standard_fds'
p355
S'10e900a0eb19e3'
p356
L44L
tp357
a(S'__libc_setup_tls'
p358
S'3c9fe522e54f2de3d000e5000a9fe510e000030000ea53e1002a20e3'
p359
L580L
tp360
a(S'__tls_get_addr'
p361
S'042de100'
p362
L12L
tp363
a(S'__libc_csu_init'
p364
g32
L144L
tp365
a(S'__libc_csu_fini'
p366
S'702de5509fe5304331e3000a4043e2518501e230e100'
p367
L64L
tp368
a(S'__errno_location'
p369
S'109fe5e0e500'
p370
L12L
tp371
a(S'__aeabi_read_tp'
p372
g32
L8L
tp373
a(S'__assert_fail_base'
p374
S'80789fe5e1e5d0009ce50000e160a0e18030e5000a10e300e511e5c110e50001a0010040a00100e500e501e100eb003520e500eb30e51ceb30e530e3c0030c00e000'
p375
L388L
tp376
a(S'__assert_fail'
p377
S'8000e170e1d001e160a0e520e500eb70e530e110'
p378
L60L
tp379
a(S'dcgettext'
p380
S'042de3d004'
p381
L36L
tp382
a(S'plural_eval'
p383
g32
L460L
tp384
a(S'transcmp'
p385
S'1090e5402de330e140a01295051c816154000050e3800095e554000050e3800895e554000050e330034000'
p386
L108L
tp387
a(S'plural_lookup.isra.2'
p388
g32
L96L
tp389
a(S'_nl_find_msg'
p390
g32
L2924L
tp391
a(S'__dcigettext'
p392
g32
L1756L
tp393
a(S'_nl_find_domain'
p394
g32
L668L
tp395
a(S'_nl_load_domain'
p396
g32
L5708L
tp397
a(S'alias_compare'
p398
S'0091e500e54e00'
p399
L16L
tp400
a(S'read_alias_file'
p401
S'154f2de3b0e2df034de034e540a0e520e100e54e000e20e54e0004a0e510eb9050e2910b0099e529e22005e40009a0e34bd5000050e3000a10e248008c9fe531029fe74f4be260a0eb10e120e3000a30e520e10ae3'
p402
L1056L
tp403
a(S'_nl_expand_alias'
p404
S'f84f2de360a0e540a0e5000500e3e0e1'
p405
L452L
tp406
a(S'_nl_make_l10nflist'
p407
g32
L1196L
tp408
a(S'_nl_normalize_codeset'
p409
g32
L296L
tp410
a(S'_nl_explode_name'
p411
g32
L528L
tp412
a(S'__gettext_free_exp'
p413
S'10e91094e50008000353e3000a0006000aa0e81094e5'
p414
L88L
tp415
a(S'new_exp'
p416
S'0140e200'
p417
L192L
tp418
a(S'__gettextparse'
p419
g32
L2328L
tp420
a(S'__gettext_extract_plural'
p421
g32
L276L
tp422
a(S'__hash_string'
p423
S'0140e200e5001eff0102e312e20c10'
p424
L40L
tp425
a(S'_setjmp'
p426
S'00a0'
p427
L8L
tp428
a(S'__bsd_signal.part.0'
p429
S'10e9124de2e0e530e220e5e1e520e500fc'
p430
L164L
tp431
a(S'ssignal'
p432
S'017100a003c00030e3000a30e5ed'
p433
L80L
tp434
a(S'raise'
p435
S'b02de5df0095e540a0e300e531eb21e330e320e510e200e370e300ef14a0efe0a0e100ef437fe310e100ef017000e1008a'
p436
L216L
tp437
a(S'__libc_sigaction'
p438
g32
L284L
tp439
a(S'sigaction'
p440
S'0140e200008a300153e3009a9fe5e0e5ec'
p441
L40L
tp442
a(S'sigprocmask'
p443
g32
L192L
tp444
a(S'kill'
p445
S'042de300ef049de40a1eff316100'
p446
L28L
tp447
a(S'sigemptyset'
p448
S'0050e3402d0a10eb30e1801610e7ec'
p449
L52L
tp450
a(S'sigaddset'
p451
S'0141e20000a08350e330e3e0e5001a100151e3009a90e720e2e0e322e700e420e320'
p452
L96L
tp453
a(S'__default_sa_restorer'
p454
S'77a0ef00a0'
p455
L16L
tp456
a(S'__default_rt_sa_restorer'
p457
S'ad70e300ef'
p458
L8L
tp459
a(S'msort_with_tmp.part.0'
p460
g32
L672L
tp461
a(S'qsort_r'
p462
g32
L736L
tp463
a(S'qsort'
p464
S'042de3d000'
p465
L28L
tp466
a(S'getenv'
p467
S'009fe5472de5003a0000d000e1000201000a70e590a0e34095e5001a002ce3001a00ea54e3000a10e530e534e138e100f5'
p468
L264L
tp469
a(S'__run_exit_handlers'
p470
S'0c9fe5482de3d00c'
p471
L788L
tp472
a(S'exit'
p473
S'01a0e9009fe5'
p474
L20L
tp475
a(S'__new_exitfn'
p476
S'289fe530e5003400702de540a0e3000a00e1e0e120e3000a30038e0891e5000f1ac00143e2120a0002a0e3'
p477
L304L
tp478
a(S'__internal_atexit'
p479
g32
L364L
tp480
a(S'__cxa_atexit'
p481
S'009fe5'
p482
L8L
tp483
a(S'__strtol_internal'
p484
S'30e90c4de2409fe750a0'
p485
L24L
tp486
a(S'strtol'
p487
S'2c9fe5402de7d000e1'
p488
L24L
tp489
a(S'__strtoul_internal'
p490
S'30e90c4de2409fe750a0'
p491
L24L
tp492
a(S'strtoul'
p493
S'2c9fe5402de7d000e1'
p494
L24L
tp495
a(S'____strtol_l_internal'
p496
g32
L1288L
tp497
a(S'strtol_l'
p498
S'042de230e3'
p499
L28L
tp500
a(S'____strtoul_l_internal'
p501
g32
L1196L
tp502
a(S'strtoul_l'
p503
S'042de230e3'
p504
L28L
tp505
a(S'__correctly_grouped_prefixmb'
p506
g32
L668L
tp507
a(S'asprintf'
p508
S'0e00e90c4de230e1c030e509eb20e50003000c'
p509
L80L
tp510
a(S'locked_vfxprintf'
p511
g32
L248L
tp512
a(S'__fxprintf'
p513
S'0e00e9084de25050e230e531e550930500e530e2001a95e5e5eb30e2000e000a10e130e1001aa0e3e0e1'
p514
L364L
tp515
a(S'__fxprintf_nocancel'
p516
S'0e00e9084de25050e230e531e550930500e530e2001a95e5e4eb30e2000e000a10e130e1001aa0e3e0e1'
p517
L380L
tp518
a(S'fclose'
p519
S'0090e5472de350a01a29e2000a60130013006b0a9fe54095e533e0300153e1009aa0e1ffe130e300da95e510e540a0e5000500e3e0e1'
p520
L684L
tp521
a(S'fflush'
p522
g32
L344L
tp523
a(S'__fopen_maybe_mmap'
p524
S'3c90e500e3ff0130e3ff01e520e330d510d510e5ff'
p525
L64L
tp526
a(S'__fopen_internal'
p527
g32
L224L
tp528
a(S'fopen'
p529
S'01a0'
p530
L8L
tp531
a(S'adjust_wide_data'
p532
g32
L276L
tp533
a(S'_IO_wfile_underflow'
p534
S'0090e5279fe54f2de5d0101334'
p535
L1656L
tp536
a(S'_IO_wfile_seekoff'
p537
g32
L2464L
tp538
a(S'_IO_wfile_underflow_maybe_mmap'
p539
S'10e9060001701094e500e540bde5ff'
p540
L44L
tp541
a(S'_IO_wfile_underflow_mmap'
p542
g32
L392L
tp543
a(S'_IO_wdo_write'
p544
S'ac31e9344de25052e230e1000a30e540a0e18043000ab0e2a000149de5000443e05145e0000a9059e290a0e190890059e3001a0023001496e570e540a0e00020968520925c10e9188d00'
p545
L436L
tp546
a(S'_IO_wfile_overflow'
p547
S'0090e5412de340a01a0be350a01ae510e3000a10e5001c940504921500a0010004'
p548
L672L
tp549
a(S'_IO_wfile_sync'
p550
S'5c30e90c93e5d00152e140a09a53e300da204221eb0013005c300093e500e1000a94e5201096e500e1ffe1001e00da21e531e0300153e1009a'
p551
L416L
tp552
a(S'_IO_wfile_xsputn'
p553
g32
L348L
tp554
a(S'vasprintf'
p555
g32
L332L
tp556
a(S'__libc_message'
p557
S'0e00e9204de230e500e390a0e530e5609be5001a800154e350a0110004a0e100eaa0eb30e500040025'
p558
L676L
tp559
a(S'__libc_fatal'
p560
S'18e5402de120e100eb'
p561
L32L
tp562
a(S'_IO_vtable_check'
p563
S'109fe5001eff11402de5'
p564
L24L
tp565
a(S'fgets_unlocked'
p566
S'0051e300da002a000092e5402de340a0e260a0e30000'
p567
L200L
tp568
a(S'_IO_file_seekoff_maybe_mmap'
p569
S'702de55090e540a0e5d00045e0100c51e1609de5009aa0e5ffe10000d10600ba10'
p570
L112L
tp571
a(S'_IO_file_close'
p572
S'3890e54000'
p573
L8L
tp574
a(S'_IO_new_file_setbuf'
p575
S'10e9980d50e38004a0e5300c8404840884'
p576
L56L
tp577
a(S'_IO_file_setbuf_mmap'
p578
S'5c30e954509fe55080c08550e3000a94e500e5300c840484088470bde55085109fe55084b083'
p579
L100L
tp580
a(S'new_do_write'
p581
S'0090e5432de56090e5519fe50ae38000e190a0e05045e0000a20e330e32555e1009aa0e100e134e10000501350a01ae5300c8404840884148410841b002094e5300c'
p582
L332L
tp583
a(S'_IO_new_file_underflow'
p584
S'f84f2de500e3001a13b2000490e510e130351c90e550a0e3000a9fe500e1000a9fe570e530e2001a97e5d9eb20e2008f0001a0e130e1001aa0e3e0e1'
p585
L764L
tp586
a(S'_IO_file_close_mmap'
p587
S'1c90e510e900e100eb30e53010e8'
p588
L52L
tp589
a(S'mmap_remap_check'
p590
g32
L600L
tp591
a(S'_IO_file_seek'
p592
S'3890e53b'
p593
L8L
tp594
a(S'_IO_file_sync_mmap'
p595
S'0c90e900e100e120084de23fa00a10e50000a0e1000140e01fa0e10006001a94e500e11008'
p596
L136L
tp597
a(S'decide_maybe_mmap'
p598
g32
L464L
tp599
a(S'_IO_file_underflow_maybe_mmap'
p600
S'702de1'
p601
L64L
tp602
a(S'_IO_file_xsgetn_maybe_mmap'
p603
g32
L80L
tp604
a(S'_IO_new_file_seekoff'
p605
g32
L1700L
tp606
a(S'_IO_file_stat'
p607
S'01a0e500'
p608
L16L
tp609
a(S'_IO_new_file_write'
p610
g32
L156L
tp611
a(S'_IO_file_xsgetn_mmap'
p612
g32
L288L
tp613
a(S'_IO_file_xsgetn'
p614
S'1c90e54f2de3d000e150a0e1000a0049000a94e9060068b1e5919fe5a04be000ea1339001c94e5003d100a51e1008a51e330088414841084188437009a'
p615
L544L
tp616
a(S'_IO_file_seekoff_mmap'
p617
g32
L360L
tp618
a(S'_IO_file_underflow_mmap'
p619
S'0490e510e1002a00e5ffe1402de1fb'
p620
L132L
tp621
a(S'_IO_file_read'
p622
S'3c90e500e3001a3700433b'
p623
L24L
tp624
a(S'_IO_new_file_xsputn'
p625
g32
L420L
tp626
a(S'_IO_new_file_init_internal'
p627
S'0090e5402de330e370e330e140a0eb30e330'
p628
L52L
tp629
a(S'_IO_new_file_init'
p630
S'0090e5402de330e370e330e140a0eb30e330'
p631
L52L
tp632
a(S'_IO_file_open'
p633
S'3c90e5402de3d000e1609de500e1201a000281200000e10000a0bac8c801c3e330e320e010e130e530a89fe56094e530e0300153e1009a'
p634
L284L
tp635
a(S'_IO_new_file_attach'
p636
S'3890e5432de3d0001a30e540a0e500e530e330e390e0008438840240e085e12005d3eb0005009aa0e530e330e500e130e320e300025001000a9fe5d3eb30e700e2837a'
p637
L232L
tp638
a(S'_IO_new_do_write'
p639
S'0052e2001a00e1402de1f9'
p640
L40L
tp641
a(S'_IO_new_file_close_it'
p642
S'702de50044000a9fe520e130e00b0013000aa0eb300013001a21e531e0300153e1009aa0e150a0e50012005c300053e3000aa0eb30e110e1ad005c30088320e520e520e320e100eb30e130088414841084188404a00100e320e330e300'
p643
L384L
tp644
a(S'_IO_new_file_fopen'
p645
g32
L1028L
tp646
a(S'_IO_new_file_finish'
p647
S'3890e5402de340a00ae5001700dae530e510e021eb3009005020e530e0300153e1009aa0e100e340bdea90e510e0'
p648
L160L
tp649
a(S'_IO_new_file_overflow'
p650
S'0090e5402de3001a0be350a0e1201a0057000a90e50ce3001a000250e12002a005028320188404840c8400841c00017515302530e550c2301520126fe122e0001a5005e1802f000a001490e5'
p651
L512L
tp652
a(S'_IO_new_file_sync'
p653
S'1490e510e9084de240a09a53e300dae530e510e021eb00130028002494e91400a06094e530e0300153e1009a'
p654
L264L
tp655
a(S'flush_cleanup'
p656
g32
L280L
tp657
a(S'save_for_backup'
p658
g32
L444L
tp659
a(S'_IO_un_link.part.1'
p660
g32
L744L
tp661
a(S'_IO_un_link'
p662
S'0090e500e3ff01'
p663
L16L
tp664
a(S'_IO_link_in'
p665
g32
L680L
tp666
a(S'_IO_least_marker'
p667
S'3090e500e3001eff0120e50002a0e3'
p668
L48L
tp669
a(S'_IO_switch_to_main_get_area'
p670
S'0090e520e510e53ce3e0e530e5c00c8020'
p671
L56L
tp672
a(S'_IO_switch_to_backup_area'
p673
S'0090e520e5c001e3e0e530e520e5c0049d'
p674
L56L
tp675
a(S'_IO_switch_to_get_mode'
p676
S'd0c0402de140a09a90e530e0300153e1009ae004a0e10070bde5200a000894e5100c84088400a0e13070bde5109c'
p677
L152L
tp678
a(S'_IO_free_backup_area'
p679
S'0090e5402de340a0e5000a94e53ce3002c94e500e52000a0e530'
p680
L80L
tp681
a(S'__overflow'
p682
S'6c30e900e06c30e54090e530e0300c53e1d0030008'
p683
L84L
tp684
a(S'__underflow'
p685
S'6c30e330030501733b000090e5402de340a01a94e52027003a300b002494e50001e300008408842c8404840c8424841f008a300f0a107c'
p686
L276L
tp687
a(S'__uflow'
p688
S'6c30e330030501733f001a30e900e1001a94e52027003a300b002494e50001e300008408842c840c84248404843094e5000f0a10350017001a5094e530e0300153e1009aa0e82494e500f1'
p689
L292L
tp690
a(S'_IO_setb'
p691
g32
L84L
tp692
a(S'_IO_doallocbuf'
p693
S'1c90e5001eff1130e900e1000ae50018007c9fe55094e530e0300153e1009aa0e10070bde560840050e350840094e5000a00e3000a30e5608420e580485080'
p694
L176L
tp695
a(S'_IO_default_underflow'
p696
S'00e01eff'
p697
L8L
tp698
a(S'_IO_default_uflow'
p699
S'702de55090e530e0300153e140a09aa0e100049415048470bdeb'
p700
L80L
tp701
a(S'_IO_default_xsputn'
p702
g32
L224L
tp703
a(S'_IO_sgetn'
p704
S'10e9984090e530e0300e00104de2009a'
p705
L68L
tp706
a(S'_IO_default_xsgetn'
p707
g32
L176L
tp708
a(S'_IO_default_setbuf'
p709
g32
L256L
tp710
a(S'_IO_default_seekpos'
p711
S'30e9984090e510e0101c4de20028e5009a'
p712
L88L
tp713
a(S'_IO_default_doallocate'
p714
S'702de10aeb5050e2000a94e56ae2000094e5000a00e3000a30e33020e500e80094e5'
p715
L96L
tp716
a(S'_IO_enable_locks'
p717
S'3c9fe530e3ff1130e330e5001eff0193e520e530e3'
p718
L68L
tp719
a(S'_IO_old_init'
p720
S'749fe514e320e3003c8020138000ad18e530e530e530e530e530e530e530e130151eff'
p721
L124L
tp722
a(S'_IO_init_internal'
p723
S'10e9dc'
p724
L36L
tp725
a(S'_IO_no_init'
p726
S'702de140a0e1'
p727
L112L
tp728
a(S'_IO_default_sync'
p729
S'00a0'
p730
L8L
tp731
a(S'_IO_default_finish'
p732
S'702de100e3000a3013003094e500040000a0e530e3'
p733
L128L
tp734
a(S'_IO_default_seekoff'
p735
S'00e000e01eff'
p736
L12L
tp737
a(S'_IO_sputbackc'
p738
S'0490e520e90c4de240a09a010250e13004844c20e530e0300053e1009aa0e10002000094e530e33030'
p739
L136L
tp740
a(S'_IO_sungetc'
p741
S'0490e520e900e1009a80000094e530e330389fe55090e530e0300153e1009ae004a0e10070bdea'
p742
L116L
tp743
a(S'_IO_adjust_column'
p744
S'042de0000900015ee5300a5ce3001a00ea5ce3000a00fa'
p745
L84L
tp746
a(S'_IO_flush_all_lockp'
p747
S'249fe523e9244de20000'
p748
L812L
tp749
a(S'_IO_cleanup'
p750
g32
L852L
tp751
a(S'_IO_flush_all'
p752
S'01a0'
p753
L8L
tp754
a(S'_flushlbf'
p755
S'd49fe522e91c4de20014'
p756
L732L
tp757
a(S'_IO_init_marker'
p758
S'0091e5402de340a0e1101a0ce3200494e5303094e520e5508470bde1fa'
p759
L84L
tp760
a(S'_IO_remove_marker'
p761
S'0490e520e3ff01000100080003a0e5001eff0100f9'
p762
L72L
tp763
a(S'_IO_marker_difference'
p764
S'0890e530e0ff'
p765
L16L
tp766
a(S'_IO_marker_delta'
p767
S'0490e50007000a00e50ce330050340e0ffe100e3ff'
p768
L52L
tp769
a(S'_IO_seekmark'
p770
S'0491e50024000891e530e3e0e51ce200ba0c90e5000a90e53ce3e0e510e510e5c0088020e500e4000890e5'
p771
L168L
tp772
a(S'_IO_unsave_markers'
p773
S'3090e50000a0150053e3ff01'
p774
L32L
tp775
a(S'_IO_default_pbackfail'
p776
g32
L316L
tp777
a(S'_IO_default_seek'
p778
S'00e000e01eff'
p779
L12L
tp780
a(S'_IO_default_stat'
p781
S'00e01eff'
p782
L8L
tp783
a(S'_IO_default_read'
p784
S'00e01eff'
p785
L8L
tp786
a(S'_IO_default_write'
p787
S'00a0'
p788
L8L
tp789
a(S'_IO_default_showmanyc'
p790
S'00e01eff'
p791
L8L
tp792
a(S'_IO_iter_begin'
p793
S'049fe500'
p794
L12L
tp795
a(S'_IO_iter_end'
p796
S'00a0'
p797
L8L
tp798
a(S'_IO_iter_next'
p799
S'3490e5ff'
p800
L8L
tp801
a(S'_IO_list_lock'
p802
S'702deb509fe56d40e230e1000a10e240a0e5000500e3e0e1'
p803
L116L
tp804
a(S'_IO_list_unlock'
p805
g32
L132L
tp806
a(S'_IO_list_resetlock'
p807
S'109fe520e520e5ff'
p808
L24L
tp809
a(S'_IO_str_underflow'
p810
S'1490e520e500030108800b30050a80c000d31eff'
p811
L68L
tp812
a(S'_IO_str_overflow'
p813
S'0090e500e3001a2be20b028310e920e5300504800001e16046e0100310e00000e1008a30e2001a90868956e1008a00eb80000a000520e122eb00eba049e010e022eb20e310e1fa'
p814
L344L
tp815
a(S'enlarge_userbuf'
p816
g32
L444L
tp817
a(S'_IO_str_seekoff'
p818
g32
L696L
tp819
a(S'_IO_str_pbackfail'
p820
S'0191e22013001afd'
p821
L32L
tp822
a(S'_IO_str_finish'
p823
S'10e91c90e50002000094e500e3000a10e500e87d00f8'
p824
L60L
tp825
a(S'_IO_str_init_static_internal'
p826
S'0052e3412de150a0e1001a10e122eb60a0e320e100eb0000a0e550840484148408151805a081e160a023'
p827
L132L
tp828
a(S'_IO_str_init_static'
p829
S'c2e1'
p830
L8L
tp831
a(S'_IO_str_init_readonly'
p832
S'10e900e12f82'
p833
L36L
tp834
a(S'_IO_str_count'
p835
S'0890e520e500016020001eff'
p836
L28L
tp837
a(S'_dl_tunable_set_mmap_threshold'
p838
S'0090e50753e3209308'
p839
L28L
tp840
a(S'_dl_tunable_set_mmaps_max'
p841
S'109fe510e310e5ff'
p842
L24L
tp843
a(S'_dl_tunable_set_top_pad'
p844
S'109fe510e310e5ff'
p845
L24L
tp846
a(S'_dl_tunable_set_perturb_byte'
p847
S'089fe520e5ff'
p848
L16L
tp849
a(S'_dl_tunable_set_trim_threshold'
p850
S'109fe510e310e5ff'
p851
L24L
tp852
a(S'_dl_tunable_set_arena_max'
p853
S'089fe520e5ff'
p854
L16L
tp855
a(S'_dl_tunable_set_arena_test'
p856
S'089fe520e5ff'
p857
L16L
tp858
a(S'_dl_tunable_set_tcache_max'
p859
S'0090e5521eff810007308343'
p860
L56L
tp861
a(S'_dl_tunable_set_tcache_count'
p862
S'089fe520e5ff'
p863
L16L
tp864
a(S'_dl_tunable_set_tcache_unsorted_limit'
p865
S'089fe520e5ff'
p866
L16L
tp867
a(S'mem2mem_check'
p868
S'0050e3ff0130a3c1c020e500c00720e320044202200152e1009a53e330e13030e7200251e1'
p869
L108L
tp870
a(S'mem2chunk_check'
p871
g32
L536L
tp872
a(S'int_mallinfo'
p873
S'3490e5412de560a0e3c00650a0e5000500e220e30002e0'
p874
L276L
tp875
a(S'__malloc_assert'
p876
S'4cc0009ce540a0e5d0005ee3e015309f050e30e520e500'
p877
L68L
tp878
a(S'detach_arena'
p879
S'0050e3ff01e50002000143e234e5ffe1402de520e500'
p880
L56L
tp881
a(S'get_free_list'
p882
g32
L384L
tp883
a(S'new_heap'
p884
S'018031e3412de5d03d0651e3008a9fe55043e200e0300050e350050a60a0e330e520e516a0eb6087017000e1000a34e3c3e300180001a0eb60a0e330e360'
p885
L408L
tp886
a(S'mremap_chunk'
p887
g32
L412L
tp888
a(S'ptmalloc_init'
p889
S'702de5519fe524e5d00095e50004'
p890
L336L
tp891
a(S'arena_get2.part.2'
p892
S'f84f2de585e5a053e370e14498e5001a30e3300a9fe550890143e200685096e50058559f0501a0e140a0e5000500e3e0e1'
p893
L1444L
tp894
a(S'arena_get_retry'
p895
S'4431e900e180200000e510e120e5000500e3e0e1'
p896
L332L
tp897
a(S'_dl_tunable_set_mallopt_check'
p898
S'0090e5001eff019fe5e0e520e3e0e5c0309fe530e5e0e500e5e0e500e5'
p899
L80L
tp900
a(S'__malloc_info.part.6'
p901
S'cc24e54f2de2d000a0e514e530e510e530e530e530e528e114e530e530e37feb10e530e1001aa0e3e0e1'
p902
L1236L
tp903
a(S'systrim.isra.1.constprop.7'
p904
g32
L196L
tp905
a(S'_int_free'
p906
g32
L2928L
tp907
a(S'sysmalloc'
p908
g32
L1952L
tp909
a(S'_int_malloc'
p910
S'0b81'
p911
L3884L
tp912
a(S'malloc_check'
p913
S'0170'
p914
L252L
tp915
a(S'tcache_init.part.3'
p916
S'68412deb30e700000a10e140a0e5000500e3e0e1'
p917
L368L
tp918
a(S'_int_memalign'
p919
g32
L464L
tp920
a(S'memalign_check'
p921
S'0850e3009a2d8a001093008a60a0e510e330e1001aa0e3e0e1'
p922
L384L
tp923
a(S'_int_realloc'
p924
g32
L868L
tp925
a(S'__malloc_fork_lock_parent'
p926
S'ac30e5001effd12de320e330e1001aa0e3e0e1'
p927
L180L
tp928
a(S'__malloc_fork_unlock_parent'
p929
g32
L240L
tp930
a(S'__malloc_fork_unlock_child'
p931
S'889fe534e5001effd1402deb409fe530e3206800e30001a0150520e150840350e1141503a0e534e5e01353e1'
p932
L144L
tp933
a(S'__malloc_check_init'
p934
S'3c9fe5e0e520e3e0e5c0309fe530e5e0e500e5e0e500e5'
p935
L68L
tp936
a(S'malloc'
p937
S'109fe530e3001a20e3412d9300e1008a30e3001a62eb60860496e54042e200a471e1000a22e50029000093e50041001a10e1f7eb6050e2000a16e500e3001a1327000a3023a0e130e1000a9fe522e502eb20e30000a083'
p938
L792L
tp939
a(S'malloc_hook_ini'
p940
S'1c9fe5402de340a0e5ee'
p941
L36L
tp942
a(S'_mid_memalign'
p943
S'd89fe5412de50041001a0000a0e1009a003c000042e00027003a2000128e001050e3000a60a0e100fc'
p944
L736L
tp945
a(S'memalign_hook_ini'
p946
S'2c9fe5402de360a0e150a0e5ed'
p947
L52L
tp948
a(S'free'
p949
S'd89fe530e3001a0000a001100840e200e3001a402deb409fe5d000840490e500000a1321a011201508'
p950
L212L
tp951
a(S'__malloc_arena_thread_freeres'
p952
S'6031e900835090e500120000a0e340854f6f85048030e5000530e5'
p953
L360L
tp954
a(S'realloc_hook_ini'
p955
S'2c9fe520e900e150a0e530eb10e140bd'
p956
L52L
tp957
a(S'memalign'
p958
S'042de1e0e4fd'
p959
L16L
tp960
a(S'valloc'
p961
S'349fe5402de550a0e340a0ba0510e540bdea'
p962
L60L
tp963
a(S'pvalloc'
p964
S'709fe5402de550a0e340a0ba10e00093e5c05ce1003a1004810510e000e8249fe520e7ae'
p965
L120L
tp966
a(S'calloc'
p967
S'f84f2de100e330230000a0e360a0e0001a93e5005d001a9fe5ae'
p968
L956L
tp969
a(S'malloc_trim'
p970
S'709fe54f2de5d00053e300ba00a0e130e320e330e1001aa0e3e0e1'
p971
L632L
tp972
a(S'mallinfo'
p973
S'3c9fe5472de5919fe5d00099e50000'
p974
L324L
tp975
a(S'malloc_stats'
p976
S'ec11e524e54f2de5d00052e330e500baccb1e530e120e520e180000001a0e300eb40a0e320e5000500e3e0e1'
p977
L500L
tp978
a(S'mallopt'
p979
g32
L464L
tp980
a(S'posix_memalign'
p981
S'21a0e230e0c00c93e1402d1340a0e340a0e3001a30e120e110eb000400008504a0e870bde3'
p982
L108L
tp983
a(S'malloc_info'
p984
S'0050e3001a30e901e1000700ba209fe581e140bdea2fe1e8'
p985
L72L
tp986
a(S'__default_morecore'
p987
S'10e9017000a0'
p988
L20L
tp989
a(S'strchr'
p990
S'0310ff010f0a30e5001eff01003b00018000ea80001eff01002b00031303a01a2de5409fe506e060860668000352e50020000053e3000a300c53e1000a0015300c53e1000a00100002a0e1e0e450e010e010e030e030e030e3'
p991
L280L
tp992
a(S'strcmp'
p993
S'01d001d10053e3000a00f9'
p994
L40L
tp995
a(S'strcpy'
p996
S'702de100e100eb10e200e8'
p997
L40L
tp998
a(S'strcspn'
p999
g32
L352L
tp1000
a(S'strdup'
p1001
S'702de100eb408000eb0070bde110e8'
p1002
L48L
tp1003
a(S'strlen'
p1004
S'03c020e2000400ff8230ffc30153e228e30c130813041380201a00e30013001300'
p1005
L96L
tp1006
a(S'strncmp'
p1007
S'0352e3402d9ac2e0e250851b00035ce5605ee54053e040a0e340a0e3001a30605ee54053e040a0e340a0e3001a30405ee5c0e0130001a0e3001ae0e2000a5ce5405ee500e010e310e3100a43e08004a0e3'
p1008
L316L
tp1009
a(S'critical_factorization'
p1010
g32
L272L
tp1011
a(S'two_way_long_needle'
p1012
g32
L1016L
tp1013
a(S'strstr'
p1014
g32
L1120L
tp1015
a(S'memcmp'
p1016
g32
L1060L
tp1017
a(S'memmove'
p1018
S'0150e0000c0002810452e200ba0451f53000031139001c52e201ba60202051f5020060'
p1019
L832L
tp1020
a(S'memset'
p1021
S'00a0e3003a00e3101420fb'
p1022
L124L
tp1023
a(S'mempcpy'
p1024
S'10e91d00'
p1025
L20L
tp1026
a(S'stpcpy'
p1027
S'702de100e1fb'
p1028
L48L
tp1029
a(S'strcasecmp_l'
p1030
S'0150e1000a2de5c020e530e401e700049d1400f7ff049de400'
p1031
L64L
tp1032
a(S'memcpy'
p1033
S'11e92b0000d1300003113a001c52e201ba60201cd102005c'
p1034
L816L
tp1035
a(S'rawmemchr'
p1036
S'0051e3001a402de1fa'
p1037
L36L
tp1038
a(S'strchrnul'
p1039
S'0310ff010c0000d0035ce1001eff0130ea52e1001eff0100e3001a2de5409fe506e060860668000251e5000c5311000a300c53e10017000a00e1e0e450e030e030e020e020e020e3'
p1040
L228L
tp1041
a(S'wmempcpy'
p1042
S'02a0'
p1043
L8L
tp1044
a(S'mbsrtowcs'
p1045
S'702de5509fe5409fe7d000e1a4'
p1046
L28L
tp1047
a(S'_nl_cleanup_ctype'
p1048
S'10e90054e380148030e5000394e804a0e8'
p1049
L60L
tp1050
a(S'__wcsmbs_getfct'
p1051
g32
L116L
tp1052
a(S'__wcsmbs_load_conv'
p1053
g32
L464L
tp1054
a(S'__wcsmbs_clone_conv'
p1055
S'7c9fe5402de740a0'
p1056
L20L
tp1057
a(S'__wcsmbs_named_conv'
p1058
S'702de240a0e550a0eb0000840800052032'
p1059
L96L
tp1060
a(S'__mbsrtowcs_l'
p1061
g32
L856L
tp1062
a(S'clock'
p1063
S'10e9104de23002a0e511eb000f1a30e520e0120161e0a0e121e003e530030010'
p1064
L116L
tp1065
a(S'time'
p1066
S'30e9144de250a0e510e230eb20e50000e0049d050085010014'
p1067
L84L
tp1068
a(S'gettimeofday'
p1069
S'804e70e300ef017000a08a00e80060e220'
p1070
L48L
tp1071
a(S'__alloc_dir'
p1072
g32
L172L
tp1073
a(S'opendir_tail'
p1074
S'30e9744de2306c30ba0500eb001300'
p1075
L160L
tp1076
a(S'__opendirat'
p1077
S'10e90053e3000a9fe508eb40bdeaa0e7'
p1078
L48L
tp1079
a(S'opendir'
p1080
S'10e90053e3000a9fe5070010e8189fe510e7'
p1081
L48L
tp1082
a(S'closedir'
p1083
S'0050e2402d0a4093e5f1'
p1084
L48L
tp1085
a(S'readdir'
p1086
S'6031e9048050a0e1a1a0e740a0e5000500e3e0e1'
p1087
L360L
tp1088
a(S'__getdents'
p1089
g32
L388L
tp1090
a(S'sleep'
p1091
S'702de530e220e530e340a0e5a090e730ea00049de5012083e230e130e000eb00f1'
p1092
L172L
tp1093
a(S'nanosleep'
p1094
S'9830e90053e3001a00ef017000e1008aa0e801e10e00a210e100ef017000e1008a00eb'
p1095
L120L
tp1096
a(S'fork'
p1097
g32
L376L
tp1098
a(S'_exit'
p1099
S'8000a0e300ef01700a0001e300ef017004000060e220eb30e710e210'
p1100
L84L
tp1101
a(S'getpid'
p1102
S'042de300ef049de4ff'
p1103
L20L
tp1104
a(S'getppid'
p1105
S'042de300ef049de4ff'
p1106
L20L
tp1107
a(S'setsid'
p1108
S'042de300ef049de40a1eff3100'
p1109
L28L
tp1110
a(S'sysconf'
p1111
g32
L1796L
tp1112
a(S'sched_yield'
p1113
S'042de300ef049de40a1eff31'
p1114
L28L
tp1115
a(S'__get_child_max'
p1116
S'10e9104de2300600e504eb20e500049d050352e1001ad0e8'
p1117
L72L
tp1118
a(S'__fxstat64'
p1119
S'8001a0e310ef017000a08a00e80060e220'
p1120
L56L
tp1121
a(S'open'
p1122
S'0e00e908e520e530e210e5001a00e1000a00e5001500e370e500ef017000e1008a9de530e100290010'
p1123
L284L
tp1124
a(S'read'
p1125
S'a0412de50006001a70e300ef017000e1008aa0e801e140a0eb70e310e130e100ef017000e1008a00eb'
p1126
L128L
tp1127
a(S'write'
p1128
S'a0412de50006001aa0ef017000e1008aa0e801e140a0eb70e310e130e100ef017000e1008a00eb'
p1129
L128L
tp1130
a(S'lseek64'
p1131
S'b02de5d003a0e530e530e300ef01700800c01100019de530e1001ad0e80060e220eb10e330e3'
p1132
L120L
tp1133
a(S'fcntl'
p1134
S'0e00e90c9fe510e520e260a0e520e500039f976f00ea030808080808c400540308080808080808080808080808080808080808084c53034c5303c86032e530e500b0d4b2d40c94e51fa0e13fa0e1e1e1c053001a00e210e300ef017000000095e500e1001a'
p1135
L800L
tp1136
a(S'close'
p1137
S'9030e90053e3001a70e300ef017000e1008aa0e8c80670e330e100ef017000e1008a00eb'
p1138
L112L
tp1139
a(S'chdir'
p1140
S'042de300ef049de40a1eff'
p1141
L28L
tp1142
a(S'getcwd'
p1143
S'149fe54f2de5d000a0e5001a009d001a03eb0a00a0b300e5ea00e2001a000aa011'
p1144
L1756L
tp1145
a(S'readlink'
p1146
S'042de300ef049de40a1eff'
p1147
L28L
tp1148
a(S'unlink'
p1149
S'042de300ef049de40a1eff'
p1150
L28L
tp1151
a(S'__close_nocancel'
p1152
S'800670e300ef017000a08a00e80060e220'
p1153
L48L
tp1154
a(S'__fcntl64_nocancel_adjusted'
p1155
S'a89fe5402de5d00951e3c0dde300ef017000a08a9de530e100190014'
p1156
L176L
tp1157
a(S'__fcntl64_nocancel'
p1158
S'0e00e90c4de230e520e530e5'
p1159
L80L
tp1160
a(S'__open_nocancel'
p1161
S'0e00e98ce520e530e210e5001ae500e1000ae06800ef017000a08a9de5200251e1001ad0e81effe100e500ea60e220eb30e310'
p1162
L160L
tp1163
a(S'__openat_nocancel'
p1164
S'0c2de984e520e530e2c0709fe5c00d70e500ef017000a08a9de5200251e1001a'
p1165
L152L
tp1166
a(S'__openat64_nocancel'
p1167
S'0c2de988e520e530e2c0749fe5c00e000a28e500ef017000a08a9de5200251e1001a'
p1168
L156L
tp1169
a(S'__read_nocancel'
p1170
S'8003e300ef017000a08a00e80060e220'
p1171
L48L
tp1172
a(S'__write_nocancel'
p1173
S'8004a0ef017000a08a00e80060e220'
p1174
L48L
tp1175
a(S'getrlimit'
p1176
S'80bf00ef017000a08a00e80060e220'
p1177
L48L
tp1178
a(S'sbrk'
p1179
S'702de550a0e500000a93e5000f1a000b001400053033001530e330e398'
p1180
L184L
tp1181
a(S'ioctl'
p1182
S'042de300ef049de40a1eff31'
p1183
L28L
tp1184
a(S'getpagesize'
p1185
S'209fe500e3ff11402de520e500'
p1186
L40L
tp1187
a(S'getdtablesize'
p1188
S'10e9104de2300700e5'
p1189
L72L
tp1190
a(S'select'
p1191
S'b09fe5412de500001a409de570e300ef017000e1008aa0e801e150a0e1060004a0e120e580'
p1192
L144L
tp1193
a(S'mmap'
p1194
S'b02de5ca2ca0e3001a409de570e300ef01700a0003a0e81610e730e398'
p1195
L108L
tp1196
a(S'mmap64'
p1197
S'b02de5e0e54aa0e34aa0e34094e1001aa0e1409de570e300ef01700a0003a0e81610e730e398'
p1198
L124L
tp1199
a(S'munmap'
p1200
S'042de300ef049de40a1eff'
p1201
L28L
tp1202
a(S'mprotect'
p1203
S'042de300ef049de40a1eff'
p1204
L28L
tp1205
a(S'madvise'
p1206
S'042de300ef049de40a1eff'
p1207
L28L
tp1208
a(S'trecurse'
p1209
S'0490e5402de340a0e160a01a30e3000aa0e110e100140004a0e110e10009000620e130e340bde130e340bde120e1'
p1210
L168L
tp1211
a(S'tdestroy_recurse'
p1212
S'702de100e100e3001a0008000094e5ffe100e8'
p1213
L84L
tp1214
a(S'maybe_split_for_insert.isra.0'
p1215
g32
L408L
tp1216
a(S'tsearch'
p1217
g32
L336L
tp1218
a(S'tfind'
p1219
S'0051e3402de160a01a00ea2fe1100050e3000a840540d4f4'
p1220
L80L
tp1221
a(S'tdelete'
p1222
S'5c352de2d000e230e230e5000a5096e550d5280002a0e130e370e3a0000096e5000550c230a501c3b360850053e3408414000093e500e13018000457e151a01a870721e220e3d00aa0e120e5f1'
p1223
L1380L
tp1224
a(S'twalk'
p1225
S'0050e3001eff0120'
p1226
L20L
tp1227
a(S'tdestroy'
p1228
S'0050e3ff'
p1229
L12L
tp1230
a(S'next_line'
p1231
S'f84f2de54093e570e180a0e120e110e176eb00080001e240870096e5004a003a000a'
p1232
L404L
tp1233
a(S'sysinfo_mempages'
p1234
S'702de150a0eb00015483a09aa0e300fa'
p1235
L84L
tp1236
a(S'get_nprocs'
p1237
S'ac32e9244de200e530e5'
p1238
L692L
tp1239
a(S'get_nprocs_conf'
p1240
g32
L216L
tp1241
a(S'get_phys_pages'
p1242
S'10e948d00094e500e500eb20e5000400389de500e240bd'
p1243
L68L
tp1244
a(S'get_avphys_pages'
p1245
S'10e948d00094e500e500eb20e5000400389de500e240bd'
p1246
L68L
tp1247
a(S'__getclktck'
p1248
S'0c9fe500e300'
p1249
L20L
tp1250
a(S'__init_misc'
p1251
S'702de2800055e3802f10eb30e3508050832070'
p1252
L64L
tp1253
a(S'mremap'
p1254
S'9000e570e300ef9000e3ff'
p1255
L32L
tp1256
a(S'prctl'
p1257
S'9000e570e300ef9000e3ff'
p1258
L32L
tp1259
a(S'sysinfo'
p1260
S'042de300ef049de40a1eff31'
p1261
L28L
tp1262
a(S'accept'
p1263
S'a0412de50006001a00ef017000e1008aa0e801e140a0eb70e510e130e100ef017000e1008a00eb'
p1264
L128L
tp1265
a(S'bind'
p1266
S'042de500ef049de40a1eff31'
p1267
L28L
tp1268
a(S'connect'
p1269
S'a0412de50006001a00ef017000e1008aa0e801e140a0eb70e510e130e100ef017000e1008a00eb'
p1270
L128L
tp1271
a(S'getsockname'
p1272
S'042de500ef049de40a1eff3100'
p1273
L28L
tp1274
a(S'getsockopt'
p1275
S'9000e570e500ef9000e3ff3109'
p1276
L32L
tp1277
a(S'listen'
p1278
S'042de300ef049de40a1eff3108'
p1279
L28L
tp1280
a(S'recv'
p1281
S'a89fe5412de500001a00ef017000e1008aa0e801e150a0e100eb10e130e100e500ef017000e1008a00eb'
p1282
L136L
tp1283
a(S'recvfrom'
p1284
S'b8412de500001a409de5509de57fe300ef017000e1008aa0e801e150a0e100eb20e110e5509de580497fe300ef017000e1008a00eb'
p1285
L152L
tp1286
a(S'send'
p1287
S'a89fe5412de500001a00ef017000e1008aa0e801e150a0e100eb10e130e100e500ef017000e1008a00eb'
p1288
L136L
tp1289
a(S'sendto'
p1290
S'b8412de500001a409de5509de570e500ef017000e1008aa0e801e150a0e100eb20e110e5509de5805470e500ef017000e1008a00eb'
p1291
L152L
tp1292
a(S'setsockopt'
p1293
S'9000e570e500ef9000e3ff3108'
p1294
L32L
tp1295
a(S'socket'
p1296
S'042de500ef049de40a1eff3100'
p1297
L28L
tp1298
a(S'__libc_alloca_cutoff'
p1299
S'042de192'
p1300
L12L
tp1301
a(S'__lll_lock_wait_private'
p1302
g32
L140L
tp1303
a(S'__libc_enable_asynccancel'
p1304
g32
L188L
tp1305
a(S'__libc_disable_asynccancel'
p1306
S'02101eff11412deb6e40e254100046e270e310e140a0e5000500e3e0e1'
p1307
L188L
tp1308
a(S'__register_atfork'
p1309
g32
L400L
tp1310
a(S'__unregister_atfork'
p1311
g32
L380L
tp1312
a(S'__run_fork_handlers'
p1313
g32
L368L
tp1314
a(S'clock_gettime'
p1315
S'0150e3402de5009a7000a08a00e8017000a09a60e220eb30e310ea60e220'
p1316
L100L
tp1317
a(S'__stack_chk_fail_local'
p1318
S'10e900a0'
p1319
L16L
tp1320
a(S'__fortify_fail_abort'
p1321
S'80488048609fe550a0e100eaa0eb0001a001'
p1322
L84L
tp1323
a(S'__fortify_fail'
p1324
S'00a0e9e3'
p1325
L16L
tp1326
a(S'inet_aton'
p1327
g32
L48L
tp1328
a(S'inet_addr'
p1329
S'10e9084de23004'
p1330
L28L
tp1331
a(S'_dl_debug_initialize'
p1332
S'0051e331155c301093e5000c000050e3000a20e520e010e720e500e1ffe120e32005'
p1333
L112L
tp1334
a(S'do_tunable_update_val'
p1335
S'0890e500000a0000e160c141c0000a00000a0001a0330002560130920053e3301130151effe1000510b3000730e030a201a0113015050001a0330002560130920053e3'
p1336
L216L
tp1337
a(S'tunable_initialize'
p1338
S'0890e5402de320e240a0e1200501a0e395000d00e110e1'
p1339
L76L
tp1340
a(S'__tunable_set_val'
p1341
S'089fe50180e0'
p1342
L16L
tp1343
a(S'__tunables_init'
p1344
S'5c352de5d00053e3b0e1011a004f000a409be500000a00e5608b3d800058e3010aa0e2800053e300fa'
p1345
L1380L
tp1346
a(S'__tunable_get_val'
p1347
S'80e1c00043e0e1e0e0e5000ef19f9703000c03508d00030043e0e1e0e0e5e0e53083e1100052e3101200308300122fe1e0e0e1e042cee140c1'
p1348
L140L
tp1349
a(S'_dl_aux_init'
p1350
S'0090e523e300019fe54f2de5d030'
p1351
L948L
tp1352
a(S'_dl_non_dynamic_init'
p1353
g32
L2044L
tp1354
a(S'__libc_init_secure'
p1355
S'4830e5001eff11402deb40a0eb00000a30e58000e16e000054e000'
p1356
L80L
tp1357
a(S'_dl_mcount_wrapper'
p1358
S'042de100e49200'
p1359
L20L
tp1360
a(S'_dl_mcount_wrapper_check'
p1361
S'1c9fe5e0e530e3'
p1362
L36L
tp1363
a(S'_dl_discover_osversion'
p1364
S'30e94000eb00c202001a40a0e130e530ff030952e3008ac00181ff02095ee3008ac0038330e2e0e200f8'
p1365
L264L
tp1366
a(S'__libc_init_first'
p1367
g32
L148L
tp1368
a(S'__syscall_error'
p1369
S'0060e210e10ae3e0e1'
p1370
L48L
tp1371
a(S'__gconv_open'
p1372
g32
L1116L
tp1373
a(S'__gconv'
p1374
g32
L476L
tp1375
a(S'__gconv_alias_compare'
p1376
S'0091e500'
p1377
L12L
tp1378
a(S'derivation_compare'
p1379
S'702de150a0e510eb0070bde5001c'
p1380
L48L
tp1381
a(S'__gconv_get_modules_db'
p1382
S'049fe500'
p1383
L12L
tp1384
a(S'__gconv_get_alias_db'
p1385
S'049fe500'
p1386
L12L
tp1387
a(S'__gconv_release_step'
p1388
S'702de100e3000a300053e3305420e55092e500055025e1fd'
p1389
L132L
tp1390
a(S'find_derivation'
p1391
g32
L2540L
tp1392
a(S'__gconv_compare_alias'
p1393
g32
L252L
tp1394
a(S'__gconv_find_transform'
p1395
g32
L904L
tp1396
a(S'__gconv_close_transform'
p1397
g32
L248L
tp1398
a(S'insert_module'
p1399
g32
L232L
tp1400
a(S'detect_conflict'
p1401
S'4830e90054e3000a50a0ea94a50054e3000a10b5'
p1402
L80L
tp1403
a(S'add_module.isra.0'
p1404
g32
L900L
tp1405
a(S'add_alias2.isra.1.part.2'
p1406
g32
L108L
tp1407
a(S'__gconv_get_path'
p1408
S'684f2de2d00093e530e523e340a0e5000500e3e0e1'
p1409
L880L
tp1410
a(S'__gconv_read_conf'
p1411
S'4424e54f2debb0e234e5d00092e520e530e130e519eb00f60a34e530e3000a20e500f79fe520080b0493e510e530e3d00d00e5dceb20e5dceb13e19f'
p1412
L1100L
tp1413
a(S'__gconv_get_builtin_trans'
p1414
g32
L160L
tp1415
a(S'__gconv_btwoc_ascii'
p1416
S'80e30013ff'
p1417
L16L
tp1418
a(S'__gconv_transform_internal_ucs4'
p1419
g32
L1124L
tp1420
a(S'__gconv_transform_ucs4_internal'
p1421
g32
L1440L
tp1422
a(S'__gconv_transform_internal_ucs4le'
p1423
g32
L1096L
tp1424
a(S'__gconv_transform_ucs4le_internal'
p1425
g32
L1452L
tp1426
a(S'__gconv_transform_ascii_internal'
p1427
g32
L736L
tp1428
a(S'__gconv_transform_internal_ascii'
p1429
g32
L1900L
tp1430
a(S'__gconv_transform_internal_utf8'
p1431
g32
L2820L
tp1432
a(S'__gconv_transform_utf8_internal'
p1433
g32
L3196L
tp1434
a(S'__gconv_transform_ucs2_internal'
p1435
g32
L1740L
tp1436
a(S'__gconv_transform_internal_ucs2'
p1437
g32
L2496L
tp1438
a(S'__gconv_transform_ucs2reverse_internal'
p1439
g32
L1776L
tp1440
a(S'__gconv_transform_internal_ucs2reverse'
p1441
g32
L2560L
tp1442
a(S'__gconv_transliterate'
p1443
g32
L1092L
tp1444
a(S'find_module_idx'
p1445
g32
L232L
tp1446
a(S'find_module'
p1447
g32
L244L
tp1448
a(S'__gconv_get_cache'
p1449
S'049fe500'
p1450
L12L
tp1451
a(S'__gconv_load_cache'
p1452
g32
L464L
tp1453
a(S'__gconv_compare_alias_cache'
p1454
S'9c30e994409fe5d00094e500300a50a0e260a0e1'
p1455
L164L
tp1456
a(S'__gconv_lookup_cache'
p1457
g32
L1136L
tp1458
a(S'__gconv_release_cache'
p1459
S'0c9fe530e3ff01b7'
p1460
L20L
tp1461
a(S'known_compare'
p1462
S'0091e500'
p1463
L12L
tp1464
a(S'do_release_shlib'
p1465
S'702de240a0e340a0e38000e520e5000c0002830070bde200048570bde50070bdeb408570bde300da30048280aa20e500'
p1466
L144L
tp1467
a(S'__gconv_find_shlib'
p1468
g32
L400L
tp1469
a(S'__gconv_release_shlib'
p1470
S'0c9fe510e500'
p1471
L20L
tp1472
a(S'_nl_postload_ctype'
p1473
S'68402d'
p1474
L12L
tp1475
a(S'__current_locale_name'
p1476
S'1c9fe5e0e520e1'
p1477
L20L
tp1478
a(S'__ctype_b_loc'
p1479
S'109fe5e0e5'
p1480
L12L
tp1481
a(S'__ctype_toupper_loc'
p1482
S'149fe5e0e5'
p1483
L12L
tp1484
a(S'__ctype_tolower_loc'
p1485
S'149fe5e0e5'
p1486
L12L
tp1487
a(S'__ctype_init'
p1488
S'4030e5'
p1489
L12L
tp1490
a(S'__setfpucw'
p1491
S'389fe530e520e230012aee209fe50ae300e330e000e1ff012aee1eff'
p1492
L64L
tp1493
a(S'__sigsetjmp'
p1494
S'6cc0c0009ce5c00223048c02e0304430e530e720e3000a8b05a1ecec02ecec02ecec02ecec02ecec0300'
p1495
L116L
tp1496
a(S'__sigjmp_save'
p1497
S'0051e3402de1001a1110a0e12f844d79eb1f6fe112'
p1498
L56L
tp1499
a(S'_quicksort'
p1500
S'ecc39fe54f2de5df0051e300e5519de5000a70e10000a0e221e040a0e120e5009a'
p1501
L1012L
tp1502
a(S'__add_to_environ'
p1503
g32
L1092L
tp1504
a(S'setenv'
p1505
S'0050e2402d0a30e5000b0001e110e140a0eb2004000630e100e8149fe520e763'
p1506
L88L
tp1507
a(S'unsetenv'
p1508
g32
L344L
tp1509
a(S'clearenv'
p1510
g32
L252L
tp1511
a(S'secure_getenv'
p1512
S'149fe530e3001a'
p1513
L28L
tp1514
a(S'read_int'
p1515
S'0090e5402de5509fe541e03041e220e530e5300953e3008a00f7'
p1516
L104L
tp1517
a(S'group_number'
p1518
S'f84f2de570e100ff00fd0001e1909de5009abde1b0e0a0a0eb10e1808de000018a06202ae0e2000152e20001e2001a00e6ff0144e00014000245e200e0c0c002e1200285005ce3'
p1519
L260L
tp1520
a(S'_i18n_number_rewrite'
p1521
g32
L596L
tp1522
a(S'_IO_helper_overflow'
p1523
S'd0c0402de0d000e150a00a10e530e0300c53e1009aa0e1ffe130037300e1008a000610eb3014841894e500e1208550c385009abde587eb20e2'
p1524
L204L
tp1525
a(S'printf_positional'
p1526
g32
L8116L
tp1527
a(S'vfprintf'
p1528
g32
L8532L
tp1529
a(S'buffered_vfprintf'
p1530
g32
L616L
tp1531
a(S'hack_digit'
p1532
S'0090e5402de3d002000490e5004a000a30e1001090e55090e5000a002700ca90e510e510e100e160001094e5200243e001e56091e500108439000c94e5310395e760860051e3311a10030004330141e20009000051e310f7ff01a0e13070bde330e100eb0004001094e5201084038200e2800aa0e210e16195e763eb608604850600e2800053e330088060a0da00e280d4'
p1533
L376L
tp1534
a(S'_i18n_number_rewrite_0'
p1535
g32
L596L
tp1536
a(S'__guess_grouping.part.0'
p1537
S'10e900d10530e54084ff53e3000a00050003a0e0'
p1538
L88L
tp1539
a(S'__printf_fp_l'
p1540
g32
L8624L
tp1541
a(S'__printf_fp'
p1542
S'30e900e1409fe747'
p1543
L20L
tp1544
a(S'__guess_grouping'
p1545
S'00d10143e230e200000000a0'
p1546
L32L
tp1547
a(S'__printf_fphex'
p1548
S'0d4f2de331e2b0e130e21f9fe530e510e530e110e5001a46'
p1549
L5280L
tp1550
a(S'register_printf_modifier'
p1551
S'0090e5412de20000910200ff54e3008ab50054e3'
p1552
L436L
tp1553
a(S'__handle_registered_modifier_mb'
p1554
g32
L228L
tp1555
a(S'__handle_registered_modifier_wc'
p1556
g32
L232L
tp1557
a(S'fprintf'
p1558
S'0e00e90c4de230e1c030e5e6'
p1559
L44L
tp1560
a(S'read_int_0'
p1561
S'0090e5c030e902e00492e54082100951e3008a001a000600ca8330e00003810892e54082300953e3008ab23043e2000530e3'
p1562
L168L
tp1563
a(S'group_number_0'
p1564
g32
L188L
tp1565
a(S'_i18n_number_rewrite_1'
p1566
g32
L324L
tp1567
a(S'_IO_helper_overflow_0'
p1568
S'5c30e90c93e5d00455e160a0e1000ae520e530e0300153e1109aa0e520e130037300a08ae541a0e520048020eb30e54042e0408320e120070085009abde100e241bdea'
p1569
L236L
tp1570
a(S'printf_positional_0'
p1571
g32
L8492L
tp1572
a(S'vfwprintf'
p1573
g32
L8816L
tp1574
a(S'buffered_vfprintf_0'
p1575
g32
L640L
tp1576
a(S'funlockfile'
p1577
g32
L128L
tp1578
a(S'read_int_1'
p1579
S'0090e5402de5509fe541e03041e220e530e5300953e3008a00f7'
p1580
L104L
tp1581
a(S'__parse_one_specmb'
p1582
g32
L2080L
tp1583
a(S'read_int_2'
p1584
S'0090e5c030e902e00492e54082100951e3008a001a000600ca8330e00003810892e54082300953e3008ab23043e2000530e3'
p1585
L168L
tp1586
a(S'__parse_one_specwc'
p1587
g32
L2096L
tp1588
a(S'_IO_file_doallocate'
p1589
g32
L324L
tp1590
a(S'fputs'
p1591
g32
L388L
tp1592
a(S'_IO_wfile_doallocate'
p1593
S'1c90e5402de350a00a10e500e32003'
p1594
L108L
tp1595
a(S'fwrite'
p1596
S'f84f2de0000a4093e550a0e270e18017001a93e528eb30e2000e000a10e130e1001aa0e3e0e1'
p1597
L488L
tp1598
a(S'getdelim'
p1599
S'0051e300'
p1600
L740L
tp1601
a(S'_IO_getline_info'
p1602
g32
L372L
tp1603
a(S'_IO_getline'
p1604
S'042de2e0e5c004'
p1605
L36L
tp1606
a(S'_IO_padn'
p1607
g32
L288L
tp1608
a(S'_IO_wpadn'
p1609
g32
L284L
tp1610
a(S'save_for_wbackup.isra.0'
p1611
S'0091e54f2de1b0e530e5a0a0e000014ae011e251a011200ae0e520e140a0e3'
p1612
L468L
tp1613
a(S'_IO_least_wmarker'
p1614
S'5c20e500e30040010120e50002a0e3'
p1615
L56L
tp1616
a(S'_IO_switch_to_main_wget_area'
p1617
S'0090e530e3e0e5c00893e520e5e0e5c0088320'
p1618
L60L
tp1619
a(S'_IO_switch_to_wbackup_area'
p1620
S'0090e530e3e0e510e5c02093e5e0e510e520e5'
p1621
L60L
tp1622
a(S'_IO_wsetb'
p1623
g32
L92L
tp1624
a(S'_IO_wdefault_pbackfail'
p1625
g32
L360L
tp1626
a(S'_IO_wdefault_finish'
p1627
S'5c10e91891e50002003c94e5501311003094e500040000a0e530e3'
p1628
L128L
tp1629
a(S'_IO_wdefault_uflow'
p1630
S'702de55090e530e0300153e140a09aa0e1005c2004831015bf'
p1631
L84L
tp1632
a(S'__woverflow'
p1633
S'6c30e900e160a00a9fe55094e530e0300153e1009aa0e140bde110eb'
p1634
L92L
tp1635
a(S'_IO_wdefault_xsputn'
p1636
g32
L216L
tp1637
a(S'_IO_wdoallocbuf'
p1638
S'5c10e5001eff1130e900e1001a30e1001094e500e230e240bd'
p1639
L84L
tp1640
a(S'_IO_wdefault_doallocate'
p1641
S'10e902a0eb100500e329eb00e8'
p1642
L56L
tp1643
a(S'_IO_switch_to_wget_mode'
p1644
S'5c30e90c93e540a0e1009ae00c93e5ffe1001094e520e50ce3001a93e500e10035008320e500e5800883'
p1645
L132L
tp1646
a(S'_IO_free_wbackup_area'
p1647
S'0090e530e3402de1000a10e3202893e500e500e5c0fb73eb30208320e5'
p1648
L100L
tp1649
a(S'__wuflow'
p1650
S'6c30e300ba00e1000a3027001ae520e50028000094e50ce3000a00e52ce3200893e5c00883209528000052e3000a93e510e6'
p1651
L336L
tp1652
a(S'__wunderflow'
p1653
S'6c30e300ba00e1000a3027001ae520e50028000094e50ce3000a00e52ce3200893e5c0008300e5008a202520e2000050e3001a5094e530e0300153e1009aa0e804a0eb00d3ff00e070bde580f501eb00f7ff6c30'
p1654
L320L
tp1655
a(S'_IO_wdefault_xsgetn'
p1656
g32
L204L
tp1657
a(S'_IO_sputbackwc'
p1658
S'5c30e900e100e20004000150e120008320e530e0300053e1009aa0e100009415008430'
p1659
L132L
tp1660
a(S'_IO_sungetwc'
p1661
S'5c30e90893e540a0e1009a42e210e3300084309fe55090e530e0300153e1009ae004a0e1'
p1662
L116L
tp1663
a(S'_IO_adjust_wcolumn'
p1664
S'042de0000900041ee5300a5ce3001a00ea5ce3000a00fa'
p1665
L88L
tp1666
a(S'_IO_init_wmarker'
p1667
S'0091e5402de340a0e1101ae50ce330150243e031e520e5508470bde1'
p1668
L92L
tp1669
a(S'_IO_wmarker_delta'
p1670
S'0490e5000a000093e520e330150890e5304331e0ffe100e3ff'
p1671
L64L
tp1672
a(S'_IO_seekwmark'
p1673
S'0491e5002500e500042de230ba0893e5000ae0e51ce310e520e5c0288320e000e3'
p1674
L172L
tp1675
a(S'_IO_unsave_wmarkers'
p1676
S'3090e50000a0150053e3ff01'
p1677
L32L
tp1678
a(S'do_encoding'
p1679
S'2490e520e3001a00e50000a0e100e3ff'
p1680
L44L
tp1681
a(S'do_always_noconv'
p1682
S'00a0'
p1683
L8L
tp1684
a(S'do_max_length'
p1685
S'2490e500'
p1686
L12L
tp1687
a(S'do_in'
p1688
g32
L248L
tp1689
a(S'do_unshift'
p1690
g32
L216L
tp1691
a(S'do_out'
p1692
g32
L248L
tp1693
a(S'do_length'
p1694
g32
L192L
tp1695
a(S'_IO_fwide'
p1696
g32
L388L
tp1697
a(S'__libc_scratch_buffer_grow_preserve'
p1698
g32
L156L
tp1699
a(S'__libc_scratch_buffer_set_array_size'
p1700
S'702de120e1c00051e3c001a0e10112000495e50001a02a00e1000a70eb00eb3001a018300503a0e8d8'
p1701
L196L
tp1702
a(S'__libc_dynarray_at_failure'
p1703
S'2c9fe5e0e5d000'
p1704
L44L
tp1705
a(S'__libc_dynarray_emplace_enlarge'
p1706
S'0490e5412de3001a0012009642850055e3001aa0e100e10001e1000a10eb80000a30e9'
p1707
L228L
tp1708
a(S'strerror_r'
p1709
g32
L372L
tp1710
a(S'strnlen'
p1711
S'0051e3000a102300e3000a30e5000180001a00ea8300000a00e3201a003000c8c802a0e4c0000a53e500000ac000000ac000000ac000000a0003a08a0010a0e120e1000260802fe10002a0ea51e110ea51e110ea51e110ea'
p1712
L292L
tp1713
a(S'strrchr'
p1714
S'702de20000e160a01a00eaa0e110eb00f8'
p1715
L80L
tp1716
a(S'strtok_r'
p1717
g32
L116L
tp1718
a(S'memchr'
p1719
S'0052e3000a00e3402de2000a30e50070bde200ea0000d00183008003a01a00e80352e344040e4084048416009a9fe530e010e530e100e1001a8000ea8c04230610e100e1001a42e2000ca08a00e0ff00d00e0070bde030ea830070bde1001a'
p1720
L268L
tp1721
a(S'wcslen'
p1722
S'0090e5001e000a90e5001d30e3000a30e300ea820000a00a93e500e3ff0110e2001eff0193e530e3101a00e100e100e100e100'
p1723
L160L
tp1724
a(S'wmemcpy'
p1725
S'02a0'
p1726
L8L
tp1727
a(S'wmemmove'
p1728
S'02a0'
p1729
L8L
tp1730
a(S'wmemset'
p1731
S'0352e3009aa0e20010e510e510e510e5308a42e231e230e33201000083ff0100048310e10000a001'
p1732
L120L
tp1733
a(S'btowc'
p1734
g32
L404L
tp1735
a(S'wcrtomb'
p1736
S'bc00'
p1737
L88L
tp1738
a(S'wcsrtombs'
p1739
S'90c2'
p1740
L664L
tp1741
a(S'wcsnlen'
p1742
S'0051e3000a30e3000a0022000490e50023000251e3000a30e300ea2f0193e500ff0151e20001c01eff01000382ff0193e520e3ff01001083000ac0005ce3'
p1743
L192L
tp1744
a(S'wcschrnul'
p1745
S'0090e500035111ff01b00053e300fb'
p1746
L36L
tp1747
a(S'rewinddir'
p1748
g32
L212L
tp1749
a(S'readdir64'
p1750
S'6031e9048050a0e11ceb10e740a0e5000500e3e0e1'
p1751
L360L
tp1752
a(S'fdopendir'
p1753
S'30e9744de230e140a0e100e57eeb001800'
p1754
L216L
tp1755
a(S'uname'
p1756
S'042de300ef049de40a1eff3191'
p1757
L28L
tp1758
a(S'getuid'
p1759
S'042de300ef049de4ff'
p1760
L20L
tp1761
a(S'geteuid'
p1762
S'042de300ef049de4ff'
p1763
L20L
tp1764
a(S'getgid'
p1765
S'042de300ef049de4ff'
p1766
L20L
tp1767
a(S'getegid'
p1768
S'042de300ef049de4ff'
p1769
L20L
tp1770
a(S'__lxstat64'
p1771
S'8001a0e310ef017000a08a00e80060e220'
p1772
L56L
tp1773
a(S'__fxstatat64'
p1774
S'0350e3402d1a00e510e130ef01700e009a60e220e31ceb30e1801620e71ceb10e320ea'
p1775
L112L
tp1776
a(S'lseek'
p1777
g32
L184L
tp1778
a(S'isatty'
p1779
S'10e940d00094e510e500eb20e5000300106fe102e280'
p1780
L64L
tp1781
a(S'__open64_nocancel'
p1782
S'0e00e990409fe520e530e210e5001a9fe500e1000a28e370e500ef017000a08a9de5200251e1001ad0e81effe100e500ea60e220eb30e310'
p1783
L164L
tp1784
a(S'tcgetattr'
p1785
S'b02de5d00095e530e510e170e300ef017000e1008a001400089de520e520e0c0348310e520e500e520e510e3c00c'
p1786
L204L
tp1787
a(S'brk'
p1788
S'90402de170e300ef017006008a9fe5000082308a00e8389fe520e240e0401beb408100a0eaa0e71b'
p1789
L108L
tp1790
a(S'wctrans'
p1791
S'789fe5412de760a0eb30e54097e530e500120000e300ea85018030e7000a0004a0e170eb0004a01ae550850500e8'
p1792
L128L
tp1793
a(S'towctrans'
p1794
S'0051e3ff0130e533e1ff2121e3ff01c030e031e70010911502810380ff'
p1795
L92L
tp1796
a(S'__readonly_area'
p1797
g32
L476L
tp1798
a(S'is_dst'
p1799
S'702de100e170eb30e50000e1000a20e100eb00020000e300e820c2301953e3'
p1800
L168L
tp1801
a(S'is_trusted_path_normalize'
p1802
S'0051e3000a10e34b2de2d00d30e500eaa0e3000a0001d00180'
p1803
L368L
tp1804
a(S'add_name_to_object.isra.4'
p1805
g32
L188L
tp1806
a(S'lose.isra.6'
p1807
S'80017100e170e18010e5000a00eb00000a700000b5'
p1808
L120L
tp1809
a(S'_dl_map_object_from_fd.constprop.13'
p1810
g32
L3436L
tp1811
a(S'check_arm_attributes_hfabi.constprop.15'
p1812
g32
L768L
tp1813
a(S'open_verify.isra.9.constprop.14'
p1814
g32
L1560L
tp1815
a(S'open_path.isra.10'
p1816
g32
L1308L
tp1817
a(S'add_path.isra.3.constprop.16'
p1818
S'01711eff01412de550a0e170e300ea93e500e310328310e50081e500109ce5'
p1819
L196L
tp1820
a(S'_dl_dst_count'
p1821
g32
L144L
tp1822
a(S'_dl_dst_substitute'
p1823
g32
L360L
tp1824
a(S'expand_dynamic_string_token'
p1825
g32
L200L
tp1826
a(S'fillin_rpath'
p1827
g32
L700L
tp1828
a(S'cache_rpath.part.12'
p1829
S'088221e3000ac13490e5c0509ee500d00790850490e5001a20e700040000e000a0e5d0e809a0e150a0eb70e2000a30e50048000a20e30001e500e3'
p1830
L476L
tp1831
a(S'_dl_init_paths'
p1832
g32
L624L
tp1833
a(S'_dl_map_object'
p1834
g32
L2148L
tp1835
a(S'_dl_rtld_di_serinfo'
p1836
g32
L436L
tp1837
a(S'check_match'
p1838
g32
L416L
tp1839
a(S'do_lookup_x'
p1840
g32
L2752L
tp1841
a(S'_dl_lookup_symbol_x'
p1842
g32
L2892L
tp1843
a(S'_dl_setup_hash'
p1844
S'5031e3000a93e5402de521e54091e5c000140010810442e0c10c91e511e531e5800053e3ff0193e520e521e531e130e310e507'
p1845
L152L
tp1846
a(S'_dl_add_to_namespace_list'
p1847
S'b49fe5402de350a0e1000a00e130e000e120e3001a00ea92e500fb'
p1848
L188L
tp1849
a(S'_dl_new_object'
p1850
g32
L600L
tp1851
a(S'relocate_pc24.13574.isra.0'
p1852
g32
L296L
tp1853
a(S'_dl_try_allocate_static_tls'
p1854
S'4432e3000a90e530e10020008c9fe5c200e56061e23030e0509fe530e012e0c0015ce1003a90e532e531e510e2000a9fe530e100e803a0e331e5801effe100e3'
p1855
L184L
tp1856
a(S'_dl_allocate_static_tls'
p1857
S'4432e900e1000a'
p1858
L52L
tp1859
a(S'_dl_nothread_init_static_tls'
p1860
S'4432e93494e512'
p1861
L24L
tp1862
a(S'_dl_protect_relro'
p1863
S'6830e512e530e020020102030153e1ff01402de040a0e300eb00109fe5'
p1864
L88L
tp1865
a(S'_dl_reloc_bad_type'
p1866
S'5030e5d001e150a0e000eb20e130e2400403d204d200a0e110e5c002c000'
p1867
L88L
tp1868
a(S'_dl_relocate_object'
p1869
g32
L7392L
tp1870
a(S'_dl_important_hwcaps'
p1871
g32
L2128L
tp1872
a(S'_dl_debug_vdprintf'
p1873
g32
L976L
tp1874
a(S'_dl_sysdep_read_whole_file'
p1875
S'702de1d002a0e1deeb5050e240e0020070'
p1876
L144L
tp1877
a(S'_dl_debug_printf'
p1878
S'0fe5e0e5d014'
p1879
L60L
tp1880
a(S'_dl_debug_printf_c'
p1881
S'0fe5e0e5d014'
p1882
L60L
tp1883
a(S'_dl_dprintf'
p1884
S'0e00e5d010'
p1885
L52L
tp1886
a(S'_dl_name_match_p'
p1887
S'702de110e14f'
p1888
L92L
tp1889
a(S'_dl_higher_prime_number'
p1890
S'7c9fe5c04111e010e711e1009a92e731e1003a10e031e000c3301a00e1c00c52e1'
p1891
L132L
tp1892
a(S'_dl_strtoul'
p1893
g32
L484L
tp1894
a(S'_dl_start_profile'
p1895
S'249fe54f2de2df0093e53f8020e131e0005b012a15e000e520e220e350e210e24044e2e0e3c0208300120020130152e3'
p1896
L1580L
tp1897
a(S'_dl_mcount'
p1898
g32
L944L
tp1899
a(S'allocate_dtv'
p1900
S'309fe5402de550a0e300e248'
p1901
L56L
tp1902
a(S'oom'
p1903
S'02a0e99bfc'
p1904
L24L
tp1905
a(S'_dl_next_tls_modid'
p1906
S'702de510e54091e500020001840081a89fe500e2001a0000a0e560840092e5300e000b0083e030e3000a00e1'
p1907
L208L
tp1908
a(S'_dl_count_modids'
p1909
S'709fe530e500020030e5ffe130e5e0e50000a00a10e33012210052e300e1'
p1910
L120L
tp1911
a(S'_dl_get_tls_static_info'
p1912
S'149fe530e520e530'
p1913
L28L
tp1914
a(S'_dl_allocate_tls_storage'
p1915
S'849fe530e900e500e200eb5050e2000a0d8010e0ed'
p1916
L140L
tp1917
a(S'_dl_allocate_tls_init'
p1918
g32
L572L
tp1919
a(S'_dl_allocate_tls'
p1920
S'0050e3402d0a40bdeabd'
p1921
L36L
tp1922
a(S'_dl_deallocate_tls'
p1923
g32
L100L
tp1924
a(S'_dl_tls_get_addr_soft'
p1925
S'4832e3000a2deb10e510e5000501e300e400e110e5000e002a9fe500e1c004000490e5100090e500'
p1926
L148L
tp1927
a(S'_dl_add_to_slotinfo'
p1928
S'c49fe5412de15290e54093e500ea45e0000a0002e130f7ff00e5608685e070e56084'
p1929
L204L
tp1930
a(S'_dl_get_origin'
p1931
g32
L404L
tp1932
a(S'_dl_scope_free'
p1933
S'702de1f4'
p1934
L204L
tp1935
a(S'_dl_make_stack_executable'
p1936
S'5430e900e130e52002000093e55c'
p1937
L80L
tp1938
a(S'_dl_runtime_resolve'
p1939
S'1f00e51010018100a0e8'
p1940
L36L
tp1941
a(S'_dl_runtime_profile'
p1942
g32
L192L
tp1943
a(S'length_mismatch'
p1944
S'02a0e9f4f9'
p1945
L24L
tp1946
a(S'_dl_exception_create'
p1947
g32
L128L
tp1948
a(S'_dl_exception_create_format'
p1949
S'0c2de9084de260a0e5000a00eb8000e530e3300a00ea000aa0e340e5908903ff7354e3908902e5'
p1950
L480L
tp1951
a(S'_dl_exception_free'
p1952
S'10e90890e543'
p1953
L36L
tp1954
a(S'_dl_cache_libcmp'
p1955
S'10e900d1005ee3000a30ff030952e32040020b00280028000180e0e510e3c0ef'
p1956
L240L
tp1957
a(S'_dl_load_cache_lookup'
p1958
S'209fe54f2de2d00093e540a0e3011a9fe580310001784d010a95e906300a4be220e380'
p1959
L1576L
tp1960
a(S'_dl_unload_cache'
p1961
S'10e90094e53003731094e559'
p1962
L44L
tp1963
a(S'_dl_tlsdesc_return'
p1964
S'0090e5ff'
p1965
L8L
tp1966
a(S'_dl_tlsdesc_undefweak'
p1967
S'0e10e3e0e1'
p1968
L28L
tp1969
a(S'do_dlopen'
p1970
S'4010e530e9104de220e530e110e530e300'
p1971
L60L
tp1972
a(S'dlerror_run'
p1973
S'30e91c4de230e510e300e210e2c0'
p1974
L52L
tp1975
a(S'__libc_dlclose'
p1976
S'00a0e5'
p1977
L12L
tp1978
a(S'__libc_dlsym'
p1979
S'10e9184de200e510e530'
p1980
L36L
tp1981
a(S'__libc_dlvsym'
p1982
S'30e900d22c4de2c00053e300e510e5000a10e5001b0000e310e530e5'
p1983
L284L
tp1984
a(S'do_dlsym_private'
p1985
S'702de1509fe5d00c92e4c00095e500e5e0e5c0c001'
p1986
L128L
tp1987
a(S'do_dlsym'
p1988
S'00a0e4402de3d000e100e53f8104'
p1989
L72L
tp1990
a(S'do_dlvsym'
p1991
S'00a0e4402de2d000e100e53f810c'
p1992
L72L
tp1993
a(S'__libc_dlsym_private'
p1994
S'10e9184de200e510e530'
p1995
L36L
tp1996
a(S'__libc_register_dl_open_hook'
p1997
S'10e900e1'
p1998
L16L
tp1999
a(S'__libc_dlopen_mode'
p2000
S'10e9184de200e510e5e0e530'
p2001
L40L
tp2002
a(S'fatal_error'
p2003
S'9cc001e11000e5e0e50080849fe540a0e350a0010042de6c609fe5c00003'
p2004
L164L
tp2005
a(S'_dl_signal_exception'
p2006
S'4030e900e1'
p2007
L20L
tp2008
a(S'_dl_signal_error'
p2009
S'10e900e1409fe7'
p2010
L20L
tp2011
a(S'_dl_catch_exception'
p2012
S'ccc0c81b4de2e0e1c0c118'
p2013
L52L
tp2014
a(S'_dl_catch_error'
p2015
g32
L48L
tp2016
a(S'__longjmp'
p2017
S'00a0e4409fe520e04094e720049ce4402403a0e1bc4c20e520e730e3000a8b05a1fcec02fcec02fcec02fcec02fcec01b001a0'
p2018
L128L
tp2019
a(S'__mpn_cmp'
p2020
S'0152e2004a0391e7e0e5e1e700072102a000100a00ea310c5ee1001a30f9'
p2021
L104L
tp2022
a(S'__mpn_divrem'
p2023
g32
L1744L
tp2024
a(S'__mpn_lshift'
p2025
S'0142e2402de750630252e260800500e1e2e1e1408104343ca0e10020e570e1'
p2026
L100L
tp2027
a(S'__mpn_rshift'
p2028
S'0052e300'
p2029
L132L
tp2030
a(S'__mpn_mul'
p2031
g32
L860L
tp2032
a(S'__mpn_mul_1'
p2033
S'02'
p2034
L60L
tp2035
a(S'__mpn_impn_mul_n_basecase'
p2036
g32
L260L
tp2037
a(S'__mpn_impn_mul_n'
p2038
S'0113'
p2039
L972L
tp2040
a(S'__mpn_impn_sqr_n_basecase'
p2041
S'0091e5472de38002e1008a000a0002c1c28320daa3e1'
p2042
L256L
tp2043
a(S'__mpn_impn_sqr_n'
p2044
S'0112'
p2045
L808L
tp2046
a(S'__mpn_mul_n'
p2047
S'10e9084de2000094e5c003a00a000b000dc1d0e2c0101b0094e5000f1ad010'
p2048
L152L
tp2049
a(S'__mpn_sub_n'
p2050
g32
L128L
tp2051
a(S'__mpn_submul_1'
p2052
S'00e470e540a0ea95e040ace25057e070e540840480538c0152e2'
p2053
L92L
tp2054
a(S'__mpn_extract_double'
p2055
S'30e9d0e5c001e05fa0e214e316c100c083e0e5c001810480000f1a0000'
p2056
L224L
tp2057
a(S'_itoa_word'
p2058
S'c0e500'
p2059
L200L
tp2060
a(S'_itoa'
p2061
g32
L1264L
tp2062
a(S'_fitoa_word'
p2063
S'702de5d014'
p2064
L112L
tp2065
a(S'_fitoa'
p2066
S'702de5d040e0e540'
p2067
L120L
tp2068
a(S'_itowa'
p2069
g32
L1224L
tp2070
a(S'snprintf'
p2071
S'0c2de9084de2c00ca0e520e500'
p2072
L44L
tp2073
a(S'_IO_strn_overflow'
p2074
S'1c90e5412de20000e170e1000a90e5608030e510e119eb608410e550840484148418e500'
p2075
L88L
tp2076
a(S'vsnprintf'
p2077
g32
L140L
tp2078
a(S'init'
p2079
S'389fe500080010e92c9fe500e3301220e8048320'
p2080
L64L
tp2081
a(S'__dlerror'
p2082
g32
L496L
tp2083
a(S'check_free.isra.0'
p2084
S'702de50070bde110e13beb0070bde1'
p2085
L60L
tp2086
a(S'_dlerror_run'
p2087
S'4431e90c4de260a0e570e1000a9fe500e14095e500000a00040008d40053e3001a30e530e5200c84d5'
p2088
L332L
tp2089
a(S'__libc_register_dlfcn_hook'
p2090
S'10e9b1'
p2091
L12L
tp2092
a(S'__dladdr'
p2093
S'00a0e10a'
p2094
L12L
tp2095
a(S'__dladdr1'
p2096
S'0153e3000a0000a00a20ea'
p2097
L36L
tp2098
a(S'dlinfo_doit'
p2099
S'10e90990e90953e3f19f972700ea06003000300030003000300090e50003a00a301094e520e58000a0e80c94e520e8ac11e540bdeaa0e522e58002a0e130'
p2100
L208L
tp2101
a(S'__dlinfo'
p2102
S'10e9184de200e5c000e520e5'
p2103
L48L
tp2104
a(S'dlmopen_doit'
p2105
S'0090e5402de3d014006020e5c00092e500e5c010e51000'
p2106
L124L
tp2107
a(S'__dlmopen'
p2108
S'10e9184de200e1c000e530e5'
p2109
L44L
tp2110
a(S'strerror'
p2111
S'00a0e900e1'
p2112
L104L
tp2113
a(S'strspn'
p2114
g32
L364L
tp2115
a(S'strsep'
p2116
S'702de500000a50a0e139eb30e72001'
p2117
L68L
tp2118
a(S'__getdents64'
p2119
S'80d9e300ef017000a08a00e80060e220'
p2120
L48L
tp2121
a(S'__xstat64'
p2122
S'8001a0e310ef017000a08a00e80060e220'
p2123
L56L
tp2124
a(S'profil_counter'
p2125
S'4410e500e9a330e020e138e11031203100'
p2126
L76L
tp2127
a(S'profil'
p2128
g32
L360L
tp2129
a(S'__profile_frequency'
p2130
S'049fe500'
p2131
L12L
tp2132
a(S'_dl_fixup'
p2133
S'7c90e5432de100e520e530e7c004e1201600008330e0100d003a00e80009000492e500e101a222e50000a0eb60a0e50001a01a00e330e500e5c004a0e520eb34e5000000149de50003a00a11e10001a0e5200320e530e2002f000a30e50000851c'
p2134
L532L
tp2135
a(S'_dl_profile_fixup'
p2136
g32
L600L
tp2137
a(S'add_to_global'
p2138
g32
L608L
tp2139
a(S'_dl_find_dso_for_object'
p2140
S'9830e90053e3000a50a0e500000a000a0005009a130a000500eb00054094e500'
p2141
L160L
tp2142
a(S'_dl_open'
p2143
g32
L420L
tp2144
a(S'_dl_show_scope'
p2145
S'f84f2de5b0e120e590a0e3001a30e530e50002a0e120e5e6eb31e3000a31e100000aa09fe570e5609fe510e1e6eb31e720e3000a40a0e500e710e50003000098e510e310eb31e230e500ed'
p2146
L284L
tp2147
a(S'dl_open_worker'
p2148
g32
L1600L
tp2149
a(S'remove_slotinfo'
p2150
S'702de120e00040a03a91e500190005'
p2151
L284L
tp2152
a(S'_dl_close_worker'
p2153
g32
L3452L
tp2154
a(S'_dl_close'
p2155
S'849fe5402de340a00ae500e510e2001a53e3000aa0eb30e38010e8389fe500f9'
p2156
L140L
tp2157
a(S'_dl_sort_maps'
p2158
S'0151e3ff91'
p2159
L644L
tp2160
a(S'_dl_unmap'
p2161
S'b090e511e110'
p2162
L20L
tp2163
a(S'_dl_addr'
p2164
S'309fe54f2de3d000e170e160a0e5000a03e100eb000001000490e521e530e500af000a20e5b0e510e5000491e520e110e5000ae5002d4190e5929fe5110444e210ea0004b40052e3'
p2165
L824L
tp2166
a(S'_dl_addr_inside_object'
p2167
S'0090e52f8010b0d20153e2003a402dea005421e722e3'
p2168
L104L
tp2169
a(S'__mpn_add_n'
p2170
g32
L128L
tp2171
a(S'__mpn_addmul_1'
p2172
S'00e45090e540a0ea94e05090e540ace270e4c00152e2'
p2173
L76L
tp2174
a(S'dlopen_doit'
p2175
S'0490e5402de331e300104de2001a40a0e520e500e5c0005020e3c00281be0010a0e500eb20e130e1'
p2176
L144L
tp2177
a(S'__dlopen'
p2178
S'10e9184de200e510e520e5'
p2179
L40L
tp2180
a(S'__dlclose'
p2181
S'00a0e979'
p2182
L16L
tp2183
a(S'dlsym_doit'
p2184
S'10e90700eb00'
p2185
L24L
tp2186
a(S'__dlsym'
p2187
S'30e96c409fe5d00094e50000e5000ae500e200'
p2188
L56L
tp2189
a(S'dlvsym_doit'
p2190
S'10e90feb00'
p2191
L24L
tp2192
a(S'__dlvsym'
p2193
S'30e9709fe5d000'
p2194
L60L
tp2195
a(S'setitimer'
p2196
S'042de300ef049de40a1eff'
p2197
L28L
tp2198
a(S'_dl_build_local_scope'
p2199
S'702de110f85191e530e330e331e5000a95e560a0e350850c009831e500e3000ab50051e3'
p2200
L120L
tp2201
a(S'openaux'
p2202
S'10e90090e5d09821e530031204'
p2203
L68L
tp2204
a(S'_dl_map_object_deps'
p2205
S'82e04f2de1b0e2de0c4de2c0c09801e5d00d00e300e2e0e3006c34e501e514e948020a41e2418104b10c03040308039801e50000e300e201e5'
p2206
L3220L
tp2207
a(S'call_init.part.0'
p2208
S'98c1'
p2209
L288L
tp2210
a(S'_dl_init'
p2211
g32
L272L
tp2212
a(S'_dl_check_map_versions'
p2213
S'3490e50053010a4f2de220e520e50002a0e510e1200a20e510e000008d0a001895e520e521e09fe54192e730e36083001a000c94e500000aa0e1'
p2214
L1680L
tp2215
a(S'_dl_check_all_versions'
p2216
g32
L108L
tp2217
a(S'call_dl_lookup'
p2218
S'10e900e1d00894e500e331e520e50004'
p2219
L72L
tp2220
a(S'do_sym'
p2221
g32
L636L
tp2222
a(S'_dl_vsym'
p2223
S'702de5c0204de25094e5e0e30020e5e0e5000ae0e5000c0000a0e1e0e530e5e0e5'
p2224
L216L
tp2225
a(S'_dl_sym'
p2226
S'042de3d000'
p2227
L32L
tp2228
a(S'__gtdf2'
p2229
S'00e00200'
p2230
L8L
tp2231
a(S'__ltdf2'
p2232
S'01a0'
p2233
L8L
tp2234
a(S'__nedf2'
p2235
S'01a0e5c083e1ca0e000a'
p2236
L136L
tp2237
a(S'__aeabi_cdrcmple'
p2238
S'00a0e120e110e1'
p2239
L28L
tp2240
a(S'__aeabi_cdcmple'
p2241
S'01e90050e300'
p2242
L20L
tp2243
a(S'__aeabi_dcmpeq'
p2244
S'082deb0013'
p2245
L20L
tp2246
a(S'__aeabi_dcmplt'
p2247
S'082deb0023'
p2248
L20L
tp2249
a(S'__aeabi_dcmple'
p2250
S'082deb00839d'
p2251
L20L
tp2252
a(S'__aeabi_dcmpge'
p2253
S'082deb00839d'
p2254
L20L
tp2255
a(S'__aeabi_dcmpgt'
p2256
S'082deb0023'
p2257
L20L
tp2258
a(S'__unorddf2'
p2259
S'81'
p2260
L56L
tp2261
a(S'__aeabi_uldivmod'
p2262
S'0053e30004000051e30000e000e011'
p2263
L60L
tp2264
a(S'__udivmoddi4'
p2265
S'0351e100'
p2266
L300L
tp2267
a(S'read_uleb128'
p2268
S'00a0e130e400e330e2c207201ac0'
p2269
L40L
tp2270
a(S'read_sleb128'
p2271
S'00a0e1e0e520e4e0e200e3c38c07301a00020000e0128c0081'
p2272
L64L
tp2273
a(S'base_of_encoded_value'
p2274
S'ff50e3000a002053e3000a009a00500007000a000b0001a0ea001053e3001a00e100ea'
p2275
L104L
tp2276
a(S'read_encoded_value_with_base'
p2277
S'500027000a402de110e2d000e10001'
p2278
L340L
tp2279
a(S'read_encoded_value'
p2280
S'702de110e150a0e1'
p2281
L52L
tp2282
a(S'parse_lsda_header'
p2283
S'702de2d001e150a001000ace'
p2284
L168L
tp2285
a(S'_Unwind_SetGR_0'
p2286
S'042de230e520e520e1ca14'
p2287
L44L
tp2288
a(S'_Unwind_GetGR.constprop.0_0'
p2289
S'042de230e220e120eb00e2'
p2290
L44L
tp2291
a(S'__gcc_personality_v0'
p2292
S'03000150e3472de1d002e1000a00eb0008a013d0e80510eb00eb10ef'
p2293
L368L
tp2294
a(S'_fini'
p2295
S'08e9'
p2296
L8L
tp2297
a.