(lp0
(S'_init'
p1
S'08e9'
p2
L12L
tp3
a(S'_Unwind_GetDataRelBase'
p4
S'10e9'
p5
L8L
tp6
a(S'_Unwind_GetTextRelBase'
p7
S'10e9'
p8
L8L
tp9
a(S'abort'
p10
S'48529fe532e5402deb6d40e2de0093e5000c'
p11
L592L
tp12
a(S'fini'
p13
S'009fe54601'
p14
L8L
tp15
a(S'main'
p16
S''
p17
L2196L
tp18
a(S'_start'
p19
S'00a0e420e500e5c00c9fe52700'
p20
L44L
tp21
a(S'deregister_tm_clones'
p22
S'189fe530e1ff0130e3ff01ff'
p23
L32L
tp24
a(S'register_tm_clones'
p25
S'249fe510e011e0100130e3ff01ff'
p26
L44L
tp27
a(S'__do_global_dtors_aux'
p28
S'10e900d40053e3801c9fe5000100149fe500e330e5'
p29
L56L
tp30
a(S'frame_dummy'
p31
S'209fe50005402de500e140bd'
p32
L40L
tp33
a(S'_Z15attack_app_httphP13attack_targethP13attack_option'
p34
g17
L6912L
tp35
a(S'_ZL10add_attackhPFvhP13attack_targethP13attack_optionE'
p36
S'702de140a0e310eb60c0609fe5408060'
p37
L96L
tp38
a(S'_Z11attack_initv'
p39
S'13e9fc30e03003a0e5'
p40
L264L
tp41
a(S'_Z15attack_kill_allv'
p42
S'702de540a0e060a0e400010009a0eb4054e260051abd'
p43
L60L
tp44
a(S'_Z12attack_startihhP13attack_targethP13attack_option'
p45
g17
L188L
tp46
a(S'_Z12attack_parsePci'
p47
S'05ff91'
p48
L464L
tp49
a(S'_Z18attack_get_opt_strhP13attack_optionhPc'
p50
S'00a0e100caa0e1c000dae0e110e500'
p51
L72L
tp52
a(S'_Z18attack_get_opt_inthP13attack_optionhi'
p53
S'10e900a0eb0002000aa0e804a0'
p54
L44L
tp55
a(S'_Z17attack_get_opt_iphP13attack_optionhj'
p56
S'10e900a0eb00010010e804a0'
p57
L40L
tp58
a(S'_Z13attack_gre_iphP13attack_targethP13attack_option'
p59
g17
L1192L
tp60
a(S'_Z14attack_gre_ethhP13attack_targethP13attack_option'
p61
g17
L1296L
tp62
a(S'_Z14attack_tcp_synhP13attack_targethP13attack_option'
p63
g17
L1308L
tp64
a(S'_Z14attack_tcp_ackhP13attack_targethP13attack_option'
p65
g17
L1360L
tp66
a(S'_Z16attack_tcp_stomphP13attack_targethP13attack_option'
p67
g17
L1568L
tp68
a(S'_ZL16get_dns_resolverv'
p69
S'702de3deed10eb10e310eb10eb50a0e310eb003700ba02a0e100eb40a0e17eeb00eb10e310eb10e100eb50a0e310eb0021000510e2001c0002d6e7001a00205313003043e2000951134042e010e120e110eb'
p70
L304L
tp71
a(S'_Z18attack_udp_generichP13attack_targethP13attack_option'
p72
g17
L924L
tp73
a(S'_Z14attack_udp_vsehP13attack_targethP13attack_option'
p74
g17
L876L
tp75
a(S'_Z14attack_udp_dnshP13attack_targethP13attack_option'
p76
g17
L1096L
tp77
a(S'_Z16attack_udp_plainhP13attack_targethP13attack_option'
p78
g17
L524L
tp79
a(S'_Z16checksum_genericPtj'
p80
S'10e9848030e1c00c83'
p81
L84L
tp82
a(S'_Z15checksum_tcpudpP5iphdrPvti'
p83
S'30e91090e5c00300b2d10243e2c03005038c0104248350d0028308e000e004e03810001a00e108e1'
p84
L120L
tp85
a(S'_ZL10mem_existsPciS_i'
p86
S'0153e100ca800000a01a00e10009000cd201e400c0018c0c53e1'
p87
L96L
tp88
a(S'_Z11killer_killv'
p89
S'089fe510e72a'
p90
L16L
tp91
a(S'_Z19killer_kill_by_portt'
p92
g17
L1236L
tp93
a(S'_Z11killer_initv'
p94
g17
L1500L
tp95
a(S'_ZL14anti_gdb_entryi'
p96
S'109fe520e020e5ff'
p97
L24L
tp98
a(S'_ZL19teardown_connectionv'
p99
S'2c9fe5402de70000001c00189fe520e330e340bde573'
p100
L52L
tp101
a(S'_ZL16resolve_cnc_addrv'
p102
S'702de30aeb10e30aeb01eb40a0e30aeb00808e0000d4caeb00e7509fe550'
p103
L128L
tp104
a(S'_ZL22ensure_single_instancev'
p105
g17
L344L
tp106
a(S'_Z9rand_initv'
p107
S'702de371eb30e530e000eb40a0eb00e000eb30e530e000e530e030'
p108
L92L
tp109
a(S'_Z9rand_nextv'
p110
S'4c10e510e530e000e500e010e510e030e509e000e004e000'
p111
L84L
tp112
a(S'_Z8rand_strPci'
p113
S'702de140a0e3800300de'
p114
L80L
tp115
a(S'_Z13rand_alphastrPhi'
p116
S'702de110e250a0e310e26e000054e300da0000da'
p117
L140L
tp118
a(S'_ZL16resolv_skip_namePhS_Pi'
p119
S'01a0e530e330e500000a009aa0e000e000009205018c00'
p120
L104L
tp121
a(S'_Z25resolv_domain_to_hostnamePcS_'
p122
S'702de100e109eb20e230e0100051e300da10e5e0e200000183300502013015'
p123
L108L
tp124
a(S'_Z19resolv_entries_freeP14resolv_entries'
p125
S'10e91094e50000001e63eb00e8'
p126
L40L
tp127
a(S'_Z13resolv_lookupPc'
p128
g17
L968L
tp129
a(S'_ZL18consume_any_promptP18scanner_connection'
p130
S'1890e500e200090003d0fb10e2203a51e30001001effe130'
p131
L68L
tp132
a(S'_ZL5deobfPcPi'
p133
S'702de160a0eb00e260000095e510e240a0eb10e20020e100da20e520e220e5'
p134
L96L
tp135
a(S'_ZL14add_auth_entryPcS_t'
p136
S'f7e590a0e010018100a0e570e162eb8000a0e500eb300b8600e500e030e5'
p137
L192L
tp138
a(S'_ZL16setup_connectionP18scanner_connection'
p139
g17
L204L
tp140
a(S'_Z15recv_strip_nulliPvii'
p141
S'10e97eeb0010a0e020e400200153e1'
p142
L56L
tp143
a(S'_Z12scanner_initv'
p144
g17
L6124L
tp145
a(S'_Z12scanner_killv'
p146
S'089fe510e71f00'
p147
L16L
tp148
a(S'_ZL10toggle_obfh'
p149
S'849fe510e030e92323a0e22ce14004ff0ee230e0c0035ce18003d7e7c0c08003d7e7c0c08003d7e7c0c08003d7e7c0c00183'
p150
L140L
tp151
a(S'_ZL9add_entryhPci'
p152
g17
L64L
tp153
a(S'_Z10table_initv'
p154
S'e8402de310e3'
p155
L1008L
tp156
a(S'_Z18table_retrieve_valiPi'
p157
S'0051e3000a9fe530e030e130e530e7ff'
p158
L44L
tp159
a(S'_Z11util_strlenPc'
p160
S'00a0e10001d30051e3'
p161
L28L
tp162
a(S'_Z12util_strncmpPcS_i'
p163
g17
L88L
tp164
a(S'_Z11util_strcmpPcS_'
p165
S'702de140a0eb50a0e1'
p166
L80L
tp167
a(S'_Z11util_memcpyPvS_i'
p168
S'0140e220e1ff0130e430e5'
p169
L28L
tp170
a(S'_Z11util_strcpyPcS_'
p171
S'702de100e1'
p172
L48L
tp173
a(S'_Z9util_zeroPvi'
p174
S'018030e1ff0130e4'
p175
L24L
tp176
a(S'_Z9util_atoiPci'
p177
g17
L276L
tp178
a(S'_Z9util_itoaiiPc'
p179
g17
L192L
tp180
a(S'_Z14util_memsearchPciS_i'
p181
S'0153e100ca2de3c00c000e40d2018c0455e1e013'
p182
L88L
tp183
a(S'_Z12util_stristrPciS_'
p184
S'702de140a0e160a0eb30e310e0000fda40d30cd6e72000412060408460e0930e00c0018c0c50e1'
p185
L120L
tp186
a(S'_Z15util_local_addrv'
p187
S'702de3d004'
p188
L20L
tp189
a(S'_Z11util_fdgetsPcii'
p190
g17
L100L
tp191
a(S'__udivsi3'
p192
S'0151e2ff013a006b9a00106fe12f6fe1301f308310201000e120205002a22020200e50e1202020200da22020200ce1202020200b02a22020200a02a22020200902a22020200802a22020200750e1202020200650e12020202005a220202004e1202020200302a22020200202a22020200102a22020200002a22000e10013ffe12f6fe12030a0e10000e09700'
p193
L492L
tp194
a(S'__aeabi_uidivmod'
p195
S'0051e3'
p196
L32L
tp197
a(S'__divsi3'
p198
S'0051e300'
p199
L8L
tp200
a(S'.divsi3_skip_div0_test'
p201
S'01200061420151e2000a30420153e1009a00136fe16f0240e020'
p202
L520L
tp203
a(S'__aeabi_idivmod'
p204
S'0051e3'
p205
L32L
tp206
a(S'__aeabi_ldiv0'
p207
S'02e9a800'
p208
L16L
tp209
a(S'__bswapsi2'
p210
S'6038e034e13ce304e0ff'
p211
L20L
tp212
a(S'selfrel_offset31'
p213
S'0090e501e3310300'
p214
L24L
tp215
a(S'search_EIT_table'
p216
S'0051e3000a472de260a0e190a0e04f84c4e151a0e000eb0000a0e2000a0008000140e200ec'
p217
L152L
tp218
a(S'__gnu_unwind_get_pr_addr'
p219
S'4430e3300a0009000050e3000a00e120e7ffe100e0ffe120e7ff'
p220
L76L
tp221
a(S'get_eit_entry'
p222
S'189fe531e0402de7d00053e340a0e2000a'
p223
L288L
tp224
a(S'restore_non_core_regs'
p225
S'0090e5402de340a01a00e3000a300a0008130d00e38010e887000094e500e3'
p226
L136L
tp227
a(S'_Unwind_decode_typeinfo_ptr.isra.0'
p228
S'0090e50003901703a0'
p229
L20L
tp230
a(S'__gnu_unwind_24bit.isra.1'
p231
S'09a0'
p232
L8L
tp233
a(S'unwind_phase2'
p234
S'702de150a0e500eb6050e2001a95e5301094e510e3ffe100f1'
p235
L100L
tp236
a(S'unwind_phase2_forced'
p237
g17
L340L
tp238
a(S'_Unwind_GetCFA'
p239
S'4400'
p240
L8L
tp241
a(S'__gnu_Unwind_RaiseException'
p242
g17
L168L
tp243
a(S'__gnu_Unwind_ForcedUnwind'
p244
S'042de510e510e520e4'
p245
L36L
tp246
a(S'__gnu_Unwind_Resume'
p247
S'702de530e3301a30e140a0e110e3ffe10004000850e3001a00eb00e5'
p248
L116L
tp249
a(S'__gnu_Unwind_Resume_or_Rethrow'
p250
S'0c90e50003003c91e520e3'
p251
L32L
tp252
a(S'_Unwind_DeleteException'
p253
S'0890e5001eff0110e3ff'
p254
L24L
tp255
a(S'_Unwind_VRS_Get'
p256
S'0451e3f1'
p257
L104L
tp258
a(S'_Unwind_GetGR'
p259
S'042de230e110e510eb00e2'
p260
L44L
tp261
a(S'_Unwind_VRS_Set'
p262
S'0451e3f1'
p263
L104L
tp264
a(S'_Unwind_SetGR'
p265
S'042de230e520e520e1'
p266
L44L
tp267
a(S'__gnu_Unwind_Backtrace'
p268
g17
L200L
tp269
a(S'__gnu_unwind_pr_common'
p270
g17
L1136L
tp271
a(S'__aeabi_unwind_cpp_pr0'
p272
S'00a0'
p273
L8L
tp274
a(S'__aeabi_unwind_cpp_pr1'
p275
S'01a0'
p276
L8L
tp277
a(S'__aeabi_unwind_cpp_pr2'
p278
S'02a0'
p279
L8L
tp280
a(S'_Unwind_VRS_Pop'
p281
g17
L1016L
tp282
a(S'restore_core_regs'
p283
S'348000e9009d'
p284
L20L
tp285
a(S'__gnu_Unwind_Restore_VFP'
p286
S'2190ec1eff'
p287
L8L
tp288
a(S'__gnu_Unwind_Save_VFP'
p289
S'2180ff'
p290
L8L
tp291
a(S'__gnu_Unwind_Restore_VFP_D'
p292
S'2090ec1eff'
p293
L8L
tp294
a(S'__gnu_Unwind_Save_VFP_D'
p295
S'2080ff'
p296
L8L
tp297
a(S'__gnu_Unwind_Restore_VFP_D_16_to_31'
p298
S'20d01eff'
p299
L8L
tp300
a(S'__gnu_Unwind_Save_VFP_D_16_to_31'
p301
S'20c0ff'
p302
L8L
tp303
a(S'__gnu_Unwind_Restore_WMMXD'
p304
S'02'
p305
L68L
tp306
a(S'__gnu_Unwind_Save_WMMXD'
p307
S'02e002e002e002e002ec02ec02ec02ec02e002e002e002e002e002e01eff'
p308
L68L
tp309
a(S'__gnu_Unwind_Restore_WMMXC'
p310
S'01b001b01eff'
p311
L20L
tp312
a(S'__gnu_Unwind_Save_WMMXC'
p313
S'01a0fc012f'
p314
L20L
tp315
a(S'___Unwind_RaiseException'
p316
S'002de90c2de2fc'
p317
L36L
tp318
a(S'___Unwind_Resume'
p319
S'002de90c2de2fc'
p320
L24L
tp321
a(S'___Unwind_Resume_or_Rethrow'
p322
S'002de90c2de2fc'
p323
L36L
tp324
a(S'___Unwind_ForcedUnwind'
p325
S'002de90c2de2fc'
p326
L36L
tp327
a(S'___Unwind_Backtrace'
p328
S'002de90c2de2fd'
p329
L36L
tp330
a(S'next_unwind_byte'
p331
S'08d00052e3001a30e5000f0a90e530048210e5c008c024e120e1ffe1200090e520e5'
p332
L96L
tp333
a(S'_Unwind_GetGR.constprop.0'
p334
S'042de230e220e120eb00e2'
p335
L44L
tp336
a(S'__gnu_unwind_execute'
p337
g17
L972L
tp338
a(S'__gnu_unwind_frame'
p339
S'4c20e530e2c003e1c00720e510e520e5c014'
p340
L68L
tp341
a(S'_Unwind_GetRegionStart'
p342
S'10e94800'
p343
L16L
tp344
a(S'_Unwind_GetLanguageSpecificData'
p345
S'10e94c00e530e0'
p346
L28L
tp347
a(S'__libc_start_main'
p348
S'804adf149fe500e5e0e50000e222e101150082c2e83f6f111111300490e400fc'
p349
L804L
tp350
a(S'check_one_fd'
p351
g17
L48L
tp352
a(S'__libc_check_standard_fds'
p353
S'10e900a0eb19e3'
p354
L44L
tp355
a(S'__libc_setup_tls'
p356
S'3c9fe522e54f2de3d000e5000a9fe510e000030000ea53e1002a20e3'
p357
L580L
tp358
a(S'__tls_get_addr'
p359
S'042de100'
p360
L12L
tp361
a(S'__libc_csu_init'
p362
g17
L144L
tp363
a(S'__libc_csu_fini'
p364
S'702de5509fe5304331e3000a4043e2518501e230e100'
p365
L64L
tp366
a(S'__errno_location'
p367
S'109fe5e0e500'
p368
L12L
tp369
a(S'__aeabi_read_tp'
p370
g17
L8L
tp371
a(S'__assert_fail_base'
p372
S'80789fe5e1e5d0009ce50000e160a0e18030e5000a10e300e511e5c110e50001a0010040a00100e500e501e100eb003520e500eb30e51ceb30e530e3c0030c00e000'
p373
L388L
tp374
a(S'__assert_fail'
p375
S'8000e170e1d001e160a0e520e500eb70e530e110'
p376
L60L
tp377
a(S'dcgettext'
p378
S'042de3d004'
p379
L36L
tp380
a(S'plural_eval'
p381
g17
L460L
tp382
a(S'transcmp'
p383
S'1090e5402de330e140a01295051c8154000050e3800095e554000050e3800895e554000050e330034000'
p384
L108L
tp385
a(S'plural_lookup.isra.2'
p386
g17
L96L
tp387
a(S'_nl_find_msg'
p388
g17
L2924L
tp389
a(S'__dcigettext'
p390
g17
L1756L
tp391
a(S'_nl_find_domain'
p392
g17
L668L
tp393
a(S'_nl_load_domain'
p394
g17
L5708L
tp395
a(S'alias_compare'
p396
S'0091e500e54e00'
p397
L16L
tp398
a(S'read_alias_file'
p399
S'154f2de3b0e2df034de034e540a0e520e100e54e000e20e54e0004a0e510eb9050e2910b0099e529e22005e40009a0e34bd8000050e3000a10e248008c9fe531029fe74f4be260a0eb10e120e3000a30e520e10ae3'
p400
L1056L
tp401
a(S'_nl_expand_alias'
p402
S'f84f2de360a0e540a0e5000500e3e0e1'
p403
L452L
tp404
a(S'_nl_make_l10nflist'
p405
g17
L1196L
tp406
a(S'_nl_normalize_codeset'
p407
g17
L296L
tp408
a(S'_nl_explode_name'
p409
g17
L528L
tp410
a(S'__gettext_free_exp'
p411
S'10e91094e50008000353e3000a0006000aa0e81094e5'
p412
L88L
tp413
a(S'new_exp'
p414
S'0140e200'
p415
L192L
tp416
a(S'__gettextparse'
p417
g17
L2328L
tp418
a(S'__gettext_extract_plural'
p419
g17
L276L
tp420
a(S'__hash_string'
p421
S'0140e200e5001eff0102e312e20c10'
p422
L40L
tp423
a(S'_setjmp'
p424
S'00a0'
p425
L8L
tp426
a(S'__bsd_signal.part.0'
p427
S'10e9124de2e0e530e220e5e1e520e500fc'
p428
L164L
tp429
a(S'ssignal'
p430
S'017100a003c00030e3000a30e5ed'
p431
L80L
tp432
a(S'raise'
p433
S'b02de5df0095e540a0e300e531eb21e330e320e510e200e370e300ef14a0efe0a0e100ef437fe310e100ef017000e1008a'
p434
L216L
tp435
a(S'__libc_sigaction'
p436
g17
L284L
tp437
a(S'sigaction'
p438
S'0140e200008a300153e3009a9fe5e0e5ec'
p439
L40L
tp440
a(S'sigprocmask'
p441
g17
L192L
tp442
a(S'kill'
p443
S'042de300ef049de40a1eff316100'
p444
L28L
tp445
a(S'sigemptyset'
p446
S'0050e3402d0a10eb30e1801610e7ec'
p447
L52L
tp448
a(S'sigaddset'
p449
S'0141e20000a08350e330e3e0e5001a100151e3009a90e720e2e0e322e700e420e320'
p450
L96L
tp451
a(S'__default_sa_restorer'
p452
S'77a0ef00a0'
p453
L16L
tp454
a(S'__default_rt_sa_restorer'
p455
S'ad70e300ef'
p456
L8L
tp457
a(S'atoi'
p458
S'0aa0e303'
p459
L12L
tp460
a(S'msort_with_tmp.part.0'
p461
g17
L672L
tp462
a(S'qsort_r'
p463
g17
L736L
tp464
a(S'qsort'
p465
S'042de3d000'
p466
L28L
tp467
a(S'getenv'
p468
S'009fe5472de5003a0000d000e1000201000a70e590a0e34095e5001a002ce3001a00ea54e3000a10e530e534e138e100f5'
p469
L264L
tp470
a(S'__run_exit_handlers'
p471
S'0c9fe5482de3d00c'
p472
L788L
tp473
a(S'exit'
p474
S'01a0e9009fe5'
p475
L20L
tp476
a(S'__new_exitfn'
p477
S'289fe530e5003400702de540a0e3000a00e1e0e120e3000a30038e0891e5000f1ac00143e2120a0002a0e3'
p478
L304L
tp479
a(S'__internal_atexit'
p480
g17
L364L
tp481
a(S'__cxa_atexit'
p482
S'009fe5'
p483
L8L
tp484
a(S'__strtol_internal'
p485
S'30e90c4de2409fe750a0'
p486
L24L
tp487
a(S'strtol'
p488
S'2c9fe5402de7d000e1'
p489
L24L
tp490
a(S'__strtoul_internal'
p491
S'30e90c4de2409fe750a0'
p492
L24L
tp493
a(S'strtoul'
p494
S'2c9fe5402de7d000e1'
p495
L24L
tp496
a(S'____strtol_l_internal'
p497
g17
L1288L
tp498
a(S'strtol_l'
p499
S'042de230e3'
p500
L28L
tp501
a(S'____strtoul_l_internal'
p502
g17
L1196L
tp503
a(S'strtoul_l'
p504
S'042de230e3'
p505
L28L
tp506
a(S'__correctly_grouped_prefixmb'
p507
g17
L668L
tp508
a(S'asprintf'
p509
S'0e00e90c4de230e1c030e509eb20e50003000c'
p510
L80L
tp511
a(S'locked_vfxprintf'
p512
g17
L248L
tp513
a(S'__fxprintf'
p514
S'0e00e9084de25050e230e531e550930500e530e2001a95e5e5eb30e2000e000a10e130e1001aa0e3e0e1'
p515
L364L
tp516
a(S'__fxprintf_nocancel'
p517
S'0e00e9084de25050e230e531e550930500e530e2001a95e5e4eb30e2000e000a10e130e1001aa0e3e0e1'
p518
L380L
tp519
a(S'fclose'
p520
S'0090e5472de350a01a29e2000a60130013006b0a9fe54095e533e0300153e1009aa0e1ffe130e300da95e510e540a0e5000500e3e0e1'
p521
L684L
tp522
a(S'fflush'
p523
g17
L344L
tp524
a(S'__fopen_maybe_mmap'
p525
S'3c90e500e3ff0130e3ff01e520e330d510d510e5ff'
p526
L64L
tp527
a(S'__fopen_internal'
p528
g17
L224L
tp529
a(S'fopen'
p530
S'01a0'
p531
L8L
tp532
a(S'adjust_wide_data'
p533
g17
L276L
tp534
a(S'_IO_wfile_underflow'
p535
S'0090e5279fe54f2de5d0101334'
p536
L1656L
tp537
a(S'_IO_wfile_seekoff'
p538
g17
L2464L
tp539
a(S'_IO_wfile_underflow_maybe_mmap'
p540
S'10e9060001701094e500e540bde5ff'
p541
L44L
tp542
a(S'_IO_wfile_underflow_mmap'
p543
g17
L392L
tp544
a(S'_IO_wdo_write'
p545
S'ac31e9344de25052e230e1000a30e540a0e18043000ab0e2a000149de5000443e05145e0000a9059e290a0e190890059e3001a0023001496e570e540a0e00020968520925c10e9188d00'
p546
L436L
tp547
a(S'_IO_wfile_overflow'
p548
S'0090e5412de340a01a0be350a01ae510e3000a10e5001c940504921500a0010004'
p549
L672L
tp550
a(S'_IO_wfile_sync'
p551
S'5c30e90c93e5d00152e140a09a53e300da204221eb0013005c300093e500e1000a94e5201096e500e1ffe1001e00da21e531e0300153e1009a'
p552
L416L
tp553
a(S'_IO_wfile_xsputn'
p554
g17
L348L
tp555
a(S'vasprintf'
p556
g17
L332L
tp557
a(S'__libc_message'
p558
S'0e00e9204de230e500e390a0e530e5609be5001a800154e350a0110004a0e100eaa0eb30e500040025'
p559
L676L
tp560
a(S'__libc_fatal'
p561
S'18e5402de120e100eb'
p562
L32L
tp563
a(S'_IO_vtable_check'
p564
S'109fe5001eff11402de5'
p565
L24L
tp566
a(S'fgets_unlocked'
p567
S'0051e300da002a000092e5402de340a0e260a0e30000'
p568
L200L
tp569
a(S'_IO_file_seekoff_maybe_mmap'
p570
S'702de55090e540a0e5d00045e0100c51e1609de5009aa0e5ffe10000d10600ba10'
p571
L112L
tp572
a(S'_IO_file_close'
p573
S'3890e54000'
p574
L8L
tp575
a(S'_IO_new_file_setbuf'
p576
S'10e9980d50e38004a0e5300c8404840884'
p577
L56L
tp578
a(S'_IO_file_setbuf_mmap'
p579
S'5c30e954509fe55080c08550e3000a94e500e5300c840484088470bde55085109fe55084b083'
p580
L100L
tp581
a(S'new_do_write'
p582
S'0090e5432de56090e5519fe50ae38000e190a0e05045e0000a20e330e32555e1009aa0e100e134e10000501350a01ae5300c8404840884148410841b002094e5300c'
p583
L332L
tp584
a(S'_IO_new_file_underflow'
p585
S'f84f2de500e3001a13b2000490e510e130351c90e550a0e3000a9fe500e1000a9fe570e530e2001a97e5d9eb20e2008f0001a0e130e1001aa0e3e0e1'
p586
L764L
tp587
a(S'_IO_file_close_mmap'
p588
S'1c90e510e900e100eb30e53010e8'
p589
L52L
tp590
a(S'mmap_remap_check'
p591
g17
L600L
tp592
a(S'_IO_file_seek'
p593
S'3890e53b'
p594
L8L
tp595
a(S'_IO_file_sync_mmap'
p596
S'0c90e900e100e120084de23fa00a10e50000a0e1000140e01fa0e10006001a94e500e11008'
p597
L136L
tp598
a(S'decide_maybe_mmap'
p599
g17
L464L
tp600
a(S'_IO_file_underflow_maybe_mmap'
p601
S'702de1'
p602
L64L
tp603
a(S'_IO_file_xsgetn_maybe_mmap'
p604
g17
L80L
tp605
a(S'_IO_new_file_seekoff'
p606
g17
L1700L
tp607
a(S'_IO_file_stat'
p608
S'01a0e500'
p609
L16L
tp610
a(S'_IO_new_file_write'
p611
g17
L156L
tp612
a(S'_IO_file_xsgetn_mmap'
p613
g17
L288L
tp614
a(S'_IO_file_xsgetn'
p615
S'1c90e54f2de3d000e150a0e1000a0049000a94e9060068b1e5919fe5a04be000ea1339001c94e5003d100a51e1008a51e330088414841084188437009a'
p616
L544L
tp617
a(S'_IO_file_seekoff_mmap'
p618
g17
L360L
tp619
a(S'_IO_file_underflow_mmap'
p620
S'0490e510e1002a00e5ffe1402de1fb'
p621
L132L
tp622
a(S'_IO_file_read'
p623
S'3c90e500e3001a00403b'
p624
L24L
tp625
a(S'_IO_new_file_xsputn'
p626
g17
L420L
tp627
a(S'_IO_new_file_init_internal'
p628
S'0090e5402de330e370e330e140a0eb30e330'
p629
L52L
tp630
a(S'_IO_new_file_init'
p631
S'0090e5402de330e370e330e140a0eb30e330'
p632
L52L
tp633
a(S'_IO_file_open'
p634
S'3c90e5402de3d000e1609de500e1201a0002811d50a0e300bac8c801c3e330e320e010e130e530a89fe56094e530e0300153e1009a'
p635
L284L
tp636
a(S'_IO_new_file_attach'
p637
S'3890e5432de3d0001a30e540a0e500e530e330e390e0008438840240e085e12005d3eb0005009aa0e530e330e500e130e320e300025001000a9fe5d3eb30e700e28377'
p638
L232L
tp639
a(S'_IO_new_do_write'
p640
S'0052e2001a00e1402de1f9'
p641
L40L
tp642
a(S'_IO_new_file_close_it'
p643
S'702de50044000a9fe520e130e00b0013000aa0eb300013001a21e531e0300153e1009aa0e150a0e50012005c300053e3000aa0eb30e110e1ad005c30088320e520e520e320e100eb30e130088414841084188404a00100e320e330e300'
p644
L384L
tp645
a(S'_IO_new_file_fopen'
p646
g17
L1028L
tp647
a(S'_IO_new_file_finish'
p648
S'3890e5402de340a00ae5001700dae530e510e021eb3009005020e530e0300153e1009aa0e100e340bdea90e510e0'
p649
L160L
tp650
a(S'_IO_new_file_overflow'
p651
S'0090e5402de3001a0be350a0e1201a0057000a90e50ce3001a000250e12002a005028320188404840c8400841c00017515302530e550c2301520126fe122e0001a5005e1802f000a001490e5'
p652
L512L
tp653
a(S'_IO_new_file_sync'
p654
S'1490e510e9084de240a09a53e300dae530e510e021eb00130028002494e91400a06094e530e0300153e1009a'
p655
L264L
tp656
a(S'flush_cleanup'
p657
g17
L280L
tp658
a(S'save_for_backup'
p659
g17
L444L
tp660
a(S'_IO_un_link.part.1'
p661
g17
L744L
tp662
a(S'_IO_un_link'
p663
S'0090e500e3ff01'
p664
L16L
tp665
a(S'_IO_link_in'
p666
g17
L680L
tp667
a(S'_IO_least_marker'
p668
S'3090e500e3001eff0120e50002a0e3'
p669
L48L
tp670
a(S'_IO_switch_to_main_get_area'
p671
S'0090e520e510e53ce3e0e530e5c00c8020'
p672
L56L
tp673
a(S'_IO_switch_to_backup_area'
p674
S'0090e520e5c001e3e0e530e520e5c0049d'
p675
L56L
tp676
a(S'_IO_switch_to_get_mode'
p677
S'd0c0402de140a09a90e530e0300153e1009ae004a0e10070bde5200a000894e5100c84088400a0e13070bde5109c'
p678
L152L
tp679
a(S'_IO_free_backup_area'
p680
S'0090e5402de340a0e5000a94e53ce3002c94e500e52000a0e530'
p681
L80L
tp682
a(S'__overflow'
p683
S'6c30e900e06c30e54090e530e0300c53e1d0030008'
p684
L84L
tp685
a(S'__underflow'
p686
S'6c30e330030501733b000090e5402de340a01a94e52027003a300b002494e50001e300008408842c8404840c8424841f008a300f0a107c'
p687
L276L
tp688
a(S'__uflow'
p689
S'6c30e330030501733f001a30e900e1001a94e52027003a300b002494e50001e300008408842c840c84248404843094e5000f0a10350017001a5094e530e0300153e1009aa0e82494e500f1'
p690
L292L
tp691
a(S'_IO_setb'
p692
g17
L84L
tp693
a(S'_IO_doallocbuf'
p694
S'1c90e5001eff1130e900e1000ae50018007c9fe55094e530e0300153e1009aa0e10070bde560840050e350840094e5000a00e3000a30e5608420e580485080'
p695
L176L
tp696
a(S'_IO_default_underflow'
p697
S'00e01eff'
p698
L8L
tp699
a(S'_IO_default_uflow'
p700
S'702de55090e530e0300153e140a09aa0e100049415048470bdeb'
p701
L80L
tp702
a(S'_IO_default_xsputn'
p703
g17
L224L
tp704
a(S'_IO_sgetn'
p705
S'10e9984090e530e0300e00104de2009a'
p706
L68L
tp707
a(S'_IO_default_xsgetn'
p708
g17
L176L
tp709
a(S'_IO_default_setbuf'
p710
g17
L256L
tp711
a(S'_IO_default_seekpos'
p712
S'30e9984090e510e0101c4de20028e5009a'
p713
L88L
tp714
a(S'_IO_default_doallocate'
p715
S'702de10aeb5050e2000a94e56ae2000094e5000a00e3000a30e33020e500e80094e5'
p716
L96L
tp717
a(S'_IO_enable_locks'
p718
S'3c9fe530e3ff1130e330e5001eff0193e520e530e3'
p719
L68L
tp720
a(S'_IO_old_init'
p721
S'749fe514e320e3003c8020138000ad18e530e530e530e530e530e530e530e130151eff'
p722
L124L
tp723
a(S'_IO_init_internal'
p724
S'10e9dc'
p725
L36L
tp726
a(S'_IO_no_init'
p727
S'702de140a0e1'
p728
L112L
tp729
a(S'_IO_default_sync'
p730
S'00a0'
p731
L8L
tp732
a(S'_IO_default_finish'
p733
S'702de100e3000a3013003094e500040000a0e530e3'
p734
L128L
tp735
a(S'_IO_default_seekoff'
p736
S'00e000e01eff'
p737
L12L
tp738
a(S'_IO_sputbackc'
p739
S'0490e520e90c4de240a09a010250e13004844c20e530e0300053e1009aa0e10002000094e530e33030'
p740
L136L
tp741
a(S'_IO_sungetc'
p742
S'0490e520e900e1009a80000094e530e330389fe55090e530e0300153e1009ae004a0e10070bdea'
p743
L116L
tp744
a(S'_IO_adjust_column'
p745
S'042de0000900015ee5300a5ce3001a00ea5ce3000a00fa'
p746
L84L
tp747
a(S'_IO_flush_all_lockp'
p748
S'249fe523e9244de20000'
p749
L812L
tp750
a(S'_IO_cleanup'
p751
g17
L852L
tp752
a(S'_IO_flush_all'
p753
S'01a0'
p754
L8L
tp755
a(S'_flushlbf'
p756
S'd49fe522e91c4de20014'
p757
L732L
tp758
a(S'_IO_init_marker'
p759
S'0091e5402de340a0e1101a0ce3200494e5303094e520e5508470bde1fa'
p760
L84L
tp761
a(S'_IO_remove_marker'
p762
S'0490e520e3ff01000100080003a0e5001eff0100f9'
p763
L72L
tp764
a(S'_IO_marker_difference'
p765
S'0890e530e0ff'
p766
L16L
tp767
a(S'_IO_marker_delta'
p768
S'0490e50007000a00e50ce330050340e0ffe100e3ff'
p769
L52L
tp770
a(S'_IO_seekmark'
p771
S'0491e50024000891e530e3e0e51ce200ba0c90e5000a90e53ce3e0e510e510e5c0088020e500e4000890e5'
p772
L168L
tp773
a(S'_IO_unsave_markers'
p774
S'3090e50000a0150053e3ff01'
p775
L32L
tp776
a(S'_IO_default_pbackfail'
p777
g17
L316L
tp778
a(S'_IO_default_seek'
p779
S'00e000e01eff'
p780
L12L
tp781
a(S'_IO_default_stat'
p782
S'00e01eff'
p783
L8L
tp784
a(S'_IO_default_read'
p785
S'00e01eff'
p786
L8L
tp787
a(S'_IO_default_write'
p788
S'00a0'
p789
L8L
tp790
a(S'_IO_default_showmanyc'
p791
S'00e01eff'
p792
L8L
tp793
a(S'_IO_iter_begin'
p794
S'049fe500'
p795
L12L
tp796
a(S'_IO_iter_end'
p797
S'00a0'
p798
L8L
tp799
a(S'_IO_iter_next'
p800
S'3490e5ff'
p801
L8L
tp802
a(S'_IO_list_lock'
p803
S'702deb509fe56d40e230e1000a10e240a0e5000500e3e0e1'
p804
L116L
tp805
a(S'_IO_list_unlock'
p806
g17
L132L
tp807
a(S'_IO_list_resetlock'
p808
S'109fe520e520e5ff'
p809
L24L
tp810
a(S'_IO_str_underflow'
p811
S'1490e520e500030108800b30050a80c000d31eff'
p812
L68L
tp813
a(S'_IO_str_overflow'
p814
S'0090e500e3001a2be20b028310e920e5300504800001e16046e0100310e00000e1008a30e2001a90868956e1008a00eb80000a000520e122eb00eba049e010e022eb20e310e1fa'
p815
L344L
tp816
a(S'enlarge_userbuf'
p817
g17
L444L
tp818
a(S'_IO_str_seekoff'
p819
g17
L696L
tp820
a(S'_IO_str_pbackfail'
p821
S'0191e22013001afd'
p822
L32L
tp823
a(S'_IO_str_finish'
p824
S'10e91c90e50002000094e500e3000a10e500e87d00f8'
p825
L60L
tp826
a(S'_IO_str_init_static_internal'
p827
S'0052e3412de150a0e1001a10e121eb60a0e320e100eb0000a0e550840484148408151805a081e160a023'
p828
L132L
tp829
a(S'_IO_str_init_static'
p830
S'c2e1'
p831
L8L
tp832
a(S'_IO_str_init_readonly'
p833
S'10e900e12f82'
p834
L36L
tp835
a(S'_IO_str_count'
p836
S'0890e520e500016020001eff'
p837
L28L
tp838
a(S'_dl_tunable_set_mmap_threshold'
p839
S'0090e50753e3209308'
p840
L28L
tp841
a(S'_dl_tunable_set_mmaps_max'
p842
S'109fe510e310e5ff'
p843
L24L
tp844
a(S'_dl_tunable_set_top_pad'
p845
S'109fe510e310e5ff'
p846
L24L
tp847
a(S'_dl_tunable_set_perturb_byte'
p848
S'089fe520e5ff'
p849
L16L
tp850
a(S'_dl_tunable_set_trim_threshold'
p851
S'109fe510e310e5ff'
p852
L24L
tp853
a(S'_dl_tunable_set_arena_max'
p854
S'089fe520e5ff'
p855
L16L
tp856
a(S'_dl_tunable_set_arena_test'
p857
S'089fe520e5ff'
p858
L16L
tp859
a(S'_dl_tunable_set_tcache_max'
p860
S'0090e5521eff810007308343'
p861
L56L
tp862
a(S'_dl_tunable_set_tcache_count'
p863
S'089fe520e5ff'
p864
L16L
tp865
a(S'_dl_tunable_set_tcache_unsorted_limit'
p866
S'089fe520e5ff'
p867
L16L
tp868
a(S'mem2mem_check'
p869
S'0050e3ff0130a3c1c020e500c00720e320044202200152e1009a53e330e13030e7200251e1'
p870
L108L
tp871
a(S'mem2chunk_check'
p872
g17
L536L
tp873
a(S'int_mallinfo'
p874
S'3490e5412de560a0e3c00650a0e5000500e220e30002e0'
p875
L276L
tp876
a(S'__malloc_assert'
p877
S'4cc0009ce540a0e5d0005ee3e015309f050e30e520e500'
p878
L68L
tp879
a(S'detach_arena'
p880
S'0050e3ff01e50002000143e234e5ffe1402de520e500'
p881
L56L
tp882
a(S'get_free_list'
p883
g17
L384L
tp884
a(S'new_heap'
p885
S'018031e3412de5d03d0651e3008a9fe55043e200e0300050e350050a60a0e330e520e516a0eb6087017000e1000a34e3c3e300180001a0eb60a0e330e360'
p886
L408L
tp887
a(S'mremap_chunk'
p888
g17
L412L
tp889
a(S'ptmalloc_init'
p890
S'702de5519fe524e5d00095e50004'
p891
L336L
tp892
a(S'arena_get2.part.2'
p893
S'f84f2de585e5a053e370e14498e5001a30e3300a9fe550890143e200685096e50058559f0501a0e140a0e5000500e3e0e1'
p894
L1444L
tp895
a(S'arena_get_retry'
p896
S'4431e900e180200000e510e120e5000500e3e0e1'
p897
L332L
tp898
a(S'_dl_tunable_set_mallopt_check'
p899
S'0090e5001eff019fe5e0e520e3e0e5c0309fe530e5e0e500e5e0e500e5'
p900
L80L
tp901
a(S'__malloc_info.part.6'
p902
S'cc24e54f2de2d000a0e514e530e510e530e530e530e528e114e530e530e37feb10e530e1001aa0e3e0e1'
p903
L1236L
tp904
a(S'systrim.isra.1.constprop.7'
p905
g17
L196L
tp906
a(S'_int_free'
p907
g17
L2928L
tp908
a(S'sysmalloc'
p909
g17
L1952L
tp910
a(S'_int_malloc'
p911
S'0b81'
p912
L3884L
tp913
a(S'malloc_check'
p914
S'0170'
p915
L252L
tp916
a(S'tcache_init.part.3'
p917
S'68412deb30e700000a10e140a0e5000500e3e0e1'
p918
L368L
tp919
a(S'_int_memalign'
p920
g17
L464L
tp921
a(S'memalign_check'
p922
S'0850e3009a2d8a001093008a60a0e510e330e1001aa0e3e0e1'
p923
L384L
tp924
a(S'_int_realloc'
p925
g17
L868L
tp926
a(S'__malloc_fork_lock_parent'
p927
S'ac30e5001effd12de320e330e1001aa0e3e0e1'
p928
L180L
tp929
a(S'__malloc_fork_unlock_parent'
p930
g17
L240L
tp931
a(S'__malloc_fork_unlock_child'
p932
S'889fe534e5001effd1402deb409fe530e3206800e30001a0150520e150840350e1141503a0e534e5e01353e1'
p933
L144L
tp934
a(S'__malloc_check_init'
p935
S'3c9fe5e0e520e3e0e5c0309fe530e5e0e500e5e0e500e5'
p936
L68L
tp937
a(S'malloc'
p938
S'109fe530e3001a20e3412d9300e1008a30e3001a62eb60860496e54042e200a471e1000a22e50029000093e50041001a10e1f7eb6050e2000a16e500e3001a1327000a3023a0e130e1000a9fe522e502eb20e30000a083'
p939
L792L
tp940
a(S'malloc_hook_ini'
p941
S'1c9fe5402de340a0e5ee'
p942
L36L
tp943
a(S'_mid_memalign'
p944
S'd89fe5412de50041001a0000a0e1009a003c000042e00027003a2000128e001050e3000a60a0e100fc'
p945
L736L
tp946
a(S'memalign_hook_ini'
p947
S'2c9fe5402de360a0e150a0e5ed'
p948
L52L
tp949
a(S'free'
p950
S'd89fe530e3001a0000a001100840e200e3001a402deb409fe5d000840490e500000a1321a011201508'
p951
L212L
tp952
a(S'__malloc_arena_thread_freeres'
p953
S'6031e900835090e500120000a0e340854f6f85048030e5000530e5'
p954
L360L
tp955
a(S'realloc_hook_ini'
p956
S'2c9fe520e900e150a0e530eb10e140bd'
p957
L52L
tp958
a(S'memalign'
p959
S'042de1e0e4fd'
p960
L16L
tp961
a(S'valloc'
p962
S'349fe5402de550a0e340a0ba0510e540bdea'
p963
L60L
tp964
a(S'pvalloc'
p965
S'709fe5402de550a0e340a0ba10e00093e5c05ce1003a1004810510e000e8249fe520e7ae'
p966
L120L
tp967
a(S'calloc'
p968
S'f84f2de100e330230000a0e360a0e0001a93e5005d001a9fe5ae'
p969
L956L
tp970
a(S'malloc_trim'
p971
S'709fe54f2de5d00053e300ba00a0e130e320e330e1001aa0e3e0e1'
p972
L632L
tp973
a(S'mallinfo'
p974
S'3c9fe5472de5919fe5d00099e50000'
p975
L324L
tp976
a(S'malloc_stats'
p977
S'ec11e524e54f2de5d00052e330e500baccb1e530e120e520e180000001a0e300eb40a0e320e5000500e3e0e1'
p978
L500L
tp979
a(S'mallopt'
p980
g17
L464L
tp981
a(S'posix_memalign'
p982
S'21a0e230e0c00c93e1402d1340a0e340a0e3001a30e120e110eb000400008504a0e870bde3'
p983
L108L
tp984
a(S'malloc_info'
p985
S'0050e3001a30e901e1000700ba209fe581e140bdea2fe1e8'
p986
L72L
tp987
a(S'__default_morecore'
p988
S'10e9017000a0'
p989
L20L
tp990
a(S'strchr'
p991
S'0310ff010f0a30e5001eff01003b00018000ea80001eff01002b00031303a01a2de5409fe506e060860668000352e50020000053e3000a300c53e1000a0015300c53e1000a00100002a0e1e0e450e010e010e030e030e030e3'
p992
L280L
tp993
a(S'strcmp'
p994
S'01d001d10053e3000a00f9'
p995
L40L
tp996
a(S'strcpy'
p997
S'702de100e100eb10e200e8'
p998
L40L
tp999
a(S'strcspn'
p1000
g17
L352L
tp1001
a(S'strdup'
p1002
S'702de100eb408000eb0070bde110e8'
p1003
L48L
tp1004
a(S'strlen'
p1005
S'03c020e2000400ff8230ffc30153e228e30c130813041380201a00e30013001300'
p1006
L96L
tp1007
a(S'strncmp'
p1008
S'0352e3402d9ac2e0e250851b00035ce5605ee54053e040a0e340a0e3001a30605ee54053e040a0e340a0e3001a30405ee5c0e0130001a0e3001ae0e2000a5ce5405ee500e010e310e3100a43e08004a0e3'
p1009
L316L
tp1010
a(S'critical_factorization'
p1011
g17
L272L
tp1012
a(S'two_way_long_needle'
p1013
g17
L1016L
tp1014
a(S'strstr'
p1015
g17
L1120L
tp1016
a(S'memcmp'
p1017
g17
L1060L
tp1018
a(S'memmove'
p1019
S'0150e0000c0002810452e200ba0451f53000031139001c52e201ba60202051f5020060'
p1020
L832L
tp1021
a(S'memset'
p1022
S'00a0e3003a00e3101420fb'
p1023
L124L
tp1024
a(S'mempcpy'
p1025
S'10e91d00'
p1026
L20L
tp1027
a(S'stpcpy'
p1028
S'702de100e1fb'
p1029
L48L
tp1030
a(S'strcasecmp_l'
p1031
S'0150e1000a2de5c020e530e401e700049d1400f7ff049de400'
p1032
L64L
tp1033
a(S'memcpy'
p1034
S'11e92b0000d1300003113a001c52e201ba60201cd102005c'
p1035
L816L
tp1036
a(S'rawmemchr'
p1037
S'0051e3001a402de1fa'
p1038
L36L
tp1039
a(S'strchrnul'
p1040
S'0310ff010c0000d0035ce1001eff0130ea52e1001eff0100e3001a2de5409fe506e060860668000251e5000c5311000a300c53e10017000a00e1e0e450e030e030e020e020e020e3'
p1041
L228L
tp1042
a(S'wmempcpy'
p1043
S'02a0'
p1044
L8L
tp1045
a(S'mbsrtowcs'
p1046
S'702de5509fe5409fe7d000e1a4'
p1047
L28L
tp1048
a(S'_nl_cleanup_ctype'
p1049
S'10e90054e380148030e5000394e804a0e8'
p1050
L60L
tp1051
a(S'__wcsmbs_getfct'
p1052
g17
L116L
tp1053
a(S'__wcsmbs_load_conv'
p1054
g17
L464L
tp1055
a(S'__wcsmbs_clone_conv'
p1056
S'7c9fe5402de740a0'
p1057
L20L
tp1058
a(S'__wcsmbs_named_conv'
p1059
S'702de240a0e550a0eb0000840800052032'
p1060
L96L
tp1061
a(S'__mbsrtowcs_l'
p1062
g17
L856L
tp1063
a(S'clock'
p1064
S'10e9104de23002a0e511eb000f1a30e520e0120161e0a0e121e003e530030010'
p1065
L116L
tp1066
a(S'time'
p1067
S'30e9144de250a0e510e230eb20e50000e0049d050085010014'
p1068
L84L
tp1069
a(S'gettimeofday'
p1070
S'804e70e300ef017000a08a00e80060e220'
p1071
L48L
tp1072
a(S'__alloc_dir'
p1073
g17
L172L
tp1074
a(S'opendir_tail'
p1075
S'30e9744de2306c30ba0500eb001300'
p1076
L160L
tp1077
a(S'__opendirat'
p1078
S'10e90053e3000a9fe508eb40bdeaa0e7'
p1079
L48L
tp1080
a(S'opendir'
p1081
S'10e90053e3000a9fe5070010e8189fe510e7'
p1082
L48L
tp1083
a(S'closedir'
p1084
S'0050e2402d0a4093e5f1'
p1085
L48L
tp1086
a(S'readdir'
p1087
S'6031e9048050a0e1a1a0e740a0e5000500e3e0e1'
p1088
L360L
tp1089
a(S'__getdents'
p1090
g17
L388L
tp1091
a(S'sleep'
p1092
S'702de530e220e530e340a0e5a090e730ea00049de5012083e230e130e000eb00f1'
p1093
L172L
tp1094
a(S'nanosleep'
p1095
S'9830e90053e3001a00ef017000e1008aa0e801e10e00a210e100ef017000e1008a00eb'
p1096
L120L
tp1097
a(S'fork'
p1098
g17
L376L
tp1099
a(S'_exit'
p1100
S'8000a0e300ef01700a0001e300ef017004000060e220eb30e710e210'
p1101
L84L
tp1102
a(S'getpid'
p1103
S'042de300ef049de4ff'
p1104
L20L
tp1105
a(S'getppid'
p1106
S'042de300ef049de4ff'
p1107
L20L
tp1108
a(S'setsid'
p1109
S'042de300ef049de40a1eff3100'
p1110
L28L
tp1111
a(S'sysconf'
p1112
g17
L1796L
tp1113
a(S'sched_yield'
p1114
S'042de300ef049de40a1eff31'
p1115
L28L
tp1116
a(S'__get_child_max'
p1117
S'10e9104de2300600e504eb20e500049d050352e1001ad0e8'
p1118
L72L
tp1119
a(S'__fxstat64'
p1120
S'8001a0e310ef017000a08a00e80060e220'
p1121
L56L
tp1122
a(S'open'
p1123
S'0e00e908e520e530e210e5001a00e1000a00e5001500e370e500ef017000e1008a9de530e100290010'
p1124
L284L
tp1125
a(S'read'
p1126
S'a0412de50006001a70e300ef017000e1008aa0e801e140a0eb70e310e130e100ef017000e1008a00eb'
p1127
L128L
tp1128
a(S'write'
p1129
S'a0412de50006001aa0ef017000e1008aa0e801e140a0eb70e310e130e100ef017000e1008a00eb'
p1130
L128L
tp1131
a(S'lseek64'
p1132
S'b02de5d003a0e530e530e300ef01700800c01100019de530e1001ad0e80060e220eb10e330e3'
p1133
L120L
tp1134
a(S'fcntl'
p1135
S'0e00e90c9fe510e520e260a0e520e500039f976f00ea03080043030800430308004203080043030800430308004303080043030800430308004303080043030800430308004303080043030800000041036032e530e500b0d4b2d40c94e51fa0e13fa0e1e1e1c053001a00e210e300ef017000000095e500e1001a'
p1136
L800L
tp1137
a(S'close'
p1138
S'9030e90053e3001a70e300ef017000e1008aa0e8c80670e330e100ef017000e1008a00eb'
p1139
L112L
tp1140
a(S'chdir'
p1141
S'042de300ef049de40a1eff'
p1142
L28L
tp1143
a(S'getcwd'
p1144
S'149fe54f2de5d000a0e5001a009d001a03eb0a00a0b300e5ea00e2001a000aa011'
p1145
L1756L
tp1146
a(S'readlink'
p1147
S'042de300ef049de40a1eff'
p1148
L28L
tp1149
a(S'unlink'
p1150
S'042de300ef049de40a1eff'
p1151
L28L
tp1152
a(S'__close_nocancel'
p1153
S'800670e300ef017000a08a00e80060e220'
p1154
L48L
tp1155
a(S'__fcntl64_nocancel_adjusted'
p1156
S'a89fe5402de5d00951e3c0dde300ef017000a08a9de530e100190014'
p1157
L176L
tp1158
a(S'__fcntl64_nocancel'
p1159
S'0e00e90c4de230e520e530e5'
p1160
L80L
tp1161
a(S'__open_nocancel'
p1162
S'0e00e98ce520e530e210e5001ae500e1000ae06800ef017000a08a9de5200251e1001ad0e81effe100e500ea60e220eb30e310'
p1163
L160L
tp1164
a(S'__openat_nocancel'
p1165
S'0c2de984e520e530e2c0709fe5c00d70e500ef017000a08a9de5200251e1001a'
p1166
L152L
tp1167
a(S'__openat64_nocancel'
p1168
S'0c2de988e520e530e2c0749fe5c00e000a28e500ef017000a08a9de5200251e1001a'
p1169
L156L
tp1170
a(S'__read_nocancel'
p1171
S'8003e300ef017000a08a00e80060e220'
p1172
L48L
tp1173
a(S'__write_nocancel'
p1174
S'8004a0ef017000a08a00e80060e220'
p1175
L48L
tp1176
a(S'getrlimit'
p1177
S'80bf00ef017000a08a00e80060e220'
p1178
L48L
tp1179
a(S'sbrk'
p1180
S'702de550a0e500000a93e5000f1a000b001400053033001530e330e398'
p1181
L184L
tp1182
a(S'ioctl'
p1183
S'042de300ef049de40a1eff31'
p1184
L28L
tp1185
a(S'getpagesize'
p1186
S'209fe500e3ff11402de520e500'
p1187
L40L
tp1188
a(S'getdtablesize'
p1189
S'10e9104de2300700e5'
p1190
L72L
tp1191
a(S'select'
p1192
S'b09fe5412de500001a409de570e300ef017000e1008aa0e801e150a0e1060004a0e120e580'
p1193
L144L
tp1194
a(S'mmap'
p1195
S'b02de5ca2ca0e3001a409de570e300ef01700a0003a0e81610e730e398'
p1196
L108L
tp1197
a(S'mmap64'
p1198
S'b02de5e0e54aa0e34aa0e34094e1001aa0e1409de570e300ef01700a0003a0e81610e730e398'
p1199
L124L
tp1200
a(S'munmap'
p1201
S'042de300ef049de40a1eff'
p1202
L28L
tp1203
a(S'mprotect'
p1204
S'042de300ef049de40a1eff'
p1205
L28L
tp1206
a(S'madvise'
p1207
S'042de300ef049de40a1eff'
p1208
L28L
tp1209
a(S'trecurse'
p1210
S'0490e5402de340a0e160a01a30e3000aa0e110e100140004a0e110e10009000620e130e340bde130e340bde120e1'
p1211
L168L
tp1212
a(S'tdestroy_recurse'
p1213
S'702de100e100e3001a0008000094e5ffe100e8'
p1214
L84L
tp1215
a(S'maybe_split_for_insert.isra.0'
p1216
g17
L408L
tp1217
a(S'tsearch'
p1218
g17
L336L
tp1219
a(S'tfind'
p1220
S'0051e3402de160a01a00ea2fe1100050e3000a840540d4f4'
p1221
L80L
tp1222
a(S'tdelete'
p1223
S'5c352de2d000e230e230e5000a5096e550d5280002a0e130e370e3a0000096e5000550c230a501c3b360850053e3408414000093e500e13018000457e151a01a870721e220e3d00aa0e120e5f1'
p1224
L1380L
tp1225
a(S'twalk'
p1226
S'0050e3001eff0120'
p1227
L20L
tp1228
a(S'tdestroy'
p1229
S'0050e3ff'
p1230
L12L
tp1231
a(S'next_line'
p1232
S'f84f2de54093e570e180a0e120e110e176eb00080001e240870096e5004a003a000a'
p1233
L404L
tp1234
a(S'sysinfo_mempages'
p1235
S'702de150a0eb00015483a09aa0e300fa'
p1236
L84L
tp1237
a(S'get_nprocs'
p1238
S'ac32e9244de200e530e5'
p1239
L692L
tp1240
a(S'get_nprocs_conf'
p1241
g17
L216L
tp1242
a(S'get_phys_pages'
p1243
S'10e948d00094e500e500eb20e5000400389de500e240bd'
p1244
L68L
tp1245
a(S'get_avphys_pages'
p1246
S'10e948d00094e500e500eb20e5000400389de500e240bd'
p1247
L68L
tp1248
a(S'__getclktck'
p1249
S'0c9fe500e300'
p1250
L20L
tp1251
a(S'__init_misc'
p1252
S'702de2800055e3802f10eb30e3508050832070'
p1253
L64L
tp1254
a(S'mremap'
p1255
S'9000e570e300ef9000e3ff'
p1256
L32L
tp1257
a(S'prctl'
p1258
S'9000e570e300ef9000e3ff'
p1259
L32L
tp1260
a(S'sysinfo'
p1261
S'042de300ef049de40a1eff31'
p1262
L28L
tp1263
a(S'accept'
p1264
S'a0412de50006001a00ef017000e1008aa0e801e140a0eb70e510e130e100ef017000e1008a00eb'
p1265
L128L
tp1266
a(S'bind'
p1267
S'042de500ef049de40a1eff31'
p1268
L28L
tp1269
a(S'connect'
p1270
S'a0412de50006001a00ef017000e1008aa0e801e140a0eb70e510e130e100ef017000e1008a00eb'
p1271
L128L
tp1272
a(S'getsockname'
p1273
S'042de500ef049de40a1eff3100'
p1274
L28L
tp1275
a(S'getsockopt'
p1276
S'9000e570e500ef9000e3ff3109'
p1277
L32L
tp1278
a(S'listen'
p1279
S'042de300ef049de40a1eff3108'
p1280
L28L
tp1281
a(S'recv'
p1282
S'a89fe5412de500001a00ef017000e1008aa0e801e150a0e100eb10e130e100e500ef017000e1008a00eb'
p1283
L136L
tp1284
a(S'sub_367F4'
p1285
S'00e320'
p1286
L12L
tp1287
a(S'recvfrom'
p1288
S'b8412de500001a409de5509de57fe300ef017000e1008aa0e801e150a0e100eb20e110e5509de580497fe300ef017000e1008a00eb'
p1289
L152L
tp1290
a(S'send'
p1291
S'a89fe5412de500001a00ef017000e1008aa0e801e150a0e100eb10e130e100e500ef017000e1008a00eb'
p1292
L136L
tp1293
a(S'sendto'
p1294
S'b8412de500001a409de5509de570e500ef017000e1008aa0e801e150a0e100eb20e110e5509de5805470e500ef017000e1008a00eb'
p1295
L152L
tp1296
a(S'setsockopt'
p1297
S'9000e570e500ef9000e3ff3108'
p1298
L32L
tp1299
a(S'socket'
p1300
S'042de500ef049de40a1eff3100'
p1301
L28L
tp1302
a(S'__libc_alloca_cutoff'
p1303
S'042de192'
p1304
L12L
tp1305
a(S'__lll_lock_wait_private'
p1306
g17
L140L
tp1307
a(S'__libc_enable_asynccancel'
p1308
g17
L188L
tp1309
a(S'__libc_disable_asynccancel'
p1310
S'02101eff11412deb6e40e254100046e270e310e140a0e5000500e3e0e1'
p1311
L188L
tp1312
a(S'__register_atfork'
p1313
g17
L400L
tp1314
a(S'__unregister_atfork'
p1315
g17
L380L
tp1316
a(S'__run_fork_handlers'
p1317
g17
L368L
tp1318
a(S'clock_gettime'
p1319
S'0150e3402de5009a7000a08a00e8017000a09a60e220eb30e310ea60e220'
p1320
L100L
tp1321
a(S'__stack_chk_fail_local'
p1322
S'10e900a0'
p1323
L16L
tp1324
a(S'__fortify_fail_abort'
p1325
S'80488048609fe550a0e100eaa0eb0001a001'
p1326
L84L
tp1327
a(S'__fortify_fail'
p1328
S'00a0e9e3'
p1329
L16L
tp1330
a(S'inet_aton'
p1331
g17
L48L
tp1332
a(S'inet_addr'
p1333
S'10e9084de23004'
p1334
L28L
tp1335
a(S'_dl_debug_initialize'
p1336
S'0051e331155c301093e5000c000050e3000a20e520e010e720e500e1ffe120e32005'
p1337
L112L
tp1338
a(S'do_tunable_update_val'
p1339
S'0890e500000a0000e160c141c0000a00000a0001a0330002560130920053e3301130151effe1000510b3000730e030a201a0113015050001a0330002560130920053e3'
p1340
L216L
tp1341
a(S'tunable_initialize'
p1342
S'0890e5402de320e240a0e1200501a0e395000d00e110e1'
p1343
L76L
tp1344
a(S'__tunable_set_val'
p1345
S'089fe50180e0'
p1346
L16L
tp1347
a(S'__tunables_init'
p1348
S'5c352de5d00053e3b0e1011a004f000a409be500000a00e5608b3d800058e3010aa0e2800053e300fa'
p1349
L1380L
tp1350
a(S'__tunable_get_val'
p1351
S'80e1c00043e0e1e0e0e5000ef19f9703000c03507c00030c030043e0e1e0e0e5e0e53083e1100052e3101200308300122fe1e0e0e1e042cee140c1'
p1352
L140L
tp1353
a(S'_dl_aux_init'
p1354
S'0090e523e300019fe54f2de5d030'
p1355
L948L
tp1356
a(S'_dl_non_dynamic_init'
p1357
g17
L2044L
tp1358
a(S'__libc_init_secure'
p1359
S'4830e5001eff11402deb40a0eb00000a30e58000e16e000054e000'
p1360
L80L
tp1361
a(S'_dl_mcount_wrapper'
p1362
S'042de100e49200'
p1363
L20L
tp1364
a(S'_dl_mcount_wrapper_check'
p1365
S'1c9fe5e0e530e3'
p1366
L36L
tp1367
a(S'_dl_discover_osversion'
p1368
S'30e94000eb00c202001a40a0e130e530ff030952e3008ac00181ff02095ee3008ac0038330e2e0e200f8'
p1369
L264L
tp1370
a(S'__libc_init_first'
p1371
g17
L148L
tp1372
a(S'__syscall_error'
p1373
S'0060e210e10ae3e0e1'
p1374
L48L
tp1375
a(S'__gconv_open'
p1376
g17
L1116L
tp1377
a(S'__gconv'
p1378
g17
L476L
tp1379
a(S'__gconv_alias_compare'
p1380
S'0091e500'
p1381
L12L
tp1382
a(S'derivation_compare'
p1383
S'702de150a0e510eb0070bde5001fde'
p1384
L48L
tp1385
a(S'__gconv_get_modules_db'
p1386
S'049fe500'
p1387
L12L
tp1388
a(S'__gconv_get_alias_db'
p1389
S'049fe500'
p1390
L12L
tp1391
a(S'__gconv_release_step'
p1392
S'702de100e3000a300053e3305420e55092e500055025e1fd'
p1393
L132L
tp1394
a(S'find_derivation'
p1395
g17
L2540L
tp1396
a(S'__gconv_compare_alias'
p1397
g17
L252L
tp1398
a(S'__gconv_find_transform'
p1399
g17
L904L
tp1400
a(S'__gconv_close_transform'
p1401
g17
L248L
tp1402
a(S'insert_module'
p1403
g17
L232L
tp1404
a(S'detect_conflict'
p1405
S'4830e90054e3000a50a0ea94a50054e3000a10b800f6ff01a0e870'
p1406
L80L
tp1407
a(S'add_module.isra.0'
p1408
g17
L900L
tp1409
a(S'add_alias2.isra.1.part.2'
p1410
g17
L108L
tp1411
a(S'__gconv_get_path'
p1412
S'684f2de2d00093e530e523e340a0e5000500e3e0e1'
p1413
L880L
tp1414
a(S'__gconv_read_conf'
p1415
S'4424e54f2debb0e234e5d00092e520e530e130e519eb00f60a34e530e3000a20e500f79fe520080b0493e510e530e3d00d00e5dceb20e5dceb13e19f'
p1416
L1100L
tp1417
a(S'__gconv_get_builtin_trans'
p1418
g17
L160L
tp1419
a(S'__gconv_btwoc_ascii'
p1420
S'80e30013ff'
p1421
L16L
tp1422
a(S'__gconv_transform_internal_ucs4'
p1423
g17
L1124L
tp1424
a(S'__gconv_transform_ucs4_internal'
p1425
g17
L1440L
tp1426
a(S'__gconv_transform_internal_ucs4le'
p1427
g17
L1096L
tp1428
a(S'__gconv_transform_ucs4le_internal'
p1429
g17
L1452L
tp1430
a(S'__gconv_transform_ascii_internal'
p1431
g17
L736L
tp1432
a(S'__gconv_transform_internal_ascii'
p1433
g17
L1900L
tp1434
a(S'__gconv_transform_internal_utf8'
p1435
g17
L2820L
tp1436
a(S'__gconv_transform_utf8_internal'
p1437
g17
L3196L
tp1438
a(S'__gconv_transform_ucs2_internal'
p1439
g17
L1740L
tp1440
a(S'__gconv_transform_internal_ucs2'
p1441
g17
L2496L
tp1442
a(S'__gconv_transform_ucs2reverse_internal'
p1443
g17
L1776L
tp1444
a(S'__gconv_transform_internal_ucs2reverse'
p1445
g17
L2560L
tp1446
a(S'__gconv_transliterate'
p1447
g17
L1092L
tp1448
a(S'find_module_idx'
p1449
g17
L232L
tp1450
a(S'find_module'
p1451
g17
L244L
tp1452
a(S'__gconv_get_cache'
p1453
S'049fe500'
p1454
L12L
tp1455
a(S'__gconv_load_cache'
p1456
g17
L464L
tp1457
a(S'__gconv_compare_alias_cache'
p1458
S'9c30e994409fe5d00094e500300a50a0e260a0e1'
p1459
L164L
tp1460
a(S'__gconv_lookup_cache'
p1461
g17
L1136L
tp1462
a(S'__gconv_release_cache'
p1463
S'0c9fe530e3ff01b7'
p1464
L20L
tp1465
a(S'known_compare'
p1466
S'0091e500'
p1467
L12L
tp1468
a(S'do_release_shlib'
p1469
S'702de240a0e340a0e38000e520e5000c0002830070bde200048570bde50070bdeb408570bde300da30048280aa20e500'
p1470
L144L
tp1471
a(S'__gconv_find_shlib'
p1472
g17
L400L
tp1473
a(S'__gconv_release_shlib'
p1474
S'0c9fe510e500'
p1475
L20L
tp1476
a(S'_nl_postload_ctype'
p1477
S'68402d'
p1478
L12L
tp1479
a(S'__current_locale_name'
p1480
S'1c9fe5e0e520e1'
p1481
L20L
tp1482
a(S'__ctype_b_loc'
p1483
S'109fe5e0e5'
p1484
L12L
tp1485
a(S'__ctype_toupper_loc'
p1486
S'149fe5e0e5'
p1487
L12L
tp1488
a(S'__ctype_tolower_loc'
p1489
S'149fe5e0e5'
p1490
L12L
tp1491
a(S'__ctype_init'
p1492
S'4030e5'
p1493
L12L
tp1494
a(S'__setfpucw'
p1495
S'389fe530e520e230012aee209fe50ae300e330e000e1ff012aee1eff'
p1496
L64L
tp1497
a(S'__sigsetjmp'
p1498
S'6cc0c0009ce5c00223048c02e0304430e530e720e3000a8b05a1ecec02ecec02ecec02ecec02ecec0300'
p1499
L116L
tp1500
a(S'__sigjmp_save'
p1501
S'0051e3402de1001a1110a0e12f844d79eb1f6fe112'
p1502
L56L
tp1503
a(S'_quicksort'
p1504
S'ecc39fe54f2de5df0051e300e5519de5000a70e10000a0e221e040a0e120e5009a'
p1505
L1012L
tp1506
a(S'__add_to_environ'
p1507
g17
L1092L
tp1508
a(S'setenv'
p1509
S'0050e2402d0a30e5000b0001e110e140a0eb2004000630e100e8149fe520e763'
p1510
L88L
tp1511
a(S'unsetenv'
p1512
g17
L344L
tp1513
a(S'clearenv'
p1514
g17
L252L
tp1515
a(S'secure_getenv'
p1516
S'149fe530e3001a'
p1517
L28L
tp1518
a(S'read_int'
p1519
S'0090e5402de5509fe541e03041e220e530e5300953e3008a00f7'
p1520
L104L
tp1521
a(S'group_number'
p1522
S'f84f2de570e100ff00fd0001e1909de5009abde1b0e0a0a0eb10e1808de000018a06202ae0e2000152e20001e2001a00e6ff0144e00014000245e200e0c0c002e1200285005ce3'
p1523
L260L
tp1524
a(S'_i18n_number_rewrite'
p1525
g17
L596L
tp1526
a(S'_IO_helper_overflow'
p1527
S'd0c0402de0d000e150a00a10e530e0300c53e1009aa0e1ffe130037300e1008a000610eb3014841894e500e1208550c385009abde587eb20e2'
p1528
L204L
tp1529
a(S'printf_positional'
p1530
g17
L8116L
tp1531
a(S'vfprintf'
p1532
g17
L8532L
tp1533
a(S'buffered_vfprintf'
p1534
g17
L616L
tp1535
a(S'hack_digit'
p1536
S'0090e5402de3d002000490e5004a000a30e1001090e55090e5000a002700ca90e510e510e100e160001094e5200243e001e56091e500108439000c94e5310395e760860051e3311a10030004330141e20009000051e310f7ff01a0e13070bde330e100eb0004001094e5201084038200e2800aa0e210e16195e763eb608604850600e2800053e330088060a0da00e280d4'
p1537
L376L
tp1538
a(S'_i18n_number_rewrite_0'
p1539
g17
L596L
tp1540
a(S'__guess_grouping.part.0'
p1541
S'10e900d10530e54084ff53e3000a00050003a0e0'
p1542
L88L
tp1543
a(S'__printf_fp_l'
p1544
g17
L8624L
tp1545
a(S'__printf_fp'
p1546
S'30e900e1409fe747'
p1547
L20L
tp1548
a(S'__guess_grouping'
p1549
S'00d10143e230e200000000a0'
p1550
L32L
tp1551
a(S'__printf_fphex'
p1552
S'0d4f2de331e2b0e130e21f9fe530e510e530e110e5001a46'
p1553
L5280L
tp1554
a(S'register_printf_modifier'
p1555
S'0090e5412de20000910200ff54e3008ab50054e3'
p1556
L436L
tp1557
a(S'__handle_registered_modifier_mb'
p1558
g17
L228L
tp1559
a(S'__handle_registered_modifier_wc'
p1560
g17
L232L
tp1561
a(S'fprintf'
p1562
S'0e00e90c4de230e1c030e5e6'
p1563
L44L
tp1564
a(S'read_int_0'
p1565
S'0090e5c030e902e00492e54082100951e3008a001a000600ca8330e00003810892e54082300953e3008ab23043e2000530e3'
p1566
L168L
tp1567
a(S'group_number_0'
p1568
g17
L188L
tp1569
a(S'_i18n_number_rewrite_1'
p1570
g17
L324L
tp1571
a(S'_IO_helper_overflow_0'
p1572
S'5c30e90c93e5d00455e160a0e1000ae520e530e0300153e1109aa0e520e130037300a08ae541a0e520048020eb30e54042e0408320e120070085009abde100e241bdea'
p1573
L236L
tp1574
a(S'printf_positional_0'
p1575
g17
L8492L
tp1576
a(S'vfwprintf'
p1577
g17
L8816L
tp1578
a(S'buffered_vfprintf_0'
p1579
g17
L640L
tp1580
a(S'funlockfile'
p1581
g17
L128L
tp1582
a(S'read_int_1'
p1583
S'0090e5402de5509fe541e03041e220e530e5300953e3008a00f7'
p1584
L104L
tp1585
a(S'__parse_one_specmb'
p1586
g17
L2080L
tp1587
a(S'read_int_2'
p1588
S'0090e5c030e902e00492e54082100951e3008a001a000600ca8330e00003810892e54082300953e3008ab23043e2000530e3'
p1589
L168L
tp1590
a(S'__parse_one_specwc'
p1591
g17
L2096L
tp1592
a(S'_IO_file_doallocate'
p1593
g17
L324L
tp1594
a(S'fputs'
p1595
g17
L388L
tp1596
a(S'_IO_wfile_doallocate'
p1597
S'1c90e5402de350a00a10e500e32003'
p1598
L108L
tp1599
a(S'fwrite'
p1600
S'f84f2de0000a4093e550a0e270e18017001a93e528eb30e2000e000a10e130e1001aa0e3e0e1'
p1601
L488L
tp1602
a(S'getdelim'
p1603
S'0051e300'
p1604
L740L
tp1605
a(S'_IO_getline_info'
p1606
g17
L372L
tp1607
a(S'_IO_getline'
p1608
S'042de2e0e5c004'
p1609
L36L
tp1610
a(S'_IO_padn'
p1611
g17
L288L
tp1612
a(S'_IO_wpadn'
p1613
g17
L284L
tp1614
a(S'save_for_wbackup.isra.0'
p1615
S'0091e54f2de1b0e530e5a0a0e000014ae011e251a011200ae0e520e140a0e3'
p1616
L468L
tp1617
a(S'_IO_least_wmarker'
p1618
S'5c20e500e30040010120e50002a0e3'
p1619
L56L
tp1620
a(S'_IO_switch_to_main_wget_area'
p1621
S'0090e530e3e0e5c00893e520e5e0e5c0088320'
p1622
L60L
tp1623
a(S'_IO_switch_to_wbackup_area'
p1624
S'0090e530e3e0e510e5c02093e5e0e510e520e5'
p1625
L60L
tp1626
a(S'_IO_wsetb'
p1627
g17
L92L
tp1628
a(S'_IO_wdefault_pbackfail'
p1629
g17
L360L
tp1630
a(S'_IO_wdefault_finish'
p1631
S'5c10e91891e50002003c94e5501311003094e500040000a0e530e3'
p1632
L128L
tp1633
a(S'_IO_wdefault_uflow'
p1634
S'702de55090e530e0300153e140a09aa0e1005c2004831015c2eb'
p1635
L84L
tp1636
a(S'__woverflow'
p1637
S'6c30e900e160a00a9fe55094e530e0300153e1009aa0e140bde110eb'
p1638
L92L
tp1639
a(S'_IO_wdefault_xsputn'
p1640
g17
L216L
tp1641
a(S'_IO_wdoallocbuf'
p1642
S'5c10e5001eff1130e900e1001a30e1001094e500e230e240bd'
p1643
L84L
tp1644
a(S'_IO_wdefault_doallocate'
p1645
S'10e902a0eb100500e329eb00e8'
p1646
L56L
tp1647
a(S'_IO_switch_to_wget_mode'
p1648
S'5c30e90c93e540a0e1009ae00c93e5ffe1001094e520e50ce3001a93e500e10035008320e500e5800883'
p1649
L132L
tp1650
a(S'_IO_free_wbackup_area'
p1651
S'0090e530e3402de1000a10e3202893e500e500e5c0'
p1652
L100L
tp1653
a(S'__wuflow'
p1654
S'6c30e300ba00e1000a3027001ae520e50028000094e50ce3000a00e52ce3200893e5c00883209528000052e3000a93e510e6'
p1655
L336L
tp1656
a(S'__wunderflow'
p1657
S'6c30e300ba00e1000a3027001ae520e50028000094e50ce3000a00e52ce3200893e5c0008300e5008a202520e2000050e3001a5094e530e0300153e1009aa0e804a0eb00d3ff00e070bde580f501eb00f7ff6c30'
p1658
L320L
tp1659
a(S'_IO_wdefault_xsgetn'
p1660
g17
L204L
tp1661
a(S'_IO_sputbackwc'
p1662
S'5c30e900e100e20004000150e120008320e530e0300053e1009aa0e100009415008430'
p1663
L132L
tp1664
a(S'_IO_sungetwc'
p1665
S'5c30e90893e540a0e1009a42e210e3300084309fe55090e530e0300153e1009ae004a0e1'
p1666
L116L
tp1667
a(S'_IO_adjust_wcolumn'
p1668
S'042de0000900041ee5300a5ce3001a00ea5ce3000a00fa'
p1669
L88L
tp1670
a(S'_IO_init_wmarker'
p1671
S'0091e5402de340a0e1101ae50ce330150243e031e520e5508470bde1'
p1672
L92L
tp1673
a(S'_IO_wmarker_delta'
p1674
S'0490e5000a000093e520e330150890e5304331e0ffe100e3ff'
p1675
L64L
tp1676
a(S'_IO_seekwmark'
p1677
S'0491e5002500e500042de230ba0893e5000ae0e51ce310e520e5c0288320e000e3'
p1678
L172L
tp1679
a(S'_IO_unsave_wmarkers'
p1680
S'3090e50000a0150053e3ff01'
p1681
L32L
tp1682
a(S'do_encoding'
p1683
S'2490e520e3001a00e50000a0e100e3ff'
p1684
L44L
tp1685
a(S'do_always_noconv'
p1686
S'00a0'
p1687
L8L
tp1688
a(S'do_max_length'
p1689
S'2490e500'
p1690
L12L
tp1691
a(S'do_in'
p1692
g17
L248L
tp1693
a(S'do_unshift'
p1694
g17
L216L
tp1695
a(S'do_out'
p1696
g17
L248L
tp1697
a(S'do_length'
p1698
g17
L192L
tp1699
a(S'_IO_fwide'
p1700
g17
L388L
tp1701
a(S'__libc_scratch_buffer_grow_preserve'
p1702
g17
L156L
tp1703
a(S'__libc_scratch_buffer_set_array_size'
p1704
S'702de120e1c00051e3c001a0e10112000495e50001a02a00e1000a70eb00eb3001a018300503a0e8d1'
p1705
L196L
tp1706
a(S'__libc_dynarray_at_failure'
p1707
S'2c9fe5e0e5d000'
p1708
L44L
tp1709
a(S'__libc_dynarray_emplace_enlarge'
p1710
S'0490e5412de3001a0012009642850055e3001aa0e100e10001e1000a10eb80000a30e9'
p1711
L228L
tp1712
a(S'strerror_r'
p1713
g17
L372L
tp1714
a(S'strnlen'
p1715
S'0051e3000a102300e3000a30e5000180001a00ea8300000a00e3201a003000c8c802a0e4c0000a53e500000ac000000ac000000ac000000a0003a08a0010a0e120e1000260802fe10002a0ea51e110ea51e110ea51e110ea'
p1716
L292L
tp1717
a(S'strrchr'
p1718
S'702de20000e160a01a00eaa0e110eb00f8'
p1719
L80L
tp1720
a(S'strtok_r'
p1721
g17
L116L
tp1722
a(S'memchr'
p1723
S'0052e3000a00e3402de2000a30e50070bde200ea0000d00183008003a01a00e80352e344040e4084048416009a9fe530e010e530e100e1001a8000ea8c04230610e100e1001a42e2000ca08a00e0ff00d00e0070bde030ea830070bde1001a'
p1724
L268L
tp1725
a(S'wcslen'
p1726
S'0090e5001e000a90e5001d30e3000a30e300ea820000a00a93e500e3ff0110e2001eff0193e530e3101a00e100e100e100e100'
p1727
L160L
tp1728
a(S'wmemcpy'
p1729
S'02a0'
p1730
L8L
tp1731
a(S'wmemmove'
p1732
S'02a0'
p1733
L8L
tp1734
a(S'wmemset'
p1735
S'0352e3009aa0e20010e510e510e510e5308a42e231e230e33201000083ff0100048310e10000a001'
p1736
L120L
tp1737
a(S'btowc'
p1738
g17
L404L
tp1739
a(S'wcrtomb'
p1740
S'bc00'
p1741
L88L
tp1742
a(S'wcsrtombs'
p1743
S'90c2'
p1744
L664L
tp1745
a(S'wcsnlen'
p1746
S'0051e3000a30e3000a0022000490e50023000251e3000a30e300ea2f0193e500ff0151e20001c01eff01000382ff0193e520e3ff01001083000ac0005ce3'
p1747
L192L
tp1748
a(S'wcschrnul'
p1749
S'0090e500035111ff01b00053e300fb'
p1750
L36L
tp1751
a(S'rewinddir'
p1752
g17
L212L
tp1753
a(S'readdir64'
p1754
S'6031e9048050a0e11ceb10e740a0e5000500e3e0e1'
p1755
L360L
tp1756
a(S'fdopendir'
p1757
S'30e9744de230e140a0e100e57eeb001800'
p1758
L216L
tp1759
a(S'uname'
p1760
S'042de300ef049de40a1eff3191'
p1761
L28L
tp1762
a(S'getuid'
p1763
S'042de300ef049de4ff'
p1764
L20L
tp1765
a(S'geteuid'
p1766
S'042de300ef049de4ff'
p1767
L20L
tp1768
a(S'getgid'
p1769
S'042de300ef049de4ff'
p1770
L20L
tp1771
a(S'getegid'
p1772
S'042de300ef049de4ff'
p1773
L20L
tp1774
a(S'__lxstat64'
p1775
S'8001a0e310ef017000a08a00e80060e220'
p1776
L56L
tp1777
a(S'__fxstatat64'
p1778
S'0350e3402d1a00e510e130ef01700e009a60e220e31ceb30e1801620e71ceb10e320ea'
p1779
L112L
tp1780
a(S'lseek'
p1781
g17
L184L
tp1782
a(S'isatty'
p1783
S'10e940d00094e510e500eb20e5000300106fe102e280'
p1784
L64L
tp1785
a(S'__open64_nocancel'
p1786
S'0e00e990409fe520e530e210e5001a9fe500e1000a28e370e500ef017000a08a9de5200251e1001ad0e81effe100e500ea60e220eb30e310'
p1787
L164L
tp1788
a(S'tcgetattr'
p1789
S'b02de5d00095e530e510e170e300ef017000e1008a001400089de520e520e0c0348310e520e500e520e510e3c00c'
p1790
L204L
tp1791
a(S'brk'
p1792
S'90402de170e300ef017006008a9fe5000082308a00e8389fe520e240e0401beb408100a0eaa0e71b'
p1793
L108L
tp1794
a(S'wctrans'
p1795
S'789fe5412de760a0eb30e54097e530e500120000e300ea85018030e7000a0004a0e170eb0004a01ae550850500e8'
p1796
L128L
tp1797
a(S'towctrans'
p1798
S'0051e3ff0130e533e1ff2121e3ff01c030e031e70010911502810380ff'
p1799
L92L
tp1800
a(S'__readonly_area'
p1801
g17
L476L
tp1802
a(S'is_dst'
p1803
S'702de100e170eb30e50000e1000a20e100eb00020000e300e820c2301953e3'
p1804
L168L
tp1805
a(S'is_trusted_path_normalize'
p1806
S'0051e3000a10e34b2de2d00d30e500eaa0e3000a0001d00180'
p1807
L368L
tp1808
a(S'add_name_to_object.isra.4'
p1809
g17
L188L
tp1810
a(S'lose.isra.6'
p1811
S'80017100e170e18010e5000a00eb00000a700000b800eb00eb00020000a0e589eb10e130e329'
p1812
L120L
tp1813
a(S'_dl_map_object_from_fd.constprop.13'
p1814
g17
L3436L
tp1815
a(S'check_arm_attributes_hfabi.constprop.15'
p1816
g17
L768L
tp1817
a(S'open_verify.isra.9.constprop.14'
p1818
g17
L1560L
tp1819
a(S'open_path.isra.10'
p1820
g17
L1308L
tp1821
a(S'add_path.isra.3.constprop.16'
p1822
S'01711eff01412de550a0e170e300ea93e500e310328310e50081e500109ce5'
p1823
L196L
tp1824
a(S'_dl_dst_count'
p1825
g17
L144L
tp1826
a(S'_dl_dst_substitute'
p1827
g17
L360L
tp1828
a(S'expand_dynamic_string_token'
p1829
g17
L200L
tp1830
a(S'fillin_rpath'
p1831
g17
L700L
tp1832
a(S'cache_rpath.part.12'
p1833
S'088221e3000ac13490e5c0509ee500d00790850490e5001a20e700040000e000a0e5d0e809a0e150a0eb70e2000a30e50048000a20e30001e500e3'
p1834
L476L
tp1835
a(S'_dl_init_paths'
p1836
g17
L624L
tp1837
a(S'_dl_map_object'
p1838
g17
L2148L
tp1839
a(S'_dl_rtld_di_serinfo'
p1840
g17
L436L
tp1841
a(S'check_match'
p1842
g17
L416L
tp1843
a(S'do_lookup_x'
p1844
g17
L2752L
tp1845
a(S'_dl_lookup_symbol_x'
p1846
g17
L2892L
tp1847
a(S'_dl_setup_hash'
p1848
S'5031e3000a93e5402de521e54091e5c000140010810442e0c10c91e511e531e5800053e3ff0193e520e521e531e130e310e507'
p1849
L152L
tp1850
a(S'_dl_add_to_namespace_list'
p1851
S'b49fe5402de350a0e1000a00e130e000e120e3001a00ea92e500fb'
p1852
L188L
tp1853
a(S'_dl_new_object'
p1854
g17
L600L
tp1855
a(S'relocate_pc24.13574.isra.0'
p1856
g17
L296L
tp1857
a(S'_dl_try_allocate_static_tls'
p1858
S'4432e3000a90e530e10020008c9fe5c200e56061e23030e0509fe530e012e0c0015ce1003a90e532e531e510e2000a9fe530e100e803a0e331e5801effe100e3'
p1859
L184L
tp1860
a(S'_dl_allocate_static_tls'
p1861
S'4432e900e1000a'
p1862
L52L
tp1863
a(S'_dl_nothread_init_static_tls'
p1864
S'4432e93494e512'
p1865
L24L
tp1866
a(S'_dl_protect_relro'
p1867
S'6830e512e530e020020102030153e1ff01402de040a0e300eb00109fe5'
p1868
L88L
tp1869
a(S'_dl_reloc_bad_type'
p1870
S'5030e5d001e150a0e000eb20e130e2400403d204d200a0e110e5c002c000'
p1871
L88L
tp1872
a(S'_dl_relocate_object'
p1873
g17
L7392L
tp1874
a(S'_dl_important_hwcaps'
p1875
g17
L2128L
tp1876
a(S'_dl_debug_vdprintf'
p1877
g17
L976L
tp1878
a(S'_dl_sysdep_read_whole_file'
p1879
S'702de1d002a0e1deeb5050e240e0020070'
p1880
L144L
tp1881
a(S'_dl_debug_printf'
p1882
S'0fe5e0e5d014'
p1883
L60L
tp1884
a(S'_dl_debug_printf_c'
p1885
S'0fe5e0e5d014'
p1886
L60L
tp1887
a(S'_dl_dprintf'
p1888
S'0e00e5d010'
p1889
L52L
tp1890
a(S'_dl_name_match_p'
p1891
S'702de110e14f'
p1892
L92L
tp1893
a(S'_dl_higher_prime_number'
p1894
S'7c9fe5c04111e010e711e1009a92e731e1003a10e031e000c3301a00e1c00c52e1'
p1895
L132L
tp1896
a(S'_dl_strtoul'
p1897
g17
L484L
tp1898
a(S'_dl_start_profile'
p1899
S'249fe54f2de2df0093e53f8020e131e0005b012a15e000e520e220e350e210e24044e2e0e3c0208300120020130152e3'
p1900
L1580L
tp1901
a(S'_dl_mcount'
p1902
g17
L944L
tp1903
a(S'allocate_dtv'
p1904
S'309fe5402de550a0e300e248'
p1905
L56L
tp1906
a(S'oom'
p1907
S'02a0e99bfc'
p1908
L24L
tp1909
a(S'_dl_next_tls_modid'
p1910
S'702de510e54091e500020001840081a89fe500e2001a0000a0e560840092e5300e000b0083e030e3000a00e1'
p1911
L208L
tp1912
a(S'_dl_count_modids'
p1913
S'709fe530e500020030e5ffe130e5e0e50000a00a10e33012210052e300e1'
p1914
L120L
tp1915
a(S'_dl_get_tls_static_info'
p1916
S'149fe530e520e530'
p1917
L28L
tp1918
a(S'_dl_allocate_tls_storage'
p1919
S'849fe530e900e500e200eb5050e2000a0d8010e0ed'
p1920
L140L
tp1921
a(S'_dl_allocate_tls_init'
p1922
g17
L572L
tp1923
a(S'_dl_allocate_tls'
p1924
S'0050e3402d0a40bdeabd'
p1925
L36L
tp1926
a(S'_dl_deallocate_tls'
p1927
g17
L100L
tp1928
a(S'_dl_tls_get_addr_soft'
p1929
S'4832e3000a2deb10e510e5000501e300e400e110e5000e002a9fe500e1c004000490e5100090e500'
p1930
L148L
tp1931
a(S'_dl_add_to_slotinfo'
p1932
S'c49fe5412de15290e54093e500ea45e0000a0002e130f7ff00e5608685e070e56084'
p1933
L204L
tp1934
a(S'_dl_get_origin'
p1935
g17
L404L
tp1936
a(S'_dl_scope_free'
p1937
S'702de1f4'
p1938
L204L
tp1939
a(S'_dl_make_stack_executable'
p1940
S'5430e900e130e52002000093e55c'
p1941
L80L
tp1942
a(S'_dl_runtime_resolve'
p1943
S'1f00e51010018100a0e8'
p1944
L36L
tp1945
a(S'_dl_runtime_profile'
p1946
g17
L192L
tp1947
a(S'length_mismatch'
p1948
S'02a0e9f4f9'
p1949
L24L
tp1950
a(S'_dl_exception_create'
p1951
g17
L128L
tp1952
a(S'_dl_exception_create_format'
p1953
S'0c2de9084de260a0e5000a00eb8000e530e3300a00ea000aa0e340e5908903ff7354e3908902e5'
p1954
L480L
tp1955
a(S'_dl_exception_free'
p1956
S'10e90890e543'
p1957
L36L
tp1958
a(S'_dl_cache_libcmp'
p1959
S'10e900d1005ee3000a30ff030952e32040020b00280028000180e0e510e3c0ef'
p1960
L240L
tp1961
a(S'_dl_load_cache_lookup'
p1962
S'209fe54f2de2d00093e540a0e3011a9fe580310001784d010a95e906300a4be220e380'
p1963
L1576L
tp1964
a(S'_dl_unload_cache'
p1965
S'10e90094e53003731094e559'
p1966
L44L
tp1967
a(S'_dl_tlsdesc_return'
p1968
S'0090e5ff'
p1969
L8L
tp1970
a(S'_dl_tlsdesc_undefweak'
p1971
S'0e10e3e0e1'
p1972
L28L
tp1973
a(S'do_dlopen'
p1974
S'4010e530e9104de220e530e110e530e300'
p1975
L60L
tp1976
a(S'dlerror_run'
p1977
S'30e91c4de230e510e300e210e2c0'
p1978
L52L
tp1979
a(S'__libc_dlclose'
p1980
S'00a0e5'
p1981
L12L
tp1982
a(S'__libc_dlsym'
p1983
S'10e9184de200e510e530'
p1984
L36L
tp1985
a(S'__libc_dlvsym'
p1986
S'30e900d22c4de2c00053e300e510e5000a10e5001b0000e310e530e5'
p1987
L284L
tp1988
a(S'do_dlsym_private'
p1989
S'702de1509fe5d00c92e4c00095e500e5e0e5c0c001'
p1990
L128L
tp1991
a(S'do_dlsym'
p1992
S'00a0e4402de3d000e100e53f8104'
p1993
L72L
tp1994
a(S'do_dlvsym'
p1995
S'00a0e4402de2d000e100e53f810c'
p1996
L72L
tp1997
a(S'__libc_dlsym_private'
p1998
S'10e9184de200e510e530'
p1999
L36L
tp2000
a(S'__libc_register_dl_open_hook'
p2001
S'10e900e1'
p2002
L16L
tp2003
a(S'__libc_dlopen_mode'
p2004
S'10e9184de200e510e5e0e530'
p2005
L40L
tp2006
a(S'fatal_error'
p2007
S'9cc001e11000e5e0e50080849fe540a0e350a0010042de6c609fe5c00003'
p2008
L164L
tp2009
a(S'_dl_signal_exception'
p2010
S'4030e900e1'
p2011
L20L
tp2012
a(S'_dl_signal_error'
p2013
S'10e900e1409fe7'
p2014
L20L
tp2015
a(S'_dl_catch_exception'
p2016
S'ccc0c81b4de2e0e1c0c118'
p2017
L52L
tp2018
a(S'_dl_catch_error'
p2019
g17
L48L
tp2020
a(S'__longjmp'
p2021
S'00a0e4409fe520e04094e720049ce4402403a0e1bc4c20e520e730e3000a8b05a1fcec02fcec02fcec02fcec02fcec01b001a0'
p2022
L128L
tp2023
a(S'__mpn_cmp'
p2024
S'0152e2004a0391e7e0e5e1e700072102a000100a00ea310c5ee1001a30f9'
p2025
L104L
tp2026
a(S'__mpn_divrem'
p2027
g17
L1744L
tp2028
a(S'__mpn_lshift'
p2029
S'0142e2402de750630252e260800500e1e2e1e1408104343ca0e10020e570e1'
p2030
L100L
tp2031
a(S'__mpn_rshift'
p2032
S'0052e300'
p2033
L132L
tp2034
a(S'__mpn_mul'
p2035
g17
L860L
tp2036
a(S'__mpn_mul_1'
p2037
S'02'
p2038
L60L
tp2039
a(S'__mpn_impn_mul_n_basecase'
p2040
g17
L260L
tp2041
a(S'__mpn_impn_mul_n'
p2042
S'0113'
p2043
L972L
tp2044
a(S'__mpn_impn_sqr_n_basecase'
p2045
S'0091e5472de38002e1008a000a0002c1c28320daa3e1'
p2046
L256L
tp2047
a(S'__mpn_impn_sqr_n'
p2048
S'0112'
p2049
L808L
tp2050
a(S'__mpn_mul_n'
p2051
S'10e9084de2000094e5c003a00a000b000dc1d0e2c0101b0094e5000f1ad010'
p2052
L152L
tp2053
a(S'__mpn_sub_n'
p2054
g17
L128L
tp2055
a(S'__mpn_submul_1'
p2056
S'00e470e540a0ea95e040ace25057e070e540840480538c0152e2'
p2057
L92L
tp2058
a(S'__mpn_extract_double'
p2059
S'30e9d0e5c001e05fa0e214e316c100c083e0e5c001810480000f1a0000'
p2060
L224L
tp2061
a(S'_itoa_word'
p2062
S'c0e500'
p2063
L200L
tp2064
a(S'_itoa'
p2065
g17
L1264L
tp2066
a(S'_fitoa_word'
p2067
S'702de5d014'
p2068
L112L
tp2069
a(S'_fitoa'
p2070
S'702de5d040e0e540'
p2071
L120L
tp2072
a(S'_itowa'
p2073
g17
L1224L
tp2074
a(S'snprintf'
p2075
S'0c2de9084de2c00ca0e520e500'
p2076
L44L
tp2077
a(S'_IO_strn_overflow'
p2078
S'1c90e5412de20000e170e1000a90e5608030e510e119eb608410e550840484148418e500'
p2079
L88L
tp2080
a(S'vsnprintf'
p2081
g17
L140L
tp2082
a(S'init'
p2083
S'389fe500080010e92c9fe500e3301220e8048320'
p2084
L64L
tp2085
a(S'__dlerror'
p2086
g17
L496L
tp2087
a(S'check_free.isra.0'
p2088
S'702de50070bde110e13beb0070bde1'
p2089
L60L
tp2090
a(S'_dlerror_run'
p2091
S'4431e90c4de260a0e570e1000a9fe500e14095e500000a00040008d40053e3001a30e530e5200c84d5'
p2092
L332L
tp2093
a(S'__libc_register_dlfcn_hook'
p2094
S'10e9b1'
p2095
L12L
tp2096
a(S'__dladdr'
p2097
S'00a0e10a'
p2098
L12L
tp2099
a(S'__dladdr1'
p2100
S'0153e3000a0000a00a20ea'
p2101
L36L
tp2102
a(S'dlinfo_doit'
p2103
S'10e90990e90953e3f19f972700ea06001f06001f06001f06001f06001f060090e50003a00a301094e520e58000a0e80c94e520e8ac11e540bdeaa0e522e58002a0e130'
p2104
L208L
tp2105
a(S'__dlinfo'
p2106
S'10e9184de200e5c000e520e5'
p2107
L48L
tp2108
a(S'dlmopen_doit'
p2109
S'0090e5402de3d014006020e5c00092e500e5c010e51000'
p2110
L124L
tp2111
a(S'__dlmopen'
p2112
S'10e9184de200e1c000e530e5'
p2113
L44L
tp2114
a(S'strerror'
p2115
S'00a0e900e1'
p2116
L104L
tp2117
a(S'strspn'
p2118
g17
L364L
tp2119
a(S'strsep'
p2120
S'702de500000a50a0e139eb30e72001'
p2121
L68L
tp2122
a(S'__getdents64'
p2123
S'80d9e300ef017000a08a00e80060e220'
p2124
L48L
tp2125
a(S'__xstat64'
p2126
S'8001a0e310ef017000a08a00e80060e220'
p2127
L56L
tp2128
a(S'profil_counter'
p2129
S'4410e500e9a330e020e138e11031203100'
p2130
L76L
tp2131
a(S'profil'
p2132
g17
L360L
tp2133
a(S'__profile_frequency'
p2134
S'049fe500'
p2135
L12L
tp2136
a(S'_dl_fixup'
p2137
S'7c90e5432de100e520e530e7c004e1201600008330e0100d003a00e80009000492e500e101a222e50000a0eb60a0e50001a01a00e330e500e5c004a0e520eb34e5000000149de50003a00a11e10001a0e5200320e530e2002f000a30e50000851c'
p2138
L532L
tp2139
a(S'_dl_profile_fixup'
p2140
g17
L600L
tp2141
a(S'add_to_global'
p2142
g17
L608L
tp2143
a(S'_dl_find_dso_for_object'
p2144
S'9830e90053e3000a50a0e500000a000a0005009a130a000500eb00054094e500'
p2145
L160L
tp2146
a(S'_dl_open'
p2147
g17
L420L
tp2148
a(S'_dl_show_scope'
p2149
S'f84f2de5b0e120e590a0e3001a30e530e50002a0e120e5e6eb31e3000a31e100000aa09fe570e5609fe510e1e6eb31e720e3000a40a0e500e710e50003000098e510e310eb31e230e500ed'
p2150
L284L
tp2151
a(S'dl_open_worker'
p2152
g17
L1600L
tp2153
a(S'remove_slotinfo'
p2154
S'702de120e00040a03a91e500190005'
p2155
L284L
tp2156
a(S'_dl_close_worker'
p2157
g17
L3452L
tp2158
a(S'_dl_close'
p2159
S'849fe5402de340a00ae500e510e2001a53e3000aa0eb30e38010e8389fe500f9'
p2160
L140L
tp2161
a(S'_dl_sort_maps'
p2162
S'0151e3ff91'
p2163
L644L
tp2164
a(S'_dl_unmap'
p2165
S'b090e511e110'
p2166
L20L
tp2167
a(S'_dl_addr'
p2168
S'309fe54f2de3d000e170e160a0e5000a03e100eb000001000490e521e530e500af000a20e5b0e510e5000491e520e110e5000ae5002d4190e5929fe5110444e210ea0004b40052e3'
p2169
L824L
tp2170
a(S'_dl_addr_inside_object'
p2171
S'0090e52f8010b0d20153e2003a402dea005421e722e3'
p2172
L104L
tp2173
a(S'__mpn_add_n'
p2174
g17
L128L
tp2175
a(S'__mpn_addmul_1'
p2176
S'00e45090e540a0ea94e05090e540ace270e4c00152e2'
p2177
L76L
tp2178
a(S'dlopen_doit'
p2179
S'0490e5402de331e300104de2001a40a0e520e500e5c0005020e3c00281be0010a0e500eb20e130e1'
p2180
L144L
tp2181
a(S'__dlopen'
p2182
S'10e9184de200e510e520e5'
p2183
L40L
tp2184
a(S'__dlclose'
p2185
S'00a0e979'
p2186
L16L
tp2187
a(S'dlsym_doit'
p2188
S'10e90700eb00'
p2189
L24L
tp2190
a(S'__dlsym'
p2191
S'30e96c409fe5d00094e50000e5000ae500e200'
p2192
L56L
tp2193
a(S'dlvsym_doit'
p2194
S'10e90feb00'
p2195
L24L
tp2196
a(S'__dlvsym'
p2197
S'30e9709fe5d000'
p2198
L60L
tp2199
a(S'setitimer'
p2200
S'042de300ef049de40a1eff'
p2201
L28L
tp2202
a(S'_dl_build_local_scope'
p2203
S'702de110f85191e530e330e331e5000a95e560a0e350850c009831e500e3000ab50051e3'
p2204
L120L
tp2205
a(S'openaux'
p2206
S'10e90090e5d09821e530031204'
p2207
L68L
tp2208
a(S'_dl_map_object_deps'
p2209
S'82e04f2de1b0e2de0c4de2c0c09801e5d00d00e300e2e0e3006c34e501e514e948020a41e2418104b10c03040308039801e50000e300e201e5'
p2210
L3220L
tp2211
a(S'call_init.part.0'
p2212
S'98c1'
p2213
L288L
tp2214
a(S'_dl_init'
p2215
g17
L272L
tp2216
a(S'_dl_check_map_versions'
p2217
S'3490e50053010a4f2de220e520e50002a0e510e1200a20e510e000008d0a001895e520e521e09fe54192e730e36083001a000c94e500000aa0e1'
p2218
L1680L
tp2219
a(S'_dl_check_all_versions'
p2220
g17
L108L
tp2221
a(S'call_dl_lookup'
p2222
S'10e900e1d00894e500e331e520e50004'
p2223
L72L
tp2224
a(S'do_sym'
p2225
g17
L636L
tp2226
a(S'_dl_vsym'
p2227
S'702de5c0204de25094e5e0e30020e5e0e5000ae0e5000c0000a0e1e0e530e5e0e5'
p2228
L216L
tp2229
a(S'_dl_sym'
p2230
S'042de3d000'
p2231
L32L
tp2232
a(S'__gtdf2'
p2233
S'00e00200'
p2234
L8L
tp2235
a(S'__ltdf2'
p2236
S'01a0'
p2237
L8L
tp2238
a(S'__nedf2'
p2239
S'01a0e5c083e1ca0e000a'
p2240
L136L
tp2241
a(S'__aeabi_cdrcmple'
p2242
S'00a0e120e110e1'
p2243
L28L
tp2244
a(S'__aeabi_cdcmple'
p2245
S'01e90050e300'
p2246
L20L
tp2247
a(S'__aeabi_dcmpeq'
p2248
S'082deb0013'
p2249
L20L
tp2250
a(S'__aeabi_dcmplt'
p2251
S'082deb0023'
p2252
L20L
tp2253
a(S'__aeabi_dcmple'
p2254
S'082deb00839d'
p2255
L20L
tp2256
a(S'__aeabi_dcmpge'
p2257
S'082deb00839d'
p2258
L20L
tp2259
a(S'__aeabi_dcmpgt'
p2260
S'082deb0023'
p2261
L20L
tp2262
a(S'__unorddf2'
p2263
S'81'
p2264
L56L
tp2265
a(S'__aeabi_uldivmod'
p2266
S'0053e30004000051e30000e000e00a'
p2267
L60L
tp2268
a(S'__udivmoddi4'
p2269
S'0351e100'
p2270
L300L
tp2271
a(S'read_uleb128'
p2272
S'00a0e130e400e330e2c207201ac0'
p2273
L40L
tp2274
a(S'read_sleb128'
p2275
S'00a0e1e0e520e4e0e200e3c38c07301a00020000e0128c0081'
p2276
L64L
tp2277
a(S'base_of_encoded_value'
p2278
S'ff50e3000a002053e3000a009a00500007000a000b0001a0ea001053e3001a00e100ea'
p2279
L104L
tp2280
a(S'read_encoded_value_with_base'
p2281
S'500027000a402de110e2d000e10001'
p2282
L340L
tp2283
a(S'read_encoded_value'
p2284
S'702de110e150a0e1'
p2285
L52L
tp2286
a(S'parse_lsda_header'
p2287
S'702de2d001e150a001000ace'
p2288
L168L
tp2289
a(S'_Unwind_SetGR_0'
p2290
S'042de230e520e520e1ca14'
p2291
L44L
tp2292
a(S'_Unwind_GetGR.constprop.0_0'
p2293
S'042de230e220e120eb00e2'
p2294
L44L
tp2295
a(S'__gcc_personality_v0'
p2296
S'03000150e3472de1d002e1000a00eb0008a013d0e80510eb00eb10ef'
p2297
L368L
tp2298
a(S'_fini'
p2299
S'08e9'
p2300
L8L
tp2301
a.