(lp0
(S'_init'
p1
S'06004c459c27219903'
p2
L140L
tp3
a(S'_ftext'
p4
S'0600c0e003'
p5
L188L
tp6
a(S'frame_dummy'
p7
S'0600049c27219903'
p8
L128L
tp9
a(S'__start'
p10
S'21e00111000000749c27219f03f800d0a58fa627f8ff24e8bd'
p11
L100L
tp12
a(S'attack_app_http'
p13
S'06001027219903adbdaf14b110af18bc00a5af21c052a7af20a3c8c4a0930000214000a5'
p14
L19320L
tp15
a(S'attack_init'
p16
S'060098f7d8bdaf10bc00'
p17
L364L
tp18
a(S'attack_kill_all'
p19
S'06002c9c27219903'
p20
L212L
tp21
a(S'attack_parse'
p22
S'060058f59c27219903'
p23
L1468L
tp24
a(S'attack_start'
p25
S'06009cef9c27219903'
p26
L560L
tp27
a(S'attack_get_opt_str'
p28
S'e818af21c000a308a010000000001000181ca2001004439020a200000000001000181ca2001000428c00000010000000000008a29308a30010'
p29
L204L
tp30
a(S'attack_get_opt_int'
p31
S'0600a0e003'
p32
L184L
tp33
a(S'attack_get_opt_ip'
p34
S'0600e8e003'
p35
L180L
tp36
a(S'add_attack'
p37
S'0600349c27219903'
p38
L276L
tp39
a(S'free_opts'
p40
S'0600209c27219903'
p41
L244L
tp42
a(S'attack_gre_ip'
p43
S'06002c9c2721990300af18bc00af21c000a378a2002004058f0000f820000018bcaf8093000021400006243800998f0000f820000018bca300002140000624ff3481030000008093000021400006240024810300000080930000214000062400248103000000809300002140000624ff348103000000809300002140000624ff34810300000080930000214000000007248103000000809300002140000624002481030000008093000021400006243800998f0000f820000018bca3'
p44
L3156L
tp45
a(S'attack_gre_eth'
p46
S'0600d89c27219903bdaf9000af21800000a3a30000214000058f0000f820000018bcafa0000020a400243800998f0000f820000018bca300002140000624ff348103000000a0000020a4002400248103000000a0000020a4002400248103000000a0000020a40024ff348103000000a0000020a40024ff348103000000a0000020a4000002248103000000a0000020a4002400248103000000a0000020a400243800998f0000f820000018bca3'
p47
L3552L
tp48
a(S'attack_tcp_syn'
p49
S'0600f8ce9c2721990300af18bc00af21c000a370a2002004058f0000f820000018bcaf78a200207ca58f00243800998f0000f820000018bca300002140008f0024ff34810300000078a200207ca58f06240024810300000078a200207ca58f0024810300000078a200207ca58f0024ff34810300000078a200207ca58f0024ff34810300000078a200207ca5'
p50
L3420L
tp51
a(S'attack_tcp_ack'
p52
S'06009cc1'
p53
L3256L
tp54
a(S'attack_tcp_stomp'
p55
S'0600e49c27219903bdaf9801af21800100a3a30000214000008f0000f820000018bcafa000002004058f0000f820000018bcafa8a20020ac01243800998f0000f820000018bca300002140000624ff348103000000a8a20020ac012400248103000000a8a20020ac012400248103000000a8a20020ac0124ff348103000000a8a20020ac01243800998f0000f820000018bca30000214000062400248103000000a8a20020ac012400248103000000a8a20020ac01243800998f0000f820000018bca3000021400006243800998f0000f820000018bca3000021400006243800998f0000f820000018bca30000214000000007248103000000a8a20020ac0124002481030000000204030524'
p56
L4048L
tp57
a(S'attack_udp_generic'
p58
S'0600149c2721990300af18bc00af21c000a36000002004058f0000f820000018bcaf680000206c00243800998f0000f820000018bca300002140008f0024ff348103000000680000206c002400248103000000680000206c00243800998f0000f820000018bca300002140008f0024ff348103000000680000206c0024ff348103000000680000206c000002248103000000680000206c00240024810300000068'
p59
L2336L
tp60
a(S'attack_udp_vse'
p61
S'0600f49b9c2721990300af18bc00af21c000a36000002004058f0000f820000018bcaf680000206c00243800998f0000f820000018bca300002140008f0024ff348103000000680000206c002400248103000000680000206c00243800998f0000f820000018bca300002140008f0024ff348103000000680000206c0024698f0000f820000018bca71d'
p62
L2196L
tp63
a(S'attack_udp_dns'
p64
S'060060939c27219903bdaf80af18bc00c000a388a2002004058f0000f820000018bcaf900000209400243800998f0000f820000018bca300002140000624ff3481030000009000002094002400248103000000900000209400243800998f0000f820000018bca300002140000624ff348103000000900000209400240024810300000090000020940024ff3481030000009000002094000007248103000000900000209400243800998f0000f820000018bcaf24'
p65
L2804L
tp66
a(S'attack_udp_plain'
p67
S'06006c88a000af5000af21800000af6000a30000214000058f0000f820000010bcaf6000002004058f0000f820000010bcaf680000206c0024ff348103000000680000206c0024ff348103000000680000206c000002248103000000680000206c0024002481030000003ca0af4400af2ca33400000000000920000010bca70a0000002ca2002044810300000038a010000000001834a20080ff01058f0000f820000010bcae003400000038a2001800102140008f000080'
p68
L1480L
tp69
a(S'get_dns_resolver'
p70
S'0600a4'
p71
L1056L
tp72
a(S'checksum_generic'
p73
S''
p74
L252L
tp75
a(S'checksum_tcpudp'
p76
S'057d27219903'
p77
L556L
tp78
a(S'killer_init'
p79
S'057b27219903efbdafe0b010bc2400000000f820000010bcaf34a08f0000f820000010bc008f00000054818c0000401c00008f000000'
p80
L2508L
tp81
a(S'killer_kill'
p82
S'057127219903'
p83
L84L
tp84
a(S'killer_kill_by_port'
p85
S'057127219903bdaf80af10bc0000242021002160008103000000000320210021600081030000000103202100216000810300000038a0271003202100216000810300000034a2af88a20020b80000f820000010bc2721400000000000f820000010bc272140008f0000f820000010bc000024000000612200a2830022a36122242224'
p86
L3220L
tp87
a(S'has_exe_access'
p88
S'059c2721990310af24a2af0600'
p89
L644L
tp90
a(S'memory_scan_match'
p91
S'0562a010af60106010800920000010bcaf34a324000000501010000004'
p92
L928L
tp93
a(S'mem_exists'
p94
S'e80020a6af24a7af08a0'
p95
L248L
tp96
a(S'main'
p97
S'055d9c27219903f9bdafd8b018bcafe4a5af40008f0000000000214000'
p98
L4608L
tp99
a(S'anti_gdb_entry'
p100
S'054b9c27219903002483fa630008e00000'
p101
L44L
tp102
a(S'resolve_cnc_addr'
p103
S'054b9c27219903'
p104
L376L
tp105
a(S'establish_connection'
p106
S'05499c27219903'
p107
L336L
tp108
a(S'teardown_connection'
p109
S'05489c27219903'
p110
L144L
tp111
a(S'ensure_single_instance'
p112
S'05489c2721990300af18bc2400240000'
p113
L860L
tp114
a(S'unlock_tbl_if_nodebug'
p115
S'05449c2721990300af80af1c83b9620000448cb9428c00af30a4af34a22400000038a2af1ca0240048c424062420214000830920000010bcaf1100000024a2000000000000214000a200101ca28f00000024a28f000000ecff00001ca20040140000a0100000a0100000a32721430000000018a2'
p116
L844L
tp117
a(S'rand_init'
p118
S'05419c27219903'
p119
L232L
tp120
a(S'rand_next'
p121
S'05409c27219903'
p122
L276L
tp123
a(S'rand_str'
p124
S'053f9c27219903'
p125
L336L
tp126
a(S'rand_alphastr'
p127
S'059c2721990300af58001c'
p128
L464L
tp129
a(S'resolv_domain_to_hostname'
p130
S'053c27219903'
p131
L344L
tp132
a(S'resolv_skip_name'
p133
g74
L308L
tp134
a(S'resolv_lookup'
p135
S'0539e811af18bcaf010408058f0000f820000018bcaf68008f0000422400'
p136
L2504L
tp137
a(S'resolv_entries_free'
p138
S'052f9c27219903'
p139
L148L
tp140
a(S'recv_strip_null'
p141
S'052f9c27219903'
p142
L232L
tp143
a(S'scanner_init'
p144
S'059c27219903f8bdafd8b018bc8f0000f820000018bc0081acd4'
p145
L11084L
tp146
a(S'scanner_kill'
p147
S'0503e0bdaf10bc8f0000000000214000008f0000f820000010bc'
p148
L84L
tp149
a(S'setup_connection'
p150
S'0502d0bdaf28b010bcaf18a0af20a0af30a20043'
p151
L492L
tp152
a(S'get_random_ip'
p153
S'0500d8bdaf10bc100000'
p154
L784L
tp155
a(S'consume_iacs'
p156
S'05fd9c27219903'
p157
L928L
tp158
a(S'consume_any_prompt'
p159
S'e0bdaf'
p160
L320L
tp161
a(S'consume_user_prompt'
p162
S'05f89c27219903'
p163
L568L
tp164
a(S'consume_pass_prompt'
p165
S'05f6c830bfaf38a4af'
p166
L428L
tp167
a(S'consume_resp_prompt'
p168
S'05f59c27219903'
p169
L452L
tp170
a(S'add_auth_entry'
p171
S'059c27219903'
p172
L632L
tp173
a(S'random_auth_entry'
p174
S'05'
p175
L336L
tp176
a(S'report_working'
p177
S'05ef9c27219903'
p178
L1008L
tp179
a(S'deobf'
p180
S'05eb27219903'
p181
L540L
tp182
a(S'can_consume'
p183
g74
L104L
tp184
a(S'table_init'
p185
S'05e99903'
p186
L2240L
tp187
a(S'table_unlock_val'
p188
S'05e027219903'
p189
L116L
tp190
a(S'table_lock_val'
p191
S'05dfd8bdaf10bc0000930000c0001898'
p192
L116L
tp193
a(S'table_retrieve_val'
p194
S'05df'
p195
L128L
tp196
a(S'add_entry'
p197
S'05ded8bdaf10bc00a5af30a6af28a28f000020f4'
p198
L184L
tp199
a(S'toggle_obf'
p200
S'05dee810a30000c0001898'
p201
L532L
tp202
a(S'util_strlen'
p203
g74
L100L
tp204
a(S'util_strncmp'
p205
S'05dbd0bdaf10bcaf34a5af38a6af30a4'
p206
L304L
tp207
a(S'util_strcmp'
p208
S'05dad0bdaf10bcaf34a5af30a4'
p209
L272L
tp210
a(S'util_strcpy'
p211
S'05d9d8bdaf10bcaf2ca5af2ca4'
p212
L124L
tp213
a(S'util_memcpy'
p214
g74
L148L
tp215
a(S'util_zero'
p216
g74
L104L
tp217
a(S'util_atoi'
p218
S'05d8b800af48002ca0af48000000000028a28f00000048008f000016020302214000'
p219
L952L
tp220
a(S'util_itoa'
p221
S'05d42721990300af600068000040140000a0100000a20040100000002400a30a020000a2000000000102008f0000100000100000a08f000000100000'
p222
L544L
tp223
a(S'util_memsearch'
p224
S'e80020a6af24a7af08a0'
p225
L272L
tp226
a(S'util_stristr'
p227
S'05d1c02738bfaf400048008f0000a2'
p228
L508L
tp229
a(S'util_local_addr'
p230
S'05cf9c27219903'
p231
L320L
tp232
a(S'util_fdgets'
p233
S'05cd27219903'
p234
L304L
tp235
a(S'util_isupper'
p236
g74
L88L
tp237
a(S'util_isalpha'
p238
g74
L128L
tp239
a(S'util_isspace'
p240
g74
L112L
tp241
a(S'util_isdigit'
p242
g74
L88L
tp243
a(S'fcntl'
p244
S'05cb9c27219903'
p245
L136L
tp246
a(S'fcntl64'
p247
S'05ca219903'
p248
L104L
tp249
a(S'chdir'
p250
S'05ca219903'
p251
L88L
tp252
a(S'close'
p253
S'05c99c27219903'
p254
L84L
tp255
a(S'fork'
p256
S'05c99c27219903'
p257
L84L
tp258
a(S'getpid'
p259
S'05c8e003'
p260
L84L
tp261
a(S'getppid'
p262
S'05c8e003'
p263
L84L
tp264
a(S'ioctl'
p265
S'05c8e003'
p266
L104L
tp267
a(S'kill'
p268
S'05'
p269
L88L
tp270
a(S'open'
p271
S'05'
p272
L124L
tp273
a(S'creat'
p274
S'05'
p275
L28L
tp276
a(S'prctl'
p277
S'05'
p278
L120L
tp279
a(S'read'
p280
S'05'
p281
L84L
tp282
a(S'readlink'
p283
S'05c5e0bdaf18b010bc2400008100f820000010bcac'
p284
L84L
tp285
a(S'select'
p286
S'05c5d8bdaf21a0af18b010bc2738c2'
p287
L120L
tp288
a(S'setsid'
p289
S'05c5e0bdaf18b010bc2400008100f820000010bcac'
p290
L84L
tp291
a(S'sigprocmask'
p292
S'05c4e0bdaf18b010bc24002c8124f820000010bc24ff0d00100724102400008110200920000010bc24001cbf'
p293
L148L
tp294
a(S'time'
p295
S'05c4e0bdaf18b010bc2400008100f820000010bcac'
p296
L84L
tp297
a(S'unlink'
p298
S'05c39c27219903'
p299
L84L
tp300
a(S'write'
p301
S'05c39c27219903'
p302
L84L
tp303
a(S'closedir'
p304
S'05c2219903'
p305
L292L
tp306
a(S'opendir'
p307
S'05c1'
p308
L408L
tp309
a(S'readdir'
p310
S'05c0'
p311
L256L
tp312
a(S'__errno_location'
p313
S'05bf9903800000'
p314
L24L
tp315
a(S'clock'
p316
S'05be9903'
p317
L108L
tp318
a(S'memcpy'
p319
S'08c80040a4000031001503290530000000000000300011380038003001008c008c0018ae8caf8c00e088ffacfff8ff14ff30001138003800300100240014ff18380000240014ff0300003803e70600103000008828b803c8c8e500a988840014ff1030'
p320
L308L
tp321
a(S'memset'
p322
S'08c928001505000044050040040308030023c885070030001138003800300100fdffac04c80023c8850018380000'
p323
L144L
tp324
a(S'memmove'
p325
S'05bc9903'
p326
L816L
tp327
a(S'ntohl'
p328
S'008502040063000500042520'
p329
L40L
tp330
a(S'ntohs'
p331
g74
L24L
tp332
a(S'htonl'
p333
S'008502040063000500042520'
p334
L40L
tp335
a(S'htons'
p336
g74
L24L
tp337
a(S'inet_addr'
p338
S'05b99903'
p339
L72L
tp340
a(S'accept'
p341
S'05b89903'
p342
L84L
tp343
a(S'bind'
p344
S'05b89903'
p345
L84L
tp346
a(S'connect'
p347
S'05b727219903'
p348
L84L
tp349
a(S'getsockname'
p350
S'05b727219903'
p351
L84L
tp352
a(S'getsockopt'
p353
S'05b727219903'
p354
L120L
tp355
a(S'listen'
p356
S'05b627219903'
p357
L84L
tp358
a(S'recv'
p359
S'05b627219903'
p360
L84L
tp361
a(S'recvfrom'
p362
S'05b527219903'
p363
L128L
tp364
a(S'send'
p365
S'05b527219903'
p366
L84L
tp367
a(S'sendto'
p368
S'05b527219903'
p369
L128L
tp370
a(S'setsockopt'
p371
S'05b427219903'
p372
L120L
tp373
a(S'socket'
p374
S'05b427219903'
p375
L84L
tp376
a(S'raise'
p377
S'05b327219903'
p378
L76L
tp379
a(S'sigaddset'
p380
S'05b327219903'
p381
L104L
tp382
a(S'sigemptyset'
p383
S'05b227219903'
p384
L60L
tp385
a(S'signal'
p386
S'05b227219903'
p387
L252L
tp388
a(S'__sigismember'
p389
g74
L40L
tp390
a(S'__sigaddset'
p391
g74
L44L
tp392
a(S'__sigdelset'
p393
g74
L48L
tp394
a(S'malloc'
p395
S'05b127219903'
p396
L492L
tp397
a(S'calloc'
p398
S'05af9c27219903'
p399
L180L
tp400
a(S'free'
p401
S'05ae9c27219903'
p402
L396L
tp403
a(S'realloc'
p404
S'05ac9c27219903'
p405
L472L
tp406
a(S'__heap_alloc'
p407
S'00a22400244300c20000000c0624001000000000002be61a4014002410000023e6048c0000c0000000000008c200046810000030000021e002000088100c42240003008c0000ff210008e00000'
p408
L188L
tp409
a(S'__heap_alloc_at'
p410
S'0083'
p411
L184L
tp412
a(S'__heap_link_free_area'
p413
S'04a7ac03c00010c50010000000ac08e00000'
p414
L44L
tp415
a(S'__heap_link_free_area_after'
p416
S'03c000000010c50003'
p417
L28L
tp418
a(S'__heap_free'
p419
S'05a99903'
p420
L364L
tp421
a(S'atol'
p422
S'05a79c272199038008200a06'
p423
L28L
tp424
a(S'strtol'
p425
S'05a79c27219903810300'
p426
L28L
tp427
a(S'_stdlib_strto_l'
p428
S'05a79c27219903'
p429
L592L
tp430
a(S'exit'
p431
S'05a59c27219903'
p432
L240L
tp433
a(S'sleep'
p434
S'05a49c27219903'
p435
L564L
tp436
a(S'__uClibc_fini'
p437
S'05a29903'
p438
L196L
tp439
a(S'__pthread_return_0'
p440
S'08e02100'
p441
L8L
tp442
a(S'_pthread_cleanup_push_defer'
p443
S'08e00000'
p444
L8L
tp445
a(S'__check_one_fd'
p446
S'05a19903'
p447
L136L
tp448
a(S'__uClibc_init'
p449
S'05a09903'
p450
L140L
tp451
a(S'__uClibc_main'
p452
S'05a09903bdafa400af9c00af9400af10bc0090c00000'
p453
L872L
tp454
a(S'sigaction'
p455
S'059c9c2721990300af5c00af10bc00880090808010062400120009201ca28e008e0018a21000000012300000'
p456
L232L
tp457
a(S'__syscall_rt_sigaction'
p458
S'059b9c27219903'
p459
L84L
tp460
a(S'_exit'
p461
S'059b9c27219903'
p462
L80L
tp463
a(S'fstat'
p464
S'059b9c27219903bdafac00af10bc2721c0102400008100f820000010bcac0800'
p465
L140L
tp466
a(S'__getdents'
p467
S'059ad8bdaf20b21cb118b010bc8f0000f82021bc188813002102120792'
p468
L192L
tp469
a(S'__getdents64'
p470
S'05999c272199030003af3cb738b634b530b42cb328b224b120b018bc2410001000e8b321c000af216002020000001090400081030000008f00'
p471
L456L
tp472
a(S'getegid'
p473
S'05979c27219903'
p474
L88L
tp475
a(S'geteuid'
p476
S'05979c27219903'
p477
L88L
tp478
a(S'getgid'
p479
S'05979c27219903'
p480
L84L
tp481
a(S'getuid'
p482
S'05969c27219903'
p483
L84L
tp484
a(S'lseek64'
p485
S'05969c27219903'
p486
L164L
tp487
a(S'nanosleep'
p488
S'05959c27219903'
p489
L84L
tp490
a(S'sbrk'
p491
S'05959c27219903'
p492
L144L
tp493
a(S'times'
p494
S'05949c27219903'
p495
L84L
tp496
a(S'__xstat64_conv'
p497
S'05949c27219903'
p498
L288L
tp499
a(S'__xstat_conv'
p500
S'05939c27219903'
p501
L276L
tp502
a(S'inet_aton'
p503
S'05929c272199038058a0'
p504
L280L
tp505
a(S'abort'
p506
S'05919c27219903'
p507
L428L
tp508
a(S'_dl_aux_init'
p509
S'05'
p510
L44L
tp511
a(S'brk'
p512
S'05'
p513
L112L
tp514
a(S'__do_global_ctors_aux'
p515
S'058ed8bdaf1cb118b010bc'
p516
L108L
tp517
a(S'_fini'
p518
S'058ee0bdaf1cbfaf011100008e200020390920000010bc00bf000003'
p519
L92L
tp520
a.