(lp0
(S'_init'
p1
S'9de39840002800003801008100'
p2
L28L
tp3
a(S'__do_global_dtors_aux'
p4
S'9de3982300a000210000800b0000c0c2fcc44000bf60040000a000'
p5
L124L
tp6
a(S'call___do_global_dtors_aux'
p7
S'9de3988100'
p8
L12L
tp9
a(S'frame_dummy'
p10
S'9de3980300'
p11
L96L
tp12
a(S'call_frame_dummy'
p13
S'9de3988100'
p14
L12L
tp15
a(S'_start'
p16
S'bc235894035a17004019001296129498137010013500000001ac001d3c01'
p17
L76L
tp18
a(S'attack_app_http'
p19
S'03'
p20
L7100L
tp21
a(S'attack_get_opt_str'
p22
S'900aff80940a0402800880d6029210028084a001bfa008028100'
p23
L96L
tp24
a(S'attack_start'
p25
S'9de3984000e88004a2000000e8210100800a8003001018220000224000000880fc0100030000c6000804a640018088208820800100830200c4e080f98820c200101b4000'
p26
L216L
tp27
a(S'attack_parse'
p28
S'9de3988004a6600480ea08a66005ee0e204e200220a4067fa90580bf004000'
p29
L536L
tp30
a(S'attack_kill_all'
p31
S'9de3982100a200a20404a200c0d00880c0d00ca200c0d01080c0d014a200c0d01880c0d01ca200c0c010004000c50404a2ffc04000bfd008bf600400b9d00ca2'
p32
L336L
tp33
a(S'attack_get_opt_ip'
p34
S'900aff80940a0402800880d04000a20084a001bfa0080280fc0100'
p35
L112L
tp36
a(S'attack_get_opt_int'
p37
S'900aff80940a0402800880d04000a20084a001bfa0080280fc92100a800100'
p38
L112L
tp39
a(S'attack_init'
p40
S'9de3989210082a03001021000c8422002a042ad0882a9202c28460ff2c8424882201006a10010010d2842a04220004882ac28460ff2c8424882201005590100100620c842a04220004882ac28460ff2c842488220100409010010010d2842a04220004882ac28460ff2c8424882201002b10030050'
p41
L856L
tp42
a(S'attack_gre_eth'
p43
S'9de3409210040e204000a9b4a0b41002101aff92101b003fd0bfff101b'
p44
L1552L
tp45
a(S'attack_gre_ip'
p46
S'9de3509210040e20400025b4a0bc961000'
p47
L1428L
tp48
a(S'attack_tcp_stomp'
p49
S'9de3280e204000c02027bebcb4a01b27be02'
p50
L1828L
tp51
a(S'attack_tcp_ack'
p52
S'9de3380e204000901018bf02101bfa5190101a003fd0bfff1003fa4a90101a27bf0410407ffa4490101a1005ae1008fa90101a27bf1bfa3814ff27bf1bfa3214ff27bf1bfa2c101a27bf1bfa90101a27bf0b'
p53
L1692L
tp54
a(S'attack_tcp_syn'
p55
S'9de3489210040e20400050901018209610001008f8aa90101a003f92101b1003f8a392101b27bf0410407ff89d90101a1005a8007ff89790101a27bf1bf89190101a27bf1bf88b14ff27bf1bf885101b27bf12'
p56
L1616L
tp57
a(S'attack_udp_plain'
p58
S'9de3880e204000bc921004100821b4a03f92101b63a41008f790101a1008637ff792101b1000ff0592101b1001ffff2c1030a227bfecc0'
p59
L580L
tp60
a(S'attack_udp_generic'
p61
S'9de37810040e2040002b0ea0dc2092101bf6003f92101b1003ff7e101a27bf0410407ff6101a1005a8007ff6101a27bf1bf6009614ff1007a61008f6101a10001008f6101a10011008f6101a00bc92101b63ff5390101a27bf03001e94101180d0bf0127bf030009a2008310a000c2e080ba100000c0f4c4bf1c280080a4040803ff103510'
p62
L1280L
tp63
a(S'attack_udp_vse'
p64
S'9de380204000eb1018209610001008f54590101a003f92101b1003ff90101a27bf0410407ff538101b20aa1008f53214ff27bf1bf52c101a00b8001aff25a0001f90101d4000ec90101da210031eeb100280a61008100027bf0300d6981004a20027bf000080a4101007bf1827bfff03ff10371000009a20c2f4d0600205400010'
p65
L968L
tp66
a(S'attack_udp_dns'
p67
S'9de3489210040e204000f9901018b7941002101bf45390101a003fd0b79614ff1003f44c90101a27b794100410407ff44690101a1005baff4090101a101b007ff43a101b27b794100796103590101a101b007ff490101a10001008f4281008101bffdb100811101e9210001090101e40000000ee90101e8027a00010101514100815101190101f9210001090101f9210111390101410081090101f808096101105009810000b8001808318a000808810010002a009809205008092052080e84000ae0100900a038003948a80030280e7a2008080b780f801004000cf90101792100310111d0280b8100127bf030004a200c2b007b7c0f480c6b7b4000400b600'
p68
L1628L
tp69
a(S'checksum_generic'
p70
S'80090092028480a2'
p71
L100L
tp72
a(S'checksum_tcpudp'
p73
S'9de3988800800c06200400b420c2000680a6e014'
p74
L204L
tp75
a(S'killer_kill'
p76
S'030000'
p77
L24L
tp78
a(S'killer_kill_by_port'
p79
S'03ff'
p80
L1516L
tp81
a(S'killer_init'
p82
S'03ff'
p83
L1968L
tp84
a(S'anti_gdb_entry'
p85
S'030000bc81'
p86
L20L
tp87
a(S'ensure_single_instance'
p88
S'9de3802094100027bfd300bc9607bf0412941004a200d00018e0a103d400101201cf9010101fc04ce1801a100237bfee'
p89
L356L
tp90
a(S'resolve_cnc_addr'
p91
S'9de3984000aa9010030077100303b00040007c1003800100400075062000d2008520901018040200bc40001ec20400929010041000005eb020120034028081e0'
p92
L148L
tp93
a(S'main'
p94
S'9de3604000cbd04000007d1010006c9210020040008c1014007b100100594000771211001002fda200a0100127bf154000c80400959010100079008100bc0377866284202004300200250007bfb89010130079102400dc07bf54c24c'
p95
L2424L
tp96
a(S'rand_next'
p97
S'0500bcc2b8c2b400bcc4228520c2bc8760131a011a0123'
p98
L80L
tp99
a(S'rand_init'
p100
S'9de39840004790100000bc4000b40008000424b8c6051a0320'
p101
L80L
tp102
a(S'rand_alphastr'
p103
S'9de370007907bfd01080432b0000bce2'
p104
L304L
tp105
a(S'rand_str'
p106
S'9de398802c00bc3500bcf803bc10e2831300b27f'
p107
L248L
tp108
a(S'resolv_entries_free'
p109
S'9de3989096200200d020a2000000162c00008081e0'
p110
L56L
tp111
a(S'resolv_lookup'
p112
S'9de3000307901001006e9010180201b79a078820c4c0010102ffa200c0004e00800580'
p113
L1244L
tp114
a(S'scanner_kill'
p115
S'030000'
p116
L24L
tp117
a(S'setup_connection'
p118
S'9de388062027bfecc0800427bf530100921001139010021008a000400051c0182010030a901010001012010a9010100620c2e8c21400bcd02000e8c208200048941010'
p119
L196L
tp120
a(S'add_auth_entry'
p121
S'9de3982b0005e2932a40009202ec04'
p122
L328L
tp123
a(S'scanner_init'
p124
S'9de3680100030080d063e0813fffbf004000680300204000bf051020202800bcd06300'
p125
L6576L
tp126
a(S'table_retrieve_val'
p127
S'0300108004020210c20002'
p128
L40L
tp129
a(S'table_lock_val'
p130
S'03000aff2a031204a000001830100200090229020200090329030200090229020200090329031204a0'
p131
L152L
tp132
a(S'table_unlock_val'
p133
S'03000aff2a031204a000001830100200090229020200090329030200090229020200090329031204a0'
p134
L152L
tp135
a(S'table_init'
p136
S'9de39840001e94101ea20079000412'
p137
L1944L
tp138
a(S'util_strlen'
p139
S'8400c200809010004a0080'
p140
L48L
tp141
a(S'util_strcpy'
p142
S'c200808420862086e0c209bfe080094000008001bf2081001020'
p143
L96L
tp144
a(S'util_memcpy'
p145
S'8008802801bf80c3e00100'
p146
L44L
tp147
a(S'util_zero'
p148
S'8007'
p149
L40L
tp150
a(S'util_memsearch'
p151
S'8004100810ffbf2010208620900201bf00c40a4a00a0'
p152
L100L
tp153
a(S'util_atoi'
p154
S'9de398c20038a33c18bf2080f70e008318808048e00003'
p155
L388L
tp156
a(S'util_fdgets'
p157
S'9de398a010181018100102b020800b0401808000bf008000'
p158
L100L
tp159
a(S'util_local_addr'
p160
S'9de3800392100200a2100209b020941010a200921011020237bf0827bf5dc2e61010006c9407bf3d'
p161
L132L
tp162
a(S'util_stristr'
p163
S'c200a0009a014b400abf60011000800100c400'
p164
L176L
tp165
a(S'util_strcmp'
p166
S'c2008088208820c208bf20c20080842084a009bfa0028086008120c200bf600100ffbf008120'
p167
L136L
tp168
a(S'util_strncmp'
p169
S'c20080862086e0c208bfe0c20080842084a009bfa00300a200940208029402ff800100c4004a4000bf2081208120'
p170
L156L
tp171
a(S'util_itoa'
p172
S'9de370a6a008a62012600aa000e800c0f7100007bf190010181008101804ff008460300028debf0080841007bf108084801000490080fea1ff8600c200280000fb86e08100a007bf10bfbf00bf00b0000220102086001020'
p173
L316L
tp174
a(S'fork'
p175
S''
p176
L52L
tp177
a(S'.urem'
p178
S'81000100947209e09022'
p179
L32L
tp180
a(S'.udiv'
p181
S'81008100'
p182
L20L
tp183
a(S'.umul'
p184
S'9052008100'
p185
L12L
tp186
a(S'.rem'
p187
S'953a1f8100010094fa0080943a0922'
p188
L44L
tp189
a(S'fcntl'
p190
S'9de390'
p191
L136L
tp192
a(S'fcntl64'
p193
S'9de390'
p194
L100L
tp195
a(S'chdir'
p196
S'9de398'
p197
L68L
tp198
a(S'close'
p199
S'9de398'
p200
L68L
tp201
a(S'getpid'
p202
S'9de398'
p203
L64L
tp204
a(S'getppid'
p205
S'9de398'
p206
L64L
tp207
a(S'ioctl'
p208
S'9de390'
p209
L100L
tp210
a(S'kill'
p211
S'9de398'
p212
L72L
tp213
a(S'open'
p214
S'9de39094100027a054fa27a0198e02a05094101a27bf10321080ba2008a000b000b03fff2200'
p215
L120L
tp216
a(S'creat'
p217
S'9410091300bf00'
p218
L20L
tp219
a(S'prctl'
p220
S'9de398'
p221
L84L
tp222
a(S'read'
p223
S'9de398'
p224
L76L
tp225
a(S'readlink'
p226
S'9de398'
p227
L76L
tp228
a(S'select'
p229
S'9de398'
p230
L84L
tp231
a(S'setsid'
p232
S'9de398'
p233
L64L
tp234
a(S'sigprocmask'
p235
S'9de398901018a660008094101aa00010808096100800b03fff2200e820100880b400b400'
p236
L140L
tp237
a(S'time'
p238
S'9de398'
p239
L72L
tp240
a(S'unlink'
p241
S'9de398'
p242
L68L
tp243
a(S'write'
p244
S'9de398'
p245
L76L
tp246
a(S'closedir'
p247
S'9de388007507bf18060092129010118094101000'
p248
L136L
tp249
a(S'opendir'
p250
S'9de34013001018'
p251
L260L
tp252
a(S'readdir'
p253
S'9de3880620130010100a1240003006200620800ec60c0600d220002d8004201020c00406200620000820040420c203bf2007bf010ab0008100'
p254
L168L
tp255
a(S'__errno_location'
p256
S'110012'
p257
L12L
tp258
a(S'clock'
p259
S'9de3880b9007bfecc4bfff230300'
p260
L56L
tp261
a(S'bcopy'
p262
S'96100810'
p263
L12L
tp264
a(S'memmove'
p265
S'80400800960280768b03020a8080eb8a12600480'
p266
L1448L
tp267
a(S'memcpy'
p268
S'9822092303808008bf600480'
p269
L4196L
tp270
a(S'sub_1C62C'
p271
S'81'
p272
L8L
tp273
a(S'sub_1C634'
p274
S'81'
p275
L8L
tp276
a(S'bzero'
p277
S'1000'
p278
L8L
tp279
a(S'memset'
p280
S'8660ff10021002a2001008'
p281
L192L
tp282
a(S'sub_1C730'
p283
S'81'
p284
L8L
tp285
a(S'inet_addr'
p286
S'9de390901018002ba200'
p287
L40L
tp288
a(S'accept'
p289
S'9de398'
p290
L76L
tp291
a(S'bind'
p292
S'9de38827bf'
p293
L36L
tp294
a(S'connect'
p295
S'9de398'
p296
L76L
tp297
a(S'getsockname'
p298
S'9de398'
p299
L76L
tp300
a(S'getsockopt'
p301
S'9de398'
p302
L84L
tp303
a(S'listen'
p304
S'9de3909010043fbf459207bf'
p305
L28L
tp306
a(S'recv'
p307
S'9de3883fbf'
p308
L32L
tp309
a(S'recvfrom'
p310
S'9de398'
p311
L88L
tp312
a(S'send'
p313
S'9de3883fbf'
p314
L32L
tp315
a(S'sendto'
p316
S'9de398'
p317
L88L
tp318
a(S'setsockopt'
p319
S'9de380bfe8f6bff44000'
p320
L44L
tp321
a(S'socket'
p322
S'9de398'
p323
L76L
tp324
a(S'raise'
p325
S'9de3987ff71018bf00'
p326
L20L
tp327
a(S'sigaddset'
p328
S'9de398'
p329
L56L
tp330
a(S'sigemptyset'
p331
S'9de3989210001080be8100'
p332
L32L
tp333
a(S'signal'
p334
S'9de380008004a6208027bfecb03fff2200e82010bf032084'
p335
L188L
tp336
a(S'__sigismember'
p337
S'9202'
p338
L40L
tp339
a(S'__sigaddset'
p340
S'86009202842090100032932ac209c3e0c2'
p341
L44L
tp342
a(S'__sigdelset'
p343
S'86009202842090100032932ac209e0c4'
p344
L44L
tp345
a(S'malloc'
p346
S'9de3908004a63ff810201800'
p347
L320L
tp348
a(S'calloc'
p349
S'9de398a0a620020081000100'
p350
L112L
tp351
a(S'free'
p352
S'9de39880a0063ffc3100162292101000150000830380a000bd90148c0490100080c4040029162210008005c208200880c20480c204250012fc90241300bdb0212212bfe0'
p353
L232L
tp354
a(S'realloc'
p355
S'9de3988006a21018ffb0203020126007b0001000a404fcb07f800304fcb020a600082000bc9014fc920419001218019014fc80'
p356
L280L
tp357
a(S'__heap_alloc'
p358
S'c20008800200801a0004000180'
p359
L160L
tp360
a(S'__heap_alloc_at'
p361
S'8800940220020000801b000980940a0a80'
p362
L156L
tp363
a(S'__heap_link_free_area'
p364
S'd4600880d62210a00080d2e08100'
p365
L48L
tp366
a(S'__heap_link_free_area_after'
p367
S'80032200220822'
p368
L24L
tp369
a(S'__heap_free'
p370
S'9de398882090101880'
p371
L268L
tp372
a(S'atol'
p373
S'921000c0800100'
p374
L20L
tp375
a(S'strtol'
p376
S'961001800100'
p377
L16L
tp378
a(S'_stdlib_strto_l'
p379
S'9de398030000c4'
p380
L428L
tp381
a(S'exit'
p382
S'9de38800bc94142807bfa810110000bc80059fc01018009c9210010000000000a00000008a40006b00'
p383
L128L
tp384
a(S'sleep'
p385
S'9de3002012bf0800c07880830227bff4a01014'
p386
L428L
tp387
a(S'__uClibc_fini'
p388
S'9de3980500bc'
p389
L132L
tp390
a(S'__pthread_return_0'
p391
S'8120'
p392
L8L
tp393
a(S'_pthread_cleanup_push_defer'
p394
S'8100'
p395
L8L
tp396
a(S'__check_one_fd'
p397
S'9de398921001dba200921019007bff7d12d080010040009d01008100'
p398
L68L
tp399
a(S'__uClibc_init'
p400
S'9de39805000080'
p401
L104L
tp402
a(S'__uClibc_main'
p403
S'9de32000bcc4630300600200bc84e0c41c0680a000'
p404
L620L
tp405
a(S'__socketcall'
p406
S'9de398'
p407
L72L
tp408
a(S'_exit'
p409
S'9de398'
p410
L64L
tp411
a(S'fstat'
p412
S'9de358'
p413
L104L
tp414
a(S'__getdents'
p415
S'9de3989010180092101980b44018e86008066004400006600c066013600406600b0e6012600af4fb940219fff7166008166008a6401abf6010'
p416
L136L
tp417
a(S'__getdents64'
p418
S'9de398'
p419
L288L
tp420
a(S'getegid'
p421
S'9de398'
p422
L64L
tp423
a(S'geteuid'
p424
S'9de398'
p425
L64L
tp426
a(S'getgid'
p427
S'9de398'
p428
L64L
tp429
a(S'getuid'
p430
S'9de398'
p431
L64L
tp432
a(S'lseek64'
p433
S'9de390'
p434
L112L
tp435
a(S'nanosleep'
p436
S'9de398'
p437
L72L
tp438
a(S'sbrk'
p439
S'9de3982100a000a20020a200b03fff80'
p440
L84L
tp441
a(S'times'
p442
S'9de398'
p443
L72L
tp444
a(S'__xstat64_conv'
p445
S'9de398921000'
p446
L140L
tp447
a(S'__xstat_conv'
p448
S'9de398921000'
p449
L156L
tp450
a(S'inet_aton'
p451
S'80008015c3e09010004a00'
p452
L220L
tp453
a(S'sigaction'
p454
S'9de38000c20027bf800106608827bf8427bf18a6a003be78000080b000800b07be048007bee9c2e4a0e88100'
p455
L160L
tp456
a(S'abort'
p457
S'9de38800bc90124c842010bf032084'
p458
L316L
tp459
a(S'_dl_aux_init'
p460
S'c42000bd03008161'
p461
L28L
tp462
a(S'brk'
p463
S'9de398'
p464
L60L
tp465
a(S'__syscall_rt_sigaction'
p466
S'9de398'
p467
L80L
tp468
a(S'__do_global_ctors_aux'
p469
S'9de3980300008008c0c400bf008100'
p470
L60L
tp471
a(S'call___do_global_ctors_aux'
p472
S'9de3988100'
p473
L12L
tp474
a(S'_fini'
p475
S'9de3987f'
p476
L20L
tp477
a.