(lp0
(S'_init'
p1
S'9421e008a690012400c948006908a64e80'
p2
L36L
tp3
a(S'__do_global_dtors_aux'
p4
S'9421'
p5
L148L
tp6
a(S'call___do_global_dtors_aux'
p7
S'7c0290011401142110a64e80'
p8
L28L
tp9
a(S'frame_dummy'
p10
S'3d08a639009421'
p11
L108L
tp12
a(S'call_frame_dummy'
p13
S'7c0290011401142110a64e80'
p14
L28L
tp15
a(S'_start'
p16
S'7c0b213dad616038009421'
p17
L72L
tp18
a(S'attack_app_http'
p19
S'9421a67d0093a12bc1a0517c9623817c337778c07feb900191813a518461518cc1e15c920192219241516892a151801a9061514438d338e37feb48007d8478a0007c1ba31ac07c1b'
p20
L6936L
tp21
a(S'attack_get_opt_str'
p22
S'7c1bc33309a64c810424082840be008800290828419e007d4b7800ec4e808080'
p23
L72L
tp24
a(S'attack_start'
p25
S'7c029341007d43786100fb3b8178a12bc17c23e11c7f78012400ff0083409d0001244100837c0383182120004800ff002f83409e007ffb780038'
p26
L276L
tp27
a(S'attack_parse'
p28
S'7d002ba69421c023e13c7f788114c192e11c01204100936100813401449181108404230000000081a6'
p29
L660L
tp30
a(S'attack_kill_all'
p31
S'7c0293c13fc0900124e11c'
p32
L412L
tp33
a(S'attack_get_opt_ip'
p34
S'7c02900114601b09a640810424082840be008800290800419e007d4b7800ec8014c3332110a64e80808341be917901141b21107808a64e80'
p35
L128L
tp36
a(S'attack_get_opt_int'
p37
S'7c02900114601b09a640810424082840be008800290800419e007d4b7800ec8014c3332110a64e80808341be00480080141b21107808a64e80'
p38
L132L
tp39
a(S'attack_init'
p40
S'9421e008a6380093a110936100601093812400847c7800002980913c003a840400847880380055293a5938011d96852000780001297b88843a840400847880380055293a5938011d963120007800022980913c003a840400847880380055293a5938011d95dd2000780009297b88843a840400847880380055293a5938011d9589200078000329a480913c003a840400847880380055293a5938011d95353d7c78000429c00054843a840400847880380055293a5938011d94e19de13d7c78000580913c003a840400847880380055293a5938011d948d2000780006392d88843a840400847880380055293a5938011d94392000780007392780913c003a840400847880380055293a5938017b8893e59de13d7c78000a29383c003a840400840901107f1938010124610081a6832000'
p41
L900L
tp42
a(S'attack_gre_eth'
p43
S'9421907c029321547c2380900174812841007c1b6100814492e14c930150934100610000dc78a12bc193e16c920130c14800788478a0007feb4b'
p44
L1472L
tp45
a(S'attack_gre_ip'
p46
S'9421907c029341009a900174812801307378814492e14c93015093215493610000dc78a12bc193e16c922134410092c14800788478a0007feb4bffb1c060'
p47
L1364L
tp48
a(S'attack_tcp_stomp'
p49
S'9421607c02928178809001a491815891e15c9201609221924101a11bc192e17c018001dc78a12be19c92610101480078807eab780078a0007c1ba3'
p50
L1608L
tp51
a(S'attack_tcp_ack'
p52
S'94217008a67d0093217499238090019491814891e14c920150922154924100610000a11bc192e16c930170410061000093a12bc193e18c8138007feb4b'
p53
L1508L
tp54
a(S'attack_tcp_syn'
p55
S'9421807d009361002380900184c191e13c0140922144924100610000a100e15c9301607c1b219341008178a12bc193e17c007c1b8478a0007feb4bff31c0546360'
p56
L1444L
tp57
a(S'attack_udp_plain'
p58
S'9421b008a67d00932134992380900154918124c192e12c41009361008178a12bc17c1be14c9261008130767c1b807f780038007fe360'
p59
L824L
tp60
a(S'attack_udp_generic'
p61
S'9421907c029361002380900174812c013061007378814492e14c9301509321549341008178a12bc193e16c91c192410092c148007c1b8478a0007feb4b'
p62
L1244L
tp63
a(S'attack_udp_vse'
p64
S'9421a07d009361002380900191812ca10092e13c777801409321449341008178a12bc193e15c91e11c01204100928119788478a30038004bff7dc060'
p65
L992L
tp66
a(S'attack_udp_dns'
p67
S'94217008a67d0091c17c238090019491814c7c1b015092610808e16c9301702174410861080893a12be18c4108a108c148007c1b8478a0007feb4bff993800546360'
p68
L1648L
tp69
a(S'checksum_generic'
p70
S'2b000024'
p71
L100L
tp72
a(S'checksum_tcpudp'
p73
S'2f8601e3100039002f8900f87e290103a0'
p74
L184L
tp75
a(S'killer_kill'
p76
S'7c023d8090011469c980142110a64e80'
p77
L44L
tp78
a(S'killer_kill_by_port'
p79
S'9421a03810936122029301403b1293a11b6378019321443b0093c13b0093e15c3b0092e13c412281e18038c3780038027f780038cb78a30093e10ce110007fcb78002f83419e05063b004800dd60004800d560004800cd60103834804c'
p80
L1520L
tp81
a(S'killer_init'
p82
S'7c023800011421d441209261209281e4c192e1ec9301'
p83
L1928L
tp84
a(S'anti_gdb_entry'
p85
S'3d6010396c912b68'
p86
L20L
tp87
a(S'ensure_single_instance'
p88
S'7c0238003802014438009381008093e13ce002c190010851912f83380038008038e1419e008303a0eb4c'
p89
L492L
tp90
a(S'resolve_cnc_addr'
p91
S'7c0238030124811400f938004800390e217860004800512f9f00419e009f0000896902963bfb78007d485055293a901d0d0400953804804800d5030060001d2fed8024811408a6831c212000'
p92
L188L
tp93
a(S'main'
p94
S'7c0293c17c1b0184a10093e17c9f230140922144924106489261064c92815492c192e15c93016093219341066893811d48007feb384f21a0eb380044398038114f7d8038053c10384438312f837c1b9e033c800060847feb38004c'
p95
L2580L
tp96
a(S'rand_next'
p97
S'3c103c108102e0026cfe6058284a786378083078637c4a7806e29148e291e290e24e80'
p98
L80L
tp99
a(S'rand_init'
p100
S'7c02380080900124a13a90697c1b00a57f1abc3d3060108378a1e28024212008a64e80'
p101
L112L
tp102
a(S'rand_alphastr'
p103
S'9421a038009e238093e15c38786100930140932144934100610000a1003d00003f60103f0002200240103f8080349c8399e28154a0ae'
p104
L364L
tp105
a(S'rand_str'
p106
S'2c009421e0a10093e11c8102c03fe002fde28030002884fc38048400789d002be578070384035828'
p107
L268L
tp108
a(S'resolv_entries_free'
p109
S'9421'
p110
L68L
tp111
a(S'resolv_lookup'
p112
S'942120a67d0038107c1b60009301c00041009181ac9281b4c192e1bc9381d8007978a32a39b16301d38338010000a640bc04980a00063901bd5b786a01001d002f0000002801ff9907007d53780000ff38007fd30a00a1'
p113
L1308L
tp114
a(S'scanner_kill'
p115
S'7c023d8090011469bd38007c03'
p116
L44L
tp117
a(S'setup_connection'
p118
S'7c0293e12c7f780134a1008093a1'
p119
L236L
tp120
a(S'add_auth_entry'
p121
S'9421d0a6936100601081003f401055299381787aa07c238910c17c2b0110a10093e12c007c1b83933aa048007c1ba33d78a5eb7c1b0000007f037cf8ae6809ae39004200'
p122
L428L
tp123
a(S'scanner_init'
p124
S'7c0291c191e13c0140922144924107489261074c92815492c192e15c930160932193410768938174c193e17c01842b2f833d695c8084e13c08a6'
p125
L6708L
tp126
a(S'table_retrieve_val'
p127
S'2c003d633829'
p128
L40L
tp129
a(S'table_lock_val'
p130
S'3d633829'
p131
L140L
tp132
a(S'table_unlock_val'
p133
S'3d633829'
p134
L140L
tp135
a(S'table_init'
p136
S'7c02381e92a10090014492c13a0092e11ce00b0009200840003b02a12038d6d0a0e27c1b0009001e38029d004800fd3c1038d6e47c7800e16000b30000d91038d6e84800bd939d004800b58038d7007800993893008038d7047c78007500'
p137
L2032L
tp138
a(S'util_strlen'
p139
S'88007c1b60002f804d9e003801ae2f80409eff4e80'
p140
L40L
tp141
a(S'util_strcpy'
p142
S'880080419e0020002901ae2f80409eff2f89ff006b7d0338006301ff7d4b788039002000ff'
p143
L92L
tp144
a(S'util_memcpy'
p145
S'7c2b09a64d'
p146
L36L
tp147
a(S'util_zero'
p148
S'7c2309a64d'
p149
L36L
tp150
a(S'util_memsearch'
p151
S'7f207c1b9d0060'
p152
L92L
tp153
a(S'util_atoi'
p154
S'89003801067d4b78802f0009'
p155
L312L
tp156
a(S'util_fdgets'
p157
S'7c029361007b7801248178a12bc13b0093e11c7f78e478a3004800252f833b00409e00de01000088002f80409eff7f'
p158
L164L
tp159
a(S'util_local_addr'
p160
S'7c0293c13b000134001001080c38003800380048001d2f837c1b2908a078000000380091211000354800e5'
p161
L172L
tp162
a(S'util_stristr'
p163
S'881b000080419e000801ae2f80409eff2f840024017840007d034240006300630150ae39010bbf54002b'
p164
L172L
tp165
a(S'util_strcmp'
p166
S'8800390080419e006b7c18409eff8800200080419e002901ae2f80409eff7f48002901033800004240008800380184014800ff4200e84e80'
p167
L128L
tp168
a(S'util_strncmp'
p169
S'8800390080419e006b7c18409eff8800200080419e002901ae2f80409eff7f5800007f4800a5007c034240000300630184014800'
p170
L132L
tp171
a(S'util_itoa'
p172
S'2c009421c0180300000030052b21404e802f840a00009e003920967d52144a'
p173
L276L
tp174
a(S'ioctl'
p175
S'7c029421d0747f5000780134013801100003ab2b01089e005040419d0080800000203c80006c80409e0000287800cd000c8048005d7c1b004038ff38'
p176
L232L
tp177
a(S'fcntl'
p178
S'7c02390093e12c013404f42b00211000379121102003a100'
p179
L132L
tp180
a(S'fcntl64'
p181
S'7c0293e12c013401380110000300cc90a1007c0074107c1ba2078560'
p182
L100L
tp183
a(S'chdir'
p184
S'7c0293e10c0114000c000274107c1ba2073d38ffe10c2110a64e80'
p185
L72L
tp186
a(S'close'
p187
S'7c0293e10c0114000644000274107c1ba206f593e30060'
p188
L72L
tp189
a(S'fork'
p190
S'7c0293e10c011400020274107c1ba206ad93e30060'
p191
L72L
tp192
a(S'getpid'
p193
S'7c0293e10c01140014000274107c1ba20693e30060'
p194
L72L
tp195
a(S'getppid'
p196
S'7c0293e10c0114004044000274107c1ba2061d38ffe10c2110a64e80'
p197
L72L
tp198
a(S'kill'
p199
S'7c0293e10c011400257c0074107c1ba2050060'
p200
L72L
tp201
a(S'open'
p202
S'7c02390093e12c01348090a100390091210c21102003a94b78000274107c1ba2050060'
p203
L120L
tp204
a(S'creat'
p205
S'7c23804c'
p206
L16L
tp207
a(S'prctl'
p208
S'7c0293e10c011400ab44000274107c1ba2050060'
p209
L72L
tp210
a(S'read'
p211
S'7c0293e10c011400030274107c1ba20493e30060'
p212
L72L
tp213
a(S'readlink'
p214
S'7c0293e10c0114005544000274107c1ba20493e30060'
p215
L72L
tp216
a(S'select'
p217
S'7c0293e10c0114008e0274107c1ba20493e30060'
p218
L72L
tp219
a(S'setsid'
p220
S'7c0293e10c0114004244000274107c1ba20393e30060'
p221
L72L
tp222
a(S'sigprocmask'
p223
S'2c007c027c1bc02b0000ae93e10c'
p224
L120L
tp225
a(S'time'
p226
S'7c0293e10c0114000d7c0074107c1ba20338ffe10c2110a64e80'
p227
L72L
tp228
a(S'unlink'
p229
S'7c0293e10c0114000a0274107c1ba20293e30060'
p230
L72L
tp231
a(S'write'
p232
S'7c0293e10c01140004000274107c1ba20238ffe10c2110a64e80'
p233
L72L
tp234
a(S'closedir'
p235
S'7c023c10bf7f780134a3003800eb7f788040be0239'
p236
L164L
tp237
a(S'opendir'
p238
S'7c023800e000'
p239
L272L
tp240
a(S'readdir'
p241
S'9421d0a63c10bfa31b84e461007feb900134007feb480080043f007f00bd00801400010041a10048003c00001f003f007f0ca9007c021f001d007c582f80419eff8048007febbb08a638004e80'
p242
L192L
tp243
a(S'__errno_location'
p244
S'3c1038d800'
p245
L12L
tp246
a(S'clock'
p247
S'9421e008a6380800807c02012463102120a654637e80'
p248
L56L
tp249
a(S'memcpy'
p250
S'54a9'
p251
L156L
tp252
a(S'memmove'
p253
S'7f18682bbcffe814432a'
p254
L164L
tp255
a(S'memset'
p256
S'54a92363fc514a44514a80'
p257
L144L
tp258
a(S'tcgetattr'
p259
S'9421c0bf9f2380a1749001444c'
p260
L156L
tp261
a(S'tcsetattr'
p262
S'2f8401a69421b041007c1b01547c2b9e002f8402002f8400c0419e00480010c0480020fd09803800900300003fc08000a0009f008118410089008034df38210c6100914100012bc14b'
p263
L356L
tp264
a(S'inet_addr'
p265
S'9421e008a6380000a52f8338ff008080242120a64e80'
p266
L52L
tp267
a(S'accept'
p268
S'9421e008a690610038053800a11380242120a64e80'
p269
L52L
tp270
a(S'bind'
p271
S'9421e008a690610038028124a11280242120a64e80'
p272
L52L
tp273
a(S'connect'
p274
S'9421e008a690610038038124a11280242120a64e80'
p275
L52L
tp276
a(S'getsockname'
p277
S'9421e008a69061003806908108a11238007c03'
p278
L52L
tp279
a(S'getsockopt'
p280
S'9421d0a6906100389000900134a100e1181201342130a64e80'
p281
L60L
tp282
a(S'listen'
p283
S'9421e008a69061003804810800292120a64e80'
p284
L48L
tp285
a(S'recv'
p286
S'9421e008a6906100380a8124a10000f180242120a64e80'
p287
L56L
tp288
a(S'recvfrom'
p289
S'9421d0a6906100380c8108a100e11800b101342130a64e80'
p290
L64L
tp291
a(S'send'
p292
S'9421e008a690610038098124a100007901242120a64e80'
p293
L56L
tp294
a(S'sendto'
p295
S'9421d0a6906100380b8134a100e11800392130a64e80'
p296
L64L
tp297
a(S'setsockopt'
p298
S'9421d0a6906100380e908108a100e1181080342130a64e80'
p299
L60L
tp300
a(S'socket'
p301
S'9421e008a690610038018124a11080242120a64e80'
p302
L52L
tp303
a(S'raise'
p304
S'7c02bf7d780124ff7d0124a4ebbb2120a64bfff4'
p305
L48L
tp306
a(S'sigaddset'
p307
S'7c02900114802f80408118f8d1001639'
p308
L76L
tp309
a(S'sigemptyset'
p310
S'7c0238004b'
p311
L44L
tp312
a(S'signal'
p313
S'2f84'
p314
L224L
tp315
a(S'__sigismember'
p316
S'38fa5484'
p317
L40L
tp318
a(S'__sigaddset'
p319
S'3801fa5484'
p320
L40L
tp321
a(S'__sigdelset'
p322
S'38'
p323
L40L
tp324
a(S'malloc'
p325
S'2c007c02bf0134a20038'
p326
L344L
tp327
a(S'calloc'
p328
S'2f837c02bfe4d69001149e001f1b7f0041bef59938000300007ffb78'
p329
L112L
tp330
a(S'free'
p331
S'2c007c02bf0124'
p332
L256L
tp333
a(S'realloc'
p334
S'2c007c02bf7c780124a2'
p335
L304L
tp336
a(S'__heap_alloc'
p337
S'8103002b00390c230000007f584041bc008a40409c00690000090809088800007d53780804001853780300000b90090048509100380c808100409eff80'
p338
L160L
tp339
a(S'__heap_alloc_at'
p340
S'817805007d58503900894041bd2040be007f289c0005009c008100419e000b084b008100419e002a0480912800007c18a3004e808100ff4e80'
p341
L156L
tp342
a(S'__heap_link_free_area'
p343
S'2f8500a400419e008504000886000090860800'
p344
L44L
tp345
a(S'__heap_link_free_area_after'
p346
S'2c0041'
p347
L28L
tp348
a(S'__heap_free'
p349
S'7c027c1b6000bf0124e30014001000eb78ff049f0038000040409e'
p350
L300L
tp351
a(S'atol'
p352
S'38004800'
p353
L12L
tp354
a(S'strtol'
p355
S'38004800'
p356
L8L
tp357
a(S'_stdlib_strto_l'
p358
S'7c023d211499230134be337f7849e1480008ff0169700040'
p359
L436L
tp360
a(S'exit'
p361
S'9421d0a63c10bfa0e13b0038787f78c378013400c5eb4800b5200280419e007ffb7809a64e80c378804800954800f53d29008900004b'
p362
L132L
tp363
a(S'sleep'
p364
S'7c1b08a6942140bf01c4013920a6380039000091490039ff107d3a00'
p365
L468L
tp366
a(S'__uClibc_fini'
p367
S'3d20020239e07d585093e10c7f700114001829007c032f9f003b'
p368
L148L
tp369
a(S'__pthread_return_0'
p370
S'380000'
p371
L8L
tp372
a(S'__check_one_fd'
p373
S'9421'
p374
L96L
tp375
a(S'__uClibc_init'
p376
S'7c023d200029000114090080409e00003d0bd400009a3d29008900008014e10c2110a64b'
p377
L128L
tp378
a(S'__uClibc_main'
p379
S'7c023d21947c2b01b4807c022bc000a010915de19109d0787978dc781e007c3b8a000090bd003800'
p380
L620L
tp381
a(S'__socketcall'
p382
S'7c0293e10c01140044000274107c1ba2e80060'
p383
L72L
tp384
a(S'_exit'
p385
S'7c02bf7e780114000178000274107c1b'
p386
L60L
tp387
a(S'fstat'
p388
S'9421907c023b0023006c7feb44000274103b1b'
p389
L116L
tp390
a(S'__getdents'
p391
S'7c02bf9f230124007d7e7981140044810cbf00901f007f00bf'
p392
L144L
tp393
a(S'__getdents64'
p394
S'7c0281000500be00d078216e7c23b77876780117541b38007fdb000274107c1b'
p395
L344L
tp396
a(S'getegid'
p397
S'7c0293e10c011400320274107c1ba2e593e30060'
p398
L72L
tp399
a(S'geteuid'
p400
S'7c0293e10c011400310274107c1ba2e593e30060'
p401
L72L
tp402
a(S'getgid'
p403
S'7c0293e10c0114002f44000274107c1ba2e493e30060'
p404
L72L
tp405
a(S'getuid'
p406
S'7c0293e10c011400180274107c1ba2e493e30060'
p407
L72L
tp408
a(S'lseek64'
p409
S'7c027c'
p410
L128L
tp411
a(S'nanosleep'
p412
S'7c0293e10c011400a27c0074107c1ba2e393e30060'
p413
L72L
tp414
a(S'sbrk'
p415
S'7c02bfe0027e78600080ec2f8040be0500009e0080ec7c036014be0500003b'
p416
L112L
tp417
a(S'times'
p418
S'7c0293e10c0114002b0274107c1ba2e393e30060'
p419
L72L
tp420
a(S'__xstat64_conv'
p421
S'9421e008a638007c237c78807feb900124ff4981043d003c083d001c101c141d00901d001d0081915d003c303d001c383c4081915d00001d001d001d008120a64e80'
p422
L204L
tp423
a(S'__xstat_conv'
p424
S'9421e008a638007c237c78807feb900124ff7d1c0020003d001d00901d001d00901d001d00913d001c1c1d00901d001d00901d00901d00901d008120a64e80'
p425
L176L
tp426
a(S'mempcpy'
p427
S'7c02bf7c780124bde180247c1481a638004e80'
p428
L52L
tp429
a(S'inet_aton'
p430
S'2c0041'
p431
L192L
tp432
a(S'sigaction'
p433
S'9421c03900bf9f23be1b0144380041'
p434
L196L
tp435
a(S'_dl_aux_init'
p436
S'801c2002200209e8'
p437
L28L
tp438
a(S'brk'
p439
S'9421'
p440
L52L
tp441
a(S'__syscall_rt_sigaction'
p442
S'7c0293e10c011400ad44000274107c1ba2dd93e30060'
p443
L72L
tp444
a(S'__syscall_error'
p445
S'7c02bf7d780124'
p446
L52L
tp447
a(S'__do_global_ctors_aux'
p448
S'7c023d2904e10c0114e9'
p449
L80L
tp450
a(S'call___do_global_ctors_aux'
p451
S'7c0290011401142110a64e80'
p452
L28L
tp453
a(S'_fini'
p454
S'9421e008a6900124ff242120a64e80'
p455
L32L
tp456
a.