(lp0
(S'_init'
p1
S'0ddfe200eb3700'
p2
L24L
tp3
a(S'__do_global_dtors_aux'
p4
S'30e900d50053e3800094e520e3000a833002a0e520e3'
p5
L104L
tp6
a(S'call___do_global_dtors_aux'
p7
S'042d'
p8
L8L
tp9
a(S'frame_dummy'
p10
S'3c9fe500042de51011'
p11
L68L
tp12
a(S'call_frame_dummy'
p13
S'042d'
p14
L8L
tp15
a(S'_start'
p16
S'00a0e420e500e5c00c9fe532'
p17
L44L
tp18
a(S'attack_app_http'
p19
S''
p20
L7608L
tp21
a(S'attack_get_opt_str'
p22
S'ff000050e3402de240a0dad10253e1c00400090004dc0253e1c0e0e2000ca01aa0e804a0'
p23
L100L
tp24
a(S'attack_start'
p25
g20
L232L
tp26
a(S'attack_parse'
p27
g20
L596L
tp28
a(S'attack_kill_all'
p29
S'30e90094e5001f001a94e550a0e3508421000894e500048423000c94e50008e5001a000c8427001a94e50010e5001a0014842b001c94e50018e5001a8430e809a0eb000050e35084'
p30
L332L
tp31
a(S'attack_get_opt_ip'
p32
S'ff000050e3402de100dad1ff020253e1c00400090004dc0352e1c0e0e2000ca01aa0e80050e3'
p33
L108L
tp34
a(S'attack_get_opt_int'
p35
S'ff000050e3402de100dad1ff020253e1c00400090004dc0352e1c0e0e2000ca01aa0e80050e3'
p36
L112L
tp37
a(S'attack_init'
p38
g20
L776L
tp39
a(S'attack_gre_eth'
p40
g20
L1912L
tp41
a(S'attack_gre_ip'
p42
g20
L1816L
tp43
a(S'attack_tcp_stomp'
p44
g20
L2140L
tp45
a(S'attack_tcp_ack'
p46
g20
L1904L
tp47
a(S'attack_tcp_syn'
p48
g20
L1856L
tp49
a(S'attack_udp_plain'
p50
g20
L740L
tp51
a(S'attack_udp_generic'
p52
g20
L1672L
tp53
a(S'attack_udp_vse'
p54
g20
L1216L
tp55
a(S'attack_udp_dns'
p56
g20
L1960L
tp57
a(S'checksum_generic'
p58
S'0151e3c000a0e520e51002e100038c0280'
p59
L92L
tp60
a(S'checksum_tcpudp'
p61
S'02a0e3402de1688000080000a0e520e5c08300e0e010ca5ce3300504a0e128e528e030e118e030e0280a38e100e1'
p62
L176L
tp63
a(S'killer_kill'
p64
S'089fe500e314'
p65
L16L
tp66
a(S'killer_kill_by_port'
p67
g20
L1380L
tp68
a(S'killer_init'
p69
g20
L1932L
tp70
a(S'anti_gdb_entry'
p71
S'089fe530e5'
p72
L16L
tp73
a(S'ensure_single_instance'
p74
g20
L356L
tp75
a(S'resolve_cnc_addr'
p76
S'702de30beb10e30beb03eb50a0e30beb0058609fe5809402eb10e50f0094e700e503eb00eb10e30beb20e530e534e114e100e530e540bd'
p77
L140L
tp78
a(S'main'
p79
g20
L2500L
tp80
a(S'rand_next'
p81
S'702de5609fe530e5e0e5409fe53522009ee5c004e010e52070'
p82
L72L
tp83
a(S'rand_init'
p84
S'30e9970e00389fe500eb40a0eb509fe5402400e50f0095e520e530e030e5'
p85
L76L
tp86
a(S'rand_alphastr'
p87
g20
L276L
tp88
a(S'rand_str'
p89
g20
L212L
tp90
a(S'resolv_entries_free'
p91
S'10e91094e5005c101ba0e8'
p92
L36L
tp93
a(S'resolv_lookup'
p94
g20
L1356L
tp95
a(S'scanner_kill'
p96
S'089fe500e30c'
p97
L16L
tp98
a(S'setup_connection'
p99
S'702de100e260a0e360'
p100
L208L
tp101
a(S'add_auth_entry'
p102
g20
L408L
tp103
a(S'scanner_init'
p104
g20
L6508L
tp105
a(S'table_retrieve_val'
p106
S'209fe501e000053015021130'
p107
L40L
tp108
a(S'table_lock_val'
p109
S'80e1402de330e10ae030e220e530e504e134e138e2500322ff02'
p110
L176L
tp111
a(S'table_unlock_val'
p112
S'80e1402de330e10ae030e220e530e504e134e138e2500322ff02'
p113
L176L
tp114
a(S'table_init'
p115
g20
L1956L
tp116
a(S'util_strlen'
p117
S'00a0e5000e'
p118
L40L
tp119
a(S'util_strcpy'
p120
S'00d10053e3000ac001dc0053e3'
p121
L84L
tp122
a(S'util_memcpy'
p123
S'0052e3'
p124
L36L
tp125
a(S'util_zero'
p126
S'0051e3'
p127
L36L
tp128
a(S'util_memsearch'
p129
S'0153e1402de150a0e100da00e380fb'
p130
L104L
tp131
a(S'util_atoi'
p132
g20
L300L
tp133
a(S'util_fdgets'
p134
g20
L96L
tp135
a(S'util_local_addr'
p136
g20
L156L
tp137
a(S'util_stristr'
p138
g20
L140L
tp139
a(S'util_strcmp'
p140
S'00d00053e3c000a0e230e700fb'
p141
L132L
tp142
a(S'util_strncmp'
p143
S'042de50002a0010000a0e230e700fb'
p144
L144L
tp145
a(S'util_itoa'
p146
g20
L280L
tp147
a(S'__udivsi3'
p148
S'0151e2'
p149
L248L
tp150
a(S'__aeabi_uidivmod'
p151
S'03e90640bde0100e'
p152
L24L
tp153
a(S'__umodsi3'
p154
S'0151e2003a0000a081'
p155
L204L
tp156
a(S'__modsi3'
p157
S'0051e3000a1000b00060420151e20000a081009a51e30001a032'
p158
L228L
tp159
a(S'fcntl'
p160
S'0e00e90c9de5300014'
p161
L116L
tp162
a(S'fcntl64'
p163
S'0e00e914'
p164
L80L
tp165
a(S'chdir'
p166
S'10e9017000e1009ae230e300'
p167
L44L
tp168
a(S'close'
p169
S'10e9017000e1009ae230e300'
p170
L44L
tp171
a(S'fork'
p172
S'10e9017000e1009ae230e300'
p173
L44L
tp174
a(S'getpid'
p175
S'10e9017000e1009ae230e300'
p176
L44L
tp177
a(S'getppid'
p178
S'10e9017000e1009ae230e300'
p179
L44L
tp180
a(S'ioctl'
p181
S'0e00e914'
p182
L80L
tp183
a(S'kill'
p184
S'10e9017000e1009ae230e300'
p185
L44L
tp186
a(S'open'
p187
S'0e00e90c9de530e2301503a0e100e340a09ae230e300e240bde2'
p188
L92L
tp189
a(S'creat'
p190
S'01a0e5'
p191
L12L
tp192
a(S'prctl'
p193
S'10e9ac00e340a09ae230e300'
p194
L48L
tp195
a(S'read'
p196
S'10e9017000e1009ae230e300'
p197
L44L
tp198
a(S'readlink'
p199
S'10e9017000e1009ae230e300'
p200
L44L
tp201
a(S'select'
p202
S'10e98e90ef017000e1009ae230e300'
p203
L48L
tp204
a(S'setsid'
p205
S'10e9017000e1009ae230e300'
p206
L44L
tp207
a(S'sigprocmask'
p208
S'0051e30010e904001630e330ea7000e1009ae230e320e1'
p209
L84L
tp210
a(S'time'
p211
S'10e9017000e1009ae230e300'
p212
L44L
tp213
a(S'unlink'
p214
S'10e9017000e1009ae230e300'
p215
L44L
tp216
a(S'write'
p217
S'10e9017000e1009ae230e300'
p218
L44L
tp219
a(S'closedir'
p220
g20
L164L
tp221
a(S'opendir'
p222
g20
L248L
tp223
a(S'readdir'
p224
S'30e9104de230e110e120e1'
p225
L192L
tp226
a(S'__errno_location'
p227
S'009fe5'
p228
L8L
tp229
a(S'clock'
p230
S'042de200eb20e530e502e001e3d0'
p231
L48L
tp232
a(S'memset'
p233
S'00a0e300ba018101c31420fb'
p234
L120L
tp235
a(S'inet_addr'
p236
S'042de210eb0000e0009d15'
p237
L36L
tp238
a(S'accept'
p239
S'10e9017000e1009ae230e300'
p240
L44L
tp241
a(S'bind'
p242
S'10e9017000e1009ae230e300'
p243
L44L
tp244
a(S'connect'
p245
S'10e9017000e1009ae230e300'
p246
L44L
tp247
a(S'getsockname'
p248
S'10e9017000e1009ae230e300'
p249
L44L
tp250
a(S'getsockopt'
p251
S'10e92701e340a09ae230e300'
p252
L48L
tp253
a(S'listen'
p254
S'10e9017000e1009ae230e300'
p255
L44L
tp256
a(S'recv'
p257
S'10e9017000e1009ae230e300'
p258
L44L
tp259
a(S'recvfrom'
p260
S'30e93094e8017000e1009ae230e300'
p261
L52L
tp262
a(S'send'
p263
S'10e9017000e1009ae230e300'
p264
L44L
tp265
a(S'sendto'
p266
S'30e93094e8017000e1009ae230e300'
p267
L52L
tp268
a(S'setsockopt'
p269
S'10e901e340a09ae230e300'
p270
L48L
tp271
a(S'socket'
p272
S'10e9017000e1009ae230e300'
p273
L44L
tp274
a(S'raise'
p275
S'10e9c804a0e8'
p276
L24L
tp277
a(S'sigaddset'
p278
S'0051e2e0e500da53e300ca9de400eaa0e500e3'
p279
L48L
tp280
a(S'sigemptyset'
p281
S'042de320eb00'
p282
L24L
tp283
a(S'signal'
p284
S'30e90050134de240a0da50e300d500da'
p285
L180L
tp286
a(S'__sigismember'
p287
S'0141e232e710e230e00013'
p288
L36L
tp289
a(S'__sigaddset'
p290
S'0141e2c20c90e710e220e131e3'
p291
L36L
tp292
a(S'__sigdelset'
p293
S'0141e2c20c90e710e220e131e3'
p294
L36L
tp295
a(S'malloc'
p296
S'702de3d001a00a0040008a8040'
p297
L316L
tp298
a(S'calloc'
p299
S'30e9900550e2000afc'
p300
L88L
tp301
a(S'free'
p302
S'0050e3412d0810c0e270e500e1'
p303
L216L
tp304
a(S'realloc'
p305
g20
L264L
tp306
a(S'__heap_alloc'
p307
S'0091e5402de220e340a0e310e520ea5ce1003a820030008020e330150490e500048320013000e5800050e3'
p308
L148L
tp309
a(S'__heap_alloc_at'
p310
S'042de5e0e100ea60e030e1008a001a30e30012002c82000062008c049d2420089c15089ce53004'
p311
L140L
tp312
a(S'__heap_link_free_area'
p313
S'0052e330e5100508'
p314
L32L
tp315
a(S'__heap_link_free_area_after'
p316
S'0052e310150e'
p317
L20L
tp318
a(S'__heap_free'
p319
g20
L244L
tp320
a(S'abort'
p321
S'43df2c9fe531e1'
p322
L308L
tp323
a(S'atol'
p324
S'00a0e3'
p325
L12L
tp326
a(S'strtol'
p327
S'01a0'
p328
L8L
tp329
a(S'_stdlib_strto_l'
p330
g20
L404L
tp331
a(S'exit'
p332
S'104de210e530e100e1'
p333
L120L
tp334
a(S'sleep'
p335
g20
L416L
tp336
a(S'__uClibc_fini'
p337
S'10e95020e041a0eaa0e74054e2'
p338
L92L
tp339
a(S'__pthread_return_0'
p340
S'00a0'
p341
L8L
tp342
a(S'__check_one_fd'
p343
S'30e901a0e1fa'
p344
L52L
tp345
a(S'__uClibc_init'
p346
S'4420e500042de5'
p347
L76L
tp348
a(S'__uClibc_main'
p349
S'02e1e1e020e2c0019fe510e510e521e510e1200500a0e1fb'
p350
L536L
tp351
a(S'sigaction'
p352
S'702de2df00e150a00aa0e400e330eb1088941594301a9fe500e330e330e500101a10e3201130e100eb3001a0e330e340a00a30e130e220eb30e530e500e2'
p353
L220L
tp354
a(S'__syscall_rt_sigaction'
p355
S'10e9017000e1009ae230e300'
p356
L44L
tp357
a(S'_exit'
p358
S'00e100ef017000e1'
p359
L40L
tp360
a(S'fstat'
p361
S'10e901a0e100e340a09ae240e0008000eaa0e1010ba0e2'
p362
L80L
tp363
a(S'__getdents'
p364
g20
L148L
tp365
a(S'__getdents64'
p366
S'0ddfe2b0e2d003c3e3d0010b0d00e510ef017000e1009ae260e0008000ea000610eae008e140a0e530e500ead402e130e390850c59e124e1009a4be200e300eb0024006ffa'
p367
L356L
tp368
a(S'getegid'
p369
S'10e9017000e1009ae230e300'
p370
L44L
tp371
a(S'geteuid'
p372
S'10e9017000e1009ae230e300'
p373
L44L
tp374
a(S'getgid'
p375
S'10e9017000e1009ae230e300'
p376
L44L
tp377
a(S'getuid'
p378
S'10e9017000e1009ae230e300'
p379
L44L
tp380
a(S'lseek64'
p381
S'702de1d002e110e120e100e340a09ae240e0008000ea0004a0e100ea'
p382
L100L
tp383
a(S'nanosleep'
p384
S'10e9017000e1009ae230e300'
p385
L44L
tp386
a(S'sbrk'
p387
S'30e90094e50000e1001a000050e300ba0055e340a0e0000a000050e300aa00e300'
p388
L84L
tp389
a(S'times'
p390
S'10e9017000e1009ae230e300'
p391
L44L
tp392
a(S'__xstat64_conv'
p393
g20
L784L
tp394
a(S'__xstat_conv'
p395
S'702de150a0e320e1f9'
p396
L204L
tp397
a(S'_memcpy'
p398
S'0051e1003a'
p399
L1160L
tp400
a(S'inet_aton'
p401
S'0050e3402de150a013001a00ea93e530e530e700e3000a40a0ea2330e20000ca80c0'
p402
L232L
tp403
a(S'_dl_aux_init'
p404
S'1c90e530e520e510'
p405
L28L
tp406
a(S'brk'
p407
S'042de100e130e3002aeb30e520e300'
p408
L56L
tp409
a(S'__do_global_ctors_aux'
p410
S'289fe520e50010e910a0e120fa'
p411
L48L
tp412
a(S'call___do_global_ctors_aux'
p413
S'042d'
p414
L8L
tp415
a(S'_fini'
p416
S'0ddfe2c8af1b'
p417
L20L
tp418
a.