(lp0
(S'sub_140001000'
p1
S'53838d8be88db88b8bbb8bb6c18b33898d8375838375835bc3'
p2
L99L
tp3
a(S'sub_140001064'
p4
S'8de9'
p5
L12L
tp6
a(S'sub_140001070'
p7
S'8de9'
p8
L12L
tp9
a(S'sub_14000107C'
p10
S'83e88983c3'
p11
L20L
tp12
a(S'sub_140001090'
p13
S'838dff8d83e9'
p14
L33L
tp15
a(S'sub_1400010B4'
p16
S'8de9'
p17
L12L
tp18
a(S'sub_1400010C0'
p19
S'8b818b338983898d89c7e88b33e881c3'
p20
L84L
tp21
a(S'sub_140001114'
p22
S'8b818b338983898d8989c7e88b33e881c3'
p23
L88L
tp24
a(S'sub_14000116C'
p25
S'8b895783c789898b8be8908d898de8908de89033898de89089898989888989898989898988898989898594888575b9e88985748be8eb8beb8b898a88c789898988898989898389898d338de88d338de889898989898888888b8b8b835fc3'
p26
L480L
tp27
a(S'sub_14000134C'
p28
S'5383c78b8b857480748be8908be890835bc3'
p29
L57L
tp30
a(S'sub_140001388'
p31
S'5383c78b8b857480748b03e8908be890835bc3'
p32
L60L
tp33
a(S'sub_1400013C4'
p34
S'895783808d898b748b85748be8ba8be88de88de88de88de88de88b8b835fe9'
p35
L143L
tp36
a(S'sub_140001460'
p37
S'83c78b8b8b33ff9083c3'
p38
L35L
tp39
a(S'sub_140001484'
p40
S'8957838b8be8f674ba8be88b8b835fc3'
p41
L52L
tp42
a(S'sub_1400014B8'
p43
S'898957838b8b038b893b868b8b85743b768d8de88de88b8b8b83c1033b4680748be88b85758de88b85748b8be88b8be88be8eb8b8be88b85758de889898b8b835fc3'
p44
L249L
tp45
a(S'sub_1400015B4'
p46
S'898957838b8b038b893b868b8b85743b768d8de88de88b8b8b83c1033b4680748be88b85758de88b85748b8be88b8be88be8eb8b8be88b85758de889898b8b835fc3'
p47
L249L
tp48
a(S'sub_1400016B0'
p49
S'898957838b8b038b893b868b8b85743b768d8de88de88b8b8b83c1033b46808d748be88b85758de88b85748b8b03e88b8b03e88be8eb8be88b85758de889898b8b835fc3'
p50
L256L
tp51
a(S'sub_1400017B0'
p52
S'53838be8847538758db9e8ba8de8835bc3'
p53
L63L
tp54
a(S'sub_1400017F0'
p55
S'80748bf7ff8303837583eb838bc3'
p56
L46L
tp57
a(S'sub_140001820'
p58
S'555657545556578db8e82bc7898b33898b8b33387532e9898bff898bbc8b39758b8333ff8be8b68be8b6b98baf03eb38848b8333ff8be838748db9e8e9b783398538858989898988b78b8de8908b8b8b8bff39848b8b83e8f7b7b73b848db9e8908de8e98a80848a2c3c8780878de8908839758be8b68be8b6b8038de8c6c103ebb7338b8de888b7898bba8de88d8de89033ba8de88988b6338de839748de8b7b73b748db9e8908de8908de8e98d8d8de88b8b8bff8bff3b762b8b8be88beb8903338be88b8b8be88b83ff39753b762b8b8be8eb898de8908de8e9b7033b762b8b8be8eb89338de88b8b8bff8b8b8be88b83ff39753b762b8b8be8eb898de83997ebe88b338bff8d8be885748b8be884758a8a8b338b8bff908a8b33e88b815f5e5d5c5f5e5dc3'
p59
L1199L
tp60
a(S'sub_140001CD0'
p61
S'8b885556575455565783c7898a8b338888e884748d8b8de8328b835f5e5d5c5f5e5dc38d8bbe8b8b8bff3b75898b8be885748983858b8bff2b338b8bffe98989898988ba8de8908b8bff8b898b8b838b8b8bff63338b89858e63338b8075636303e88574898375857e837d837e8b2b80758075807580748bffffff3b7deb8b0363898b338bff8b8383778b8b8b8bff8b8de83385848a8b83758d8de8e983758d8bb88b8bff3885be89eb8b8374387483748b338b8bff8be88575847538858b338b8bff38748db9e884848a8838743885898b8bff8b898b8b8beb8b8375387438b0748a88eb837483748b338b8bff8be88575eb387438b0748a888989898b338b8bff903874387483b7898d8575b0e9'
p62
L1016L
tp63
a(S'sub_1400020C8'
p64
S'33837280758d3b728075807580758deb8372807580758075807580753875b8eb8075b8eb8bb838448b8bc3'
p65
L135L
tp66
a(S'sub_140002150'
p67
S'c6e9'
p68
L12L
tp69
a(S'sub_14000215C'
p70
S'8957838a8bbae88b8b8b88835fc3'
p71
L49L
tp72
a(S'sub_140002190'
p73
S'898957838b8d818b8be884748beb8b8b8be88b8b835fc3'
p74
L81L
tp75
a(S'sub_1400021E4'
p76
S'8b558b83c7898989898b8b338989898988338de884848b338de88d3b762b8b8be8eb898b8b83758be8ebf674d18be88b89eb8be88b83ff39753b762b8b8be8eb89b78de88a8b8b8b8b835dc3'
p77
L279L
tp78
a(S'sub_1400022FC'
p79
S'898957838b8b818be884758b8b8be88b8b835fc3'
p80
L70L
tp81
a(S'sub_140002344'
p82
S'8b338bff'
p83
L17L
tp84
a(S'sub_140002358'
p85
S'53838b8d81e884748beb8be8835bc3'
p86
L51L
tp87
a(S'sub_14000238C'
p88
S'8b5383c78b807583838383c68de884748bba8be885748b2bd18de88b8be8908de8835bc3'
p89
L148L
tp90
a(S'sub_140002420'
p91
S'53838be8847532eb338be884758db9e88be8ebb0835bc3'
p92
L68L
tp93
a(S'sub_14000246C'
p94
S'53838b8db9e8bac68d835be9'
p95
L52L
tp96
a(S'sub_1400024A0'
p97
S'83748af61b838389c3'
p98
L32L
tp99
a(S'sub_1400024C0'
p100
S'895783838b758073f674c68b83758074c78db78574b98d3b75838b7589b7837589b783743b7583748983b785758b835fc3c783758dba8be8eb'
p101
L199L
tp102
a(S'sub_140002588'
p103
S'8957838b8b8b83758be88b83758be88b835fc3'
p104
L75L
tp105
a(S'sub_1400025D4'
p106
S'8957838b8b03838b748be8038b03835fc3'
p107
L68L
tp108
a(S'sub_140002620'
p109
S'89555657545556578db8e82b8b33898b8b2b898b8b3b828983828be885848b8b2b843b8f8d8b89e88b8b2b837583758b88e88b84748be885748b0389f6748be88b85740389eb8b8b8d8387838483848384838483848374838583758b2b3b75ff8d3b768b8b2be8eb898b8b8be8e98be88b8dc18d808b888bc18088c6c6a8748be8b98b3b8b8b428be8c6f6748be8b98b3b8b8b428be8c680748be88980748be889c6e98be88b89e8248b88e8c68b3d738b8d8be88183c6b88d8de88db88de8e9838c8be88be885848bc68dba8de88db88de8e9838c8be88a8b802488748b8474e88b8de8ebe88b8de88a80748d8b8474e88b8be8ebe88b8be88a80748d8b8474e88b8be8ebe88b8be88484f68480748be8bbbe233b738b8de8ebbbbe84748be8233b738b8de884748be8233b738b8de88b8b898b2b83e98be88575c78d8de98be885748d8be8eb8be88ad18024888b88e8b68983768d8be88db88be88db88be880748db88b8be8b88d8be88de8b88d8be88d8de88b3b948388758b3b75c6c6c7c6e98b33e88b815f5e5d5c5f5e5dc3e8cc'
p110
L1610L
tp111
a(S'sub_140002C6C'
p112
S'8b5557578d81c789898b33898b8b8de8908b338d398f8de88de88d8d8de88de8b78de88a8b8d89c78a80888ac08088c024888ad02488c080888be9bae88d33e8c78de8898de88b89c78de8b7898de8b7898de88b8de8b6898de8b6ba898de8b98d3c44888de8b68de8888a24888b8bd12488c180b688898b89c78d8be88b8de88b8d8de888bf8b8d8de88d8b8b8de88b8be88b8b85748b030389eb8bc73b4f8de88b8b33e88d8b8b8b5f5f5dc3'
p113
L790L
tp114
a(S'sub_140002F84'
p115
S'55545556578db8e82bc78989898b33898b8b8de890bd8d3338848b03398e888be88b8d8d8bff83748be8908de833e98d8b81898989898d89338d8be889eb888b8de839748de8b789888de8b68de8b789c122888de8b789893b738be8e98bb88d8d8d83742b742b743b75898beb898beb898beb898b8983743b7584748beb838de88b8be88b03898b3b848e838e83848384838483848374838510118b898de8898de8898de889e910118b898de8898de8888de8898de8898db88de88b01b7c189e910118b898de88b89018de8898de888b7bb3b848d3b848d3b84868d3b868d3b85101110118b898de8898de8888de8888de8898de8893b728d89b78d8de8b788e9101110118b898de8898de889e9101110118b898de8898de889b7ba3b72898b3b7289b78d8de8b78d8de8b788b788e9101110118b898de8898de8888de8888de889e910118b898de8888de8888de8888de889e910118b898de8898de8888de8888de889e910118b898a22888b8bd122888bc12288c1228884748de8898a84848de8b78989e9bbb83b440389338be810118b89b8bfbb3b44038a22b8ba3b44888b8bd122b8ba3b4488bb8d448bc122888bc122b8ba3b44888b833b75858a758ab8b93b448874858a758ab8ba3b44888bba233b94b8b93b44883b758beb8bc123bad363b8ba3b4489b98d4403898bc12288c122b88d3b4488b8be4403898de8898de88bb8bebd3b4403898de888b9b83b44898de8b9ba3b44898de889b8be3b448de8888de82cb9ba3b44888de8b78de88bb8b9bb3b4489b9b84403338938748a3c743c743c743c74c7ebc7eb89ebc7b9b83b44898b8a2ca874807389ebc7b8b93b44898075818175c7b8b93b44893b7439b17c8ab8ba3b44888bc180b8ba3b448884748de88b8de88b833b753b75b1eb338abbeb8b8b833b94b88bba3b44888d8d4403898bc18b8b03898d8d3b448bc1033b44b8804589bb3b428b8d8de881833388bc8bb9834403bb8385f7748de88d83ff8075ff2b8d0389898b8d8de883b844b7eb898575b98b8b8de88b8be88b8b8be8e98b8b8de8b8b983448b2b83f78d44858e63bbb88344033b768b2b8be8eb898b8b8de8b73b85b73b85b73b858bb6c1b603c1b603c1b603c1898b8bff8b8b8be88b89b8f78dc18bc103038be83b7e8d898d8be88b8575c6f774bab8834403b88de8b9b88344038be8f7848de88d898d898d8933898bb78db92ac08bd3f684397485748de88b8be88d8be8f674ff8b898376be2bc18de8b68bd38b0b89838375336b898d8be8ff83838c8b8b8b018b8a8de8b739bd84888b8de88a3384758d8b8de8bee9f7848de88b01e98d8be810118b898de8898de88b898a22888b8bc122888bc122888bc122888bc122888575398a748a888bd122888bc12288c12288ebbe338a338de8b739848b8384838483753874898b8bff8b898b8bff8b8d338bff8a8be8b684452b758b338b8bff90847588ba8de884748d8bb9e888e98b398e8b8de88b8b33e88d8b8b8b8b5f5e5d5c5dc3e890'
p116
L4669L
tp117
a(S'sub_1400041C4'
p118
S'55545556578db8e82bc78989898b33898b8b8de890bf3338848b83398e8a8be88b8d8d8bff83748be8e98d8d8b818d89898b898d8989338d8be838748b3b748db9e888ba8de8e989eb8aba8de88382888de889ba8de88b8de8858485848d8d0303888382638de88b39828de88b8de8898de889c12288898b893995748be888ba8de884748d8bb9e888e98b84748de88b8b3b838bf6748de88b8b8be88b0303898b3b848e838e8374838510118b898de822888988e910118b898de885748d8be8e98de822888de8b68983778db88de838748dbe8b8b8de88d8d8de88de88b8b8de88d8de88b3b948888e9bbba834403338be810118b898b88898de8898de8898bc1228874b989eb8b8b3b4e898de8898ba8748de88b8de88b3389a874c78de889898de88b8bc180888a8080888de8888de88b8bc12288c733387589eb3875898b8bc122888bc12288c122888375f68a758a888a2288c183b88ad38445898af61b8389be3b428b8d8de88183c68db88b8de885748b8b8d8be883758b8be88b8be83b748d8be885758884848d8bb9e8e98d8be810118b898de88b8a22888bc122888bc12288c122888888f6748de8eb8b89387485748a8885748b8b8d8be8387439768b39748b8b8b8d338b8be88b8be88989898b397e8b8de88beb8be8908de8338b33e88d8b8b8b8b5f5e5d5c5dc3e890'
p119
L2225L
tp120
a(S'sub_140004A78'
p121
S'5383808b7433eb8bff8b898374837483758be8eb8beb8be8eb8be88b85748b397f8be8eb8b835bc3'
p122
L134L
tp123
a(S'sub_140004B00'
p124
S'53555657545657b8e82bc78b33898b8b8b3338748d8de88d8de8e98087b98d8344b63b8739753875b0e98d8be88b8de890338b8de885758b3d7e8d8de8e98575c6eb3b762b8b8be8eb898b8b8be838748b38848d8d8d8a8df61b238189898b8989898b338be88d8db88b8be88b89888b8b8be88a888d89898b898838758be8ebb6338de88a8df61b238b8be884758d8db9e8ba8de885748be8ebb78de88aeb8db9e8328b33e8815f5e5c5f5e5d5bc3'
p125
L764L
tp126
a(S'sub_140004DFC'
p127
S'53818b33898b8b80758d81b9e884748b80758be8838d83c7e8ba8de88bc68b33e8815bc3'
p128
L189L
tp129
a(S'sub_140004EBC'
p130
S'53838b8b8574e8838383835bc3'
p131
L42L
tp132
a(S'sub_140004EE8'
p133
S'89898957838b8b33eb83748374fff675e839748be88be88b8575338b8b8b835fc38beb'
p134
L117L
tp135
a(S'sub_140004F60'
p136
S'89898957838b8b33e88b85748b8374fff675e88b83758d8b2bb7b72b7583857585748be88beb8beb338b8b8b835fc3'
p137
L157L
tp138
a(S'sub_140005000'
p139
S'53838be8397539748db9e8ba8de8835bc3'
p140
L69L
tp141
a(S'sub_140005048'
p142
S'838b8db9e8ba8d83e9'
p143
L42L
tp144
a(S'sub_140005074'
p145
S'8dc3'
p146
L8L
tp147
a(S'sub_14000507C'
p148
S'898953555657838b8d8b8be8898b838b8b8be8838548835f5e5d5bc3'
p149
L82L
tp150
a(S'sub_1400050D8'
p151
S'89898957838b8b8bbdeb837c8172188bb88be8032b3b738b8b8b835fc3'
p152
L112L
tp153
a(S'sub_140005148'
p154
S'8b89898955545556578d818b33898b898db8e88b8d8b8d2bb92b8b1010111011118b33898d83758b8d2b8d2b8b33898d83758b8d8b8b8b8b8b8b8b8b8b898b898b898b898b898b89c78989b60303b68b33c18d8b8b33c103038b33c18d8b3389b6c18b03b6038b33c18b038b8d8b33c1033389c18d8b3389b6c18b03b6033389c1038b8b338b03c1033389b6c103898b338bb60303c133c10333c103b6033389c10333898bb6038b038bc1338bc1038b338bc103038933c18d8989338bc18989b68bb603038b338bc1038b338bc103038b893389c1038b893389c18989b68bb603038b338bc10333c10303898b8b8d8b338bc103898933b6c1898bb603038b338bc1038b33c103038b893389c103898b893389c18389898589338b89898b8b3333898383728b33e88d8b8b8b8b5f5e5d5c5dc3'
p155
L1127L
tp156
a(S'sub_1400055B0'
p157
S'8b816e8b8b296e6f6fef296e29296e296e7f296e296e296f6229296f6e6e7f6f6262fefe7fef386ffe6fef6e6f627272ef6f6262fefeef386f70fe6f706eef6f7272ef6f706e626262fefeef386ffe6fef6f726e6e6f6e72ef626e6f7f6262fe7ffe62ef386f70fe706fef6f6f7272ef6e6262fe70fe6fef386ffe6e6fef6f7272ef6e626e6262fefeef386f70fe6e6f706eef6f627272ef6f706e6262fefeef386ffe6f6eef6f7272ef6e626f6262fefeef386f70fe706f6eef6f7272ef6e626e706e6262fe6efe62ef386ffe6fef6f7272ef6f626f62fefeef386f70fe6f70ef6f7272ef6e626f626f6270fefeef386ffe6fef6f6e6f6e6f7272ef6e626e6262fefeef386f70fe6e6f62ef6f6f7272ef706e706262fefeef386ffe6fef6e6f7272ef6e626e6262fefeef386f70fe6f70ef6f7272ef6e626e6f706e6262fefeef386ffe6fef6e6f6e7272ef6e626e6262fefeef386f70fe706fef6f6f627272ef6e706e6262fefeef386ffe6e6fef6f7272ef6e6262fefeef386f706efe6f706eef6f7272ef6e626e626270fefeef386ffe6fef6f7272ef6e6e6e626e6262fefeef386f70fe6e6fef6f7272ef70706f6e626e6262fefeef386ffe6fef6f7272ef6e626e6262fefeef386f70fe6f706eef6f7272ef6e626e706e6262fefeef386ffe6fef6f7272ef6e6f626e6262fefeef386f70fe706f6eef6f7272ef6e626e706e6262fefeef386ffe6e6fef6e6f627272ef6e6262fefeef386f70fe6fef6f7272ef706e7062626efefe6f62ef38626ffefe6fef6f7272ef6efeef386f706efe706fef6f6f7272ef6e626f6e6262fe70feef386ffe6fef6f7272ef6e62626efefeef386f70fe6f706eef6f7272ef6e626e626e6270fefeef386ffe6fef6f6f627272ef6e6262fefeef6238626f706efe6f62ef6f7272ef70706e626e627ffefe626eef386f6f626efe6ffe6fef6f7272effeef386f70fe6fef6f7272ef70706f62626ffefeef386ffe6fef6f7272ef6e6262fefeef386ffe6fef628d6f706f7272ef62707062fefeef386ffe6fef6f7272ef6e6262fefeeffe6e3862626ffe706fef6f7272ef7070feeffe386ffe6fef6f7272effeef386f70fe6fef6f7272ef70ef70efefef287f8b7f332828282828282828288bc3'
p158
L3892L
tp159
a(S'sub_1400064E4'
p160
S'898957838b338b8b83768b8b838b83118be88b838b8de88b8b018b39118338748b898bb833898b2b03e88b8be88b8b8983837c8b8b835fc3'
p161
L247L
tp162
a(S'sub_1400065DC'
p163
S'89895783838b8b8b7c6f6f7f6f7f6f7f7f33b8e83389888b8d8b8983837c8bbac1818b318b8b8b31835fc3'
p164
L210L
tp165
a(S'sub_1400066B0'
p166
S'85848b8989898956838b8b8b8bbe8b2b8b033b768be8018b8b838b8383838b7ce8ebe88b1010111011101111832beb8be8018b338b0385858b8b8b8b835ec3'
p167
L263L
tp168
a(S'sub_1400067B8'
p169
S'895556575657818b3389338d8b8b8b8d8b3b762b8d3b8b4703e88b8be803838181728dbeb88d8be88383758b8de88b33e88b815f5e5f5e5dc3'
p170
L226L
tp171
a(S'sub_14000689C'
p172
S'898957838b3381b8e8338d33898de88b338b8be8ff8183728bc6c68b835fc3'
p173
L125L
tp174
a(S'sub_14000691C'
p175
S'8955565754555657818b33898bbe2b898b8b8b85743b728d8b03e88b8dbfb88b8be88381837503892b898173beeb8bb98d83468b338385748d8bc18d03c10389837389898983768b8d8be8eb8be88bff8b83ff898189833b728b8574e883828b8176818d03038b8be88d898b33e88b815f5e5d5c5f5e5dc3'
p176
L471L
tp177
a(S'sub_140006AF4'
p178
S'895383c78be8908de8908de8908de8908de8908de8908be8908b835bc3'
p179
L111L
tp180
a(S'sub_140006B6C'
p181
S'53838d8be88b8be8ba8d835be9'
p182
L54L
tp183
a(S'sub_140006BA4'
p184
S'89555657545556578db8e82b8b33898a8b338b8a8be8338b898be8e98de88bb7e88474847489eb8474b88d8de884748de884743975b88d8be88b8d8de8eb338d8be88b8375b7e88474b8c78b8de88d8b8b8be8338475b88d8be884858b33e88b815f5e5d5c5f5e5dc3b0eb'
p185
L410L
tp186
a(S'sub_140006D40'
p187
S'8b89898957838ac78b8b8b8a818ae88474b0eb807483748dc78a8b8ae88474328b8b8b835fc3'
p188
L137L
tp189
a(S'sub_140006DCC'
p190
S'b885748574b0c332c3'
p191
L19L
tp192
a(S'sub_140006DE0'
p193
S'6381e9'
p194
L15L
tp195
a(S'sub_140006DF0'
p196
S'89895783b78be833847433338be8eb8bebb7e88374837483748374837583eb83eb83eb83eb8383b785758b8b8b835fc3'
p197
L137L
tp198
a(S'sub_140006E7C'
p199
S'53838be8338d8989888988e88de88de88de88de88d835be9'
p200
L125L
tp201
a(S'sub_140006EFC'
p202
S'8b89898989545556838b8b338b8b8b85743976898d83ff39753d838a338ac68b8be884758d8be884758b85758074857484758b8be884758d8be8bfeb8b8b8be88475ff8be88b8575338b8b8b8b835e5d5cc385748b8be885948885748b8b8be88beb'
p203
L327L
tp204
a(S'sub_140007044'
p205
S'898957838be88dbf8b8de885748be88be88383758de88b8d8b8b835fe9'
p206
L120L
tp207
a(S'sub_1400070BC'
p208
S'8957818b3389808b85808580858dc6e8b9c7898d8dc78d8be88b8d8de88de88b8d8be880758de88b8db8e88b33e88b815fc38d8de833e8cc'
p209
L288L
tp210
a(S'sub_1400071DC'
p211
S'895556575657b8e82b8b3389338b838b74837538758383753975c6e9e8e98d3975b88be8b7e889838483848be8e981398483ff39758575b7ebb7b78be884758be88a8474b5b7e8b78d8be8859583748a8375b6847484758d8bb8e8e9847583758385838433898d898b89e88a84748375837483758be884758b8dc68dc6b1c63389c6e8eb8474387484748d3975bb8b8b8be88b8be8eb8b8de88b33e88b815f5e5f5e5dc3'
p212
L635L
tp213
a(S'sub_140007458'
p214
S'8b575455565783c78989898b8a8b3389888b898b898b89898863837e8d8b83ff3875ff3b762b8b8de88b8b8b8beb8b898b8be88b8b8474e8ebe8ff3bba7c84758be8908de88d8b8b8b8b5f5e5d5c5fc3'
p215
L270L
tp216
a(S'sub_140007568'
p217
S'5383838b758075818de8b7e88d8377baa3738074c6837483758375c6835bc3'
p218
L128L
tp219
a(S'sub_1400075E8'
p220
S'5783c7898b8de88b33857483ff3875ff89898989888de8908b8b8be88b8be8908de88b835fc3'
p221
L148L
tp222
a(S'sub_14000767C'
p223
S'89895783338b838b74838538858383753975c68d8be88575c6b88d8be885758b8be88b8de8b88d8be885758b8be88d39748be8eb813975b8e88b8b835fc3'
p224
L255L
tp225
a(S'sub_14000777C'
p226
S'5556578db8e82bc78989898b33898bb733857439748de885753975b7f71b838be88d8be88bbf85758b8d8be8ebb88d8be88575b7e884748be884758b8b8de88b8d8de88de884748b8d8be8b78de8858538748d338b8be88de8908b8de8898a8b8d8de890898989eb8d8de88d8de885748de8908de8eb8d8be8b78db8857483748d857483748374ba8be8eb8be8eb8b8de8908de8908de838758de88b33e88d8b8b8b8b5f5e5dc3'
p227
L714L
tp228
a(S'sub_140007A48'
p229
S'8955565754555657b8e82b8b33898b8bb7e88b838f84838f84838483848384bd2b84838483858db7e883748d8b39758de809c6e98be809e9b785748374837483858d89e9be89e989e9c7e9333985b7e8837483748385c6e9c6e9c6e9333985b7e88d3b7483748385c7e989e9c6e9b7e883848384be2b748d2b748384837483743b85c6e9832bb789038575e9c6e9c6e98db9397533397588e9c68db8e9c6e9c6e9338d3994ff89e9338be8e9333985c6e983848384bd2b842b7483858d333984b7e883bdb9440383858be884858b8dc6b1c633c68b89e8e9b7e883848384838483748374b783898386e98de889ff83eb8d33398db88d44e88d39848dbeba8be88b857489838d8d458be88d85758b8d8be8eb8b8be88d8be885848d3985e983b9b73b75818d8d898d8375e93385848d8d8d8d8b89b789c7e884748be889eb03b7e88475b839758db789e884748b8be889eb03b7e88475b703e883742b74837483742b7483743b75bdeb8bebbdebbdeb8bebbdeb8bb7bab72b857503893b74898b8d03898b898d8b8d89b9b78585e9b7e885748385c6e9c6e98dbe8b8d8be83385758d8d8d3945b8e8e98d8be88575c6e98d8be88575c7e98b8d8be885758d8de98d8be8857589e9b7e883758db78bebb7e8837483748374837589ebc6ebc6ebc6ff8bb78575e98d8be88575c6e98d8be88585c6e9b7e883858dc63339748de883ff3975e938858d3333e88de8e9b7e88b838f748574bc3b748d3b7483748385c6e9c6e9bd89e9c7e9bf89e9c6b7e88385c6e98374bf2b7483743b85c6e9c6e9be89e9b7e88385c6e9838f8483848384838483848385b7e83385848d2b848384838483848384838483848d3b85b78db78b2b3b77b7b32b8d8346eb8a3b8b4584753b77b9a372b72b3b77b72b8d834639b745e883748374838589e989e989e9898989e98d8de8e98debbd89e9c7e98d8de8e98deb88e9c6e9b7e83384748d098de889e9b7e88584b92b84838483848374837483748385398d8d4409e9b7e884848de889e9b7e884848de889e9bf09e983e9b78ae8be83748374837483858bebbdebbdebbd397589898989e984858bb7e88374837483748b8be8b4eb89eb89eb89ff3975e989e983e9b7e88584b93b848d3b7483858de88983768b8be8ba8de885748de8893d7e8b8be88b8be88be8e9be89e9c7e9bd89e9b7e88385b7e83385748d3b748d3b8589e9bd89e9c7e98d338d39758b3333e88de9e883ff3975038be8e9333975c6e9838483748384837483748b8be8e98d338d398510118b89e9c6e98b8be8e98dbe8b8de88b8de8ebb7e8b93b7483748374b889ebc6ebb7e883758de8ff89eb33898b33e88b815f5e5d5c5f5e5dc3'
p230
L4070L
tp231
a(S'sub_140008A30'
p232
S'89898957838b8b33338be88b85742bd1838de88b85748b8b8be88b8574837483758d8be88be8eb8b8b8b835fc3'
p233
L151L
tp234
a(S'sub_140008AC8'
p235
S'8b5556578d81c78989898b33898b8de890338888888933b08d8de884848de88b85848deb83b7e88475b88d8be885758d8be83984b88b8de8b7e88bb7e88d8377baa3738983752bb98575898d8dba8de88d83ff39758b8d8be885758d8be88de88b85858de88b33e88d8b8b8b8b5f5e5dc3'
p236
L450L
tp237
a(S'sub_140008C8C'
p238
S'8bb83b743b7d8b3b743b7fb0c332c3'
p239
L50L
tp240
a(S'sub_140008CC0'
p241
S'8b85743977748b8574397275b0c332c3'
p242
L44L
tp243
a(S'sub_140008CEC'
p244
S'8b89898955545556578d818b33898bb9e833898b8d85848b8d8db88b898be8ba8be8857489b78b8985848bbd898b8a89857e8b8984756303b7e88b8be88b3b8bb644038389893b7c8b8b84758375eb8b8b83038989b785858bbc89038bba890383e88b8585638b89858e83898d8b8d8d4f89858d44e8638b857e8bb78de88d83758b8b638d8d8bff638d8d8b038db7e88383ff89ff3b8cbc8de8ba8de8b7e88b857e8b8b638d033b7403838b3b7c338b33e88d8b8b8b8b5f5e5d5c5dc3'
p245
L744L
tp246
a(S'sub_140008FD4'
p247
S'8955565756578d818b3389338b388b8b758de8bf387585758de88b8deb8de88b8be8ba8de839758584388585858de88be8ba8de839748d8d2bb7b72b7583857585748de88be88b8de88b8de8e932eb8b8de88d8be88b8de8b08b33e88b815f5e5f5e5dc3'
p248
L402L
tp249
a(S'sub_140009168'
p250
S'8584535556575683338b388b748be8e9b9ffb98bff8d898b8bff8d8bffba8bffba8bff8d898d8b8bff8b8b898bff8b8bff8d8b89e8835e5f5e5d5bc3'
p251
L224L
tp252
a(S'sub_140009248'
p253
S'83b9e88b33e8b9e88b33e8b9e8b988e8b988e8808875b9e88be88bbae88075b9e88be88bbae883c3'
p254
L175L
tp255
a(S'sub_1400092F8'
p256
S'8989c3'
p257
L13L
tp258
a(S'sub_140009308'
p259
S'53838bb88b8de889835bc3'
p260
L41L
tp261
a(S'sub_140009334'
p262
S'5383ff8b8bff83758d8bff338575b18a835bc3'
p263
L59L
tp264
a(S'sub_140009370'
p265
S'8989895357818b33898de8338be88b8db8e88de8898d838db88be88d8de88b8de88b33e8815f5bc3'
p266
L196L
tp267
a(S'sub_140009434'
p268
S'895556575657818b3389338b8b8b85748d83758b3b7383758384b7e884758375ff3b72ffff3b728b8574be8b8d2b8b3b478be80381738d898de803813b728de88b33e88b815f5e5f5e5dc3e8cc'
p269
L281L
tp270
a(S'sub_140009550'
p271
S'5355565756818b33898b8b8b8d8bb8e8be8be8333b753875bd8be83b8538848be82bf71b83ff8be8898dbe898d8b8b8be88b837583ff3975038beb8d838b8b8b75e8ebe8f7758b8bff83ff38758b8d898bffebe8898d8d89b88b8be88be88b3b9583ff83ff39758d898b8bff8b33e8815e5f5e5d5bc3'
p272
L458L
tp273
a(S'sub_14000971C'
p274
S'8b8989898953838374b9e88be8b98de88b8b8be8835bc3'
p275
L88L
tp276
a(S'sub_140009774'
p277
S'55575456578db8e82bc789898b33898b8bb9e88be83389388489898989888bc18de8908de890c78b8d8b8b8de863857fba8de88b888b8b8be88b8be8908de8908de8eb89b9ff8b898d8d8bff85748b898be8b08b33e88d8b8b8b5f5e5c5f5dc3'
p278
L392L
tp279
a(S'sub_1400098FC'
p280
S'8b8989898953838b838376b9e88be8338d8394ffe88b8b8be8835bc3'
p281
L102L
tp282
a(S'sub_140009964'
p283
S'8989898d8b8b8b8574f674b6ffb6338bc18b33837583828bc16b03338b838b8bc1b68bc1c18b33b68bc133338bc1b68bc133b6b63333b68b3383858574b6ffb6338bc18b3383758b8b8b8bc3'
p284
L295L
tp285
a(S'sub_140009A8C'
p286
S'338574b6ff03d13b72b7c3'
p287
L31L
tp288
a(S'sub_140009AAC'
p289
S'338b39758bbb8b8bd18b8b358045837589ff838172c3'
p290
L72L
tp291
a(S'sub_140009AF4'
p292
S'8b895783c7898b8d898dbab8e8908d8d898dbab88be8908de88333b88be833b88be883838d33b8e8908b8b835fc3'
p293
L208L
tp294
a(S'sub_140009BC4'
p295
S'53838be88b835bc3'
p296
L23L
tp297
a(S'sub_140009BDC'
p298
S'5783c7898bbae8908dba8be8908dbab88be8908dbab88be8908b835fc3'
p299
L120L
tp300
a(S'sub_140009C5C'
p301
S'8b898957818b33898b8b8bbd8375838d8b8d838b838b83898d89e8838d3333b68b83ffc1ffd3333b728b898375838d838d838b838b8b89e8101011118b33e88d8b8b8b5fc3'
p302
L260L
tp303
a(S'sub_140009D60'
p304
S'8b8b8584b7b90389b78bd1b6b731b7b929b7d333d389333389c130ff8385c3'
p305
L159L
tp306
a(S'sub_140009E00'
p307
S'85748a008a008a28ff8375c3'
p308
L47L
tp309
a(S'sub_140009E30'
p310
S'89895657545657838b33898bbf8b8b8b8b108b8b3333338b337f8b8b83c103ff8b338bc1b6b68bc1b68bc1b6c10bc1b60bb6c18bc133b6030b8bc133b68b8bb68bc1b68bc10bc1c1b6b60bb6c1b60b338b838b89338d898b8b33898b33893389e88b33e88d8b8b8b5f5e5c5f5ec3'
p311
L425L
tp312
a(S'sub_140009FDC'
p313
S'89898957838b8b8b8b837483748374838377818be8eb3385748d8be8833b72ebe8ebe88b8b8b835fc3'
p314
L138L
tp315
a(S'sub_14000A068'
p316
S'8b89898989545657838b8b8b8b8b8b8b33333333338d8b8b83c103ff8b338bc1b6b68bc1b68bc1b6c10bc1b60bb6c18bc133b6030b8bc133b68b8bb68bc1b68bc10bc1c1b6b60bb6c1b60b338b8b8385338b898b8b33898b338933898b8b8b8b835f5e5ce9'
p317
L396L
tp318
a(S'sub_14000A210'
p319
S'89555657545556578d818b3389808b8b8b8b8a8b8b8b89848584898d8bb8e8b88d8de8838483748374837483758b8d898b8b8a898b898989e8eb8d898b8a8be8eb8d8be8eb8d8be8eb8d8be8ba8de8ba8de8b0eb328b33e88b815f5e5d5c5f5e5dc3'
p320
L388L
tp321
a(S'sub_14000A394'
p322
S'338b89888a84748a8a8a020232d0ff8888888a8475c3'
p323
L77L
tp324
a(S'sub_14000A3E4'
p325
S'898957838b8b81e88333ff38758b83e889c189898a84748b8bb6ffb6b73333b789b70303898a84758b8b835fc3'
p326
L174L
tp327
a(S'sub_14000A494'
p328
S'8955565754555657818b33898b8b81e8bd8d8b8be8838d33ff38758dc78bc7c78dc7ba10111011101110111011101110110310031183758b8b8574b6bc2bb6b6b603b6b6eb8a8d03b6ff8a888db6883b75833b72ff8172f6748b8b833b773b7388ff3b7685748d8b03e8833b728b33e88b815f5e5d5c5f5e5dc3e8cc'
p329
L483L
tp330
a(S'sub_14000A678'
p331
S'55535657545556578d818b33898b8d898b888b338b8b69038be884748a857533847569338d33108d8b7fe8107fe984748b3b7433ff8183828b8d8bb8e883ff39750385748b89838de88b8b8d8de88b88c18d888d8bb8c188e88b9981038b25c13b75288d288d29282928292829282929e88a6388ff818c8d8de88bbe8d8b038bd38388ff837c833b7c8b69b8038d1011101110111011101110111011031003118375b785898b95698885748b698b898b3310b08b697f8b698103e88bba10697f8b8dff8389e88a8d8d89b98de88b8de88b8de88b33e8815f5e5d5c5f5e5b5dc3'
p332
L903L
tp333
a(S'sub_14000AA00'
p334
S'55535657545556578d818b33898b8b8b8b8b8b898988898387338d39758b8be884748b3b758b3b84ff8183728b8dbb8be88bb8d38d83ff8075898d8db9898b8d898d89e88b8de88b8b8d8b8369038d898bb8898d1011101110111011101110111011031003118375b73389b0108d8d7f1011101110111011101110118be81010857411118574338d89338b8a8b83ffff3083758b8de88b85748a8db9898de88b8de88b33e8815f5e5d5c5f5e5b5dc3103333108d118d8b11e81010111011108b1111e9'
p335
L809L
tp336
a(S'sub_14000AD2C'
p337
S'89898b8d8b2b8bbf8bb63389b68d3389b63389b6338983758b8bc3'
p338
L147L
tp339
a(S'sub_14000ADC0'
p340
S'8b55535657545556578d81298b33898b8b8b8b8b8b8b8b8983768de88b8d8be88d8de88dbb857480741010101010101029292929292911e933b285748d8b2b8d03ff8a32883b728373b88d2b03e88de8b88d8de8102828282828288574807511111111111111c68b8d8be88d8de88b857480741010101010101029292929292911e933b285748d2b8d03ff8a32883b72be3b738b8d2b03e88de88b8d8de8102828282828288574807511111111111111c6b88d8de88b8de88b33e828815f5e5d5c5f5e5b5dc3'
p341
L794L
tp342
a(S'sub_14000B0DC'
p343
S'555356575456578d818b33898b8b8bb88b3b8b8b428d8b8be883838dc68383c68d8383838d838d838b838bc68d89c6e8108b10ff89898d898d1189be11c7c7c6c683868b8db9898d8d8b898b8d898d898d89e8103310118d116f6f8def7f837583858b83108311101183858d8de88d8b8de88b8de88b8de88b33e8815f5e5c5f5e5b5dc3e8cc'
p344
L607L
tp345
a(S'sub_14000B33C'
p346
S'33888989898bc3'
p347
L20L
tp348
a(S'sub_14000B350'
p349
S'8b89898989545556578a8b8b338b8b8b8b8b8d3b83b93b8339758aff88c7eb8ab6c18584838483848385b6ff84798a83ff833b73beb9b6ff03b823b68baf033389ff857f8beb833b73beff89ff857fb9c0833b828b8d8b3b8b8b42895f5e5d5cc3b6b6b7af0389ff83ebb6b68bb7af0389ffff33e9b689ffffe9'
p350
L443L
tp351
a(S'sub_14000B524'
p352
S'895783808b8b75e88be88475c6eb328b835fc3'
p353
L58L
tp354
a(S'sub_14000B560'
p355
S'89895783808a8b8b75e88a8be88475c6eb328b8b835fc3'
p356
L74L
tp357
a(S'sub_14000B5AC'
p358
S'5383808b75b9e88be833e8ba8b835be9'
p359
L58L
tp360
a(S'sub_14000B5E8'
p361
S'53838bb9e88be8ffc7835bc3'
p362
L42L
tp363
a(S'sub_14000B614'
p364
S'8b33e9'
p365
L10L
tp366
a(S'sub_14000B620'
p367
S'8957838b8b33e88b8b8b835fe9'
p368
L42L
tp369
a(S'sub_14000B64C'
p370
S'8b898989535657818b33898b8d8be8898d838bb88be88db9e88be88b33e8815f5e5bc3'
p371
L141L
tp372
a(S'sub_14000B6E4'
p373
S'8b53818b3389838b838dc7e8ff33c7e8ba8be88b33e8815bc3'
p374
L114L
tp375
a(S'sub_14000B758'
p376
S'8b53818b3389838b838dc7e8ffc78b33e8815bc3'
p377
L94L
tp378
a(S'sub_14000B7B8'
p379
S'53838bb9e88be8ffc7835bc3'
p380
L42L
tp381
a(S'sub_14000B7E4'
p382
S'8b33e9'
p383
L10L
tp384
a(S'sub_14000B7F0'
p385
S'538383758d835bc38dc6e88be83338758373b9ffff8074b9e8cc'
p386
L95L
tp387
a(S'sub_14000B850'
p388
S'53838b8b33e833e8ba8b835be9'
p389
L44L
tp390
a(S'sub_14000B87C'
p391
S'53838bb9e88be88377c7ff835bc3'
p392
L47L
tp393
a(S'sub_14000B8AC'
p394
S'5383808b75b9e88be833e8ba8b835be9'
p395
L58L
tp396
a(S'sub_14000B8E8'
p397
S'8b8374837483748175837589ffc38374c7eb8377c7eb'
p398
L67L
tp399
a(S'sub_14000B92C'
p400
S'888df6ba1b23ff'
p401
L30L
tp402
a(S'sub_14000B94C'
p403
S'8bff'
p404
L9L
tp405
a(S'sub_14000B958'
p406
S'8989565756833389ff85848d8989b9898bb933ff85748b85748d8d3974397583eb39748b8be88b85758b8be88b857489838b33e88b85758b8bff8b8b835e5f5ec3'
p407
L218L
tp408
a(S'sub_14000BA34'
p409
S'8957838b8b817580758b835fc3857483748de88b8de88b8be88d898de8cc'
p410
L108L
tp411
a(S'sub_14000BAA0'
p412
S'83b9e88bb98346ff8983c3'
p413
L48L
tp414
a(S'sub_14000BAD0'
p415
S'53838be833e8ba8b835be9'
p416
L39L
tp417
a(S'sub_14000BAF8'
p418
S'8957838b8be88bb9e833e8ba8b8b835fe9'
p419
L64L
tp420
a(S'sub_14000BB38'
p421
S'53838bb9e88be8ffc7835bc3'
p422
L42L
tp423
a(S'sub_14000BB64'
p424
S'555657545556578db8e82bc7898b33898b8b89338d38758de88de8888989898988ba8de8908db88b8de88d83ff39758db88d8de88594888d33858d4584748d8d8be8338a85758d898d832bb8b7890385758d83ff39758b387584858be884858d8be8338484eb338a8be83875387589c7893333ba8bff83848bffeb338bff85848bb983858bc78d03038983b703898d8d8b2bb9b789038575038903898d8d8d2b8db789038575e9ff3b878bc78d03038983b703898d8d8b2bb9b789038575038903898d8d8d2b8db789038575b6338989c7c73333ba8bff8b8384b783898d8989898bba8bff85858bff8b338de8ff83743d75e8847583c78de88de8ba8de88b3874ffe9ffe98de8908de8898b8b8df71b238b8df71b238b8df71b238de88de838758b8be8908de8eb338a8de88a8b33e88b815f5e5d5c5f5e5dc3'
p425
L1330L
tp426
a(S'sub_14000C098'
p427
S'5557568db8e82bc7898b33898b8bbe80758de8b68445888de88880748d8bb9e8bae98a2c3c8780878de8908d8de89033ba8de88b83838383c68de8908b8b8de88b89c6338b8de88bba8de88b89c6b6338de88de839748d8bb9e8baebba8d80458b8bff85758d8b8de88de88b8de8908de8908de8908de8eb8d8bb9e88b8de88b33e88b815e5f5dc3'
p428
L625L
tp429
a(S'sub_14000C30C'
p430
S'565757b8e82bc789898b33898b8b83838383c6338de88484bf80758de8b68445888de888bf8d80458b8b8b8bff8575b88d8be884748b8b8dff85758d8bb9e88de88b8de8908de88b33e88d8b8b8b5f5f5ec3'
p431
L361L
tp432
a(S'sub_14000C478'
p433
S'8957838b8b8be88be88474b28be8338b8bff859585758b8de88de8ba8de88a8b835fc3'
p434
L125L
tp435
a(S'sub_14000C4F8'
p436
S'5557568db8e82bc789898b33898b8b3338748d8bb9e8bae98a2c3c878087397439758b89b7898b8d2bb7898d8575eb8b8d2bb7898d85758d838bff38758dff397503be3b8380858d8de88d8de88b8d8de8898989338d8be88a8bf674838be88de890b88d8de884848de8908d8de89033ba8de88b89888d8b8de8ba8d8de88b8988b6338de88de839748d8db9e8ba8de8eb8de8908de8908de88de8908474b88b8de884748d8d8d8bff8bf6748be8908de8908de8eb8de98d8bb9e8ba8de88b33e88d8b8b8b5e5f5dc3'
p437
L915L
tp438
a(S'sub_14000C88C'
p439
S'5557568db8e82bc789898b33898a8b8b33397439758b89b7898db8eb8db8e8b88d8be883748d8bb9e8ba8de8e9847433338be8e9b88d8de8898989338d8be88a8bf674838be88de890b88d8de884748d338be884748de88de8908474b88b8de884748d8d8d8bff8b8be8908de8908de88b33e88d8b8b8b5e5f5dc3'
p440
L563L
tp441
a(S'sub_14000CAC0'
p442
S'8375818be932c3'
p443
L28L
tp444
a(S'sub_14000CADC'
p445
S'89555657b8e82b8b3389838b8b8b8b758dd13b8b438be833898b33e88b815f5e5dc3bb8d3b8b428be88173338d8b888be8ebe8cc'
p446
L201L
tp447
a(S'sub_14000CBA8'
p448
S'8b8989898956838b8be8338485b78b858483b7e884743974b7e884758375b7e884753975b6eb8a83758375b7e884753975b0eb8a84758475ffb78385758be88475b78b85748d83753975b7e8847539758574b7e88474b1eb8a848d44838bffb78575c1808aeb328b8b8b8b835ec3'
p449
L334L
tp450
a(S'sub_14000CCF8'
p451
S'83808b75b7817483758b8b83e980748b8be883c3'
p452
L79L
tp453
a(S'sub_14000CD48'
p454
S'89895783808b8b8b7580748d8de885758b8be88d8de885758a8b8be88b8b835fc3'
p455
L133L
tp456
a(S'sub_14000CDD4'
p457
S'898957838b33898b33ff8b8d8dff85748dc78d898b33ff85748b8d89333389ff8574ff85b6448bff8a8b33e88b8b835fc3'
p458
L188L
tp459
a(S'sub_14000CE90'
p460
S'8b818b338983898d898989c7e88b33e881c3'
p461
L92L
tp462
a(S'sub_14000CEEC'
p463
S'8955565783c7898b8b338983e89089898989b9e88985748d8be88b898bb93b42898b8b835f5e5dc3'
p464
L148L
tp465
a(S'sub_14000CF80'
p466
S'8957838b8b85748be8ba8be88d8b835fe9'
p467
L65L
tp468
a(S'sub_14000CFC4'
p469
S'895783838a753ceb2c3c8a97f61a22748d8b8de88bb9e88b808a835fc3'
p470
L102L
tp471
a(S'sub_14000D02C'
p472
S'8957818b3389838b8580858b8dbf818be88b8d8dff8bc68d8de88d8be8ba8de88b8de88b33e88b815fc3'
p473
L222L
tp474
a(S'sub_14000D10C'
p475
S'8957b8e82b8b3389838bc68b8db783838389eb338d8be884748b018bb88be884758b81e8eb807481e88be88374338d8be884748b018bb88be88b8475387481e8837483758b837480758bb9e8ba8de8eb8b807583758deb8b85758de88be8eb8de88b8be88b33e88b815fc3'
p476
L491L
tp477
a(S'sub_14000D2F8'
p478
S'5355565756b8e82b8b33898b8b8b8b80748de88b8be88de88b8de8e9808d8b8b94e88b85848be88a84748be88be884758b8dc6b9898b8b33898d89e8328485b28be88b8b8b8094e88584b88d8be8b28be8b28be88b8b8b8094e88b85758d8b8d8de8857484748b80758b8be8eb8d8bb9e88de8ba8de88084eb8de88b8be88de88b8de8c68b8074f774e88574b28be88b8b8be88b8d8b8bf78b1b238df78b8d1b23f71b23e88b33e8815e5f5e5d5bc3'
p479
L729L
tp480
a(S'sub_14000D5D4'
p481
S'8955565754555657b8e82b8b33898b8b8b8bb7b78375c7837483858b80858b8dc68d89bd898b8d8b8b89e884853238858d8b8b8de88be884858bb9e88b8d8be8b28be8b28be88b8b8b8bc68b89898d89e88b84748b8db9e8b7eb8b8de88a8b33e88b815f5e5d5c5f5e5dc3'
p482
L437L
tp483
a(S'sub_14000D78C'
p484
S'8957818b33898b8b8b8075818bb9e884748b8074c6e9838d83c7e832e9808580858de88b8be88b80758de88be8837483748375c6ebba8de88b8b81b9e88484b08b33e88b815fc3'
p485
L334L
tp486
a(S'sub_14000D8DC'
p487
S'8b89898989545556838b8b8b8b8b818b8be88b33813974e8b78be884758be884758b8be88b38748de88b8b8be88b338be88b8be88b838d8bff39758574ff39753b728b8be885758bb7e88475b7e8847539753b428deb83b7e88475397589e98bbd83b77583758be88474b589eb8a83748b83758be88b8b8b8be88b38758be8b7e88b84748375b7e8847483837789eb83758375c78b8b8b8b835e5d5cc3'
p488
L570L
tp489
a(S'sub_14000DB18'
p490
S'5554568db8e82bc78989898b33898b8b8de8908d8b8de83384848d8a8de884858d8be884848ab88d8be88d8be885748de884748b81338de884758b338be8018b8b8de88b8b33e88d8b8b8b8b5e5c5dc38de88b8be88d8be884748b8de8eb38858a847438758ab88d8be88d8be885748de884748b81338de884858a8b84748bb7898d8575eb033894ba8de8898989338d8de88475018d8be88bb783748375888b837588eb38948be88de88de8888d8b8d8be884753874898989898989338d8de88484338d8be884848b2b2b01e98b388438848b8de8e9cc'
p491
L967L
tp492
a(S'sub_14000DEE0'
p493
S'53838b8be833898b89c68a8888888b88c7835be9'
p494
L96L
tp495
a(S'sub_14000DF40'
p496
S'555657545556578db8e82bc7898b33898b8b8b33397d89397d898bb789857538848db78be88475ba8de8e98b8384837538848d8b8b8be8eb8d33837538748b8b8be8837538848db7338be884848b338b8bffb8e98be8eb888b39758b39723885888dbb898d89b98de88595898b8375818b8de88bbb03e8898b03e884748b8984743875888be8338d388438848db88b8de88ab88b8be88d8be885748be884758075888d8a8be8847488e9b88d8be88d8de83338748b8b3b743875f71a2289338de88b8b2b3b758a8de8eb8aeb8be884758bb63947898a88888b8b2b338bff8a8a88387484753874387484748d8db9e8ba8de88a8a898884758a88338484eb338b8a8474838a758a84948de884848dc78b8d8b8be838753974388a748a898bb98d387538743b743b75898989338d8be884748b3b777538743b738aeb8bb63845898d8b8be88475ba8de88be83894e938748d8b8be884848b38758b8de88a898b058dba10111011101110111011101110118d10118d8375b7898d8b8be88d8d8d8a8df61b238d89898b8989898d8b338be833388438748b3b7438758db9e83338758b81e8908de833e988e9ba8de8338a898de88de8908b89b9338584837484843b848b3885888be833847438758d88898b898d89b98b8be83338748aeb8be83384748484838d3b77b7b9a3728b3974018d8b8be8eb84748d8b8be88a3389847538748a88888a33338de83384758a8de88ae984848a8b8a8474888a8475847588b83b748de83384748d8b8bb9e88b8b8de88a33eb888475018b01837484748de88debb7b838458d3b7483843b8483758de88b8be88b3338758de88b89898d8d8b8b8be88b8d8b8be88b898d8b8be88a888a883384853885b8397e8a8475387584758b81e88833849488847483c78de83338758b8bc13b7e817c8be83b7e8b8de8338a8b389484758475b83b8a758a8a8a39848b8d3b768d83768d8d8bb88be8338ae98de98de984848d8b8de8eb8dc78d8b8be833847439748d8375b88d8be8eb8dc78d898d8be88a338474837584758a8474848a758a888d338be838758a8df61b238d8be8848a758a388588e9387538758b8d8be8e98a8b8be88b8b89338883748d38773976388a758a8be8e9b68aeb84743874397e888a38858484338474b78d3b84838439758deb8de88b8d8d38458b8de8eb38743874387438b874b88d8d8be88aba8de8eb8de833b78a8485b83b74b83b8539748385848484748b38848de88b3874838b8d8d8bf71b238b8df71b238bf71b238de88de88b3874f7748a8de88b8d8be88b8bf71b238bf71b238de88b38758b8de884758d8db9e8888beb338de88a3874013875848538758be8e98485328b33e88b815f5e5d5c5f5e5dc3'
p497
L4263L
tp498
a(S'sub_14000EFE8'
p499
S'55565756578db8e82bc7898b33898b8b8b8b8b8b8be88de8908b8de83384758b8b8b8de88b8de8eb8989898988ba8de890e88beb638b8be8e88b8b8de88575b38de8908de88a8b33e88b815f5e5f5e5dc3'
p500
L313L
tp501
a(S'sub_14000F124'
p502
S'8b5683c78989898b8b83838383c6ba8de8908b8b8be8eb8b83748b3b4c8b8b8b8be88b8b8be88b2b854885758de88b8b8b835ec3'
p503
L195L
tp504
a(S'sub_14000F1E8'
p505
S'8b89898989545657838b8b8b8b8b8574c68b32e884748b84758bb5e884758b33328b858b8b948989e8857483748375ba8de88be88475b685748d8b8be88474b0eb8574c632ebb28be885748d8b8be8eb8be88b8b8b8b835f5e5cc3'
p506
L298L
tp507
a(S'sub_14000F314'
p508
S'895556575657b8e82b8b3389838b338bff3975e88b85758d8bbf2bd1eb8173ff898d898d8b89bae88de884758b8d8be8b08b33e88b815f5e5f5e5dc332eb'
p509
L223L
tp510
a(S'sub_14000F3F4'
p511
S'5556578db8e82bc78989898b33898bbf8b8dffff8d3b878b8d8bffff3b878de88b8de88b3339848b8be885848be88b8be88585b7898b85758b8b8de88de88b8b8d8be88de884748b89ebb783817c85848b8b8de88b8b8de88d8dff85748de8908a8be88475b88b8de88a8d8dff84748de88de8908de8b0eb328b33e88d8b8b8b8b5f5e5dc3'
p512
L573L
tp513
a(S'sub_14000F634'
p514
S'838d8933898889888988888bc7c7c3'
p515
L60L
tp516
a(S'sub_14000F670'
p517
S'83c78d89837480758074e890ebe89083c3'
p518
L61L
tp519
a(S'sub_14000F6B0'
p520
S'8957838b8be8f674ba8be88b8b835fc3'
p521
L52L
tp522
a(S'sub_14000F6E4'
p523
S'8957838bbf8b837480758375ff3b948383847538748d8de88b8a835fc3'
p524
L102L
tp525
a(S'sub_14000F74C'
p526
S'89555657b8e82b8b33898b8bd18bf675807533ebbeb689838bc1e883748374838d83338bc78bffeb83898375b88d8be88474838d838d33c78bff89838db8c68bc6e883958b33e88b815f5e5dc3'
p527
L302L
tp528
a(S'sub_14000F87C'
p529
S'5383838b758374e880748d835be932835bc3'
p530
L55L
tp531
a(S'sub_14000F8B4'
p532
S'89895783838b8b8b75b9ff898b8d838b8bff85758be88474b83b768b8be8eb8375ff837533eb81768375ff8375b8eb83eb8b8b8b835fc3'
p533
L192L
tp534
a(S'sub_14000F974'
p535
S'8b5783c789898b898bff8b898b338d8bff8b8bff8b8b338b8bff908b8b8b835fc3'
p536
L109L
tp537
a(S'sub_14000F9E4'
p538
S'838b8db8c6ff8a83c3'
p539
L35L
tp540
a(S'sub_14000FA08'
p541
S'838b837532ebff83839683c3'
p542
L38L
tp543
a(S'sub_14000FA30'
p544
S'53555657545657b8e82b8b3389838b808b75f67532ebb28b8ad1f683ffc18bba248a44c1f78b838b83848b44f68b1b83f7338189c7ff8b8375ffb88d8b8be88474838d89338bc78bff8bffb93b448375ebb93b75c78383c6c695748d89b88be88a8b33e8815f5e5c5f5e5d5bc3'
p545
L390L
tp546
a(S'sub_14000FBB8'
p547
S'5383338be884748bff8b33338bff835bc3'
p548
L51L
tp549
a(S'sub_14000FBEC'
p550
S'8883b88de883c3'
p551
L29L
tp552
a(S'sub_14000FC0C'
p553
S'8957838b8b8b8374857985748b83758bffebe88b03338b8bc18d8b89ff8375ff857432ebb08b835fc3'
p554
L127L
tp555
a(S'sub_14000FC8C'
p556
S'8b8989898954565783338b8b8b8b38748bff8b8b8b8be88b8385c73874387539758d8de884758d8de8eb8b8574bd8b8d338bff8b8b2b8b3b8b42e8834403033b728b8b8b8b8b835f5e5cc3'
p557
L252L
tp558
a(S'sub_14000FD88'
p559
S'53838be8847538748d8de8835bc3'
p560
L45L
tp561
a(S'sub_14000FDB8'
p562
S'5355565755565783818b8b8b8b74f6758bffb3857483748aeb32857483748aeb32857483753284748d8be884748d8be884748d8be88b8df61b238df61b238df61b23ff835f5e5d5f5e5d5bc3'
p563
L224L
tp564
a(S'sub_14000FE98'
p565
S'83e88475ba8de883c3'
p566
L35L
tp567
a(S'sub_14000FEBC'
p568
S'898957838b8b837580748d8b8de88beb8d838db933ff8b8375ff857480748b8de863c1038b8b835fc383eb'
p569
L159L
tp570
a(S'sub_14000FF5C'
p571
S'838bff839483c3'
p572
L25L
tp573
a(S'sub_14000FF78'
p574
S'53838be88474b0eb8b8de832835bc3'
p575
L45L
tp576
a(S'sub_14000FFA8'
p577
S'53838b338bff8474b0eb8b8de832835bc3'
p578
L49L
tp579
a(S'sub_14000FFDC'
p580
S'898989575455565783338b8b8b8575b0e98375b9ff898a8939748b8574b8898b8d2b8d8b2b3b8b42ff839475813b72eb8b8d8b898bff8394848538843985ff8b8b8bff8d8b8be88b8bff3b768bbb2b3b778d3b768b8de8338d8be83384748b85843b838b8bff8b332b8b8bffe98b8d33e8c68a8b8b8b835f5e5d5c5fc3'
p581
L442L
tp582
a(S'sub_140010198'
p583
S'8b818b338983898d89c7e88b33e881c3'
p584
L83L
tp585
a(S'sub_1400101EC'
p586
S'555357545556578d81c78b33898b8b898b898bff89b88b3b758be88beb8b33f67489c78de8f6758b33338bff8989898988ba8de8908de8908de8908bba8de88bba8de8898b89b83b75bbebb83b4f8b8b8b8bff858463038bff89a875f6748b8b8b8be8ebf6748b8be88bb9e8e883748b8b8de885748b8b8de88b8b2bb93b44e9f67483c78de88b85748de88985748d8de8101110118de8908de8908de8908b338b8bff908b33e8815f5e5d5c5f5b5dc3'
p587
L676L
tp588
a(S'sub_140010490'
p589
S'898989575657b8e82b8b3389338a8b85843984b58b8b2bd18183b7e884843b868d3b7583748b8d8be80381833389b28de8859485758de88b8de88de88b8de883398584758be8b7e8847533b28be885948aeb328b33e88d8b8b8b8b5f5e5fc3e8cc'
p590
L379L
tp591
a(S'sub_14001060C'
p592
S'8957b8e82b8b33898bff85958575b88d8be884748dff85958a8b33e88b815fc3'
p593
L129L
tp594
a(S'sub_140010690'
p595
S'83e8839583c3'
p596
L20L
tp597
a(S'sub_1400106A4'
p598
S'8957b8e82b8b33898bff8b8375b88d8be884748dff8b8b8b33e88b815fc3'
p599
L124L
tp600
a(S'sub_140010720'
p601
S'b8e82b8b3389b88de8b78d838d838df78d1b23ff85748b3b778bc103eb338b33e881c3'
p602
L150L
tp603
a(S'sub_1400107B8'
p604
S'8374f674b0c332c3'
p605
L16L
tp606
a(S'sub_1400107C8'
p607
S'53b8e82b8b3389b88de8c78d898d333389333389ff85748d8de885748d8de88575b38aeb328b33e8815bc3'
p608
L183L
tp609
a(S'sub_140010880'
p610
S'c1808ac3'
p611
L9L
tp612
a(S'sub_14001088C'
p613
S'b8e82b8b3389b88de8b7f78d1b23ff8374837432ebb08b33e881c3'
p614
L112L
tp615
a(S'sub_1400108FC'
p616
S'89555657b8e82b8b33898b8a8be83383748374338bff85758be88375b88d8be88474338dff857484748b8be833ebff8383968d8b33e88b815f5e5dc3'
p617
L207L
tp618
a(S'sub_1400109D4'
p619
S'898957b8e82b8b33898b8bff85958575b88d8be88474b88d8be884748d8dff85958a8b33e88d8b8b8b5fc3'
p620
L175L
tp621
a(S'sub_140010A84'
p622
S'5355565754555657b8e82b8b33898b89338b8bb385748a39758a85748a39758a85748a39758a8be88b83748474338be8eb3283b88bc73389ba8bff898375b88d8be88484838db8c73389baff89838484748b8de884748d8be884748d8be88b8df61b238df61b238df61b23ff8bff84748b8be88b33e8815f5e5d5c5f5e5d5bc3'
p623
L454L
tp624
a(S'sub_140010C4C'
p625
S'898957b8e82b8b33898b8bff85958575b88d8be884748b8dff85958a8b33e88d8b8b8b5fc3'
p626
L142L
tp627
a(S'sub_140010CDC'
p628
S'89565756b8e82b8b338983be8ac78b898b338bff8b8375b88d8be88474838dc7338b898bff8b837532eb838db6b989ba8d8b898383ff8b8bff85958b33e88b815e5f5ec3'
p629
L283L
tp630
a(S'sub_140010DF8'
p631
S'53b8e82bc78b33898be884748de8908b8de8838383338d8de88a8de88aeb8be883958b33e8815bc3'
p632
L181L
tp633
a(S'sub_140010EB0'
p634
S'555657545556578db8e82bc7898b33898a8b893389b88d8574848b74888a8de8eb8b8de88de89039748d8d8474e8eb33e884758484ba8de8e9898b8989898988be8b8de8908b8beb038b8de88b8b038b8de885758b3b768b2b8de88b8beb8b8983728075808b748b898372807580758b89eb8b898983728075807580758a88eb8a88bf8b85758575857483768d8bf78077b6b9a372ff8d3b73ebbc8474338de88b8de884458b8b898b898b8989888377338de88b83758b8bff8b85748b8de88b8beb8b898b8b8be88b83858d397539758bc78bd1ff3b762b8b8de88b8beb8b89833b738b8d038b8b2b8b2bffd1ffb6b9afb6038b2bd1898383752bd1898b8375338de88b3b762b8b8de88b8beb89f61b83038be83984b78b8b8374b7b783748574387483753975898b83b7b78375898b8545eb8374837589833b733874837583ff3975837589833874837589b88d8bffff3d7739748deb39748b8be885748db78374837583eb85858de8908de8b38de88a8b33e88b815f5e5d5c5f5e5dc3'
p635
L1381L
tp636
a(S'sub_140011418'
p637
S'8333898bc6c3'
p638
L24L
tp639
a(S'sub_140011430'
p640
S'838b8374ff83c3'
p641
L28L
tp642
a(S'sub_14001144C'
p643
S'8957838bc68be884758b8b83e883748bff8b83e88b88e888b0eb328b835fc3'
p644
L120L
tp645
a(S'sub_1400114C4'
p646
S'89895783338b888b39848b8b387483e889eb8be883848b89e88b88e8888b88e88bb73b75b73b74b73b75b73b75b73b758839e9b0eb328b8b835fc3'
p647
L252L
tp648
a(S'sub_1400115C0'
p649
S'8b2bb7898d8575c6c3'
p650
L31L
tp651
a(S'sub_1400115E0'
p652
S'55535657578db8e82b8b33898b8d8b8bbf83758bff8b83858b8d8be884748d8dff8b8375ff8df775837432ebb088e9ff857583ff83958883848b8b8be88b8d8be88b8d8bc1038b898b898b898b898d89e88d8de88d8de8838b8b33e8815f5f5e5b5dc3'
p653
L411L
tp654
a(S'sub_14001177C'
p655
S'5383c68b8474b9e83389b88be8eb838b835bc3'
p656
L63L
tp657
a(S'sub_1400117BC'
p658
S'8380758be883c3'
p659
L24L
tp660
a(S'sub_1400117D4'
p661
S'8957838b8b8b85748075e889c68b835fc3'
p662
L55L
tp663
a(S'sub_14001180C'
p664
S'8b038b83c10189c3'
p665
L24L
tp666
a(S'sub_140011824'
p667
S'638bb6b6c10bb6c10bb82b8ad3b7c3'
p668
L56L
tp669
a(S'sub_14001185C'
p670
S'33898989898bc3'
p671
L19L
tp672
a(S'sub_140011870'
p673
S'8b8989898956838b8d2b8b8bbe8d8b8df703ff830389838983898389e88183758d8b8df7ff830389838983898389e88d8d8d8d10111011101110111011101110110310031183758b8b8b898b898b8b898b8b835ec3'
p674
L367L
tp675
a(S'sub_1400119E0'
p676
S'8bb98d8d8bf7ff830389838983898d838983758d8bf7ff8303898389838983898bc3'
p677
L146L
tp678
a(S'sub_140011A74'
p679
S'5383c78b8be8908dbae8908b8574bae890ba8be890835bc3'
p680
L84L
tp681
a(S'sub_140011AC8'
p682
S'3b848bb98b10111011101110111011101110110310111011101110118b898a888bc3'
p683
L163L
tp684
a(S'sub_140011B6C'
p685
S'838374837483758374837583758b3994eb837583758383b8e885eb32ebb083c3'
p686
L89L
tp687
a(S'sub_140011BC8'
p688
S'8957838b33898b8b8de885748b8de88b8de88b33e88b835fc3'
p689
L96L
tp690
a(S'sub_140011C28'
p691
S'83758bf7c333c3'
p692
L14L
tp693
a(S'sub_140011C38'
p694
S'898957838b8b8b8b8575b9e88985748be8898983758383758383758be8b83b428b898b835fc3'
p695
L126L
tp696
a(S'sub_140011CB8'
p697
S'8d89837783837510111011c3'
p698
L42L
tp699
a(S'sub_140011CE4'
p700
S'53818b33898b8d898b83758b898b83758bf7898b83758b8de88b8de88b33e8815bc3'
p701
L121L
tp702
a(S'sub_140011D60'
p703
S'898957838b8b8b8b8375b7e8b7898b83758b8b8be8898b837583768375e8898b8b8b8b898b8b898be88b8b835fc3'
p704
L158L
tp705
a(S'sub_140011E00'
p706
S'8957838d8b3b762b8be8eb89338d3388e889898989898888888989898889898b835fc3'
p707
L168L
tp708
a(S'sub_140011EA8'
p709
S'338989898889898989c3'
p710
L33L
tp711
a(S'sub_140011ECC'
p712
S'818b33898b83758dc7ff8b8b8b898989eb8b8b3383758bc1038b33e881c3'
p713
L141L
tp714
a(S'sub_140011F5C'
p715
S'55545556578db8e82bc78989898b33898b338b898b898b898bb783947583c674888394b7898394b88de83384843338748de88b8de890c68d8de884758be9c6b28de88484338883848de88de88b8d8de88de88b8de88d8d83448d83448d8d8de838748d8de88b8d8de83976ff8de88b8d8de83874ff83758de88b8de88b8de8eb8de88b8d8de88b333874ff8de88b8d8d85448de88b3874ff8de88b8d8d85448de83338748de88b8d8d85448de88de8898b8b8be98b83848374838538848385388488888a8d8d8de8eb8989b9338d8be8859585748a888a888a8d8d8de8387503ff038de88de88585e9387483758bff8de88b898dba8de833387483758de88b8d8de839748de88b8d8de88de8838483843884bb8b8d8be88b8d8be883758de88b8be88b898d898d8d8de8eb8de88b8d8d8de8038b03898b03898de8eb8de88be88b8b8bff89333984387583753874b733338de8847433338de8b28de88485eb8b837483738de88b8de8908de8b88d8be88485b73338748de8838683848384be8b8d8be88b8d8be883758b8be88b898d898d8d8de8eb8b8d8d8de88b33e88d8b8b8b8b5f5e5d5c5dc3'
p716
L1986L
tp717
a(S'sub_140012720'
p718
S'8989895754555657838b8b8b858483748385c7e98bba253d743d7489ebb8ebb8898b8b8b8b81818b25f78b1b8383808b4524f6898b1b248303f6898b1b8303f7898b1b8383f71b8303808b4524f6898b1b248303f6898b1b8303f7898b1b8383f71b8383808d4524f68d1b818383f71b838389898de8e9bf8b24f68b1b248303f6898b1b248303f6898b1b248303f6898b1b248303f6898b8d1b258303f7898b1b818303f7898b1b8303e88d8b8b8b8b5f5e5d5c5fc3'
p719
L601L
tp720
a(S'sub_14001297C'
p721
S'89555657545556578db8e82b8b33898b8d8b89338a8b8b38748de98a847538758d848d44e88b8d8d8444e8848d8d44e8c68bb8bf3b75c7eb8b8de88b8d8be883758a8df68d8b1b8383e8eb8b8d8b8be88a333874f6b91b23b903eb8474b889eb8b8be88b8dba8de88d8a8b8db8e884848de88b8d8be883848d8de83385758de88d8be88b8d8be8b88d8be88de88d8de98deb338d388d45e88b8b8574837483748374837483758deb8deb8deb8deb8de88b8de88b8d8be8398483853874bb8d8b8de8eb8b8dbb8b3b428b63ff858b4fbb633b83888b8d8de88de88d8deb8de88d8d8be838758de88b8d8de88de88b8d8de88de88b8d8de839748de88b8d8de88d3974b18db8e88de88b8d8de88d3974b18db8e88de88b8d8de88de88b8d8de88b837538748deb388d8d458d8b8de88beb8d83758dc7338d8be838748deb388d8d458d8de88d83758b8374858d8d4483758073b68d8b39748de88b8d8be88b8db68db68dba8b3b438bc1c13b8d42838d44e8898d8b898b898be833387538748de88b8de838748de88b8de838748de88b8de83874338be88b85748de88b8d8be838848d8de88d38748be88b8de88d38748be88b8de838753874387538748de838748b8de838748b8de88de8e98a8df68d8d1b8383e884748d8d8de88d8de884748b83758b8de8eb8375b68db6b6e8eb8de88d8be88b33e88b815f5e5d5c5f5e5dc3e8cc'
p722
L2385L
tp723
a(S'sub_1400132D0'
p724
S'89555657545556578db8e82b8b33898bb7c1338b8b8584838bff39758d83768b8474e8ebe88575b7837483748575b0e98384bb8d8b8be88b8d8be88d83778d84748d2bb73b758385758beb1b83eb8de885858d83778de884748b8be983848be884758d84748d2bb73b758385758beb1b83eb8de885758be88b8be8b88d8b8be8857532e939748dff39758d8b8d8474e8ebe8eb837584742bb73b758385758beb1b83eb8b8be88594eb8b8b8ae88b33e88b815f5e5d5c5f5e5dc3'
p725
L636L
tp726
a(S'sub_14001354C'
p727
S'8b8989898954565783338a8b8b8db784758be88bb784758be8838584837483743b743b85857483743b85eb858483eb398439858d837539848b8be88b397585743975b38ae985748d8b8be88575838b8be8857584742bb73b758385758beb1b83eb8b8be885eb8a8b8be8838475397532ebb0eb85948b8b8b8b835f5e5cc3'
p728
L407L
tp729
a(S'sub_1400136E4'
p730
S'895383c78b81e89033898989898889898be8908b835bc3'
p731
L103L
tp732
a(S'sub_14001374C'
p733
S'5383c78b8b857480748bc1e8908be890835bc3'
p734
L61L
tp735
a(S'sub_14001378C'
p736
S'538333b88be88de88d835be9'
p737
L51L
tp738
a(S'sub_1400137C0'
p739
S'538333b88be833c7898989b88989c7c7c7e889c7835bc3'
p740
L131L
tp741
a(S'sub_140013844'
p742
S'8333ff397585748d3b738374838d39758b89c3'
p743
L63L
tp744
a(S'sub_140013884'
p745
S'895783338b8574e88d8be885748d8be88575b38a8b835fc3'
p746
L72L
tp747
a(S'sub_1400138CC'
p748
S'5355565756b8e82b8b3389338b8b8b858439848dba8dff8b8d8176b88d8be884748dba8d8dff8b8d3d778deb3b748b8b8be8eb8574898b33e8815e5f5e5d5bc3'
p749
L237L
tp750
a(S'sub_1400139BC'
p751
S'8989565756b8e82b8b3389338bb78b8d85848d3b74837583758375397483758db7838575b78584b78b857483758db73b7539758b8de885748b8de885748db78beb83743b748375eb8d83b785753b74b78b8585837583758d39448574b88d8be88d2b8db7898d85758b8b33e88d8b8b8b5e5f5ec3'
p752
L401L
tp753
a(S'sub_140013B50'
p754
S'8957b8e82b8b33898b8be83d7283c78d8b8dff338574898d8b8be88b33e88b815fc3'
p755
L148L
tp756
a(S'sub_140013BE4'
p757
S'53838b8b837632eb85758a8b8be8eb33ff8be8b0835bc3'
p758
L65L
tp759
a(S'sub_140013C28'
p760
S'55535657545556578db8e82b8b338933898b89b78b89888d8375b7888db845858d458de88a8a8b88b939848bb88b8d8db7898d8584338485b7e883b68d44847483758d89b93b858be8b78be8b93b758b8d8b0303b7e83b748b8b8b3b768b8d0383338dff39758b8d038d8de88574b88bb7ab3b47b88bff0388eb839488ebb88ab9033339858b8d89e88d8de8857589eb8be8ba8be8898b85758be88d8d39448db78d898d8575ebb88d8be8898bb98b858d442b79837f8bffe8f61bf78103eb8b8b8db8f78dc18d8bc103e88b8d8de88b8d8de88b8d8de88b8d8de88b8d8de86b8d8b8dbc2b839d0303e88d8d8de88b8dff8de88b8d8de8338d8de8b78d8a85748bbf8d85748475b7e88b8be885742bd101eb839403b78575b7898a888b85848d8d8d8383b7b9838584b7e88b8de88b858484858d832bd18b8d8d8d0333ff38752bff89b83b75b7e88375b7e883758b8d2bffe88d8b8d8be8838d33ff39758a838383eb8579b78a33eb6303beebb7898375b889ff8d3d8389eb83948883838339853874bf8d8b8be88b8de88b8d8de88be88b8d8be88d8b2b8db7898d8575eb8d8d39758d33b789ff8575838d39758d33b789ff85758b33e8815f5e5d5c5f5e5b5dc3e8cc'
p761
L1771L
tp762
a(S'sub_140014314'
p763
S'8955565756578db8e82b8b33898b8a8b8b8bbbeb8de88474ff8bb88de88dc68b8d8be88075eb847583768be88b8db8e88d8b8d8de88b8d8be88b33e88b815f5e5f5e5dc3'
p764
L255L
tp765
a(S'sub_140014414'
p766
S'8989565756838b8a8d8bff338d33898a8de885758b8bff857439748b8be88b8d8be88be88a8475847433338be885948b8b8bff8b8a8b835e5f5ec3'
p767
L198L
tp768
a(S'sub_1400144DC'
p769
S'89898957565783338b898b338a8b8beb8b8be88b8b8be884748be88475ff8b8b8b8ae884758b8b8b835f5e5fc3'
p770
L141L
tp771
a(S'sub_14001456C'
p772
S'83338574e8ba8be883c3'
p773
L34L
tp774
a(S'sub_140014590'
p775
S'857489898957838b8d8b33e82bd13b728be88b2bd18b8b8be8898b8b8b835fc3'
p776
L109L
tp777
a(S'sub_140014600'
p778
S'8b898989895683338b898b8be8b78474b78d8b8be8ebbd3b7539758b8de885748b8de885742bd1ffeb83ff39753b8b8b1b238be8898b8b8b8b835ec3'
p779
L205L
tp780
a(S'sub_1400146D0'
p781
S'8b898956575683338d8a898b898b8d8d33c7ff85758b8d898d33898d89ff8bff8b39748be884758a8b8be884758b8b33ff8be88b8b835e5f5ec3'
p782
L209L
tp783
a(S'sub_1400147A4'
p784
S'8b898989895683838b33ff3975ff8deb3b7683b7e88474b78beb3b7683b7e884753b76be3974b7e88475833b77eb8be88b8be885743b428b8b8b8b8b835ec3'
p785
L203L
tp786
a(S'sub_140014870'
p787
S'5355565756b8e82b8b3389838b8b8b84e8838bff83758be884848be884748d3b86b88d8be82bb7898d8575e983858383858d3b86b88d8be8b8892bb7898d8575e98db9ffff3d8783848384ba8de88dff83758d033b86b88d8be88d8b2b8db7898d8575837583748375838b8b8be8eb8d3b76b88d8be88db88de82bb7898d8575b0eb328b33e8815e5f5e5d5bc3'
p788
L559L
tp789
a(S'sub_140014AA8'
p790
S'53838bb7e88383778375b0eb32835bc3'
p791
L46L
tp792
a(S'sub_140014AD8'
p793
S'5383838b758374e832847483748375b18a835bc3'
p794
L57L
tp795
a(S'sub_140014B14'
p796
S'53838be832847583748375b28a835bc3'
p797
L42L
tp798
a(S'sub_140014B40'
p799
S'895783338b397439748d83e885758b3974b783727483758374837483b7857539748d8be88575b38a8b835fc332eb'
p800
L138L
tp801
a(S'sub_140014BCC'
p802
S'8374837432c3b0c3'
p803
L16L
tp804
a(S'sub_140014BDC'
p805
S'53833385748de885958a835bc3'
p806
L39L
tp807
a(S'sub_140014C04'
p808
S'53555657b8e82b8b33898b8b8bbd8b8d8be88b8de88b8d8be88b8d8be88b33e8815f5e5d5bc3'
p809
L138L
tp810
a(S'sub_140014C90'
p811
S'8989338b8b8b8bb78374837485758d857e8d8db78374837583b783748374ffffff857f89397483ffffeb8b8bc3'
p812
L143L
tp813
a(S'sub_140014D20'
p814
S'89898957565783b78a8b8b8574848d8dbf45b78be8857584748373898b2b83837e83758983b785758b8b8b835f5e5fc3'
p815
L161L
tp816
a(S'sub_140014DC4'
p817
S'898989575455565783838b338a8b8d8574e88b8be88b85748d39758bff39758d3b728d8be885748d8be88575b889eb8b8d8be885758beb8be88b8be88b84758be88bff8385bf8b89833b72b7e88474ff8374e9ff39758debb789833b75b889ebb7e884748db7e88474ff8375bf8db73b74ff89898b8374ebb889eb8b89b7898b8b8b835f5e5d5c5fc3'
p818
L465L
tp819
a(S'sub_140014F98'
p820
S'8989895783338a8b8de88b85748de88b8474898b8b8b8b835fc3'
p821
L85L
tp822
a(S'sub_140014FF0'
p823
S'8333ff39758d858d458bc3'
p824
L36L
tp825
a(S'sub_140015014'
p826
S'838b33ff3975836378838b748374ffff857f39748375838bc3ff638dc3'
p827
L86L
tp828
a(S'sub_14001506C'
p829
S'53838be88d3b7283758d3b72833389835bc3'
p830
L54L
tp831
a(S'sub_1400150A4'
p832
S'85748989895783338b8b8b3974e88d8be885748985748b8d8be88b8b8be88b8b8b835fc3'
p833
L123L
tp834
a(S'sub_140015120'
p835
S'898957838b8b8be88b8b2b8bd12b8b8b8b835fe9'
p836
L70L
tp837
a(S'sub_140015168'
p838
S'89338d85748b2b8a847480b6bb44ff88ff3b728bc6c3'
p839
L73L
tp840
a(S'sub_1400151B4'
p841
S'338b8b83748b2bb785748375b989ff833b7289c3'
p842
L63L
tp843
a(S'sub_1400151F4'
p844
S'555356575556578db8e82bc78b33898a8b8b3b748b8be88b8b8474bee88b3b768db7e8847489b7eb3b74833b77eb8deb8b8de8857533eb8be8ba8be88b8be88485bf8b8b8de88b8d8de88de8908d8de8838383338d8de88474338de890338d8de88474b28de8847480758de8eb8b8d8be8908de8908de88b8b33e8815f5e5d5f5e5b5dc3'
p845
L507L
tp846
a(S'sub_1400153F0'
p847
S'8b898989535657838b8d8be88b8983838b8b8b83e88548835f5e5bc3'
p848
L86L
tp849
a(S'sub_140015448'
p850
S'895383c78b83e8903389898989888933338be8908b835bc3'
p851
L95L
tp852
a(S'sub_1400154A8'
p853
S'53838be88be88de88d835be9'
p854
L49L
tp855
a(S'sub_1400154DC'
p856
S'8957838b85748b8be8ba8be88b85758b835fc3'
p857
L63L
tp858
a(S'sub_14001551C'
p859
S'898957838a8b8b8574e8838383898875b9e889838bc68b835fc3'
p860
L100L
tp861
a(S'sub_140015580'
p862
S'8b5783c78989898b8b80858b8bff89c68b898b8bff8b898b8b338bff8be885848b8385b73b85b73b85b73b858b898bff898b8b89c68b338b8bff908b80748b80848d8d8d8d818d89898b898989338de88383838de8838be88d8b8b8b8b5fc38b338b8bff90eb'
p863
L478L
tp864
a(S'sub_140015760'
p865
S'8989895783808b8b8b8b748b033b778be884748b033b76807580748b338be8328b8b8b835fc38b8b3b728b8d033b778b8b2b8b03e88901c6eb80748b338be8c68b8b8be88579c6e9638901b0e9'
p866
L319L
tp867
a(S'sub_1400158A0'
p868
S'8b5783c78989898b8b898b8bff8b898b03338be88b2b8bb82b3b438b8b83804485748b03e863857e8b80748b838b038de88b0101eb338b338b8bff908b8b8b8b835fc3'
p869
L261L
tp870
a(S'sub_1400159A8'
p871
S'8b5781c78989898b338de8908d8be83284748de88de88b8de88b8d3b768b2b8be8eb898b8b8de88b2b89b38de88a8d8b8b8b8b5fc3'
p872
L207L
tp873
a(S'sub_140015A78'
p874
S'898989575657838bb82b8b8b3d738b8b2b8d8be8838b89e88b8d3b878b8b03b8e8838be8ba8b8be88b8be88d0378857485748b2b857e8b8b633b42038be8012b857e838b83e88575eb8be83b94ebc6328b8b8b835f5e5fc3'
p875
L348L
tp876
a(S'sub_140015BD4'
p877
S'89895783808b8b8b7532eb85753b733b738be889837501b8c63b758b8be88be889c6b08b8b835fc3'
p878
L159L
tp879
a(S'sub_140015C74'
p880
S'807532c38b89b0c3'
p881
L25L
tp882
a(S'sub_140015C90'
p883
S'8957838b8b81e88de88de88de88de88be8f674ba8be88b8b835fc3'
p884
L115L
tp885
a(S'sub_140015D04'
p886
S'5783c789898b8be8b28de8b9ffc6b9e88985748be88beb338b8bb28be880758be88be88b8b338be88a888ae88b8be88d8be88075837432ebb0888be88be8ba8be89080748075e8c68b8b8b835fc3ebeb'
p887
L327L
tp888
a(S'sub_140015E4C'
p889
S'838bc3'
p890
L8L
tp891
a(S'sub_140015E54'
p892
S'8be9'
p893
L8L
tp894
a(S'sub_140015E5C'
p895
S'895783108b8b1110118b898b8574e88b8b81838983768b89eb8b8d3d738b03898b835fc3'
p896
L115L
tp897
a(S'sub_140015ED0'
p898
S'858e89898955545556578b818b33898b838e8384838483748385638183638d63858e338b328b3b7d8b2aff88033b7cff8375e9818b63898d898363858e338983333389338933893389338933338b3b8d8b8b892b8bb68bafffaf898b038baf038dc1b62b8a882a8bbe89bec1898b8b99332b038b2b8999332b018d8b99332b018b2b99332b018d99332b018b2b99332b018d99332b01f685338d218d8b8b3b4383ff8d3b8b438b8372837483748374837483748b8375837dffeb838d4c8beb838d4deb838d4c8beb838d4d8b8beb8b837cff8b038bff8b3b8c898bff893b8ce9638b638d81838d8588638588338d8d89338b3b7d8b2b837cb6b68b2b89898d998b8b2b2b332b998b8b332b99332b3b7f3b7e8b3b4e2affb688833b7c8bff8389858d633b8d2b8dff8db88df7d1ff8a8d008d008d8375e98b8b3d83838c8b83c1858e8dc1ffb68383828d338a8484b68da3838d8b85798dc18398b6b6c10bd38380758b85798dc18b638bc7b6b6c10bb6c10bb6c18b0b83d38b2b81e8ff83838e83ff8385eb8b8b8b3d73837c838d943380857e8affffff3c743a758b85798d85788d89eb817d2b898383833b7c8b33e88d8b8b8b8b5f5e5d5c5dc3'
p899
L1464L
tp900
a(S'sub_140016488'
p901
S'898b8b9983838bb92b8d83d38bd3d3f7c1338dff8b8a22c10a81c18883728bc3'
p902
L102L
tp903
a(S'sub_1400164F0'
p904
S'5383838b75b9e889835bc3'
p905
L34L
tp906
a(S'sub_140016514'
p907
S'89895783338b8b8a83768d8d32ff83753a758b83e88df78b39753974ff838373eb8d8b898b8b835fc3'
p908
L128L
tp909
a(S'sub_140016594'
p910
S'89898957838be88b8b81748174ba8be88be8ba8b8be881748be88bc10bba8be8eb8beb2575c181ebc1b6f71b8383ebba8be8c1838b8b8b8b835fc3'
p911
L204L
tp912
a(S'sub_140016660'
p913
S'838bb83b738b033b742b8b3b42e883c3'
p914
L52L
tp915
a(S'sub_140016694'
p916
S'3389898988898989898b89c3'
p917
L40L
tp918
a(S'sub_1400166BC'
p919
S'8b3b738d898b8ac332c3'
p920
L28L
tp921
a(S'sub_1400166D8'
p922
S'8b8b8d3b738bb9b7b6b6af038d89c333c3'
p923
L57L
tp924
a(S'sub_140016714'
p925
S'8b8b8d3b738bb6b6b6c1c1c10303b6038d89c333c3'
p926
L70L
tp927
a(S'sub_14001675C'
p928
S'8957838be88b8be88b8bc103835fc3'
p929
L48L
tp930
a(S'sub_14001678C'
p931
S'89898957838b8b8b8b8b8b2b3b4285748b8b038be83b762b8d8b33e8018b8b8b8b835fc3'
p932
L122L
tp933
a(S'sub_140016808'
p934
S'838b837733eb84748b8b838383e8f7b783c3'
p935
L55L
tp936
a(S'sub_140016840'
p937
S'838b837783eb8b838383e8f783c3'
p938
L45L
tp939
a(S'sub_140016870'
p940
S'8b33338b3b738b8d89b683d303807d838b3b7233c38bc3'
p941
L69L
tp942
a(S'sub_1400168B8'
p943
S'8b8b3b738b807dff3b7233c32bffc3'
p944
L38L
tp945
a(S'sub_1400168E0'
p946
S'8574898957838b8b8b8be88b8b038be8018b8b835fc3'
p947
L75L
tp948
a(S'sub_14001692C'
p949
S'8b898989895683338b8b39748b8b8b2b3b768b2b8b8bf7ff83038be88b8b8b038bff8b8b8b0363e88bf71b2301eb038b89eb8574e88b8b8b038bff63018b8b8b8b8b835ec3'
p950
L227L
tp951
a(S'sub_140016A10'
p952
S'895783c7898b81e8908de8908de890b9e8893385748be8eb8b89b9e88985748be88b898be8908b8b835fc3'
p953
L166L
tp954
a(S'sub_140016AB8'
p955
S'8957838b8b85748be8ba8be88b85748be8ba8be88de88de88d8b835fe9'
p956
L122L
tp957
a(S'sub_140016B34'
p958
S'8b898b89c3'
p959
L15L
tp960
a(S'sub_140016B44'
p961
S'833388888988898889898989898989898989898989c7c3'
p962
L113L
tp963
a(S'sub_140016BB8'
p964
S'c68be9'
p965
L19L
tp966
a(S'sub_140016BCC'
p967
S'8b53838b8b898b898b898b898b8984748bb2e888eb8b33e888835bc3'
p968
L119L
tp969
a(S'sub_140016C44'
p970
S'85748985748983c3'
p971
L26L
tp972
a(S'sub_140016C60'
p973
S'8b89c689c3'
p974
L16L
tp975
a(S'sub_140016C70'
p976
S'89898957565783808b8b8b748b85748b8574038b8b8b8be8808b753b748b8b8b8be8898b8b8b835f5e5fc3'
p977
L165L
tp978
a(S'sub_140016D18'
p979
S'8b89898989545657838b8b838b808b4433338584808b748b8b8be88b83e93b8b4f8574807480743b7e63038b832b03854f83848b8b8bff638b85758d80748b8d8be88b0363012b03892b8074857585743874f674b7b08b8be88485c683eb8b85748b8b038be88374808b748b8b63e8e88b8b8b8b8b835f5e5cc3'
p980
L455L
tp981
a(S'sub_140016EE0'
p982
S'89895783808b8b898b89743b778be80129eb80758be80180758d8b8be88b8b835fe9'
p983
L129L
tp984
a(S'sub_140016F64'
p985
S'8b895783c78989898a8b8d33898989898833b8e88475b839732b8b8be8eb8933b88be8e88b898b8b8b8b835fc3'
p986
L169L
tp987
a(S'sub_140017010'
p988
S'895383c78b33898989898889898989898d8d89898d8375847489ebe889b9e8898bf7ff8303898b835bc3'
p989
L153L
tp990
a(S'sub_1400170AC'
p991
S'5383c78b8b8574807469e8908be890835bc3'
p992
L61L
tp993
a(S'sub_1400170EC'
p994
S'5783c7898b338b85748bbaff90ff81728be8908d8b835fe9'
p995
L92L
tp996
a(S'sub_140017148'
p997
S'8b5783c78989898b8be8908be89033397633698b8b85748bbaff90ff8b3b728dbd8b85748be890ba8be8908383758be8908b8b8b8b835fe9'
p998
L192L
tp999
a(S'sub_140017208'
p1000
S'898957838b8b038b893b868b8b85743b768d8de88de88b8b8b83c1033b466980748be88b85758de88b8574698be8698be88be8eb8be88b85758de889898b8b835fc3'
p1001
L261L
tp1002
a(S'sub_140017310'
p1003
S'898957818b3389638b3b8d8b8b6333857e8b038a0388ff3b7c8b8d8b89e88b33857e338bff638d8baf8a03888b3b7cffff3b8c8b33e88d8b8b8b5fc3'
p1004
L265L
tp1005
a(S'sub_14001741C'
p1006
S'898957838be88b8575b0eb33ebb7e884758375b7e88474ff833b77839c8b8b835fc3'
p1007
L103L
tp1008
a(S'sub_140017484'
p1009
S'8b898989895683338b8b38748beb8b85748b8b8b8b8b038baf890303898be8ffff3b728b8b8b8b835ec3'
p1010
L142L
tp1011
a(S'sub_140017514'
p1012
S'8b89895556575455565783c7898b8b8b8bc13b42b83b42338bf78b23038bf7038303b83b42333385848b8d8a3b838375b9e88985748be89089847433eb8b8b8b8be8b88b898b8988898b033b778d3b758b8b2b898b8d3b768b8d8be8eb8be8b803838b3b828b8b835f5e5d5c5f5e5de9'
p1013
L396L
tp1014
a(S'sub_1400176A8'
p1015
S'8b555657545556578d81c7898b33898a8b8b8bb88d8bff83858b3b858b8d3d878b8b8de8908b8de83b85b88d83e88b8b8be8f73b858de83c858de8b7898de8b78903898de8b73b8381878de88b3384848b8b3b762b8b8be88beb898b3b73698b89ff8d8b3b7239768b698b8de8898b8de889ff3b72698b89eb338b8de88beb338b33e88b815f5e5d5c5f5e5dc3'
p1016
L535L
tp1017
a(S'sub_1400178CC'
p1018
S'55565756578db8e82bc7898b33898a8b8b8b8de890338b8de83284753a858b8de8e9bbb28de83a748beb33338de8b88d8de883758bb93b448de83383758de8908a8b8b8de88a8de8eb8de8908a8b8b8de88a8de8908de88a8b33e88b815f5e5f5e5dc3'
p1019
L404L
tp1020
a(S'sub_140017A60'
p1021
S'55565756578db8e82bc7898b33898b8b338985848abf8b8b8de88a8b8d8de88b8b8d8de88d2bd18b2b8d8d8de88de8908d8de8898989338d8de884748de88b83758d833b72b7e8847483eb8b8d8de88d8d3975e8e9e88de890338b8de884758b8de8e98de8b88d8de883758b3bb3748a8de8b284748de8908b8b8de8908de8eb8de8908b8b8de8908de8908de88b33e88b815f5e5f5e5dc3'
p1022
L675L
tp1023
a(S'sub_140017D04'
p1024
S'555657545556578db8e82bc7898b3389888b8b898b89bd8b8b8de88de88b338a8985848d8be88585b4888de88a898d3b768db7e8847583758b8d3b778bb8898de8908d8de8898989338d8de884748b8de8908d8de88474b28de884758de8eb8b8d8de8908de8908de8eb8a888b8de8908d8de884758de832e938758db9e8eb8a888de88a8b8d8de88b8b8d8de88d2bd1898b2b8d8d8de8898a888de8908d8de88989898b89898b89338d8de8848484758475b6898de88b85748b838d3b76b78374838d83458b8d3b77b68344898484847589c78de8c68db9e88de8908d8de8338d8de88de88b8d338de88dbe8de8b6ff898d83758b8b8de8b68bd30b83837c8d89898b8b338d8de83b748db9e8908de8e98de8eb8de88b85848a8b8b8b83b7e884748d8d3b738be88985743d7eb6ff83728a84858b8b8b8d3d8f8b85743b858b85743b8589898bb7898d8575b9e88985748be88beb8b8d8be88b039889ff39758be8898b338d8de88b84748ae98d8db9e8908de8e98b387485748bb9e8857433b88de8898b6389858e8bb9e88985748b8be88beb8b8de884848d8be8338be88a8484eb83748be88be88575eb8db9e83874898b898b8b338d8be88b39748a8db9e884758be88bb7898d85758d838d39751011b7898db9e88d8db9e88d8de88b33338bff848b75b88d8be88484c6ff8d3b758bb7898d85758db9e88db9e8893894ba8de8ffff3b8c8b8bb9e8857589c78de8e98bb9e889c78de88d8de8e93b7e8bb9e889c78de8e989c78de88b8d898b898b63857e8b8d3875397589ff83ffff3b7c8989838de833b8f78b8b8b8985748d8b8b8be8818375e88b8b8b858e8b38758b857463af8b038b8bff638b3b748b2b8b8b030333e88b3b7e8beb63af038b33e8ffff633b8c85848b8b8b8be88b8b38753b748b8b8de889638903898b338b8bf78b3d4c8b858e8d8b8b2b3b458b8b698d038b8b8989038989898d898b8983768b8d8be8ebe8ff3b8d8c338b8be88b8b8b858b8e8b387463af038b8be88bffff3b7ce9857e8d8b8b8b8b8574847438748b8bff8b8d338bffbf338be883758be889ff83837539848b8de890b88d8de88484b28de88484ba8de88574338b8de8b88d8de88b63857e8b3875ffff3b7c3b75338b8de88de8908de88b38758de88b387538758de88be8b38de8908de88a8b33e88b815f5e5d5c5f5e5dc3'
p1025
L3599L
tp1026
a(S'sub_140018B14'
p1027
S'555657545556578db8e82bc7898b3389888b8b898bb88b8de88de88b8d333b768db7e884748b8d3b778d8b2bd1b82b8d8be889898de8908d8de88989898b338d8de8838484e8b9e88985748b8be88beb8b8d8be884848d8de8847485948b8be88b858485758be889ffe9b28be8848439778d8de8848438753884888b33338bff8de88b8bbc8d3b82b7e88474b783af038d03838d3b738d3d878b898b3b768b2b3b768b8be88beb893b73698b898d83758d3975b1b88d8de883748b3b73636903898883b88de8eb85748bba8bff338d8de88be98db9e8908de832e9387485748bb9e8857489c78de8898b8b39868b690339748db9e8c7b8898b338d8be88b399488748db9e83b728be889ff3b7339743875ffff3b828bb9e83975c7898de8e939768bb9e8c7eb89c78de88b898b39868b8b69038b3b46898b858438858be88d8b8d2bb7898d85758d838d39751011b7898bb9e88d8bb9e88d8be88b85748bbaff898b85948885858db88d8be88bb9e88bb9e8b9e88985748be88beb8b8889b8898d89b98b8b8be884758a84758b8de88af61b81838de88b8be889c68b33ba8de8ff3b82898b898de8898be8898b39768b698b397438b0748a8b883b738b3875ffff3b728b33b8f789a874ff8983898bb8f7c7408be88b898de8908b8b8b8de884758be88be8e98b83e8898bf7ff830389e88b8b8b85848b2b898b8b8b38758b3875ff38748bff8b69038b8b857438758b8b8bff8b638b3b742b8d8b33e88b3b4e638b3b728b2b88898b8b8b8be8ff3b8285848b39768b8b8b387569038b8b3b438baf038b8be8ff298bff3b728b8b8b8b8be88b8b38753b748b8b8de8890389e98b39768b698b8b8574e8ff3b728be88be88b38758de88b387538758de88be8b68de8908de88a8b33e88b815f5e5d5c5f5e5dc3'
p1028
L2639L
tp1029
a(S'sub_140019564'
p1030
S'5557568db8e82bc789898b33898b8b8be88b84758b8de8e9b88de8e98de890338d8de884758d8de8e933b0338de884848de88b8de88de8338d8de88de88d338b8de833338de8b68bd30b83837c8af61bf7838989b9338d8de83b758de88b8d8de8eb8d8db9e8ba8de833ba8de8908de88de88485eb8de88b33e88d8b8b8b5e5f5dc3'
p1031
L569L
tp1032
a(S'sub_1400197A0'
p1033
S'55535657568db8e82bc78b33898b8b8bb88b8de833e98de890338d8de884758d8de8e933b0338de884848de88b8de88de885948d8be88b8574ff8af61b838389b889b9338d8de8698b8b39758de88b8d8de8eb8d8db9e8ba8de833ba8de8908de88de88485eb8de88b33e8815e5f5e5b5dc3'
p1034
L496L
tp1035
a(S'sub_140019994'
p1036
S'5383808b75e8c68b835bc3'
p1037
L36L
tp1038
a(S'sub_1400199B8'
p1039
S'558d818b338933ba8d63888863888b24fff68d1b2333338375338d8b8824f68d1bff23ff8b338372338d338474b6b68d2bb6eb338d330333033303338bc1328088888888888888888874b6b68aeb3332888888888474b68aeb3288888888b68bc133c1338d8bc18a323c74b6b63383b68d2b8aeb32888474b6b68aeb333288888888888888888474b68aeb3288888888888888888474b68aeb3288888888888888888474b68aeb3288ff888888ff88888888818c8b33e8815dc3'
p1040
L855L
tp1041
a(S'sub_140019D10'
p1042
S'898957838b33898bb8338aa2c18b808989b889888174837483758dc7eb8bebb8c7eb8bc78574338b8b8d838b03c18affff8883758b8d8575338989eb2b8a88ff83758d8be884758be88b33e88b8b835fc3'
p1043
L287L
tp1044
a(S'sub_140019E30'
p1045
S'85848b898989895556578b83c18b808b74e8e9101185848d2bbf8d638d8b8dc18b038b2b2b8b3389038375b6b68b33b6b633b633b6898bb633b633b633b6898bb633b633b633b6898b33b633b6338d6389838e8b8dc18d2b8d03338d038b338903837cb683b68b33b6b633b633b6898bb633b633b633b6898bb633b633b633b6898b33b633b6338983858d8b2b8d2b8b8b3389038375b6338a88b68a88b68a88b68a88b68a88b68a88b68a88b68a88b68a88b68a88b68a88b68a88b68a88b68a88b68a88b68a888b31ff3b7c8074338b3103837c101011118383857f8d8b8b8b8b8b5f5e5dc3'
p1046
L1033L
tp1047
a(S'sub_14001A23C'
p1048
S'8d8b6f8574638b836f8b03ff6fef857e63c1036fff8dde857f806fdf74ef8b6f837f83757fc3'
p1049
L132L
tp1050
a(S'sub_14001A2C0'
p1051
S'898989575657838b3389bf8b398e8d2b8d838d338dbd8db68db68a8db6328db6328d32888d8375ff837c10ff837f833b7c8b33e88b8b8b835f5e5fc3'
p1052
L242L
tp1053
a(S'sub_14001A3B4'
p1054
S'898955575556578b838b338910633310338b118d8d11857e3333333b8f3b7d8d8d3b7d8b8d0389ffffff3b7c3b8d458b333b458b8d458b333b458b3b7c3b8f638d638db68a3288b632ff8a30b68a30b6888a308374838e8d8d8b8a30ff83758375eb8db98b8a30ff83758375b68d8a30b68a30b68a30b68a30837e8d8d8b8a30ff8375837533857e3b7f3b7d8d8d3b7d8b8d0389ffffff3b7c3b8d458b333b458b8d458b333b458b3b7c3b8d8e8b33e88b8b835f5e5d5f5dc3'
p1055
L603L
tp1056
a(S'sub_14001A610'
p1057
S'8955565754555657b8e82b8b33898b8b638b898bb7858e8d8b2b8d8b3333857e6385748574638b03988b8beb33b6ff333b7c33b68589448b838a83758485388533c68d857e8d83ff8b8dff3b7c638dc7857e3363857e8b8d2b8d986385748374638b03988beb3331ff83857fff3b7c83b82bbc3b8d8d8b8b33ff857e338b8bb88bf78b03c18bc103692b638374837463638b03988beb3333038383753b8563ba8963838bff3b7e338db88bf703c18bc103692b836363748574638b03988beb3363830383318bff3b7cffffff833b8c8d8b8d8de88b8b8b3b8f858e8b8d338bb98b2b33857e338d8bb88bf703c18bc103692b836363748574638b03988beb3333038383758b2b8d85783b7d857463b92b63837463638b03988beb3363308b8bff833b8c3b9eebb08b33e88b815f5e5d5c5f5e5dc3'
p1058
L1130L
tp1059
a(S'sub_14001AA7C'
p1060
S'53838b89c6e88b835be9'
p1061
L40L
tp1062
a(S'sub_14001AAA4'
p1063
S'8989ba338bb863898d89ff8b8d813b4e3b7c8d8bb9a58b8bc3'
p1064
L94L
tp1065
a(S'sub_14001AB04'
p1066
S'8989565756818b3389638b857e8b8dc133e8bec73b7c8d8d857e638dc133e88b8d8b898dc78be8638b857ec18d8be8ff833b7e8b33e88d8b8b8b5e5f5ec3'
p1067
L252L
tp1068
a(S'sub_14001AC00'
p1069
S'8989898b338b8b8b8b857e8b83ff8b8d3b7c33857e2b2b838b74332b857e8d8374837463638b03988beb3331ff8b838b2b3b7cff83838b3b7c8b8b8bc3'
p1070
L202L
tp1071
a(S'sub_14001ACCC'
p1072
S'5383338b88898989898989e88b835bc3'
p1073
L51L
tp1074
a(S'sub_14001AD00'
p1075
S'53838b8be88be88be88be88b835be9'
p1076
L58L
tp1077
a(S'sub_14001AD3C'
p1078
S'895783838b85898b89958885848be88b03e88b338b8b898d85748a8b88ff8b8b8b8d3b723385748b808b75ff8bff8b3b728b338d3b738b8b8d8044ff8b3b728b3987838485848b8d3d773b77857485748be880b88b74aff7c7408be88b89e88be8ebaff7c7408be88b89e8b0eb328b835fc3'
p1079
L386L
tp1080
a(S'sub_14001AEC0'
p1081
S'5355565754555657838b8bafb8c7f7408be88b33af8b8bc1e88b338b8b8d85748b8b38740338758baf030303898b3b728b8b898b85848b8b8b8b38748b8b3b738b85748b8baf03038b318b3b728b038b8b3875898b3b848b8baf8d8b8d89898939758beb8bb98b2b8b8b8b85748b8b8b038b8b038b8b898b8b8b038b8b898b3b728b8b85848b3b748b8b8baf8d39768b8b8b8b8bff8b8d8b038b8b318b8b8b038b8b313b728b338d8b033b828b8b0303898b3b82af85748b8b89038baf3b728b835f5e5d5c5f5e5d5be9'
p1082
L689L
tp1083
a(S'sub_14001B174'
p1084
S'89898b33338b8b85748b8b8b80758b8075ff80748b3385748b337533eb8bb98b2b8b8b8baf03ff898b3b728bffffff8b3b728b8bc3'
p1085
L161L
tp1086
a(S'sub_14001B218'
p1087
S'338b39768b3385748d337533eb8bb98b2b8b8b8baf03ff898b3b72ff3b72c3'
p1088
L94L
tp1089
a(S'sub_14001B278'
p1090
S'8b898989895555568d81838b298b29298c8b8a0aa8858b8b8b8baf03338b8b8b8d8b038b8a888bc1888bc18b038a888bc1888bc18b038a888bc1888bc1ff8b038a888bc188ff3b828b6f7183828b8d2b2b6f836f6fdb6fdb6f6f71676f6fdbdb71676f6fdbdb3838713838ef716fef6f3838ef6f38ef6f38efef6f60ef68ef7f7f8d8d3b863b732b8dff2bd1ffb78b8b038bb7318d8375b0eb328d8b8b8b8b2828288b5e5d5dc3'
p1091
L675L
tp1092
a(S'sub_14001B51C'
p1093
S'8b89898989545657838b338b8b8b8b8b85758b8be8898b8b898b8be88485857539748be8c78df7408be889898b8574b78b8b8b89833b728b8baf038b8b8b8574ffd1ff8b8b8d8b03b7318d83758b8b8b8b835f5e5cc3'
p1094
L299L
tp1095
a(S'sub_14001B648'
p1096
S'8957838bb9e8b989e8338933bababb8b8b89ff8b898d8b898d8b8d813b463b728bbb898b8d053b773b7333b8bbe88b8bff8381768b835fc3'
p1097
L205L
tp1098
a(S'sub_14001B718'
p1099
S'8b895783c78989898a8b8b8b81e8908de88989888b89338888898933b88be88989898989898b8b8b8b835fc3'
p1100
L206L
tp1101
a(S'sub_14001B7E8'
p1102
S'8989895783638b85788d8b85748be8ba8be88383798de88d8b8b8b835fe9'
p1103
L120L
tp1104
a(S'sub_14001B860'
p1105
S'898957838b8b038b893b868b8b85743b768d8de88de88b8b8b83c1033b468bc180748be88b85758de88b85748b8bc1e88b8bc1e88be8eb8be88b85758de889898b8b835fc3'
p1106
L261L
tp1107
a(S'sub_14001B968'
p1108
S'55545556578db8e82bc78989898b33898b338a8b8b8db785748b83748375b68474b7e88475ff83b78574eb8bbe8b8b8de88b8d8183898d8be88de8908d8de8898989eb38748d038b8de88de8b73b75b73b748d8be885758de88d8be8338d8de8848539758de8328b33e88d8b8b8b8b5f5e5d5c5dc38b8b8be8908de8b0ebe8cc'
p1109
L533L
tp1110
a(S'sub_14001BB80'
p1111
S'555657545556578db8e82bc7898b33898b8b8d3339848a6339858be88a84758a8b8be88474b0387438743875b18beb8a8a8b8b857f8b83743874837584748374387483758aebb785758884858485847484748374b73884387438858485398538858b83f71b83e98b84758af61b838b8574c6b1338be88474bfeb8d8b8de8ba8de8898be9b9e88985748be88beb8b6389bc8b8b8de884748b8d8de8638d8be88b638a8b8be884858a8884748d8be88a89638b85748be8ba8be88b63898b8d89857e8b6339758d898b857985798474ffb8e9bc8b8be88b85848b8d2bb7898d85758b397d8de88b8d2bb7898d8575898b8d2bb7898d85758b8be88b85758d8d8b2bb7898d8575eb8d8d2bb7898d857583758a8b8de88474387483f61b83e9f61b83e98b85748833b08be884758b8be88474b6838de984748deb8be88b8d2bb7898d85758b8b2bb7898d8575838bff39758dff3975ff03bf3b73817d8b8be88b8d8be88bff898474898475338b8be8847433eb8d8d8bb9e8b8ebb88b33e88b815f5e5d5c5f5e5dc3'
p1112
L1510L
tp1113
a(S'sub_14001C168'
p1114
S'8989895754555657b8e82b8b3389338d8bbe3976818b8be884858d88e88b8b8be83384848d8ab78b8b8b85848b8bbe83743b75b6b7e8338475b7e8338474848d8a448b85758b8b83ff8bb785758d858483c67783758be8e9bcc78b8de88b8db7e8338475b7e884758deb8d8d8b8de88de88bb73b75b73b748d8be88575898d8de8b7e88474ff8b8984758b8be88b8d8be8b08b33e88d8b8b8b8b5f5e5d5c5fc3'
p1115
L625L
tp1116
a(S'sub_14001C3DC'
p1117
S'8b898989895683338b8b398c8b39758be88484fff775e88b8be88b8375ffeb837485753874397483758be88475397685758a8d33c78be884848bebb88b8b8b8b835ec3'
p1118
L250L
tp1119
a(S'sub_14001C4D8'
p1120
S'8b8989898956838be83384848dbe8b8b8be88be88474b7e88474b039748a8b88e88bb785758b8d8be8b783753974397539758b8be88b8d8be82b8981d189b7898d8575b08b8b8b8b835ec3'
p1121
L285L
tp1122
a(S'sub_14001C5F8'
p1123
S'8957838b8bbae88b8b8b89835fc3'
p1124
L48L
tp1125
a(S'sub_14001C628'
p1126
S'8989565756b8e82b8b3389338b8b38848d8be88b3b768b89ff8d898374ba73888d8be88574888aeb8a84848b8574b1c6338be884748838748b85748be88b85748be8b88d8be88db9e88de88b33e88d8b8b8b5e5f5ec3'
p1127
L332L
tp1128
a(S'sub_14001C774'
p1129
S'53838dc68be88b835bc3'
p1130
L37L
tp1131
a(S'sub_14001C79C'
p1132
S'89c68bb933aa8bc3'
p1133
L30L
tp1134
a(S'sub_14001C7BC'
p1135
S'8957818b33898bbb8b8de88b8d8be88d8d2bb7b72b75838575858b8d9433aa8d8baa8a8b33e88b815fc3'
p1136
L172L
tp1137
a(S'sub_14001C868'
p1138
S'8b89895783338b8b3874888b898bb8e889eb898b8b835fc3'
p1139
L84L
tp1140
a(S'sub_14001C8BC'
p1141
S'898957838b8b3b8b8b8b428b03e88a8d8a8b8b8b835fe9'
p1142
L89L
tp1143
a(S'sub_14001C918'
p1144
S'8b8989898956838b338a8a8b8b857538758de88985748d8bff8b8d89ff89eb8b8bc6eb8b8bb683847485748b8bff85758d8d8be88be8ba8be8eb85748b8bff85758debff85748d0230ff3b728b8b8b8b835ec3'
p1145
L322L
tp1146
a(S'sub_14001CA5C'
p1147
S'833339753388b883e9c683ff3975ffc68bc7e883c3'
p1148
L85L
tp1149
a(S'sub_14001CAB4'
p1150
S'89857485748b338baa8bc3'
p1151
L31L
tp1152
a(S'sub_14001CAD4'
p1153
S'8b89898955565754555657838b84748b89eb10111011101110118b8b8b8b338b8b8b238b338b818b81c1c18bcf0303038b338bc12333c1338123c13381ce0303038bc8898bc103038b33038b2333c1c9898bc103038b03338b2333c1818bcac18903038b03338b23c133cf8b058b03038b038bc18bc18b330523c133cb89cc0303038b338b23c133c105cd0303038b338b23c133c105038b03038b338b23c133c105cb03898b03038b338b23c133c105cd0303038b338b23c1cb338905c1038b03038b338bc12305c133cb03898b03038b338bc12333c10581cb03898b03038b338bc123cb893303c10381038bca898b338b23c103c1338103038b8b8b333333c1d18b3389230333c103038b333381338b8b3323d1c133898b338b23c103c18b0303338b813333333333333381d18bc1890303d103898b8b33c1032333c18103038b8b8b33c13333d133898103c1038b03338b33338b33c133d1030303c18b8b338b33338b333333338b338b33c13305c1d133330303d103d13389338bc18b33d1338905c1038103038b338b33c105c10303038b338b33c103c18b033303338bc13305d1038b338b3333330303c1338b8b338b3333c13305c133d18b0303d10333338b338bc13305d103c1338903038b338bc13305c103038b3303338b3333d133898b8bc18103c18b038b03338b33333333d1898b8bc18103c1038b33033333d18b89338b3381c18bc1038b33033303338b8b8b3333c13305d103c103890333338bc18b33d1338981c103038b3303338b3333d133898b8b81c103c18b030333338b33c18b05338bd133338903c1030333338b33d133898b81c18bc1038b33033303338b8b3333d1898133c1338bc105038b033333038b338b8b33d13389c1333333d18bc10389038b03238b8b0bc123c10b8b03238b038d3303d18b890b8b23c10b8b038b0333c1338d0333d18b0b89238b23c10b8b038b03333333c1d1898b238d038b0b8b23c10bc1038b03338d3303338b8b0b3323d133338b898b23c10bc1038b03d18d8903238b8b0bc1230b03038d038b8b338b338b333333d1338b89c1c18bd10b89238b23c10b8b03238b03338d0333338b0bd123890bc1038b03c18b8b3323338d338b03d18bc18b0b8923c10b8b0323038d038b0b8b23c10bc103038d03333333338b330b23d13389d18b89230bc1038b03238bc18d038b0b8b23c10bc1038b8b03338d33033323d18b0b8923c10b810381038b338b33c13303d18b0b89238b238b0bc103c1038b038b338b3333d18933818b333333338b330b23d1898b23d10bc103c10389038b238b0b8b23c10bc1818b032303038b0b8b23c10bc103818b03338d0333338b8b0b3323338bd1230b8903c10333d18bc18b03890b8bc1238b238b0b330381c103818b03338b330b332381d18b89238b0bc103c1038b8b33330333c13333d133330303d18b8b33c10389338b8b33333333d103c10389338b33c1d1898d038b33c1338bc103038d038b8bc18b33333333c133818b0333038b338b0333813333338b8b3333d18933d18b33d133c103c103d103898b8bc189898b3333c1050303038b8bc1898b3333c103038d038b8bc1898b33c133038b33038d330333338b8b33d1338b898b33c133c1038903d18d8903818b8b33c133c103038b038b338b333333333333d18b03c103898b3333338d33038b8bc1d1d1898bc1338933c103038d038b8bc1898b333303038d03c18b8b33338b3381c1338bc133d1038903898b8d3303338b333333d1038903898b8b8b333333338b3333d1c103c18b8bc189d1898b3333c1038d038b3303338b33338b33d18b03c1038989c18d89038b8bc133c1338103338b030333338b3333338b33c133d1038903c18b8d03d1898bc181038b3333c103038b0101010101835f5e5d5c5f5e5dc3'
p1154
L4595L
tp1155
a(S'sub_14001DCC8'
p1156
S'8989565756838b33898bbd8b8b83c18bc6ff3b74768d3b732b8b838b3303e83385758db18d8be88b8d2b038b33e88b8dc18dc8ceb1898b89e88bb92b8b898d837521c7c7c7c7c78b33e88d8b8b8b5e5f5ec3'
p1157
L283L
tp1158
a(S'sub_14001DDE4'
p1159
S'83c7c7c7c7c7c3'
p1160
L40L
tp1161
a(S'sub_14001DE0C'
p1162
S'5355565756838b33898b8b8b8b0383898b8d837683bb2b038be88db18d8be88deb8d33038d8be883833b7233eb333b762b8d038d8be88b33e8835e5f5e5d5bc3'
p1163
L206L
tp1164
a(S'sub_14001DEDC'
p1165
S'5355565756838b33898b8b8b8b0383898b8d837683bb2b038be88db18d8be88deb8d33038d8be8338d8b8bc18d03ff89837283833b7233eb333b762b8d038d8be88b33e8835e5f5e5d5bc3'
p1166
L238L
tp1167
a(S'sub_14001DFCC'
p1168
S'8b8989898956838bbe8b8b83c18bc6ff3b74768d3b732b8b838b3303e83385758be88b8d2b038b33e88b8bc1c8cd8989e88b8b8b8bc8898bc8898bc8898bc8898bc8898bc8898bc8898bc889c7c7c7c7c7c7c7c7838b835ec3'
p1169
L308L
tp1170
a(S'sub_14001E100'
p1171
S'83c7c7c7c7c7c7c7c7c3'
p1172
L61L
tp1173
a(S'sub_14001E140'
p1174
S'898989575657838b8b01838b8b8574b88d2b8b3b8b47038be8038d2b83758be833834585758b8b8b835f5e5fc3'
p1175
L148L
tp1176
a(S'sub_14001E1D4'
p1177
S'8b89898955545556578d818b338933898b8d8b8bffc18bc8898d83728dbb8d8b8b8b8bc18dc1c1338b33c18bc1c13333030303898d8375108d10118b8b8b8b118b8b8b8b8b8bc18bc1f733238b8bc133c18b23338d038b0333038d03238b8bc18b338b8b8dc18b338b238b338b038d8385898d8b8d2b898989898989898b018d83758b33e88d8b8b8b8b5f5e5d5c5dc3'
p1178
L494L
tp1179
a(S'sub_14001E3C4'
p1180
S'8b3b7db8c33385746b99f7c3'
p1181
L31L
tp1182
a(S'sub_14001E3E4'
p1183
S'8b857533c36b99f7c3'
p1184
L21L
tp1185
a(S'sub_14001E3FC'
p1186
S'8957818b33898b8b8375e8eb8375b88de88d8b8be8338574898b33e88b815fc3'
p1187
L133L
tp1188
a(S'sub_14001E484'
p1189
S'8b898989895556578b338b8b8b8b8b85748b8db6ba8bbec18383470383470385748b8d3b73ff8888ff85748b8d3b73ff8989ffff8b3b72857485748b88857485748b898b8b8b8b5f5e5dc3'
p1190
L236L
tp1191
a(S'sub_14001E570'
p1192
S'8989898bb78374837583eb33857533e98b8abe8475837483743b75397585748d3b7389ff83eb8494eb85748d3b7389ff83b785758574898b8b8b8bc3'
p1193
L201L
tp1194
a(S'sub_14001E63C'
p1195
S'8bb9ebb8f7c1ff83738bc3'
p1196
L29L
tp1197
a(S'sub_14001E65C'
p1198
S'8957838b33ff898372898b8bb8c18d038be88b898b835fc3'
p1199
L90L
tp1200
a(S'sub_14001E6B8'
p1201
S'8957838b8b83ff8075ff3b478bffc68b835fc3'
p1202
L64L
tp1203
a(S'sub_14001E6F8'
p1204
S'8d8396c3'
p1205
L10L
tp1206
a(S'sub_14001E704'
p1207
S'8374837432c3b0c3'
p1208
L16L
tp1209
a(S'sub_14001E714'
p1210
S'8d85448bc3'
p1211
L18L
tp1212
a(S'sub_14001E728'
p1213
S'8b89898989545657338b8b8b8b8b39848d8d8b3b838b8d837585748d838b748db7837283768375ffeb83758b8b2b8d2b3b733b738b03b78d8bff8983758bb9ff898bb7837585748d8b39748bff89b78bffff8939858b8b8b8b898b5f5e5cc3'
p1214
L319L
tp1215
a(S'sub_14001E868'
p1216
S'838b33ff39758378638d83748375898383798bc3'
p1217
L61L
tp1218
a(S'sub_14001E8A8'
p1219
S'8075b0c3b6e9'
p1220
L16L
tp1221
a(S'sub_14001E8B8'
p1222
S'8375b8c3b7e9'
p1223
L20L
tp1224
a(S'sub_14001E8CC'
p1225
S'898957818b33898b338b8bc1f78b8b2b8d858b443b73b8fff7c18bc103b7c18d032b8389ff8b85758574b889ff8b85748db78d89ff3b72898b33e88d8b8b8b5fc3'
p1226
L234L
tp1227
a(S'sub_14001E9B8'
p1228
S'8957838b8b8574ffe8c68b8b835fc3'
p1229
L48L
tp1230
a(S'sub_14001E9F0'
p1231
S'5383838b33ff39752bff857e638be88b835bc3'
p1232
L55L
tp1233
a(S'sub_14001EA28'
p1234
S'89895783338b8b8574ffe8898b8b8b835fc3'
p1235
L60L
tp1236
a(S'sub_14001EA6C'
p1237
S'5383838b838383c683e8838b83835bc3'
p1238
L63L
tp1239
a(S'sub_14001EAAC'
p1240
S'89898957838b8d338b854583ff3975ffe88b8db78d898d8575ff8b8b8b835fc3'
p1241
L114L
tp1242
a(S'sub_14001EB20'
p1243
S'838de88b83c3'
p1244
L24L
tp1245
a(S'sub_14001EB38'
p1246
S'8b8b3b723385748932c38b8d8333ff3975ff0389857489b0c3'
p1247
L70L
tp1248
a(S'sub_14001EB80'
p1249
S'8957838b8b8de884748b8b8be8b08b835fc3'
p1250
L59L
tp1251
a(S'sub_14001EBBC'
p1252
S'5383838be88383835bc3'
p1253
L37L
tp1254
a(S'sub_14001EBEC'
p1255
S'89898957838b8a8b8b83738b89ff83328d8be8847485748b857484748b2bb73b7583857533eb1b83eb8be88575b78b8574ff898b898b8a8b8b835fc3'
p1256
L208L
tp1257
a(S'sub_14001ECBC'
p1258
S'538333b8a2f674b8eb33b8a2ba73b8ebba73b8ebba73b8ebc1838b835bc3'
p1259
L89L
tp1260
a(S'sub_14001ED20'
p1261
S'558b818b3389838d898d83b983b883b2838383c7ff8985748b8d33fff71b218bff8b85958b33e8815dc3'
p1262
L168L
tp1263
a(S'sub_14001EDC8'
p1264
S'53b8e82b8b33898bba8dff857533ebb98d8b8de88dff8b33e8815bc3'
p1265
L120L
tp1266
a(S'sub_14001EE48'
p1267
S'8957838d8377bf3b758d8deb837dbb8deb75bbeb837dbb8deb75bb33ebbb8dff8b8bffff8b8bff898b835fc3'
p1268
L144L
tp1269
a(S'sub_14001EED8'
p1270
S'838b3389ff8dba8bff85748d338dff838d83338b33c7c7ffbab9ff8b33e883c3'
p1271
L151L
tp1272
a(S'sub_14001EF70'
p1273
S'838074ba8de883748b8bba8b8b397fe82b837e8bffe889b983ff8de88375e88d89e8eb'
p1274
L175L
tp1275
a(S'sub_14001F020'
p1276
S'895683be898b3b76898b8575c7ba8b833bc6478981ff338b3333ff3333898d8bff83897485758d8de8ba8de8838b83838b835ec3'
p1277
L213L
tp1278
a(S'sub_14001F0F8'
p1279
S'5783c789898be890c6338d8bff903339768be8908bff90ff3b728dff908bff908b8b8b835fff'
p1280
L162L
tp1281
a(S'sub_14001F19C'
p1282
S'89895783838b8b8b75e88b8d833b758be88b8b8303898b8b03898bff83898b835fc3'
p1283
L135L
tp1284
a(S'sub_14001F224'
p1285
S'8383ff8375ff838d8b8de8ba8de883c3'
p1286
L72L
tp1287
a(S'sub_14001F26C'
p1288
S'5383c78dff8b8bff89338575b9e88985748d8be8eb8b898b8376b9e8898574ba8be88b8dff8beb8dff8b835bc3'
p1289
L184L
tp1290
a(S'sub_14001F324'
p1291
S'89895783338b39868d8b898d83ba33ff8b85758d8de88de88d8de889ff8b85748bffff3b828b8b835fc3'
p1292
L178L
tp1293
a(S'sub_14001F3D8'
p1294
S'85848957838b8dff8b3b758b857483897585748be8ba8be88b3b748be8ba8be88dff8b835fc3'
p1295
L151L
tp1296
a(S'sub_14001F470'
p1297
S'83ff8b8d8dff33858d748b8b858d448b03753b428b83c3'
p1298
L74L
tp1299
a(S'sub_14001F4BC'
p1300
S'83e88373b8ebb93b4783c3'
p1301
L36L
tp1302
a(S'sub_14001F4E0'
p1303
S'898957838b8b8be8807432eb8d8bff8b8b83c1107f8bff8389ffb08b8b835fc3'
p1304
L128L
tp1305
a(S'StartAddress'
p1306
S'83e83383c3'
p1307
L16L
tp1308
a(S'sub_14001F570'
p1309
S'8957838d8be884748d8bff8bff83758bff8bff8d8be884758b835fc3'
p1310
L111L
tp1311
a(S'sub_14001F5E0'
p1312
S'53838b8b2b8389748bff8b338bff8be8835bc3'
p1313
L85L
tp1314
a(S'sub_14001F63C'
p1315
S'8989558b838b33898b8bb88bf72bd103c189c189e88d3d738dffeb8dff8d338dff8d8dff8d8dff8b8bc1c12b8bc1038b2b8b038b0389c1898d8dffb7bab7b7b789b78d89b789b789898989893b7683778dff8d8b03893b728376f675ba8bf7c18bc1036b3b758bf7c18bc103693b758d898bb8f78b2bd103c1692b898b33e88d8b8b8b5dc3'
p1316
L489L
tp1317
a(S'sub_14001F830'
p1318
S'898989558b81838a8b8b748de88b8b8b84748b8d898b898b898b898b898b89e8eb8b8d898b898b898b89e8eb10111011b7898d8b8b8b8b5dc3'
p1319
L220L
tp1320
a(S'sub_14001F90C'
p1321
S'8b8bb8f72bd103c189c189c3'
p1322
L44L
tp1323
a(S'sub_14001F938'
p1324
S'8bf675ba8bf7c18bc1036b3b758bf7c18bc103693b75b0c332c3'
p1325
L72L
tp1326
a(S'sub_14001F980'
p1327
S'8b8989898954565783b7338b8b8b8b85748bb78be884748d8d03eb8ae83c743c743c743c7503eb6beb69eb69038bffb785758be88b8b8b8b69298b835f5e5cc3'
p1328
L199L
tp1329
a(S'sub_14001FA48'
p1330
S'53838b33898b8dff8d8dff6b898b33e8835bc3'
p1331
L79L
tp1332
a(S'sub_14001FA98'
p1333
S'83838b8303898bc183898bc183898bc183898bc181c189838d89e883c3'
p1334
L96L
tp1335
a(S'sub_14001FAF8'
p1336
S'8955565756578b838b33898b33338b898b898bb78b898d8574b7e8847483738beb8dd1038373638b8db78d8d890383b785758b8b8b8b85898b44898b85898b44898d898989e88b33e88b835f5e5f5e5dc3'
p1337
L249L
tp1338
a(S'sub_14001FBF4'
p1339
S'895556578b838b3389b78b898bb78d8933b789b789b789b78d898989ff8584e88d3d738dffeb8dff8d338dff8d8dff8d8dff8b8bc1c12b8bc1038b2b8b038b0389c1896b898b03898b33e88b835f5e5dc3'
p1340
L296L
tp1341
a(S'sub_14001FD1C'
p1342
S'69ba2b89c3'
p1343
L24L
tp1344
a(S'sub_14001FD34'
p1345
S'6b89c3'
p1346
L8L
tp1347
a(S'sub_14001FD3C'
p1348
S'8b898b896b89c3'
p1349
L23L
tp1350
a(S'sub_14001FD54'
p1351
S'53838b8b838f84838f84838f84838f848588837e8374837483858de88b8b8b8b835be98deb8de88b8b8beb8b8d33835be983748374837483858de88b8beb8deb8deb8de833e98deb8384838483848374837483748374837483858de98de98de88b8be88d835be98deb8de98de88be98de98de98de98de9838f848384837483748374837483748374837483858de98de98de98de98de98de98de98de98de98de9838483748374837483748374837483858de98deb8deb8de88be98de88b338be98de98de98de98de88be9838f84838f848384837483748374837483748374837483858de98de98de98de98de98de98de98de98de98de9838483848384837483748374837483858de98de98b8d8b8b3389e88de98de88b8b8b835be98de98de98de98de98de9838f848384838483848374837483748374837483858de88b8b8b835be98deb8de88b8beb8de98b8d835be98de98de98de98de98de9838483848384837483748374837483858de88b8de98de88b8b835be98de88be88de98de98de98de98deb8de88b8be8835bc3'
p1352
L1730L
tp1353
a(S'sub_140020418'
p1354
S'838074e82b3d7c83ffe88983c3'
p1355
L56L
tp1356
a(S'sub_140020450'
p1357
S'53838b8de88b8be88de88be88395835bc3'
p1358
L64L
tp1359
a(S'sub_140020490'
p1360
S'53838b8de88de88b8b33e88de88be88394835bc3'
p1361
L78L
tp1362
a(S'sub_1400204E0'
p1363
S'8957838b8a8de88d848d45e88b8b33e88de88be88b8394835fc3'
p1364
L102L
tp1365
a(S'sub_140020548'
p1366
S'55535657568db8e82b8b33898b8b8b33b88d8be8338d8be88b8db8e8338d8d8de8b83b748574b88d8be8338d8b8de88de88b8d8d8b898d8d89e8eb8de88de88b8be88a8df68d80458be88be885748b8374837483748374847483758de88be88b8be88474b8ebb8ebb8ebb8ebb8eb338b33e8815e5f5e5b5dc3'
p1367
L489L
tp1368
a(S'sub_140020734'
p1369
S'53555657545657b8e82b8b33898b8b8b8b8b8b8375b8e983758b8be8848580858384be8d8b8be88b8d8b898b8be88ba9758be88375c7e98375c7e983758de88d8b3b8d8b75e8ebe88be88474898b8b898b8be8eb83758b8be88474c7eb8beb8be8338b33e8815f5e5c5f5e5d5bc3'
p1370
L411L
tp1371
a(S'sub_1400208D0'
p1372
S'838b8be88b8d83e9'
p1373
L33L
tp1374
a(S'sub_1400208F4'
p1375
S'638d8be9'
p1376
L19L
tp1377
a(S'sub_140020918'
p1378
S'838b8be88b8d83e9'
p1379
L33L
tp1380
a(S'sub_14002093C'
p1381
S'53838a8b848d8d45e88b8b835be9'
p1382
L52L
tp1383
a(S'sub_140020974'
p1384
S'8b898957838b8b898b893389833333fff71a248574898b8b835fc3'
p1385
L83L
tp1386
a(S'sub_1400209C8'
p1387
S'8957838b33898b8d33ff839733888aff8595ff88ff81728b33e88b835fc3'
p1388
L109L
tp1389
a(S'sub_140020A38'
p1390
S'3333e9'
p1391
L10L
tp1392
a(S'sub_140020A44'
p1393
S'89338b8b85748b2bb6b9b6af038974ff833b728b8bc3'
p1394
L73L
tp1395
a(S'sub_140020A90'
p1396
S'898aff338b8bb38484b6ff81828b833d758a243c85be838b83c18b0bffe98b833d758a243c858a243c85be83be8383c10b8bc18b0b83eb8b833d858a243c858a243c858a243c85be83be8383c10bbe83c10b8bc18b0b838574837881768574837881768aeb85748db9c12b89b823b82b8983eb857489838ae98a8574898b8ac3'
p1397
L420L
tp1398
a(S'sub_140020C34'
p1399
S'8b895783838b838b898b8983c63333fff71a248574c68b835fc3'
p1400
L82L
tp1401
a(S'sub_140020C88'
p1402
S'338b85748a888a883974ff833b728bc3'
p1403
L47L
tp1404
a(S'sub_140020CB8'
p1405
S'89b78d8b8584bebb2b88b783818281732b788bc10ceb8d3b77b7b8033b77b7c1810383817383788bc10ceb817383788bc10c888bc103240c888bc103240c888003808803b785858bc6c3'
p1406
L243L
tp1407
a(S'sub_140020DAC'
p1408
S'b7ba8375b783838d4533eb8377b78d838d8db7837363afc3'
p1409
L80L
tp1410
a(S'sub_140020E04'
p1411
S'63ff'
p1412
L10L
tp1413
a(S'sub_140020E10'
p1414
S'83838b89b989baff8383c3'
p1415
L45L
tp1416
a(S'sub_140020E40'
p1417
S'53838bff8b835bc3'
p1418
L24L
tp1419
a(S'sub_140020E58'
p1420
S'83838b8b8bff8375ff3b738bff8375ffeb8b8bff8375ff3b73ff8375ffeb8b8b89b9898bbaff8383c3'
p1421
L138L
tp1422
a(S'sub_140020EE4'
p1423
S'53838bff8b835bc3'
p1424
L24L
tp1425
a(S'sub_140020EFC'
p1426
S'8b895783c789898b8b83b2e890338989898988898989898889898989888d33b8e890898989898de8908db2e8908989898988898989898889898989888989888988c7e88989898989338be8338be88be8908b8b8b835fc3'
p1427
L427L
tp1428
a(S'sub_1400210A8'
p1429
S'53838b3383e8838b835bc3'
p1430
L37L
tp1431
a(S'sub_1400210D0'
p1432
S'53838b8b8d898d3389898de88d898b835bc3'
p1433
L63L
tp1434
a(S'sub_140021110'
p1435
S'33898d898d898bc3'
p1436
L31L
tp1437
a(S'sub_140021130'
p1438
S'53838b8b8d898d3389898de88b835bc3'
p1439
L53L
tp1440
a(S'sub_140021168'
p1441
S'5383c78b8b857480748bc1e8908be890835bc3'
p1442
L61L
tp1443
a(S'sub_1400211A8'
p1444
S'5383c78b8b857480748bc1e8908be890835bc3'
p1445
L61L
tp1446
a(S'sub_1400211F0'
p1447
S'838374838be883c3'
p1448
L37L
tp1449
a(S'sub_140021218'
p1450
S'5783c7898b33e8908b8574e8908be8908be8908b85748d8d8bbae89069838be8908de8908de8908de8908de8908de8908374838be8908de8908de8908de8908de8908d8b835fe9'
p1451
L282L
tp1452
a(S'sub_140021334'
p1453
S'53838b8b8574e88d835be9'
p1454
L40L
tp1455
a(S'sub_14002135C'
p1456
S'8d8983e9'
p1457
L19L
tp1458
a(S'sub_140021370'
p1459
S'8b8b3b738bebba8d3b72ff8383728bc38b8d8b2b03c3'
p1460
L73L
tp1461
a(S'sub_1400213BC'
p1462
S'8957838d8b898b83e8f674ba8be88b8b835fc3'
p1463
L66L
tp1464
a(S'sub_140021400'
p1465
S'898957838b8b038b893b868b8b85743b768d8de88de88b8b8b83c1033b468bc180748be88b85758de88b85748b8bc1e88b8bc1e88be8eb8be88b85758de889898b8b835fc3'
p1466
L261L
tp1467
a(S'sub_140021508'
p1468
S'898957838b8b038b893b868b8b85743b768d8de88de88b8b8b83c1033b468bc180748be88b85758de88b85748b8bc1e88b8bc1e88be8eb8be88b85758de889898b8b835fc3'
p1469
L261L
tp1470
a(S'sub_140021610'
p1471
S'898957838b8b038b893b868b8b85743b768d8de88de88b8b8b8dc1033b468bc180748be88b85758de88b85748b8bc1e88b8bc1e88be8eb8be88b85758de889898b8b835fc3'
p1472
L261L
tp1473
a(S'sub_140021718'
p1474
S'89895783338b818b72e88172898b8b3b748b2b233b77b6eb8b888d8b0323898d107fe88bb08b835fc3'
p1475
L171L
tp1476
a(S'sub_1400217C4'
p1477
S'8b895556575455565783c7898b8b8b8d3389b93b4f638b8be88d898be884798be88b8575338be8ebffeb8b8b898b3b873b8789bd8be88b8985748989eb8b3b7581878dba8be88be88b8985748989eb8b8b8b898bff898d33e8eb8b8b898b8b8b85748b8b8b2b8b898b8d39458b857e89ff8b8b3b7285753d768d8b8be8328b835f5e5d5c5f5e5dc38dbae8b88b2b638b898be88b8bf674818b032389f6748be8898b898beb3b738b8beb8b898b8b3b742b238b3bb0768a888d33898989898b89f6748be88bc1ba8be88ba3738be889ff83837c8b3b858be88b8d818789898989888b8de8908b85748b833d738be8c18b88ba8be8ff3b728d8b8b8be8908de88b89b0e98de8e9'
p1478
L980L
tp1479
a(S'sub_140021B98'
p1480
S'83638bb68b85748b8983c38bb68d8d893b76b68b8dc12b8b89e883c3'
p1481
L122L
tp1482
a(S'sub_140021C14'
p1483
S'8989895783808b638b75c6e88b85748b89e98d8b8dff8dff83748b85748b8b63898b8be88bebfeb68b8d8dc18bc12b3b7e8b2b898b2b89eb338b8b8b835fc3'
p1484
L251L
tp1485
a(S'sub_140021D10'
p1486
S'898989575657838a338b8b8b84843c763c858b83857e8b038075b6b6c1038dc1c12bb6038b88c1c18888833b7c8be98b9480838b857e8affffff3c743a758b8b8185798d85788d89eb8d85792b898383833b7c8beb33ebb68d8b8b3b762b8b8be8eb898b8b85748a8b3b738bff8b032a883b72ff3b728b8b8b8b835f5e5fc3'
p1487
L382L
tp1488
a(S'sub_140021E90'
p1489
S'8957838d8b8374838be8ba8be8ba8b8b835fe9'
p1490
L76L
tp1491
a(S'sub_140021EDC'
p1492
S'857489898957838b8b2b8b8b8d8be88a88ff83758b8b8b835fc3'
p1493
L86L
tp1494
a(S'sub_140021F34'
p1495
S'8b8b2985748b8b8b8b8b2b238a888b8bff23898375c3'
p1496
L91L
tp1497
a(S'sub_140021F90'
p1498
S'89898b8b838b8b898b8b8bff2b290589893b833b838b8d8d8d893b7383728bc18a83888a888a888a888a888a888a888a8388838375eb83728bc18b83898383837585848a8883868a8883768a8883768a8883768a8883768a8883768a88eb85748b8b238bff8a888b8bff238983758b8bc3'
p1499
L425L
tp1500
a(S'sub_14002213C'
p1501
S'85748b8989898956838b8b8b8b2b8b8b8b23e88b8b8be88aff888bff238983758b8b8b8b835ec3'
p1502
L129L
tp1503
a(S'sub_1400221C0'
p1504
S'53838bb9bf6eb861706fdbeb7f838375837933b88be8b98db82ac088ff8379835bc3'
p1505
L121L
tp1506
a(S'sub_14002223C'
p1507
S'898957818b33898b8b8b8dbe8b8475838d897485748beb8b39748b8aeb833875eb8d8b3b7589838374eb8b8d3b758be98d8a888939743b868beb833875b6b72bb72b2b8d3b778d333b97eb8d8dff0333f78b0288eb8a88838d8b8b8be88b85748d3b75e9338b33e88d8b8b8b5fc3'
p1508
L384L
tp1509
a(S'sub_1400223BC'
p1510
S'8989638b6b8b8b8b2b8b8b89afff89af89898baf038baf038baf038b038dc1b6be2bc18d038b99332b018b2b99332b018b0399332b018b2b99332b018b0399332b018b2b99332b018b0399332b018b2b99332b018b0399332b018b2b99332b018b0399332b018a2abe8989f689858b33218d8b8b3b4383ff8d3b8b438b8372838784838483748374837483858b838cff89e98b838dffeb8b838cff89e98b838dffeb8b838cff89e98b837dffe983748374837483758b837dff89eb8b837cffeb8b837dff89eb8b837cff898b8a8bc3'
p1511
L881L
tp1512
a(S'sub_140022730'
p1513
S'89898957838b8b8b3b768b3b77bd3974397639778be88475838b8b8b835fc38be88b8b8baf018b2baf898b857483b6858b3b868989e98b8b8d333d728173f781898b8b817e8be88b8b63b68d898bc1c10bc189e98b018b893b863b87b73b748be8e98be880758d8833b8e88b8b8d333d728173f781898b8b817e8be88b8b63b68d898bc1c10bc189e98be9'
p1514
L613L
tp1515
a(S'sub_140022998'
p1516
S'898989575657838b8b8b8b817e8be88b8b63ffb68b89c18074817e8be88b8b63ffb689eb83748bf674817e8be88b8b63b68d89898d8be88474838d83768d838d83758374838be8328b8b8b835f5e5fc38de88b8be88395eb'
p1517
L307L
tp1518
a(S'sub_140022ACC'
p1519
S'8b898989895683338b818b8b8b39778bff8dff3976838be88574638b8b2b8bb98b2bd38b8b038b8b835ec3'
p1520
L136L
tp1521
a(S'sub_140022B54'
p1522
S'8383748374837483748375837680758a83e98a83e980758a83e980758a83e980758ae883c3'
p1523
L132L
tp1524
a(S'sub_140022BD8'
p1525
S'8b898989895683638b8b8a3a758beb8de88b85748d8bc18be8b68b89898b8b8b8b8b835ec3'
p1526
L140L
tp1527
a(S'sub_140022C64'
p1528
S'33818b3b72ff83837233c32b3b428bc3'
p1529
L48L
tp1530
a(S'sub_140022C94'
p1531
S'89898957838b83e88b8d8db88b89e83d838bb7b68bc1ff89b68d8884758d8b8d8be8b7b68bc1ff89b68d888474b789898b8b8b835fc3'
p1532
L240L
tp1533
a(S'sub_140022D84'
p1534
S'558b838b338b3b74888d8b898d8dbb89eb8b8b898d898b898b898989b6893975ff83837c8b8d3b84b78debb7b70381738b8b898b8b89b703b789b78d8d39748b8d3b75e98b8b898b8b89b781768dc1ff8bf7c1038b898981837563b68bb63b74b6ff8b2b2b638b8dc1038989638b89898b8d8b3b85835dc3'
p1535
L463L
tp1536
a(S'sub_140022F54'
p1537
S'898989575556838d8b8be88b8d8b8176b88d8deb8176b88d8deb8176b88d8beb8176b88d8debb88d8d898b8be833b63984817685b844ff83858be8ba8b8be8ba7389e9ba8be88be88b898db88be88b8be88bc1c1ba8b0be8818bf78b1bf783e8e98b8d89837c3975c78b83038bc12b818976d1c78bbe638b8a88ffffb7b6ffb68d88b63b768d8b8d8be8b7b6ffb68d88b63b77b789898b8b8b835e5d5fc3'
p1538
L702L
tp1539
a(S'sub_140023214'
p1540
S'8989895754555657838b8be8333385748373338b8bb92b2b8bbcf73b4733eb8be88b85758bc12b3b7385748b338be8038989ff3b723b728d8b8b8b8b5f5e5d5c5fc38de88d8de8cc8de88d8de8cc'
p1541
L260L
tp1542
a(S'sub_140023318'
p1543
S'89898957838a8b8b85758de8bf3b433b868bb9253b878474837580748ab58485eb8a32847433eb8be88b8575848581828b8574e8838d8be8c680758b338be88474b83b778d8b8b2b8bff23ff238a883b768b8574e8898d89898b8b8b835fc38de88d8de8cc8de88d8de8cc'
p1544
L460L
tp1545
a(S'sub_1400234E4'
p1546
S'89895783838b83be83898b8b817e8be88b8b63b68d898bc10b8983758b8b835fc3'
p1547
L118L
tp1548
a(S'sub_14002355C'
p1549
S'8957838b847583338339768bba8be8ff3b72833339768bba8be8ff3b72838b835fc3'
p1550
L147L
tp1551
a(S'sub_1400235F0'
p1552
S'89895783338d8bbe8db789b7f7c1038903898db7b7af893b728d8b33e88d8b8b33e88d8b33e88d8b8b8b8b835fe9'
p1553
L188L
tp1554
a(S'sub_1400236AC'
p1555
S'56575783c789898b8375bf8be8898b338be883858b038b89bf8bf7c74083428be8898574898d8d898d8b8b8be8eb338969338be88574338b8375c7b9e88985758de80383758b8b835f5f5ec3'
p1556
L299L
tp1557
a(S'sub_1400237D8'
p1558
S'53838b3381b8e88b8b8b9983898db8c1f7b8c16b2bf7b88bc103ff898df7c1b8c10389898d8d8bc103898d88ffff8375ff8d8b88ff838375ff8d8b88ff838375ff8dba88ff03837533888d63ffb6333b9c0388ff817c835bc3'
p1559
L309L
tp1560
a(S'sub_140023910'
p1561
S'898989575455565783838b838176d1c78b8d8be88b8b83728db88deb83728db88d8b89e88beb81738bbaeb33b88575ff8b8bd385748d8be88b038bc12b898be88b8176b88d8deb8176b88d8debb88d8d898b8be88b038b8bb6c12b89b7b6ffb68d8884758d8b8d8be8b7b6ffb68d888474b78b8989e88b81c1ba0b8bd1e88b8374837485753b778d8bc12b89eb85748d893b1b8303818d47817781728372b8ebb8898b8b8b898bff898389898b8b8b835f5e5d5c5fe9'
p1562
L746L
tp1563
a(S'sub_140023BFC'
p1564
S'5355565756838b33898b8b33898b8d8de8338b8d8574b60383013b72838d0333e8838d838d2b8d338b2b8b03b92a8bd30389038b03898d837210102910291033292985748a2474b68b89ff8903033b728da975b98175b98b89d38d338bbab98b2bd3eb8b3b720383728d882b8bb98b2bd3033b73b7eb33890383033b728b33e8835e5f5e5d5bc3'
p1565
L462L
tp1566
a(S'sub_140023DCC'
p1567
S'8b8989898957838b8b8b8d8d3b83bfbc8b218b8b8b2b233d733b748be88b398f837539758b8b833b738b8b8983e9338aff8b238b88ffb73b76e983858b8b898b898b8989b78b898b8b8b2bb7053b833b838b8d8d8d893b7383728bc18a03888a888a888a888a888a888a888a8388838375eb83728bc18b03898383837585848a8883868a8883868a883b868a8883868a8883868a8883868a88e985848b8b238bff8a888b8bff23898375e939858b8d8d8b85748d8b8b898d857589b78b898b8b2bb7053b833b838b8d8d8d893b7383828bc18a03888a888a888a888a888a888a888a8388838375e983828bc18b038983838375e985848b8b238bff8a888b8bff23898375e983858b85848b8b8b8b2b053b833b838b8d8d8d893b7383828bc18a03888a888a888a888a888a888a888a8388838375e983828bc18b038983838375e985748b8b238bff8a888b8bff23898375eb83758a8d888b8b83898a888b89e8833b82b08b8b8b8b835fc332eb'
p1568
L1489L
tp1569
a(S'sub_1400243A0'
p1570
S'8957838b8bbae88b8b8b89835fc3'
p1571
L48L
tp1572
a(S'sub_1400243D0'
p1573
S'8957838b8bbae88b8b03108b7f835fc3'
p1574
L57L
tp1575
a(S'sub_14002440C'
p1576
S'898989575455565783338b898b8b38758b83397ee884848b8bf783e88be88bbc8bc18be8b68bc183ff8384838dff89898be88b8b8bc1e885748b8be8c18bd3838b03838b83c1018983758b89c18bc1323232803a758b898b8db0033b4d898ac080c08888eb328b8b8b835f5e5d5c5fc3'
p1577
L355L
tp1578
a(S'sub_140024570'
p1579
S'538b8b638bb92bb6b6c10bb6c1320bd3ba73b18debb2c1228d8b80c183038989888474325bc38b5be9'
p1580
L134L
tp1581
a(S'sub_1400245F8'
p1582
S'89895783808b8b8b758b83397ee884748b8be88b898be88b89e8c1ba8b88e880758be8c1bafe8b88e8b08b8b835fc3'
p1583
L158L
tp1584
a(S'sub_140024698'
p1585
S'89898957838b8be88b3383c18b83c1018983748b8b8be88b8b83c1d3838b03c183018983758b8b8b8b835fc3'
p1586
L137L
tp1587
a(S'sub_140024724'
p1588
S'895783638b8d398c8384638d8b8b69b6b603c10bb6c1b90b2bd38b813b73b88b2b8ad3b6038bc103838989b7ebbaff3b738bff8d3b72ff833b72eb8b8d8b83c1018d89b92b2b8bd38b033b1b23b7b9e98b8bb6b6c10bb6c1b90b2bd38b813b73b88b2b8ad3b6038bc103838989b7ebbaff3b738b838d3b72ff833b72eb8b8d8b83c1018d89b92b2b8bd38b033b1b23b7b93b758be88b835fc3'
p1589
L582L
tp1590
a(S'sub_14002496C'
p1591
S'8989895754555657818b33898b33838b397ee884848bbd63b6b6c10bb6c18b2b0bd3b78b2589ba728d33b8e88b838b83c101893974c1838d89397c89838b83c1018969ebbebd8d8b8b638bb6b6c10bb6c18b0b2bd38dc18b80c1038388ff898983758d8b8b8d8be8638b858e8b8b83397e8be88484638b8b8b2bb6b6c10bb6c10bd38b813b73b82b8ad3b6038bc183898d89b7ebb9ff3b738bff8d3b72ff833b72eb8b8db92b8d8b8389c103892b8bd3033b1b23b7b783738aff022488ffe98b632b8375b6b6c10bb6c10bd38dc18bc1830383838989858eff3b8d8aff88ff857febb6b6c10bb6c10bd38375c1838383ebc18383838bc103838989ff3b7d8bffff3d8388857f3b8c8b398f3974398e638d698db90369038be8ff3b7ceb32e98db98d8be88db98d8be88db98d8be8818db910101110111011101110111011100311031183758b89b08b33e88d8b8b8b8b5f5e5d5c5fc3e8cc'
p1592
L1295L
tp1593
a(S'sub_140024E7C'
p1594
S'8b89898955545556578d818b33898b8d838b397ee884848b8bf783e88be8ba73be8d8d898be8e9838383ba728d33b8e8ba8be833338d8be88bba8bc1e880758be8c1ba8bb6e8857588eb8d2b83738b03038383c6857f2b2beb88030383828db98b8d8be833338b83397e8be884848b638bb6b6c10bb6c1b90b2bd38b813b73b88b2b8ad3b6038bc103838989b7ebb9ff3b738bff8d3b7203833b72eb8b8d8b83c1018d89b92b2b8bd38b033b1b23b7b783738a0302248803e98be88b837383758dc1038bebc1ba838be8857eb92b3b7d8a038803857feb75b8c1038bebc1ba838be8b92b3b7d8b03033b83c6857f8d818c8b88397e32e98db98d8be88db98d8be88db98d8be88db98d8be8ba8d818d1010111011101110111011101110031103112b75108b8a11898b33e88d8b8b8b8b5f5e5d5c5dc3e8cc'
p1595
L1185L
tp1596
a(S'sub_140025320'
p1597
S'89555657545556578d818b338933898b8b8b388438758b83397ee884848b8b8be88bba8bc1e880758be8c1ba8bb6e88575c6eb8dff83738bffff838388857fffffeb88ffff8382818d8bb98be8338d80758b83397e8be88484bb8b638bb6b6c10bb6c1b90b2bd38b813b73b88b2b8ad3b6038bc103238989b7ebb9ff3b738d8d3b72ff833b72eb8b8d8b23c1018d89b92b2b8bd38b033b1b23b7b78373ff88ffe98be88b83738375c183ebc183ba838b8d45e8857eb9ff3b7d8aff88ff857feb75c183ebc183ba838b8d45e8b9ff3b7d8bffff3b83c6857fbb818c80758b397e32eb8b8d8bb98be88db98d8be88db98d8be88db98d8be8b08b33e88b815f5e5d5c5f5e5dc3e8cc'
p1598
L957L
tp1599
a(S'sub_1400256E0'
p1600
S'8b575455565783c78989898b638b8bb6b6c10bc1b60bbb8b2bd3c1b6038bc103898d23898b23ff3b756363b6b6c10bc1b60b8b2bd3c1b6038deb3b756363b6b6c10bc1b60b8b2bd3b78d8bc1032389893389898989888b8b8de8908b8b85748b8bff397c8be884758d3b7c638bb6c1b60bc1b60bb92bd3c1888b838bc1018389ffff3b7c8b8b8b8be88a8de88a8d8b8b8b8b5f5e5d5c5fc3'
p1601
L510L
tp1602
a(S'sub_1400258E0'
p1603
S'8b575455565783c78989898b8d8be88b83848b83ff83758be883848deb83758be88b83848be88384c103338989898988638b8de8908b857e8b8be8837488ff3b7c8b8b8b8be88a8de88aeb8be889eb8be83389328d8b8b8b8b5f5e5d5c5fc3'
p1604
L323L
tp1605
a(S'sub_140025A24'
p1606
S'8957838bbf8b8574e8838383758b835fc3'
p1607
L56L
tp1608
a(S'sub_140025A5C'
p1609
S'89898956838bbe8b8133e88d8be88bba3b4c33f7898b3b748389eb8b85748b89eb338be88b89ba8989b98b898b898b898be88b8b8b89898b89888b8b88ff8b8d8bc68b8b893b7c8d8b2b8b81be8bb78d99f7b9ba2b8d898d8375038d3b7cff83817c8d8db7c103b8c1c789838375ff837c8b8b8b835ec3'
p1610
L504L
tp1611
a(S'sub_140025C54'
p1612
S'89898957565783838d8b8be8838bbf758b8be881728b8be9038333c1838d8d733b758b8b03eb8b8b8bb8d333f7857403eb3b758b03eb8beb3b758b8b03eb8b8b8bb8d333f7857403eb3b748b8be883827501e98383758be88b8d8d8b8b89e88b8de88bbaba8bd1e88b898b89e98b2b03238b8be88b8d8db88b89e88d8175837531e9818d8b463b8d428b898989e98b83038bc12b898be88b8d8db88b89e8b6b78474b789898b83038b8989898b0323898be88b8b8b835f5e5fc3'
p1613
L770L
tp1614
a(S'sub_140025F58'
p1615
S'8989895783638b638bb6b63b748b85748b8d898bc1e88b8b8989eb8be88b8b8b8b835fc3'
p1616
L144L
tp1617
a(S'sub_140025FE8'
p1618
S'898b63b6638bb68b2b8d8d632bb6b63b748b8989b68dc1032b638bb68b8989c3'
p1619
L135L
tp1620
a(S'sub_140026070'
p1621
S'898957838bc689e8b8c7898dba88b8e8338d88ffff837cb9bb8b3b7d638d032b8bff88ff8d858b8b8b45ff858b8b458d85458375338d8de88dbab8e88bc68b835fc3'
p1622
L278L
tp1623
a(S'sub_140026188'
p1624
S'898957838b8bc139748374838be8b8f7c1838dc18b8be88985758de832eb83890389b08b8b835fc3'
p1625
L137L
tp1626
a(S'sub_140026214'
p1627
S'338575b88989898989c7c789898989c3'
p1628
L94L
tp1629
a(S'sub_140026274'
p1630
S'8575538333c7898b89b881e88d33b8e88d33b8e8835bc3'
p1631
L101L
tp1632
a(S'sub_1400262DC'
p1633
S'8957838a8b847588b88133e883c78a8b8b835fe9'
p1634
L84L
tp1635
a(S'sub_140026330'
p1636
S'8957838a8b8475333389b88921212181e88bb983833b428b23898333838b8383838389898983b6e88a8b8b835fe9'
p1637
L226L
tp1638
a(S'sub_140026414'
p1639
S'8957838b8b8b2b7932eb817e857e8b630363e88389eb8b8bb82b630363e88b8b857e0389838389958b835fc3'
p1640
L147L
tp1641
a(S'sub_1400264A8'
p1642
S'8957838b8b8b632b7932e98b2b01817e857e8b0363e8838b3389eb8b33b83b748b2b630363e88b8b8b8b857e8d898b8389898374ff033b4d8983958b835fc3'
p1643
L215L
tp1644
a(S'sub_140026580'
p1645
S'8b8989898956838b8b8b3b74c673c680742b23768d8b8b8be88b8b8be88b8b8be803232b75eb8b033b738b2be88b8beb2b8be88b8b8b8b835ec3'
p1646
L222L
tp1647
a(S'sub_140026660'
p1648
S'53838b8b8b3b74c68b738b8b8bf763238de88b8b8be8c6eb8b8d2be88b89835bc3'
p1649
L140L
tp1650
a(S'sub_1400266EC'
p1651
S'8955565754555657838b338b8b2b2339868b8b85848074c6e98b8b8b8b2b238b3b833b748b8b8be88b8b8b8b2b233b878d23893b7285748b8d2b8b03338b8b8be88b8beb338d8b038b8b8be88b8d8b89e88bba8b8b8be88b8d833b838b8b8b85743975397580758b8b338be88b8d8b89e88bba8b8b8b8be88b83ff3b728b8b8b8b8be88b012b23c6ff3b828b8b8be88b898b835f5e5d5c5f5e5dc38b8b85748074c6ff3b728beb'
p1652
L652L
tp1653
a(S'sub_140026978'
p1654
S'5355565754555657838b8b8b322b8823338b8b89858433898b038084808b8b742b233b87c6e98b2b8b238b3b833b748b8b8be88b8b8b2b8b238b8b3b8785848d233b768b8d2be88beb898b3b7285748b2b8b808d89748b8d8b8b8be88b338b8beb8b8b03e88b8b8beb80748d8b8b8be8eb8b8b038be88b8b8b8be88b8bc685748b8b8be88b018b8b2bc6238b83ff893b738be98b893b738bc18b8074c68bff833b72b5eb8a333385748d338b8574108b2b037f8b808d45ff8b838b3b7285742b3b762b8be8eb8984758b8b8be88b898bb98b3b8b428d23893b748b3b742b2b23233b738b89835f5e5d5c5f5e5d5bc3'
p1655
L959L
tp1656
a(S'sub_140026D38'
p1657
S'8957838b8b8b8b3b7d2b8b3b4fe8018b835fc3'
p1658
L71L
tp1659
a(S'sub_140026D80'
p1660
S'895783b68b8ae88b8be88be884758be833eb8b898b8d89857e8be88bc78588bb8b218b83397e8be884848b8b8b2b233d733b748be883748beb8b8389798be88b898b8b8d8981748b8b3977e8eb8d8985798be88b898b8d81898b748b3977e8ebe8838d8b8b835fe9'
p1661
L439L
tp1662
a(S'sub_140026F38'
p1663
S'89898957545583808a8b748b898beb8ae88be8848484758be88484ff8b8588bd8d8b218b83397e8be884848b8b8b2b233d733b748be88085838b84638d6369038bb6b6c10bb6c1b90b2bd38b813b738b8b2b8ad3b6038bc103838989b7ebff8b3b738bff8d3b72ff833b72eb8b8d8b83c1018d898b2b2b8bd38b033b1b23b7b78b8175e88484e9e88b8b88ffff8b3b8583e963b98b2bb6b6c10bb6c10bd38b813b738b2b8ad3b6038bc183898d89b7ebff8b3b738b838d3b72ff833b72eb8b8d8b2b8d8b8389c103892b8bd3033b1b23b7b78b81738b8b88ffffe98186638db6b683857463b6b6c10bb6c1b92b0bd3038bb7c18b2b03d3038983898b63b6b6c10bb6c1b90b2bd38b813b738b2b8ad3b6038bc183898d89b7ebff8b3b738b818d3b72ff833b72eb8b8b8d038b2b8bc1838903892b8bd3033b1b23b7b78d8bb6ff857463b6b6c10bb6c1b90b2bd38b2bb7d38d8b03c1038389898172ff8172ff8be9758be981758b8be981838b2b6383b68bb6c10bb6c1b90b2bd38b813b738b2b8ad3b6038bc183898d89b7ebff8b3b738b818d3b72ff833b72eb8b8b8b032b8b83c1018d8b892b8bd3033b1b23b7b78db6b68385748b63b6b6c10bb6c1b90b2bd38b2bb7d38d8b03c1038389898172ff8172ff8172ff8be981738db6b6ff857463b6b6c10bb6c1b90b2bd38b2bb7d38d8b03c1038389898bba8be8838d8be88be88b8b8b835d5c5fc3'
p1664
L2018L
tp1665
a(S'sub_14002771C'
p1666
S'89885556575455565783338d398a8bbd758b8d8b8b8b397e8b8d8b8bd38a8d03e88d89ff0383758d03830383728a8d8838758a8be88be88484847438758be884848bbe8b218b397e8be884848b8b8b2b233d733b748be88b398f388539858d8be88b83843b858be88b83758be88985758be884848de98384838483758be8eb83858b8a8b84858be883758be8898aebb683758bebc10303837c84858b8d838b8b2b8b053b833b838bbe8d8d8b03893b733b728bc18a83888a888a888a888a888a888a888a0388032b75eb3b728bc18b838903032b758d85848a8d883b868a8d8883868a8d8883868a8d8883868a8d8883868a8d8883868a88e98dbe85848b8b238b038a888b8b0323898375e983858be883848b8d8b058d3b733b738b8d8d8b03893b828bc18a83888a888a888a888a888a888a888a0388032b75e98d85848b8b238b038a888b8b0323898375e98b8b8801e9638b8b8b2bb6b6c10bb6c10bd38b813b73b82b8ad3b6038bc103838989b7ebbaff3b738b838d3b7203833b72eb8b8db98b2bc1830389898d2b8bd3033b1b23b7b781738b8b8801e9818263b6b683857463b6b6c10bb6c18b0b2bd3038bb7c1b92b03d303898389638b8b2bb6b6c10bb6c10bd38b813b73b82b8ad3b6038bc103838989b7ebbaff3b738b818d3b7203833b72eb8b8bb9032b8b83c10389898d2b8bd3033b1b23b7b78bb60385848386837663b6b6c10bb6c18b0b2bd383b7038bb92bc1d303c1038983898b857eff89e98b63b6b6c10bb6c18b0b2bd38b813b73b88b2b8ad3b6038bc103838989b7ebbbff3b738b818d3b7203833b72eb8b8b038b83c1018d89b92b2b8bd38b033b1b23b7b78375c78beb8903eb63b6b6c10bb6c18b0b2bd3b92bb7d38d8b03c1038389898172038172038b898b898b89898b8b8b2b898b053b833b838b8d8d8b03893b733b728bc18a83888a888a888a888a888a888a888a0388032b75eb3b728bc18b838903032b7585848a883b868a8883868a8883868a8883868a8883868a8883868a88e985848b8b8b23038b8a888b8b0323898375e981758be8eb81758be88484e981858b85848b8b8b8b2b053b833b838b8d8d8d893b733b828bc18a83888a888a888a888a888a888a888a0388032b75e93b828bc18b838903032b75e985848b8b8b23038b8a888b8b0323898375e98183638d818d8beb8b2b898d857f898b638b8b2bb6b6c10bb6c10bd38b813b73b82b8ad3b6038bc103838989b7ebbaff3b738b818d3b7203833b72eb8b8db98b2bc1830389898d2b8bd3033b1b23b7b78db6b683857463b6b6c10bb6c18b0b2bd3b92bb7d38d8b03c1038389898b8b8b2b89053b833b838b8d8d8b03893b733b828bc18a83888a888a888a888a888a888a888a0388032b75e93b828bc18b838903032b75e985848b8b8b23038b8a888b8b0323898375e98183b6b603857463b6b6c10bb6c18b0b2bd3b92bb7d38d8b03c1038389898bb9898b898b89898b8b8b2bc78b053b733b738b8d898a888a88e98b8b8b23038b8a888b8b0323898375e988eb8be8898be88b835f5e5d5c5f5e5dc3'
p1667
L4405L
tp1668
a(S'sub_140028854'
p1669
S'8b898989895556578380bd888b75e88be884848d8b8b8de884848d8b8d8be884848d8d8b218b397c8d8bff03397f758b397c80858b8b8be884848d8b8b8be88484eb8be884848b8b2b233d733b748be88b398f808563b98b8b2bb6b6c10bb6c10bd38b813b73b82b8ad3b6038bc183898d89b7ebb9ff3b738b838d3b7203833b72eb8b8db92b8d8b8389c103892b8bd3033b1b23b7b7817380748b8d8d89e888e98b8b8801e981828d837333eb8b83c1832b8bd383857463b6b6c10bb6c1b90b2bd3038bb7c1b92b03d303898389638bb6b6c10bb6c1b90b2bd38b813b73b82b8ad3b6038bc103838989b7ebb9ff3b738b818d3b7203833b72eb8b8bb9032b8b83c1018d8b892b8bd3033b1b23b7b7837333eb8b23d1832b8bd38d8b8584838276638bb6b6c10bb6c10bb6b6c10bd3b92a83d3030b8bc1b92b03d3c10389838963b92bb6b6c10bb6c10bd38b813b73b88b2b8ad3b6038bc103838989b7ebbbff3b738b818d3b7203833b72eb8b8b038b83c1018d89b92b2b8bd38b033b1b23b7b703eb638bb6b6c10bb6c10bb6b6c10bd3b92ad3b92b0bd38d8b03c1038389898176ff8176038176038b898b898b89898089748b8d8b898be8e98b8b8b2b8b053b833b838b8d8d8b03893b7383728bc18a83888a888a888a888a888a888a888a8388832b75eb83728bc18b838983832b7585848a883b868a8883868a8883868a8883868a8883868a8883868a88e985848b8b238b038a888b8b0323898375e981758d8b8be884748d8be884858be88b8b8b8b835f5e5dc381858b858480748be98b8b8b8b2b053b833b838b8d8d8d893b7383828bc18a83888a888a888a888a888a888a888a8388832b75e983828bc18b838983832b75e985848b8b238b038a888b8b0323898375e9818d8d8b742b8b898d7589b9638b8b2bb6b6c10bb6c10bd38b813b73b82b8ad3b6038bc103838989b7ebbaff3b738b818d3b7203833b72eb8b8db98b2bc1830389898d2b8bd3033b1b23b7b7837333eb8b83c1832b8bd383857463b6b6c10bb6c1b90b2bd3b92bb7d38d8b03c1038389898089748be98b8b8b2b053b833b838b8d8d8b03893b7383828bc18a83888a888a888a888a888a888a888a8388832b75e983828bc18b838983832b75e985848b8b238b038a888b8b0323898375e9c6e9'
p1670
L3214L
tp1671
a(S'sub_1400294E4'
p1672
S'8989895754555657818b33898a8be88a8be88b338b03748bff690388888b033b728b8d10b8118b898b83e8898b8b88888bb82b63036383e88985880384857e817c3b7d8b8b0384338b8b69898d8938748a89eb638d03e8338b2b898984888a8888398894898884758dc6038d8be83384743875817fffebc6c68bff03038b2b7838753d7c8b033b73e9c6eb33338bf78b8b858d4485748b8dc1ff038b698b032b3b89428983758be8eb8b8de8033b723385848be88b85748b8b8d38758b8be8848438748b8be88474387538853885ff813b728a84758b2b818d85787e8b630363e88b8b38848b8b21e88bb88b698d10118b830389e88b33e88d8b8b8b8b5f5e5d5c5fc3b088e98b2b033b8e8b2b636303e88b2b01898b898985848bb88b8b8be88b898b8988e9'
p1673
L1152L
tp1674
a(S'sub_140029964'
p1675
S'89895556575455565783338b8bbc3875888d8d83e884748b8d8b03397e88e98b03898b833b898d8b4e898b3b7c3b8f758b398d3b7c38843b8d8b8b8b8d3b768d8b8d89c1e88b85758de88b898b8d8db989638b8b2bb6b6c10bb6c10bd38b813b73b82b8ad3b6038bc183898d89b7ebb9ff3b738b838d3b7203833b72eb8b8db92b8d8b8389c103892b8bd3033b1b23b7b781733339768d3975b78d3b7303b78988ff8b8be9898889eb81828d837333eb8b83c1832b8bd38d857463b6b6c10bb6c1b90b2bd3038bb7c1b92b03d303898389638bb6b6c10bb6c1b90b2bd38b813b73b82b8ad3b6038bc183898d89b7ebb9ff3b738b818d3b7203833b72eb8b8bb9032b8b83c1018d8b892b8bd3033b1b23b7b7837333eb8b83d183ff8bd38d8b8584838276638bb6b6c10bb6c10bb6b6c10bd3b92a83d3030b8bc1b92b03d3c10389838963b92bb6b6c10bb6c10bd38b813b73b88b2b8ad3b6038bc103838989b7ebbaff3b738b818d3b72ff833b72eb8b8b038b83c1018d89b92b2b8bd38b033b1b23b7b703eb638bb6b6c10bb6c10bb6b6c10bd3b92ad3b92b0bd38d8b03c103838989bc8176ff817603817603898989e981758d8b8be8b6898b89c78b8b8dff89b6898b89c7e98175c7e98dba8989638b8d8b2bb6b6c10bb6c10bd38b813b738d2b8ad3b6038bc103838989b7e9baff3b738b818d3b7203833b72eb8b8db98b2bc1830389898d2b8bbad3033b1b23b7b7837333eb8b23c1832b8bd38d857463b6b6c10bb6c1b90b2bd3b92bb7d38d8b03c103838989898b8b338be9888b835f5e5d5c5f5e5dc3'
p1676
L2180L
tp1677
a(S'sub_14002A1E8'
p1678
S'895783338b39768b8b69038be8ff3b728b835fc3'
p1679
L61L
tp1680
a(S'sub_14002A228'
p1681
S'898989575455565783808b8b75c68d8d83e884748b8d8b8d397ec632e98b8b03833b8b8d4e898b8b23898b3b7c3b8f758b398d3b7c80843b8d8b8b2b233d733b748be88b398f63b98b8b2bb6b6c10bb6c10bd38b813b73b82b8ad3b6038bc103838989b7ebbaff3b738b838d3b72ff833b72eb8b8db98b2bc1830389898d2b8bd3033b1b23b7b781738b8b88ff8be981828d837333eb8b83c183ff8bd383857463b6b6c10bb6c1b90b2bd3038bb7c1b92b03d303898389638bb6b6c10bb6c1b90b2bd38b813b73b82b8ad3b6038bc183898d89b7ebbaff3b738b818d3b72ff833b72eb8b8bb9032b8b83c1018d8b892b8bd3033b1b23b7b7837333eb8b83d183ff8bd38d8b8584838276638bb6b6c10bb6c10bb6b6c10bd3b92a83d3030b8bc1b92b03d3c10389838963b92bb6b6c10bb6c10bd38b813b73b88b2b8ad3b6038bc103838989b7ebbbff3b738b818d3b72ff833b72eb8b8b038b83c1018d89b92b2b8bd38b033b1b23b7b703eb638bb6b6c10bb6c10bb6b6c10bd3b92ad3b92b0bd38d8b03c1038389898176ff8176ff8176ff8b898b898b89898b8b8b2b898b053b833b838b8d8d8b03893b7383728bc18a83888a888a888a888a888a888a888a8388838375eb83728bc18b8389838383758b85848a888b83868a888b83868a888b83868a888b83868a888b83868a888b83868a88e98b85848b8b238bff8a888b8bff23898375e981758d8b8be884848d8be88484e981858b8b85848b8b8b8b2b053b833b838b8d8d8d893b7383828bc18a83888a888a888a888a888a888a888a8388838375e983828bc18b838983838375e98b85848b8b238bff8a888b8bff23898375e9818d8d8b74838b898d7589b9638b8b2bb6b6c10bb6c10bd38b813b73b82b8ad3b6038bc103838989b7ebb9ff3b738b818d3b72ff833b72eb8b8db98b2bc1830389898d2b8bd3033b1b23b7b7837333eb8b83c183ff8bd383857463b6b6c10bb6c1b90b2bd3b92bb7d38d8b03c1038389898b8b8b2b89053b833b838b8d8d8b03893b7383828bc18a83888a888a888a888a888a888a888a8388838375e983828bc18b838983838375e98b85848b8b238bff8a888b8bff23898375e9c6b08b8b8b835f5e5d5c5fc3'
p1682
L3101L
tp1683
a(S'sub_14002AE48'
p1684
S'8b8989895754555657838b338b108db789118b8ac13c838b8b857439748b38748b8338758a38721010b711b78911898b8a3c73048883eb8d8a3c148883758a8be88b89898985758be8c68b8b8b835f5e5d5c5fc38b888bff893b738b85743b77338be88b8574ba838b75338b399529eb8b898b8bb6b7b72b8b2b03893b84bbb73b7484758b8d8bd1e8898584bbb7338bc13b8b9633c13b8d9623033b1389eb8d8be885841011b789898a807302ebb23388b68d3b97030389b7b7338daf8d8d038d033b738bc13b933b1bf70303b7eb6b3b8d933b1b83038dc1333b9303b78d038b0389898888898b3b858989e9'
p1685
L884L
tp1686
a(S'sub_14002B1BC'
p1687
S'898957838b8b8d8b8b3b748389eb8b85748b89ebe88b8574b8891011b78989898b8b8b835fc3'
p1688
L149L
tp1689
a(S'sub_14002B254'
p1690
S'8b8d8bb6b6888bb7b6b6b68bc1838d03b603b6c103c1038b2bb733f73b7389ba8a3a148883b789b78dc12b8d038901eb89b78dc12b898dc7b7c1b689b889b68a88833288c3'
p1691
L362L
tp1692
a(S'sub_14002B3C0'
p1693
S'5383b78b898b8b338bf7338b898b2b8bf78b3b8db63b7d8d893b899788b6018d888383768b8be883b0e98b8584c6b7ffeb8374b683033b7e898bb68b2b898be8ebb68a8a8988b688b783898d8a8db68883758b89e932835bc3'
p1694
L370L
tp1695
a(S'sub_14002B534'
p1696
S'898957818b3389b78b2b8b8be88b8d8a83338b83b63874b6890383837501338bf7338b898b2bf78b8b3b7c32e98b8d3b8db6eb8d8bb6033b7e89b62b898a80738075b70389b8d2fe888889808380768b8be88bfe89eb898d89b72b838d8bb68a888375b701b789b08b33e88d8b8b8b5fc3'
p1697
L466L
tp1698
a(S'sub_14002B708'
p1699
S'8989b88b39748b33b78bb7b72b3b9c6b3b1b830363b68bc1038d394f03b6038db78a8bd32b85899403eb8dbf898b8b8bc3'
p1700
L180L
tp1701
a(S'sub_14002B7BC'
p1702
S'89898957565783b78b8b8b8b8d3b748d1010b711b7898311898d8b3b75808d8333b6bfb72b399503d1b68889838db62b8dd1b688018a3a76108bb71110b71189833b748bc13a7711898a2b758485038d8074290339758b10b7118bc18ad1d02a883b7f108dd1b68b8989891189ebb78d8bd1d1032bd1013b748b8de8898b898b8b8b835f5e5fc3'
p1703
L513L
tp1704
a(S'sub_14002B9C0'
p1705
S'83898b808b838a38761083b71011b78911898980768be883c3'
p1706
L108L
tp1707
a(S'sub_14002BA2C'
p1708
S'838d45c3'
p1709
L18L
tp1710
a(S'sub_14002BA40'
p1711
S'89555657545556578db8e82b8b33898bbb8b8b33898b888dba8d3b773bb84438748a88eb8a88b98584848439743bb8b94480823b8db84483743bb9bab8448ab844ba03f68d1b233b4403e884753b8db8b844b903e88b8bff8985748be8018be88d8d8b2bb7898d8575388dba94e88a883874ba8de884b6b8448af61b8384858b8d8b8bff3384858a85748984758d8b2bb7898d8575bb8d8abae88b8d8b8bff3384853875b88b8be8c6eb38758de83384843885ba8de884848b8d8b8bff338484bbb78d8377b7b9a373838d8d44e88b8be88a8be8338b38748be8eb8bb7898d8575ebe883758be88b338b8b2bff38748de88b8de838758de8bb8574837588eb83b9b844b98a88b8448b8989838bb9b8448d8be88aeb8db9e88b8b8b8bff8b338b8bff328b33e88b815f5e5d5c5f5e5dc3'
p1712
L1198L
tp1713
a(S'sub_14002BEF4'
p1714
S'53838beb8be885748be88574835bc38374e8cce8cc'
p1715
L60L
tp1716
a(S'__GSHandlerCheck'
p1717
S'838b8b8be8b883c3'
p1718
L29L
tp1719
a(S'__GSHandlerCheckCommon'
p1720
S'538b8b838bf68b748b63f7036323638b8b8b8bf674b68303338b5be9'
p1721
L91L
tp1722
a(S'__GSHandlerCheck_EH'
p1723
S'8b8989898956838b8b8b8b8b8b8b8de88b24f6b81bf70385748b8b8b8be88b8b8b8b835ec3'
p1724
L127L
tp1725
a(S'_alloca_probe'
p1726
S'838989338d2b428b3b73818dc63b758b8b83c3'
p1727
L81L
tp1728
a(S'__security_check_cookie'
p1729
S'3b75c1f775c3c1e9'
p1730
L33L
tp1731
a(S'__raise_securityfailure'
p1732
S'53838b33ff8bffff8bba835bff'
p1733
L52L
tp1734
a(S'__report_gsfailure'
p1735
S'8983b9e88574b9cd8de88b898d83898b898b89c7c7c7b86b8dc7b86b8b89b86b8b898de883c3'
p1736
L209L
tp1737
a(S'__report_rangecheckfailure'
p1738
S'83b9e883c3'
p1739
L19L
tp1740
a(S'__report_securityfailure'
p1741
S'8983b9e885748b8bcd8de88b898d83898b89c7c7c7b86b8d8b898de883c3'
p1742
L155L
tp1743
a(S'capture_current_context'
p1744
S'8957838bff8b8d8b33ff8574838d8b8b898b8d893389ff8b835fc3'
p1745
L109L
tp1746
a(S'capture_previous_context'
p1747
S'535657838bff8b33338d8bff8574838d8b8b898b8d893389ffff837c835f5e5bc3'
p1748
L113L
tp1749
a(S'sub_14002C380'
p1750
S'8b89898989575657838b8b8b8b3389883b748b8b8bff0389ff89ebc68b8b835f5e5fc3'
p1751
L112L
tp1752
a(S'sub_14002C3F0'
p1753
S'8b89898953565756838b8b8bc68baf03898bff8985742b898b8b8bffebc6835e5f5e5bc3'
p1754
L107L
tp1755
a(S'sub_14002C45C'
p1756
S'898989575657838b8b8b8b33893b742b898b8bffffebeb8d8b8b8b5f5e5fc3'
p1757
L97L
tp1758
a(S'sub_14002C4C0'
p1759
S'53838d8b89f674bae88b835bc3'
p1760
L43L
tp1761
a(S'sub_14002C4F4'
p1762
S'83e885748b8beb3b7433b1753283c3b0eb'
p1763
L57L
tp1764
a(S'sub_14002C530'
p1765
S'5383b685bb4488e8e8847532ebe8847533e8eb8a835bc3'
p1766
L73L
tp1767
a(S'sub_14002C57C'
p1768
S'89558b83808b858387e8857485758de885758de8857432eb8bb98b832b83d3338989108910118989108911101111c6b08b835dc3b9e8cc'
p1769
L218L
tp1770
a(S'sub_14002C658'
p1771
S'838bb83975638d8d8175b839752bb78d03b78d8d893b748b3b728b033b7283eb33857532eb837d32ebb0eb32eb3283c3'
p1772
L153L
tp1773
a(S'sub_14002C6F4'
p1774
S'53838ae8338574847587835bc3'
p1775
L36L
tp1776
a(S'sub_14002C718'
p1777
S'5383808a7484758ae88ae8b0835bc3'
p1778
L43L
tp1779
a(S'sub_14002C744'
p1780
S'53838b8b8b3383d383758be8eb8b8de83385448b835bc3'
p1781
L79L
tp1782
a(S'sub_14002C794'
p1783
S'83e8f71bf7ff83c3'
p1784
L23L
tp1785
a(S'sub_14002C7AC'
p1786
S'5783c78989ba8dff908dff908b85758dff908b85848d8bff908b8d8bff908b8d8bff908b857485748574838d8bff908b8b83b92bd38b3389d33389eb33338d33ff9089857433e89084748de890338b8b835fc3b9e890'
p1787
L327L
tp1788
a(S'sub_14002C8F4'
p1789
S'838dff8b8574ff83c3'
p1790
L40L
tp1791
a(S'sub_14002C91C'
p1792
S'53838b8dff8b8d8bff89898bb98b8b89ff835be9'
p1793
L96L
tp1794
a(S'sub_14002C97C'
p1795
S'53838b8dff837583ebb9e8eb83748b8bb88b8b898d835bff'
p1796
L103L
tp1797
a(S'sub_14002C9E4'
p1798
S'838b85758b8b3383d38d83ffff8b83ff'
p1799
L80L
tp1800
a(S'sub_14002CA34'
p1801
S'5383838b758b8d8b8b3383d38d835bff8dff8b338bff8d835bff'
p1802
L119L
tp1803
a(S'sub_14002CAB4'
p1804
S'5383b9e8e88be8e88be8b989e88474e88de8e88be88575e8e885748de8e8e8e88be8e88474e8e833835bc3b9e8cc'
p1805
L176L
tp1806
a(S'sub_14002CB64'
p1807
S'83e83383c3'
p1808
L16L
tp1809
a(S'sub_14002CB74'
p1810
S'83e8e88b83e9'
p1811
L25L
tp1812
a(S'sub_14002CB90'
p1813
S'89895783b9e884843288e88a8b83848575c78d8de88574b8e98d8de8c7ebb6888ae8e88b83748be88474338d338bffe88b83748be884748be8e88be88be88b8b8be88be884748475e833b1e88beb8be884748075e88b8b8b835fc3b9e890b9e88be8908be890'
p1814
L380L
tp1815
a(S'start'
p1816
S'83e883e9'
p1817
L18L
tp1818
a(S'sub_14002CD20'
p1819
S'53838b8b8d898d3389898de88d898b835bc3'
p1820
L63L
tp1821
a(S'sub_14002CD60'
p1822
S'33898d898d898bc3'
p1823
L31L
tp1824
a(S'sub_14002CD80'
p1825
S'8957838d8b898b83e8f674ba8be88b8b835fc3'
p1826
L66L
tp1827
a(S'sub_14002CDC4'
p1828
S'838de88d8de8cc'
p1829
L32L
tp1830
a(S'sub_14002CDE4'
p1831
S'838de88d8de8cc'
p1832
L32L
tp1833
a(S'sub_14002CE0C'
p1834
S'89895657568333c733c7a28b8b81818b33818b0b810b818b8d3381a20b890b898b898b897583253d743d743d74058377b9a3738b8389eb8b85758181728389b83b7c33a2898b898989ba738389ba73c7c7ba73ba733301c10b898b243c758b83c789f67483c7898b338b835e5f5ec3'
p1835
L441L
tp1836
a(S'sub_14002CFD0'
p1837
S'333995c3'
p1838
L12L
tp1839
a(S'sub_14002CFDC'
p1840
S'83c3'
p1841
L8L
tp1842
a(S'sub_14002CFE4'
p1843
S'89558d818bb9e885748bcdb9e8338db8e88dff8b8d8b33ff8574838d8b8b898b8d898d8933ff8b8d89338db88389e88b89c7c7ff838d898d948933ff8dff857584758de88b815dc3'
p1844
L330L
tp1845
a(S'sub_14002D134'
p1846
S'8333ff8574b9397563038175b8397583768374b0eb3283c3'
p1847
L82L
tp1848
a(S'sub_14002D188'
p1849
S'8dff'
p1850
L14L
tp1851
a(S'sub_14002D198'
p1852
S'838b817583758b8d837681743383c3e8cc'
p1853
L56L
tp1854
a(S'sub_14002D1D0'
p1855
S'89558b838bbb3b75338d89ff8b89ff8b31ff8b8d31ff8b8dc1333333b923b93b44898bf789835dc3'
p1856
L173L
tp1857
a(S'sub_14002D288'
p1858
S'8dff'
p1859
L14L
tp1860
a(S'sub_14002D298'
p1861
S'8dc3'
p1862
L8L
tp1863
a(S'sub_14002D2A0'
p1864
S'83e883e88383c3'
p1865
L27L
tp1866
a(S'sub_14002D2BC'
p1867
S'333994c3'
p1868
L12L
tp1869
a(S'sub_14002D2C8'
p1870
S'8dc3'
p1871
L8L
tp1872
a(S'sub_14002D2D0'
p1873
S'8dc3'
p1874
L8L
tp1875
a(S'sub_14002D2D8'
p1876
S'8957838d8deb8b8574ff833b728b835fc3'
p1877
L60L
tp1878
a(S'sub_14002D314'
p1879
S'8957838d8deb8b8574ff833b728b835fc3'
p1880
L60L
tp1881
a(S'sub_14002D350'
p1882
S'85748883817583758b2d83778b8574638574038be8ebf6748b8b85748b8bff83c3e890'
p1883
L113L
tp1884
a(S'sub_14002D3C8'
p1885
S'53838be88beb39748b85758d835bc333eb'
p1886
L47L
tp1887
a(S'sub_14002D3F8'
p1888
S'6303837c63638b630303c3'
p1889
L35L
tp1890
a(S'sub_14002D41C'
p1891
S'838b817481748174ebe8837ee8ff3383c3e883e8cc'
p1892
L74L
tp1893
a(S'sub_14002D474'
p1894
S'836f8bb7336e70708b253d776f6fef6f7575ebd78575b8eb39743974b803ebbc0339448beb33eb8b83c3'
p1895
L145L
tp1896
a(S'sub_14002D508'
p1897
S'89898957838b8b8be88b8b33ebffe88d8b8d63033b7e3b7e85758b8b858b958b8b835fc3'
p1898
L115L
tp1899
a(S'sub_14002D57C'
p1900
S'89895657545657838b8b8b8b8b8be88b8b89857463ff8d8d033b7e3b7f8b8d33ff6333038b8b85748d633b74ff833b723b738b8d638b898b8b8b835f5e5c5f5ec3'
p1901
L201L
tp1902
a(S'sub_14002D648'
p1903
S'8b89898989545657838b8b8b8b8b8b33e88b85848b8b8b83838b638d8d8d3b7e3b7e8b857585748d8d8d033385743363030385748b397e8b397f3b7c3b7f8375898d89ff833b7283748b8d638d038b8b8b8b835f5e5cc3838333ebe8cc'
p1904
L297L
tp1905
a(S'sub_14002D774'
p1906
S'8989565756838d8b8be88b8b8be88b8bebffe88d8b8d63033b7e3b7e857533857583eb8b8b8b8be88b8b835e5f5ec3'
p1907
L145L
tp1908
a(S'sub_14002D808'
p1909
S'8b8989898953838b838989e88d8b8bffc7eb8b835bc3'
p1910
L81L
tp1911
a(S'sub_14002D85C'
p1912
S'53838b89e83b73e88beb3389e8898b835bc3'
p1913
L58L
tp1914
a(S'sub_14002D898'
p1915
S'8957838be83b75e88beb8d3b748b8574ebe88b8b89835fc3e8cc'
p1916
L83L
tp1917
a(S'sub_14002D8EC'
p1918
S'83e88b83c3'
p1919
L18L
tp1920
a(S'sub_14002D900'
p1921
S'83e88b83c3'
p1922
L18L
tp1923
a(S'sub_14002D914'
p1924
S'53838be889835bc3'
p1925
L24L
tp1926
a(S'sub_14002D92C'
p1927
S'53838be889835bc3'
p1928
L24L
tp1929
a(S'sub_14002D944'
p1930
S'558d818b33898b8d108b8d1011101110111011101110111011108b1111898d8b898b8963898b89b6898b898d8933898d898b89c7ff8b33e8815dc3'
p1931
L289L
tp1932
a(S'__CxxFrameHandler3'
p1933
S'898957838b898b8be88b89e88b89e88b8b8b8b8b0333888989898de88b8b835fc3'
p1934
L125L
tp1935
a(S'sub_14002DB00'
p1936
S'8b8b838683762b738b033b8c8186ba838b8b8b8b8b8ba48b8bc3101011118bc31f8b8d8b03ffe002'
p1937
L1093L
tp1938
a(S'sub_14002DF60'
p1939
S'8bb6b9af83866e608177ba838b8b8b8baa8b8bc31fba72110383832b8bc1741f2929812929ff2929292975838bc1741f1183ff758374118bc3bee000e000e000e000e00002c80002'
p1940
L432L
tp1941
a(S'sub_14002E110'
p1942
S'8989558b83288b288b2928292829298574f6748b838b8b8bff8d898b89ff89898574f6758575c78b8d8b8bff8d8b8b8b5dc3'
p1943
L191L
tp1944
a(S'sub_14002E1E0'
p1945
S'2b8372f674908a3a75fffff6758bc17585748a3a75ffff7533c31b83c390c1748b3b758b3b758b3b758b3b7583ff75838bc1748b3b7583ff7583eb8383838bc8c93b1b83c3'
p1946
L199L
tp1947
a(S'sub_14002E2A8'
p1948
S'83b68b8b83c1830b338357d36e705774706f74ebd72375836f6f7474ebd78574bc0338448b83c3'
p1949
L137L
tp1950
a(S'sub_14002E334'
p1951
S'8bb733837d8bb7838575833b74397539448bc38beb398b458b3974838da8753b75b86eeb836f6375638dc3b76e6f6373638d7483eb8bc3'
p1952
L180L
tp1953
a(S'sub_14002E3E8'
p1954
S'8989895783b7338b8b3b758be983ba8d8db7576e70708b233b776f6f7575ebd7857583ebbcd18d3b843b758b8b8b233b778b233b776f6f757575ebd785758383ebbc8bd1030303b73b7439758383eb83e98be98b233b776feb578bb7b9b7b773c43b74b73b8d448b83758b233b776f637683eb7363638d8b8b8b233b778b233b776f6f6371888383eb3b74397483ebb73b8439758383eb338b8b8b835fc3'
p1955
L540L
tp1956
a(S'sub_14002E604'
p1957
S'8989895683808b8b748b857483ff80758de88b85748b8d8be88bc689338be8eb8b89c68b8b8b835ec3'
p1958
L141L
tp1959
a(S'sub_14002E694'
p1960
S'5383808b748be8c683835bc3'
p1961
L37L
tp1962
a(S'sub_14002E6BC'
p1963
S'8989895754555657838b8b8b8b8be88b8b8b2bf68b8589893b838b038b3b828b3b83838483748b8d038bff85787e817583748de88574ba8bff8bb8038be88b8b8b8b8b03898b89ffe8ffe933e98b8b2b3b838b8b8b038b3b828b3b738b83743385748b038b3b728b3b738b39758b3974ff3b728b3b758b85743b758575eb8db1898b8b03ff8b8bff8b3b82b88d8b8b8b8b5f5e5d5c5fc3'
p1964
L523L
tp1965
a(S'sub_14002E8C8'
p1966
S'83e8e8e8847532ebe88475e8ebb083c3'
p1967
L50L
tp1968
a(S'sub_14002E8FC'
p1969
S'838475e8e833e8b083c3'
p1970
L32L
tp1971
a(S'sub_14002E91C'
p1972
S'3b74838d2b8a3a75ff847533c31b83c3'
p1973
L39L
tp1974
a(S'sub_14002E944'
p1975
S'8385748d3b74e883c3'
p1976
L31L
tp1977
a(S'sub_14002E964'
p1978
S'83e8857483c3e8cc'
p1979
L25L
tp1980
a(S'sub_14002E980'
p1981
S'89895783837533e9ff8b8be883333b7485748beb8be88574ba8de88b8b85748be885758b33e8eb8b8b8b8be88bff8b8b8b835fc3'
p1982
L184L
tp1983
a(S'sub_14002EA38'
p1984
S'838de88983748d8be885758b8374e8833283c3b0eb'
p1985
L79L
tp1986
a(S'sub_14002EA88'
p1987
S'838b8374e883b083c3'
p1988
L34L
tp1989
a(S'sub_14002EAAC'
p1990
S'83638b8b8b83758b8be883c3'
p1991
L39L
tp1992
a(S'sub_14002EAD4'
p1993
S'53838d8be88b63898b835bc3'
p1994
L41L
tp1995
a(S'sub_14002EB00'
p1996
S'638b89c3'
p1997
L12L
tp1998
a(S'sub_14002EB0C'
p1999
S'8957838b8b8de88b63893b7e898b835fc3'
p2000
L59L
tp2001
a(S'sub_14002EB48'
p2002
S'8be9'
p2003
L8L
tp2004
a(S'sub_14002EB50'
p2005
S'53838b8574638b8d85748b3385748d8b033b72ff3b7285748d8d8b835bc383ebe8cc'
p2006
L102L
tp2007
a(S'sub_14002EBB8'
p2008
S'53838b8b8d898d3389898de88d898b835bc3'
p2009
L63L
tp2010
a(S'sub_14002EBF8'
p2011
S'33898d898d898bc3'
p2012
L31L
tp2013
a(S'sub_14002EC18'
p2014
S'8b89895657545657838b8b8b8d8b8b8b8b8be88b8b8b85748b8b8be8e8638b038b8a888b89898b8b898b89e88d8b8b8b5f5e5c5f5ec3'
p2015
L193L
tp2016
a(S'sub_14002ECDC'
p2017
S'53838b8b83b9b88b3b7583758b2b83778b3975c78b3b7583758b2b83778375e8c7b8c7eb33835bc3'
p2018
L135L
tp2019
a(S'sub_14002ED64'
p2020
S'8b8989898955545556578d818b8b8b338b888b888b8be88d8b8b8b8be88b8b8be88b8b3b7e8b8de88b8b8b8be8eb8be88b838c3b8d818583858b2d83873985e83984e88be88bc68b89e88584817583758b2d83773984e83984e88be88b8b89e884758b398e8be863033974e8630363e803eb8b8d8de88584ff833b8deb8b818583858b2d838739868b8d898b898b8d8b89e88b8b3b838d398f3b8fe863038b89858ee88b83630389e88b638b89857ee88b8b63038b8b89e885758b83ff89857f8bff83eb8a8b8b8b888b8a888b898b898d898b898989c6e88b8bff83893b823338858b253d823974e86303eb8b8575f6848b8be88585f6853974e88b6303eb8b8be884758d8b8b8be88a8b8b8b888b89898389e8eb397638758b8b898b8b8b898b8989e8e839758d8b8b8b8b5f5e5d5c5dc3e8cce8ccb28be88de88d8de8cc'
p2021
L1200L
tp2022
a(S'sub_14002F214'
p2023
S'89895556575455565783818b8b8b8b84e88b8b837433ff8be83974817481748b8b898b898b8b89e8858583848b8d898b898b8d8b8b89e88b3b838d3b8c3b8fe8638d8d638374e8638d8d6363e803eb338574e8638d8d638374e8638d8d6363e803eb338085e8638d8d63f675e88b8b8bffc6c6638d638d8b038b898d898983898b89e88bff83893b828b835f5e5d5c5f5e5dc3e8cc'
p2024
L599L
tp2025
a(S'sub_14002F46C'
p2026
S'8989895754555657838b8b85843233397ee88b8b638303e88b8b638b857e638de88b6303e8638b8b8d03e88575ff83857febb6ff3b7c8b8a8b8b835f5e5d5c5fc3e8cc'
p2027
L210L
tp2028
a(S'sub_14002F540'
p2029
S'8b8bff'
p2030
L9L
tp2031
a(S'sub_14002F54C'
p2032
S'8b8b8b8bff'
p2033
L15L
tp2034
a(S'sub_14002F55C'
p2035
S'89898956838b8b33397d8beb6303e8837483753974e88b63038d8be88bb98b8be8eb3974e88b63038d8be88b8b8be8908b8b8b835ec3e890'
p2036
L192L
tp2037
a(S'sub_14002F61C'
p2038
S'898989555657838b8b8b8b33397463e88deb8b8b85848574e88b6303eb8b38843975398d397c63038bf674f6748b8574ff85848584898bebf6748b8584858489ebf6748b85848584638be8838539848b8de889e9397463e88deb8b8b857539848584638d8be88b8b8be8eb397485748574e88b6303eb8b85748a24f61bf7ff8b898beb338b8b8b835f5e5dc3e8e8e8e8e890e890'
p2039
L510L
tp2040
a(S'sub_14002F81C'
p2041
S'53565754555657838b3389212121e88b89e88b898b898b898b8b898b898be8e889e889e88b8b8de88b893974c7e88b89b88b8be88b898bebc7e8838b8374b28be88b8d8b8b8beb8d8b8b8bff8b8b8b8b8b8b8be88575817583758b2d83778be88574b28be8e889e8898b638bc78b835f5e5d5c5f5e5bc3'
p2042
L490L
tp2043
a(S'sub_14002FA08'
p2044
S'8b8989898953565754555657838b8b8b8be8898b8b8be88be8ff83843b8e838e3b8d63e8638d8b89e8638d8374e8638d63e803eb3385748b8b8b8be8e8638d8374e8638d63e803eb33b88b8be88be8eb8b8b8b8b8b89e9e8837ee8ff83743b7f8b8b8b8be8835f5e5d5c5f5e5bc3e890e890'
p2045
L403L
tp2046
a(S'sub_14002FB9C'
p2047
S'8b8989898956838b8b8b8b8be8e88bbab9b88375817439758375817439748b253b72f685f68483848385f67439758b8b8be8838c3b8d8b8b8b8be8e939758b838c3b8d8beb8b8b8be8e983758b253d728374e86303b9eb3385758b253b82f6848175837239768b8374e88b6303eb338574b68b898b8b8b898b8b898b89ffeb8b8b898b8b8b898b8a8889e8b88b8b8b8b835ec3e8cc'
p2048
L578L
tp2049
a(S'sub_14002FDE0'
p2050
S'8b898989895683338b8b8b397463e88deb8b8b8584857463e88deb8b8b3884f674f6858574e88b6303eb8be88b63033b743974e88b6303eb8be86383038d2bb6b62b75ff8575857433ebb08474f674f674f674f674f67484748474bb8bebb88b8b8b8b835ec3'
p2051
L321L
tp2052
a(S'sub_14002FF40'
p2053
S'8133338989e881c3'
p2054
L36L
tp2055
a(S'sub_14002FF70'
p2056
S'898989c7ebcccccccccccc90c3'
p2057
L33L
tp2058
a(S'sub_14002FFA4'
p2059
S'8b8d3b748b8b3b723b76b9cdc3'
p2060
L55L
tp2061
a(S'sub_14002FFDC'
p2062
S'5383338d338d8dbae88574ffff8372b0ebe832835bc3'
p2063
L70L
tp2064
a(S'sub_140030024'
p2065
S'53838beb8dff8d8dffff8575b0835bc3'
p2066
L55L
tp2067
a(S'sub_14003005C'
p2068
S'8989895754555657838b8d8b8b8b8b8b838b8b33838ad33b8485748be93b848b8b85743b84e98b338bb8ff8b8575ff83758d8b8b8de885748b8d8be8857433338bff8beb338d85758b87eb8b8785748bff8575833b858b3385748b8bff85748bba8b832b8a8bd33387eb8beb8b8bb9832bd33387338b8b8b835f5e5d5c5fc3'
p2069
L470L
tp2070
a(S'sub_140030234'
p2071
S'53838b8d338d8de885748b835bff835bff'
p2072
L69L
tp2073
a(S'sub_14003027C'
p2074
S'53838b8db98d8de88b8574835bff835bff'
p2075
L70L
tp2076
a(S'sub_1400302C4'
p2077
S'53838b8db98d8de88b8574835bff835bff'
p2078
L70L
tp2079
a(S'sub_14003030C'
p2080
S'8957838b8d8b8db98de88b8b8574ffebff8b835fc3'
p2081
L81L
tp2082
a(S'sub_140030360'
p2083
S'898957838b8d8b8d8b8db9e88b8b85748bffebff8b8b835fc3'
p2084
L97L
tp2085
a(S'sub_1400303C4'
p2086
S'898d8d3b8b1bf783ab8bc3'
p2087
L47L
tp2088
a(S'sub_1400303F4'
p2089
S'847553838d8b85748374ff83838d3b75835bc3'
p2090
L62L
tp2091
a(S'sub_140030434'
p2092
S'8b89c3'
p2093
L15L
tp2094
a(S'sub_140030460'
p2095
S'838989898b8be8ffe88b8b8bb8e883c3'
p2096
L64L
tp2097
a(S'sub_1400304A0'
p2098
S'c78be9'
p2099
L17L
tp2100
a(S'sub_1400304C4'
p2101
S'555356575456578d818b3389338b8b8b8b8575e8c7e883e9857485748b8de8338d8de88b8989898375888575c68d89898d8d89898b8989898989888989898989e8638574f674857585858b3b7585783b76eb85748574857988eb8b3b74888be88938748b838b8b33e8815f5e5c5f5e5b5dc3857583eb8b3b75bb88eb'
p2102
L459L
tp2103
a(S'sub_140030690'
p2104
S'555356575456578d818b3389338b8b8b8b8575e8c7e883e9857485748b8de8338d8de88b8989898375888575c68d89898d8d89898b898989888989888989898989e8638574f674857585858b3b7585783b76eb85748574857989eb8b3b74898be88938748b838b8b33e8815f5e5c5f5e5b5dc3857583eb8b3b75bb89eb'
p2105
L466L
tp2106
a(S'sub_140030864'
p2107
S'8989895783b88b3b76e8c732eb338d39758177b0eb3b768be88b85748be889b68933e88a8b8b8b835fc3'
p2108
L166L
tp2109
a(S'sub_14003090C'
p2110
S'8989895783b88b3b76e8c732eb8b33c139758177b0eb3b768be88b85748be889b68933e88a8b8b8b835fc3'
p2111
L169L
tp2112
a(S'sub_1400309B8'
p2113
S'8b837483748374837483b8958385748594c3b0c332c3'
p2114
L62L
tp2115
a(S'sub_1400309F8'
p2116
S'898d8b8b8b8575b8eb8b8bd18d03898b8b857f85748d33898bf7808b807e8a34c004028b88ff8beb8b2b89ffc3'
p2117
L142L
tp2118
a(S'sub_140030A88'
p2119
S'898b8b838b8b8575b8eb8b8bc18d8d898b8b857f8574338d898bf7838b83768a34c004028bbe89838beb8b2bd18983c3'
p2120
L160L
tp2121
a(S'sub_140030B28'
p2122
S'898b8b838b8b8575b8eb8b8bd18d03898b8b857f8574338d898bf7808b807e8a34c004028b88ff8beb8b2b89ffc3'
p2123
L148L
tp2124
a(S'sub_140030BBC'
p2125
S'898b8b838b8b8575b8eb8b8bc18d8d898b8b857f8574338d898bf7838b83768a34c004028bbe89838beb8b2bd18983c3'
p2126
L161L
tp2127
a(S'sub_140030C60'
p2128
S'857e89898b8a8b338b8b39758074ffeb8389eb8d898bff8b8b888bff8b8374ff3b7c8b8bc3'
p2129
L117L
tp2130
a(S'sub_140030CD8'
p2131
S'857e89898b8a8b338b8b39758074ffeb8389eb8dbe898bff8b8b898b838b8374ff3b7c8b8bc3'
p2132
L122L
tp2133
a(S'sub_140030D54'
p2134
S'89895783c68b8d857410eb8375107febe8898b8b898b898be88b8de88b8ba8758389c68b8b8b835fc3'
p2135
L155L
tp2136
a(S'sub_140030E04'
p2137
S'8b8b8b8a8a84748a8a3a74ff8a8a8475ff8474eb2ca874ff8a84758bff8a3c743a8d458affff888475c3'
p2138
L105L
tp2139
a(S'sub_140030E70'
p2140
S'8957838b8bbee88374ffb6e88575bee88375838b8a8b8b8a88ff8a8a88ff8a84758b835fc3'
p2141
L109L
tp2142
a(S'sub_140030EE0'
p2143
S'8989565756838b8b8b8575e88b898b8d83be8b832b8de8898b8575e88983748b3b7289eb3283758574898b8a8b835e5f5ec3'
p2144
L161L
tp2145
a(S'sub_140030F84'
p2146
S'89898956838b8b8b8575e88b898b8d83b88b8383e8898b8575e88983748b3b7289b0eb3283758574898b8b8b835ec3'
p2147
L163L
tp2148
a(S'sub_140031028'
p2149
S'89895783838b75e8c7e883e98374ff8384838d8383e9ff838c8a8b8d3c77aebe8363b683eb338d8bb6c1898384858483848384837483748374837483858be8e98be8e9808d748be8e9838b8b8548eb83e9808d75838b8b89857983f789b0eb8a3c743c743c743c743c7583eb83eb83eb83eb83eb838383c689c6eb8be884748b8a888485ffff83858b8b8b835fc3e8c7e88beb'
p2150
L516L
tp2151
a(S'sub_14003122C'
p2152
S'898956575683338b3975e8c7e883e93974ff8384838d8d8989e983398cb78bb72b8377aeb7b683eb8b8d8bb6c1898384858483848384837483748374837483858be8e98be8e9838d748be8e9838b8b854889e989e9838d75838b8b89858983f7ebb73b74837483748374837583eb83eb83eb09eb83eb8988898988ebb7c68b8b39753874ffeb89ebffff8b8b898b83b084748bb789858583ff83858b8b8b835e5f5ec3e8c7e88beb'
p2153
L601L
tp2154
a(S'sub_140031488'
p2155
S'5383338be884748b8a8b39758074ffeb83ebffff8b8b888bffb0ebe8c7e832835bc3'
p2156
L116L
tp2157
a(S'sub_1400314FC'
p2158
S'838b33b68b888b8b397d8b8b39753874ffeb83ebffff8b8b888bff8b8aff88898475e8c7e832ebb083c3'
p2159
L151L
tp2160
a(S'sub_140031594'
p2161
S'838a3c75f685c783e93c75f685c7e8c7e832e983753c843c843c843c743c743c743c743c743cb085c7e9c7e9c7e98b8075ff89b8ebb889e9c7e98b8075ff89b8ebb8ebc7ebc7eb8b8a3c7580758dc789eb3c7580758dc789eb2c3c77bebaa373c7b083c3'
p2162
L371L
tp2163
a(S'sub_140031708'
p2164
S'838375f685c783e98375f685c7e8c7e832e98375b7838483848384ba3b748374ba3b748374837483b085c7e9c7e9c7e98b39758389b8ebb889e9c7e98b39758389b8ebb8ebc7ebc7eb8bb7837583758dc789eb837583758dc789eb838377b7baa373c7b083c3'
p2165
L407L
tp2166
a(S'sub_1400318A0'
p2167
S'89898957565783bebf8b8d837f8483848374838e838e8374837483748384838533e8e9e8e9838e8374837483748374837483743b75baebe8ebc7c78abaeb8b8bc18474ba89ba8bebe8eb83ba33e8ebe8847532e980858b338933888bc184748bc18474c6eb8474c6eb8bd18474c68b8a8da8758bc184748aeb328da89484758474c680748075b788838b8d2b8d2bf6758b8bb28be88d8b8b898d8be88b8bc18474c184758b8bb28be8338be8837c8bc184748b8bb28be88a8b8b8b835f5e5fc3'
p2168
L620L
tp2169
a(S'sub_140031B0C'
p2170
S'8989895754555657838b3389b7bf8b8d8d8d8387843b8483748376838683843b84837483848374328b33e88d8b8b8b8b5f5e5d5c5fc3e8e933e8e9837283868374837483748374837483743b75baebe8ebc7c78abaeb8b8bc18474ba89ba8bebe8eb83ba33e8ebe8848480748ae98b338933898bc18d84748bc184748d89eb8474b8eb8bd18474898bb7b9b72b85758bc184748aeb32b7bc2b859484758474893b743b75b789838b8d2b8d2bf6758b8b8a8be88d8b8b898d8be88b8bc18474c184758b8b8a8be8338be88d838c8bc184848b8a8be8e9'
p2171
L724L
tp2172
a(S'sub_140031DE0'
p2173
S'838b8b85748b85748b83748374837483748a2ca895ebb0eb328984b7b774c6d1eb8db889c689b0c3'
p2174
L118L
tp2175
a(S'sub_140031E58'
p2176
S'89895783838b8b8b85748b85748bb78be88984b7b774c6d1eb8db889c689b08b8b835fc3'
p2177
L124L
tp2178
a(S'sub_140031ED4'
p2179
S'895783838b8b85798a2c24f61b838389eb758074338075c7b88d05638be8b8847583758beb8bd105898b85448933838b898b101185758beb8bd185758deb8b8b8bd103d18bbe898b898b89898d898be88bc1a87483758b8be88a2ca8758bc1a8758b8be88b8a3c7583ff898a2c3c77baa37383c683ff807589b08b835fc3'
p2180
L442L
tp2181
a(S'sub_140032090'
p2182
S'89895683838b8bbe8579b78323f71b838389eb758374338375c7b88d05638be8b8847583758beb8bd105898b85448933838b898b101185758beb8bd185758deb8b8b8bd103d18bbe898b898b89898d898be88bc1a87483758b8be8b78385758bc1a8758b8be88b8a3c7583ff898a2c3c77baa37383b88983ff80758bb0898b835ec3'
p2183
L478L
tp2184
a(S'sub_140032270'
p2185
S'8957838b8b83748374837483748a2ca895eb328474838d8b8b8575b88beb8bd1b78de88574c6eb8d8b8544838b8a88c78bb08544898b835fc3'
p2186
L196L
tp2187
a(S'sub_140032334'
p2188
S'89895783c68d838b8b8bb78bb7e88b84758b8d888588448b63e88579c6eb8544898bb08b85c744898b835fc3'
p2189
L166L
tp2190
a(S'sub_1400323DC'
p2191
S'898989575657838b8b8bba8a8d837f74857483748374837483758b8b8384837483743b74e8c7e832e98bebbfebbfeb837483748374eb33eb8b01c1a88b8beb8b01c1a88b7463eb8beb8b01c1a88b74bfebb7eb8b01c1a88b74beebb68b8bc1a8748579f78389837dc7eb6383898de8857583c68a8b8b3b758be8eb8be88bc1a87483748b8074ff8bc6ffb08b8b8b835f5e5fc3'
p2192
L453L
tp2193
a(S'sub_1400325A4'
p2194
S'898989575657838b8b8bba8a8d837f74857483748374837483758b8b8384837483743b74e8c7e832e98bebbfebbfeb837483748374eb33eb8b01c1a88b8beb8b01c1a88b7463eb8beb8b01c1a88b74bfebb7eb8b01c1a88b74beebb68b8bc1a8748579f78389837dc7eb6383898de8857583c68a8b8b3b758be8eb8be88bc1a87483b8748b3974838b89ffb08b8b8b835f5e5fc3'
p2195
L459L
tp2196
a(S'sub_140032770'
p2197
S'89895783bb8b018b8be88575e8c7e832e98bba837f748574837483748374837433ebbbebbbeb837483748374eb8b8374837483743b756389eb8b89ebb789eb8a88c6b08b8b835fc3'
p2198
L219L
tp2199
a(S'sub_14003284C'
p2200
S'5383838b8b8b838bb88b448983748374837483748a2ca895eb32847485758d8963c6e8eb85758d8963e889b0835bc3'
p2201
L150L
tp2202
a(S'sub_1400328E4'
p2203
S'89895783838b8b8b838bb78bb889448be833847485758d89638bc6e8eb85758d898b857e38748bb68b8b8d394dff8d3b7c8b89b08b8b835fc3'
p2204
L195L
tp2205
a(S'sub_1400329A8'
p2206
S'898957838b3389808b748b857e8b338574b78d838db88de885758b85748d8d898d8de8ff3b75eb83eb8b8d8b8d8189e8b08b33e88b8b835fc3'
p2207
L213L
tp2208
a(S'sub_140032A80'
p2209
S'8989895783338b38858b858e8b8b8b8d898b8b63e863857e8bb78b39753874ffeb83ebffff8b8b898b8303ff8b3b75eb83eb8b8d8b8d8189e88bb08b8b835fc3'
p2210
L235L
tp2211
a(S'sub_140032B6C'
p2212
S'85848b8989898956838b638b8b8b3975807401eb83eb2b8b8b3b428be88b018b018b807401eb3b7483eb018b8b8b8b835ec3'
p2213
L163L
tp2214
a(S'sub_140032C10'
p2215
S'8584898989575657838b638b8b8b3975807401eb83eb2b8b8b3b428d8be88b018b018b807401eb3b7483eb018b8b8b835f5e5fc3'
p2216
L165L
tp2217
a(S'sub_140032CC8'
p2218
S'b7b72b752b857483b7b72b748bc1f7c12bc3'
p2219
L53L
tp2220
a(S'sub_140032D00'
p2221
S'898955575456578b83838a8b8b75e8c7e88b85748b8933e985748d83778b8de88b338b8a8d89837eb68dbae88b8beb8bb6b78385748b8a8debb68b8380458b7480758a8d89838bba85743b858b8d3c77be83eb8d3c77be83eb8d3c77be83eb8b857485b8458beb8aff898da87485b845ff898b84743874e8c7e88b83eb8aff8589458b338bf78b8d8077be83eb8d3c77be83eb8d3c77be83eb8b3b743b73833b72753b7633ebafb1038b8a8d8b89838444ebff8984743874e8c7e8f6758089848b83e98bbf838df67483eb85748b83743beb3b768be8c7857583eb857480748b838b85748b898beb80748b838b85748b898bebf674f780748b838b85748b898b8d8b8b8b5f5e5c5f5dc3'
p2222
L826L
tp2223
a(S'sub_14003303C'
p2224
S'8989565754565783338a8b8b3975e8c7e88b85748b8933e985748d83778b8de88b8b89b78deb8bb783ba89b7e88575b6b98b8383458d85758bb78389b883b9babbb88df7853b828373b72be93b833b82b93b73b72be93b82b93b73b72be93b82b93b73b72be93b82b83b73b72de9b93b828d3b73b72be9b93b828d3b728d3b828d3b72b93b828d3b728d3b828d3b728d3b828d3b72b93b828d3b828d3b728d3b828d3b728d3b82b93b728d3b82b93b728d3b82b7b92b8377e9b83b828383758d8d837683768bebb7838d47838574b8eb8bb8b78d898d857485b84583898b85743974e8c7e883bbebb78d89b885458b338bf7bf8b8b3b828373b72be93b83b83b828d3b73b72be9b83b828d3b72b83b828d3b728d3b828d3b728d3b828d3b728d3b828d3b728d3b828d3b82b83b828d3b828d3b828d3b828d3b828d3b82b83b828d3b828d3b728d3b828d3b728d3b82b83b728d3b82b83b728d3b82b7b92b8377b72bebb83b73b72beb8383758d83768d83768bebb78d838d47833b743b73833b72753b768aebafb1038bb783898b838444e98b8b838985743974e8c7e8f6758938848b83e98bbe838df67483eb85748b83743beb3b768be8c7857583eb857438748b838b85748b898beb38748b838b85748b898bebf674f738748b838b85748b898b8d8b8b8b5f5e5c5f5ec3'
p2225
L1714L
tp2226
a(S'sub_1400336F0'
p2227
S'838989857489b18d33e883c3'
p2228
L42L
tp2229
a(S'sub_14003371C'
p2230
S'838989857489b18d33e883c3'
p2231
L42L
tp2232
a(S'sub_140033748'
p2233
S'898957838b8b8be8908be8908be88b835fc3'
p2234
L56L
tp2235
a(S'sub_140033780'
p2236
S'53838b8085b8878b8b85758b8b83b92b33d3338b3b74338bd3333333ff8deb83758de8908b83758d8de88d8de88b8375c68bc6835bc3e890cccc'
p2237
L216L
tp2238
a(S'sub_140033858'
p2239
S'338194c3'
p2240
L12L
tp2241
a(S'sub_140033864'
p2242
S'898989558b838b857533ff8574b9397563038175b83975837683748be88dc6898d8d898d8d898db88d8989e883748b835dc38be8cc'
p2243
L188L
tp2244
a(S'sub_140033920'
p2245
S'53838be883748b8bc1f675ff8b8bff8be88bffcc'
p2246
L74L
tp2247
a(S'sub_14003396C'
p2248
S'5383838d8b8d33ff85748b8dff85748bff8b8574ff835bc3'
p2249
L91L
tp2250
a(S'sub_1400339C8'
p2251
S'89c3'
p2252
L8L
tp2253
a(S'sub_1400339D0'
p2254
S'ba338de9'
p2255
L16L
tp2256
a(S'sub_1400339E0'
p2257
S'33338de9'
p2258
L13L
tp2259
a(S'sub_1400339F0'
p2260
S'338de9'
p2261
L12L
tp2262
a(S'sub_1400339FC'
p2263
S'838b8b8bb9832b33d3333975d3338983c3e8cc'
p2264
L68L
tp2265
a(S'sub_140033A40'
p2266
S'3333e9'
p2267
L10L
tp2268
a(S'sub_140033A4C'
p2269
S'53838b8575e8c7e833ebbae83d73b9e8908be88bb9e88b835bc3'
p2270
L93L
tp2271
a(S'sub_140033AAC'
p2272
S'898957838be88b8574857483ff80758b857483ff80753b7680758b8b8be88574838beb8bff03eb338b8b835fc3'
p2273
L137L
tp2274
a(S'sub_140033B40'
p2275
S'89338b8b85742bb78b898385748375858d4485748d8574b7ab8b8bc3'
p2276
L88L
tp2277
a(S'sub_140033B98'
p2278
S'3339748b3974b73b7483b7857583eb8bc333c3'
p2279
L52L
tp2280
a(S'sub_140033BCC'
p2281
S'8b8989898956838b33bf8575b8eb3b4c63ba89e83389e83975ba898be83389e8397583eb8b8d8d8d33bae88b8d8b83c1898bc18b8b838377c7ff8383838375338b8b8b8b835ec3'
p2282
L287L
tp2283
a(S'sub_140033CEC'
p2284
S'8b8d6b03c3'
p2285
L17L
tp2286
a(S'sub_140033D00'
p2287
S'5383e8e8338b8be88b8b83ff8383758be883835bc3'
p2288
L91L
tp2289
a(S'sub_140033D5C'
p2290
S'83ff'
p2291
L11L
tp2292
a(S'sub_140033D68'
p2293
S'83ff'
p2294
L11L
tp2295
a(S'sub_140033D74'
p2296
S'898957838b8b8be8908b8b8b85748b8bc1a8748b243c75f675ba72ffeb8b80758b8b8bd1a8748b8be883748bffeb8b838be88b835fc3'
p2297
L154L
tp2298
a(S'sub_140033E10'
p2299
S'8989565756838b8b8be8908b638d893b848b898b85748b8bc1a8748b243c75f675ba72ff83eb8b8b8b8d898989898b89898d8d8d8de8eb8be88b835e5f5ec3'
p2300
L224L
tp2301
a(S'sub_140033EF0'
p2302
S'898957838b8b8be8908b8be88b8be88b8b835fc3'
p2303
L64L
tp2304
a(S'sub_140033F30'
p2305
S'88558b83838d838d898d8d898d8d898db88989e8808b45835dc3'
p2306
L93L
tp2307
a(S'sub_140033F90'
p2308
S'898957838b8b8b243c75f6748b2b838b89857e8be88b8b8be83b748383eb8bc1a87483338b8b835fc3'
p2309
L122L
tp2310
a(S'sub_14003400C'
p2311
S'53838b8575835be9e8857483eb8bc1a8748be88be8857533835bc3'
p2312
L75L
tp2313
a(S'sub_140034060'
p2314
S'83898575e8eb8b8b243c75f675ba7233eb8d898d8b8d8d898d89e883c3'
p2315
L102L
tp2316
a(S'sub_1400340C8'
p2317
S'838575e8c7e883eb8b83c3'
p2318
L38L
tp2319
a(S'sub_1400340F0'
p2320
S'8bf78b1b81f71bf783e9'
p2321
L37L
tp2322
a(S'sub_140034118'
p2323
S'838da97581748733ebe8c7e8b883c3'
p2324
L61L
tp2325
a(S'sub_140034158'
p2326
S'8b89898989545657838b6381748174817481748174e8c7e98375e8c7eb85783b738b8bc18d83c18bf6748be8838bf675e8c7eb8b8be88b8be88bebe8c7e8838b8b8b835f5e5cc3'
p2327
L258L
tp2328
a(S'sub_14003425C'
p2329
S'898989638d8bbec183c18bb68a8b81817481748da9743b7580888bc6eb80888bc6eb8088eb80888bc68575b8eb8475b8eb80b8448b8b8bc3'
p2330
L223L
tp2331
a(S'sub_14003433C'
p2332
S'838dff85748dff85748b8574898beb8389893383c3'
p2333
L83L
tp2334
a(S'sub_140034390'
p2335
S'53838339758beb8dff85748b2b7899f78b696999f7033d4f835bc3'
p2336
L105L
tp2337
a(S'sub_1400343FC'
p2338
S'857533c3b785743b7583838375b7b72bc3'
p2339
L44L
tp2340
a(S'sub_140034428'
p2341
S'538385748b837e8bbae8ebb685748b8bb7ebe8b7838595835bc3'
p2342
L78L
tp2343
a(S'sub_140034478'
p2344
S'538385748b837e8bbae8ebb685748b8bb7ebe8b7838595835bc3'
p2345
L78L
tp2346
a(S'sub_1400344C8'
p2347
S'8989558b83638de881738d8be884748b8bb680848b83e93389888b837e8b8dc1b6e8857488b988c6ebe8b9c788c68b8d33c789b8888b8b898dc789898de88584b68384b6c10b80748b838d8b8b8b8b5dc3'
p2348
L318L
tp2349
a(S'sub_140034608'
p2350
S'8989558b83638de881738d8be884748b8bb680848b83e93389888b837e8b8dc1b6e8857488b988c6ebe8b9c788c68b8d33c789b8888b8b898dc789898de88584b68384b6c10b80748b838d8b8b8b8b5dc3'
p2351
L318L
tp2352
a(S'sub_140034748'
p2353
S'83837433e88beb8d8377838b83c3'
p2354
L42L
tp2355
a(S'sub_140034774'
p2356
S'83837433e88beb8d8377838b83c3'
p2357
L42L
tp2358
a(S'sub_1400347A0'
p2359
S'338b8b39748339758b85742bb789838574ff3b75898bc3'
p2360
L70L
tp2361
a(S'sub_140034800'
p2362
S'8b0b84f6748a8474fff675908b8bb903833383b98574838474ff8474ffc18474ff8474ffc18474ff8474ffc18474ff8474ffeb2bf6748a888474ffff74f675eb32888bc39089838b8376b9038b8333b985748384848884ffff74848874ffff74c1848874ffff74848874ffff74c1848874ffff74848874ffff74c1848874ffff74848874ffff8532888bc3'
p2363
L405L
tp2364
a(S'sub_1400349B0'
p2365
S'8b0b742bf6748a848884ffff74f675eb8bc389838b8376b9038b8333b985748384848884ffff74848874ffff74c1848874ffff74848874ffff74c1848874ffff74848874ffff74c1848874ffff74848874ffff858bc303338372f674ff88ffeb8372898989898383738383728983eb83837288ffeb8bc3'
p2366
L354L
tp2367
a(S'sub_140034B14'
p2368
S'8b8b838c8bb8832bf71b238b3b42033b748074ff3b758b2b3b858b8b2b83033b74f1f5fd85f875833b758deb8084ff3b75e9838c83b82bf71b238b3b428d3b748074ff3b758b2b3b758b8b2b5783033b746f74d78575833b758deb8074ff3b75eb8d3b748074ff3b752b8bc3'
p2369
L336L
tp2370
a(S'sub_140034C64'
p2371
S'8b8b8b838cf6748d8b3b84333984833b75e983b82b8bf71b23d13b42338d3b743974833b752bd13b858d8b2b83038d3b74f175fd85f875833b758deb3974833b758be9838cf6748d8b3b84333984833b75e983b82b8bf71b23d13b42338d3b743974833b752bd13b758b8d2b5783038deb6f75d78575833b758deb3984833b75e98d8b3b74333974833b752bd18bc3'
p2372
L470L
tp2373
a(S'sub_140034E3C'
p2374
S'89c3'
p2375
L8L
tp2376
a(S'sub_140034E44'
p2377
S'53838be885748bff8574b8eb33835bc3'
p2378
L47L
tp2379
a(S'sub_140034E74'
p2380
S'538333e8908b8b8333d333e88b835bc3'
p2381
L52L
tp2382
a(S'sub_140034EA8'
p2383
S'83e88b8574ffebe890'
p2384
L32L
tp2385
a(S'sub_140034EC8'
p2386
S'89898957838b8be8338b857533e98b8b8d3b743974833b758b85748b85748375898de983848b898385838deb89833b75818b748174817481748174817481748174818b75baebbaebbaebbaebbaebbaebbaebbaebba89b98bff89eb8b898bff89838b8b8b835fc3'
p2387
L373L
tp2388
a(S'sub_140035040'
p2389
S'8b89898989545657838b8b8b8b8b83c78574898332807584b694ffebff85748a88ffbeff8be88574ff85748a88ffff84748475807480758574c6ebff328a84843c743c75ff8aeb848485748983ffba33ebffff8a80748075847584748d80758beb338494d1ebff8574c6ffff85758a847484753c743c748574857488ff8abee88574ffff85748a88ffffffe98574c6ffffe9857483ff8b8b8b8b835f5e5cc3'
p2390
L451L
tp2391
a(S'sub_140035204'
p2392
S'5383b88b3b7233eb3383f73b73c1af8bf73b7603bae8338be88b835bc3'
p2393
L93L
tp2394
a(S'sub_140035264'
p2395
S'8955565756578b83338b85848d8376e88d89e88be9e88db88b33e88b89857438758b8d898d893389338be88bb88b8be88b8575e8bb3389e8e98d8b8d8b8d89e883758bff898933eb8d898be88b85748be88b89e88beb8b8b8b39748dff397589338989e88b89e88b8b835f5e5f5e5dc3'
p2396
L390L
tp2397
a(S'sub_1400353EC'
p2398
S'89578333397433ebe8e88b857583eb8be8857583eb898933e88be88b8b835fc3'
p2399
L108L
tp2400
a(S'sub_140035458'
p2401
S'898989575657838b338b8b8aeb808d448b83ff3875ff038a8475ffbae88b85748b8a847483ff3875ff3c74ba8be88b85748b8b8be83385758983e803eb8be833e8eb8b33e88b8b8b8b835f5e5fc333893333e8cc'
p2402
L262L
tp2403
a(S'sub_140035560'
p2404
S'85748957838b8b8beb8be88d8b85758be88b835fc3'
p2405
L65L
tp2406
a(S'sub_1400355A4'
p2407
S'898956838b858583e98383838b83338333e8638574ba8be88b8574838383338b338989e88574338be833e8838b85858b8b835ec38be8e9'
p2408
L209L
tp2409
a(S'sub_140035678'
p2410
S'838b3b74e883c3'
p2411
L26L
tp2412
a(S'sub_140035694'
p2413
S'838b3b74e883c3'
p2414
L26L
tp2415
a(S'sub_1400356B0'
p2416
S'838b8575397533ebe88574e885758b83c3'
p2417
L59L
tp2418
a(S'sub_1400356EC'
p2419
S'838de88de88be88b83e9'
p2420
L56L
tp2421
a(S'sub_140035724'
p2422
S'838b85758b8575397533ebe88574e885758b8983c3'
p2423
L78L
tp2424
a(S'sub_14003577C'
p2425
S'898957838b8b8be8908be88b8be88b8b835fc3'
p2426
L59L
tp2427
a(S'sub_1400357B8'
p2428
S'898957838b8b8be8908be88b8be88b8b835fc3'
p2429
L59L
tp2430
a(S'sub_1400357F4'
p2431
S'8b89898989545657838b338b8b857583e98bbd8b8b8b838b3333d333d3d33b852bb8c13b8b478d03443b728d8b8be8338be885758db88b8be8338be885848d8b8d8b8b8b832b8bd38b2b3383c13b4785748bab8b8b8b832b8b8b8bd3338d898b8b832b8a8bd3338b898b8b8b832b8bd3338b898b8b832b8b8ad3338b33898b8b8b8b835f5e5cc3'
p2432
L451L
tp2433
a(S'sub_1400359B8'
p2434
S'8989895754555657838b338b8b857583e98b8b8b33338b838bd3d38d8387bf8b8b8b2b8bd333833b728b3b7433898bd3ff8b8b8b838b8b8b8b3333d3d33b753b748b8b8b8beb83748be88b8b832b8b8ad3338b898b8b898b8b89338b8b8b835f5e5d5c5fc3'
p2435
L329L
tp2436
a(S'sub_140035B04'
p2437
S'8b8de9'
p2438
L15L
tp2439
a(S'sub_140035B14'
p2440
S'8b89838d898db88d8d898d89e883c3'
p2441
L58L
tp2442
a(S'sub_140035B50'
p2443
S'338b857583c38b39758bb98b832bd33389898933c3'
p2444
L63L
tp2445
a(S'sub_140035B90'
p2446
S'8989558b838d898d8d898db88d8d8989e8835dc3'
p2447
L72L
tp2448
a(S'sub_140035BD8'
p2449
S'8d89b0c3'
p2450
L17L
tp2451
a(S'sub_140035BEC'
p2452
S'838de88de8b083c3'
p2453
L35L
tp2454
a(S'sub_140035C10'
p2455
S'83e8b083c3'
p2456
L16L
tp2457
a(S'sub_140035C20'
p2458
S'53838bb98b33832bd3338be88be88be88be88be8b0835bc3'
p2459
L81L
tp2460
a(S'sub_140035C7C'
p2461
S'53838b83c183758b8d3b74e889b0835bc3'
p2462
L64L
tp2463
a(S'sub_140035CBC'
p2464
S'838be88b83e88b83e88b83e883b083c3'
p2465
L91L
tp2466
a(S'sub_140035D18'
p2467
S'8d8de9'
p2468
L19L
tp2469
a(S'sub_140035D2C'
p2470
S'8384748374e8b083c38d8d83e9'
p2471
L53L
tp2472
a(S'sub_140035D74'
p2473
S'8b8b3383d38595c3'
p2474
L29L
tp2475
a(S'sub_140035D94'
p2476
S'89c3'
p2477
L8L
tp2478
a(S'sub_140035D9C'
p2479
S'8b8b8b3383d3857533c38b8bff'
p2480
L46L
tp2481
a(S'sub_140035DCC'
p2482
S'8b8b8bb9832bd33389c3'
p2483
L37L
tp2484
a(S'sub_140035DF4'
p2485
S'8989895783338b2b8b838bc13b4785748b8574ff83ff3b758b8b8b835fc3'
p2486
L100L
tp2487
a(S'sub_140035E58'
p2488
S'8957838b8b3b748b8574ff8575833beb338b835fc3'
p2489
L61L
tp2490
a(S'sub_140035E98'
p2491
S'83ff89ff89b083c3'
p2492
L37L
tp2493
a(S'sub_140035EC0'
p2494
S'8dc3'
p2495
L8L
tp2496
a(S'sub_140035EC8'
p2497
S'8dc3'
p2498
L8L
tp2499
a(S'sub_140035ED0'
p2500
S'89898957838b8be8908d8d898d3b7439748b8be88983eb8be88b8b835fc3'
p2501
L110L
tp2502
a(S'sub_140035F40'
p2503
S'b887c3'
p2504
L12L
tp2505
a(S'sub_140035F4C'
p2506
S'8b83b88d8d898d898de883c3'
p2507
L46L
tp2508
a(S'sub_140035F7C'
p2509
S'53838be88b8b80f61b8374857483748374e8c7e883eb83eb8389eb838d835bc3'
p2510
L105L
tp2511
a(S'sub_140035FF0'
p2512
S'838376e8c7e883eb878b83c3'
p2513
L43L
tp2514
a(S'sub_14003601C'
p2515
S'8dc3'
p2516
L8L
tp2517
a(S'sub_140036024'
p2518
S'53833385748574857588e8bb89e88b835bc38b2b8a8b88ff84748375848d44857588e8bbeb'
p2519
L110L
tp2520
a(S'sub_140036094'
p2521
S'83e88574b9e8f674b9ff8574b9cdb8ba8de8b9e8cc'
p2522
L86L
tp2523
a(S'sub_140036110'
p2524
S'2b8574f774b63a75ffff748474f775bbba8d253d778b3b758383768df723857433c31b83c3'
p2525
L125L
tp2526
a(S'sub_140036190'
p2527
S'857453838b338bff8575e88bff8be889835bc3'
p2528
L61L
tp2529
a(S'sub_1400361D0'
p2530
S'53838b837785b844ebe885748be885748b8b33ff8574ebe8c733835bc3'
p2531
L94L
tp2532
a(S'sub_140036230'
p2533
S'8957838b8b85758be8eb8575e8eb8376e8c7338b835fc3e885748be885748b8b8b33ff8574eb'
p2534
L122L
tp2535
a(S'sub_1400362AC'
p2536
S'89895557568d818b33898b8b8b8374e8338db8e8338db8e88d898d8d89ff8b8d8b33ff8574838d8b8b898b8d898d8933ff8b898d8389898b8989ff338bff8dff8575857583748be88b33e88d8b8b8b5e5f5dc3'
p2537
L347L
tp2538
a(S'sub_140036408'
p2539
S'89c3'
p2540
L8L
tp2541
a(S'sub_140036410'
p2542
S'89898957838b8b8b8be885748b85748b8b898b8b8bff8b8b8b835fc38b8b8b8b3383d38b85748b8b89eb8b8b89e8cc'
p2543
L174L
tp2544
a(S'sub_1400364C0'
p2545
S'838333333333e883c3'
p2546
L30L
tp2547
a(S'sub_1400364E0'
p2548
S'83b9ff8574b9cdb8ba8de8ff8bba83ff'
p2549
L71L
tp2550
a(S'sub_140036528'
p2551
S'5383838b74338de88b837e8dba8be88beb8bb6b78380748b83eb8bb6b7838b835bc3'
p2552
L120L
tp2553
a(S'sub_1400365A0'
p2554
S'338d8b8d3b74ff0383728d8377b8c381b88346c38bc3'
p2555
L69L
tp2556
a(S'sub_1400365E8'
p2557
S'8957838be885758deb8389e88d85748d8be8898b835fc3'
p2558
L78L
tp2559
a(S'sub_140036638'
p2560
S'83e885758deb8383c3'
p2561
L32L
tp2562
a(S'sub_140036658'
p2563
S'83e885758deb8383c3'
p2564
L32L
tp2565
a(S'sub_140036678'
p2566
S'8989895783338b8b8b85848584387585748933e98b8de88b81758d8b8b8be88b838548eb39758574b689b938748b838be9b68de885748b8b837e3b7c8b8b858bba958989e88b8575633b7238748beb8bb9858b95898d8b898be88585e883c7e933898b8b8b835fc3'
p2567
L380L
tp2568
a(S'sub_1400367F4'
p2569
S'33e9'
p2570
L8L
tp2571
a(S'sub_1400367FC'
p2572
S'89898957838b8b8b8575857485742133e98574838176e8bb89e8eb8b8de88b8375b7b93b76857485748b338be8e8bb8980748b838b8d8b8b8b5fc385748584888574c7eb838d898d83b98b338989e88574838585748933e9ff8385857485748b338be8e8bb89e8e9'
p2573
L387L
tp2574
a(S'sub_140036980'
p2575
S'8383e883c3'
p2576
L20L
tp2577
a(S'sub_140036994'
p2578
S'898957838b8b8be8908b8b8bff8be88b835fc3'
p2579
L63L
tp2580
a(S'sub_1400369D4'
p2581
S'898957838b8b8be8908b338be8908be88b835fc3'
p2582
L61L
tp2583
a(S'sub_140036A14'
p2584
S'898957838b8b8be8908b8b8b8b8be8908be88b835fc3'
p2585
L69L
tp2586
a(S'sub_140036A5C'
p2587
S'898957838b8b8be8908b8b8b857483c183758d3b74e8908be88b835fc3'
p2588
L95L
tp2589
a(S'sub_140036ABC'
p2590
S'558b83898d898dba8db889898d898d89b889898d89898d8b898d8b898b898d8b8d898b898d8b83e88d8d8d8de8835dc3'
p2591
L205L
tp2592
a(S'sub_140036B8C'
p2593
S'857453838be88be8835bc3'
p2594
L32L
tp2595
a(S'sub_140036BAC'
p2596
S'558b838d89898db889898d89b889898b3b748be88b8be88b8be88b8be88b8be88b8be88b8be88b8be88b8be88b8be88d8d8d8de88d8d8d8de8835dc3'
p2597
L245L
tp2598
a(S'sub_140036CA4'
p2599
S'8957838b8b8b8574e88b3b748d3b748375e88985748be88b835fc3'
p2600
L103L
tp2601
a(S'sub_140036D0C'
p2602
S'895783ff8b8b8374e88b8574837533eb8b83e88574bab9e88b8b857533e833e8eb8be885758b33e88beb8be833e88bff85748b8b835fc3e8cc'
p2603
L194L
tp2604
a(S'sub_140036DD0'
p2605
S'53838b8374e88b85748374eb8b83e88574bab9e88b8b857533e833e8eb8be885758b33e88beb8be833e885748b835bc3e8cc'
p2606
L167L
tp2607
a(S'sub_140036E78'
p2608
S'895783ff8b8b8374e88b8574837533eb8b83e88574bab9e88b8b857533e833e8eb8be885758b33e88beb8be833e88bff8b8b835fc3'
p2609
L183L
tp2610
a(S'sub_140036F30'
p2611
S'838de889837532ebe8857533e8ebb083c3'
p2612
L57L
tp2613
a(S'sub_140036F6C'
p2614
S'838b8374e883b083c3'
p2615
L34L
tp2616
a(S'sub_140036F90'
p2617
S'53838b8b39748b8575e889835bc3'
p2618
L49L
tp2619
a(S'sub_140036FC4'
p2620
S'53838b8b39748b8575e889835bc3'
p2621
L49L
tp2622
a(S'sub_140036FF8'
p2623
S'8b8989895754555657838b3385888b8b8b8d8b8b498be88d633b77e88d89e8e98bba8bc1233b758b8b898b898b8b8b888989e88b857488e9ba8be885848a80c0808888e9b8857988ff8b8a8d34bdb6ba8bb8c1bb838575888b23f71b81ebc68d85758aeb8b8b8b8a888586b7b9857e8b8a2323d30383760388ffffc1837985788b8a2323d383768d8a2ca87588ffeb3b74807580eb8afe88ebfe857e8b8a8b8be803ba3845c080888d8bc1812b8b79f785b88b8d488888817cb88df7c18bc1038d8869033b75837cb8f703c18bc1038d88ff6b033b75837cb8f7c18bc1038d88ff6b030288888b38748b838d8b8b8b8b8b5f5e5d5c5fc3'
p2624
L869L
tp2625
a(S'sub_140037360'
p2626
S'8b89898957838b8b8b8d8b8b8dff8d3b4289e8338d838d8b9433859f2b2b83440303e88574c6eb8b8b8a8b898b8dc6898b89e88b8b8b835fc3'
p2627
L219L
tp2628
a(S'sub_14003743C'
p2629
S'8b8989898957833363858a8b8b4f83983b77e8bb89e88b8b8b8b8b835fc38b8de8808b7433839403857e83ff8075ff8de8838b75c68d857e8a88ff8b8b8b8a88b68d0383032b8b838d44e885858d8474c68b80748b8379f7c6837cb8f7c18bc103006b03837cb8f7c18bc103006b0300837580758db8e880748b8333e98333333333e8cc'
p2630
L466L
tp2631
a(S'sub_140037610'
p2632
S'8b8989898956838b8b8d8b8be88bff80743b753363839403c78375c6ff83837f8bff8075ff8d8be8c6ffeb6303857e8d8bff8075ff8b8be88b8b8b8a888b8579f780753b7d8b8574ff8075638d038be863ba8be880748b838b338b8b8b835ec3'
p2633
L324L
tp2634
a(S'sub_140037754'
p2635
S'8b89898956838b33898b898d8b8b8b89e88b8d8b33838b94ff2b838d448be88574c6e98bff837c3b7d3b7d8aff8475888b8d8b8b898bc6e8eb8b8b8a8b8b898dc6898b89e88b8b8b835ec3'
p2636
L306L
tp2637
a(S'sub_140037888'
p2638
S'558d818b33898bb6838b3b73c6b88b33e8815dc38474ffc6ffc68d8d89898d898d898d89898d898d898d8989b689838dc189038b0389898389898bff8075333b8b97838d8b038be885848333333333e8cc'
p2639
L319L
tp2640
a(S'sub_1400379C8'
p2641
S'89898956838b8b8b8b8575e8bb89e88be9857485748b85748bba83748d837632eb8a8bf6758b8bc1253d75b98b23748579b93b75baeb8bc1f72383c18b888a8b8be8e9c123838384ba2b848374837483842b8483748b8b898b898b888b89898be8e98b8d33898b898b8b89e88b8d338b8394032b834403e88574c6e98b8d898b8bc68be8eb8b8b898b898b888b89898be8eb8b8b898b898b888b89898be88d8b8b8b8b5ec3'
p2642
L648L
tp2643
a(S'sub_140037C50'
p2644
S'8b33833994c3'
p2645
L24L
tp2646
a(S'sub_140037C68'
p2647
S'8b8989898956818dff3339848b8584638dbf03394c8be83b4f85748b83748374f674f6758bff85748b8d838bc1c1038b898a88ffff8383758d8b8b8b8b8b5ec3'
p2648
L235L
tp2649
a(S'sub_140037D54'
p2650
S'89898956833333638d8b83c1c1038b83837680e9c68b8574837483b9ebb9ebb9ff8b8d83768bffeb338574b689837580eb837580eb80c78b85748bc7ff8383858b8b8b835ec3'
p2651
L251L
tp2652
a(S'sub_140037E50'
p2653
S'5383b9e83333e88575e8e8b3b9e88a835bc3'
p2654
L59L
tp2655
a(S'sub_140037E8C'
p2656
S'895783338d8b8574e883838172b08b835fc3'
p2657
L64L
tp2658
a(S'sub_140037ECC'
p2659
S'83e88d8b898be88b8b83c3'
p2660
L47L
tp2661
a(S'sub_140037EFC'
p2662
S'895783b8b73b7533ebb83b738bb7b7eb33898d898d8d8be88574b7b7238b835fc3'
p2663
L111L
tp2664
a(S'sub_140037F6C'
p2665
S'8989558b818b33898b8b8b8de8837c817f8bb68bb7e98b8d834cc1b6e8ba85748b88c18d88c6eb888bc63389898d898b8b8d898d89e8857538748b8333ebb72380748b838b33e88d8b8b8b5dc3'
p2666
L275L
tp2667
a(S'sub_140038080'
p2668
S'5383338d338d8dbae88574ffff8372b0eb33e832835bc3'
p2669
L72L
tp2670
a(S'sub_1400380C8'
p2671
S'638d8d8dff'
p2672
L25L
tp2673
a(S'sub_1400380E4'
p2674
S'53838beb8dff8d8dffff8575b0835bc3'
p2675
L55L
tp2676
a(S'sub_14003811C'
p2677
S'638d8d8dff'
p2678
L25L
tp2679
a(S'sub_140038138'
p2680
S'538333898b8b397c8de88374bb8b835bc3'
p2681
L60L
tp2682
a(S'sub_140038174'
p2683
S'838433e9'
p2684
L21L
tp2685
a(S'sub_14003818C'
p2686
S'8b89898957838b8b8b8d8be8857533e985748575e8c7e8bbebbb3b76e8c7e8eb8b8b85758d8b8b8be88beb8b8d898b89b88989e88575e8c7eb8d80748b838d8b8b8b8b8b5fc3'
p2687
L256L
tp2688
a(S'sub_14003828C'
p2689
S'53838b8b8574338df73b72afb88544ebe885748be885748b8bbaff8574ebe8c733835bc3'
p2690
L117L
tp2691
a(S'sub_140038304'
p2692
S'8989895754555657838b8d8b8b8b8b8b838b8b33838ad33b8485748be93b848b8b85743b84e98b338bb8ff8b8575ff83758d8b8b8de885748b8d8be8857433338bff8beb338d85758b87eb8b8785748bff8575833b858b3385748b8bff85748bba8b832b8a8bd33387eb8beb8b8bb9832bd33387338b8b8b835f5e5d5c5fc3'
p2693
L470L
tp2694
a(S'sub_1400384DC'
p2695
S'53838b8db98d8de885748bc7835bffb8835bc3'
p2696
L78L
tp2697
a(S'sub_14003852C'
p2698
S'89898957838b8b8b8d8b8d8db9e885748b8b8b8b898b898b898b898b898bffeb338be88b8b8b8b898b8b89ff8b8b8b835fc3'
p2699
L220L
tp2700
a(S'sub_140038608'
p2701
S'53838b8db98d8de885748b835bff835bff'
p2702
L72L
tp2703
a(S'sub_140038650'
p2704
S'53838b8db98d8de88b8574835bff835bff'
p2705
L70L
tp2706
a(S'sub_140038698'
p2707
S'53838b8db98d8de88b8574835bff835bff'
p2708
L70L
tp2709
a(S'sub_1400386E0'
p2710
S'8957838b8d8b8db98de88b8b8574ffebff8b835fc3'
p2711
L81L
tp2712
a(S'sub_140038734'
p2713
S'898957838b8d8b8d8b8db9e88b8b85748bffebff8b8b835fc3'
p2714
L97L
tp2715
a(S'sub_140038798'
p2716
S'89898957838b8b8b8d8b8d8db9e885748b8b8b8b898b898b898b898b898bffeb338be88b8b8b8b898b8b89ff8b8b8b835fc3'
p2717
L220L
tp2718
a(S'sub_140038874'
p2719
S'8957838b8d8b8db98de88b85748bffebe88b835fc3'
p2720
L80L
tp2721
a(S'sub_1400388C4'
p2722
S'898b8d8bb9832b33d38d333b1bf783ab8bb0c3'
p2723
L69L
tp2724
a(S'sub_14003890C'
p2725
S'538384758d8b85748374ff83838d3b75b0835bc3'
p2726
L65L
tp2727
a(S'sub_140038950'
p2728
S'89578383b9e890bb893b74638b8b8575eb8bc1a8748b8be88374ff8b8b83ff8b8be88b83ffebb9e88b8b835fc3'
p2729
L177L
tp2730
a(S'sub_140038A04'
p2731
S'53838b8bc1a8748bc1a8748be88133898989835bc3'
p2732
L64L
tp2733
a(S'sub_140038A44'
p2734
S'898957838b8b8be8908b638b8bc18d83c18bf674e88bff338575e88bff89e8c7838be88b8b835fc3'
p2735
L140L
tp2736
a(S'sub_140038AD0'
p2737
S'8983638375e8c7eb85783b738b8d838bc1c18bf6748d89898d8d898d8de8ebe8c7e88383c3'
p2738
L145L
tp2739
a(S'sub_140038B64'
p2740
S'89555657545556578b818b3389638d8b8bc183c18b898b038b8b89ff898b3389893b83338a8d8b898af6748a8088b88d8888ebe8b6397d8d3b83b88d8be883848b33ebb88b8de883848b8d898d89b9c73389ffe88b85848b8d838d8bff85748b2b038939723380758b8d8d898d898dff85748372ffff3b73e98a8d8b888b80ffebff898b8b33e88b815f5e5d5c5f5e5dc3'
p2741
L533L
tp2742
a(S'sub_140038D7C'
p2743
S'8989565756b8e82b8b3389638b8b8bc18d8303c18b8b8b3389893b738d3b738aff3c75ffc6ff88ff8d3b72838d2b8d8b8d8bff85748b013b723b72ebff898b8b33e88d8b8b8b5e5f5ec3'
p2744
L258L
tp2745
a(S'sub_140038E80'
p2746
S'8989565756b8e82b8b3389638b8b8bc18d8303c18b8b8b3389893b838d3b73b783837583b9898389838d3b72838d2b8dd18d038b8bff85748b013b723b72ebff898b8b33e88d8b8b8b5e5f5ec3'
p2747
L281L
tp2748
a(S'sub_140038F9C'
p2749
S'89895657545657b8e82b8b3389638b8b8bc18d8303c18b8b8b8b33893b89838d3b73b7838375ba898389838d3b72838d838d2bc78dd1898bb933e88b8574338574838d8b8d8b038b2bff8574033b728b2b893be9ff898b8b33e88d8b8b8b5f5e5c5f5ec3'
p2750
L368L
tp2751
a(S'sub_14003910C'
p2752
S'8989895754555657838b8b638375e883e8c7e985783b738b8bc18d83c18bf6748be8838bf675e8c7e883eb8b8b8be88b8be88bebe883e8c7e8838b8b835f5e5d5c5fc3'
p2753
L233L
tp2754
a(S'sub_1400391F8'
p2755
S'89555657545556578b838b8b63857533e98575e883e8c7e883e98b8d838bc1c18b8a8d3c778bf7a874f674338b8de8338b89e885848d8b388de88b39758d8b38848d8b8d8bff85848484fe8087338d898b3b738bb7b789e8b73b7583898375b9e8b93b75ff89ff833b73ebff898be98b8d8b8be8108be98d8b387dbe8474837483758b8d8b8be8eb8b8d8b8be8eb8b8d8b8be8eb8b8d338b218b8989ff8575ff898b10118bc185758b85748375e8c7e8c7e9e8e98d8bf6748084e8c7e883e98b2b8b835f5e5d5c5f5e5dc3'
p2756
L736L
tp2757
a(S'sub_1400394D8'
p2758
S'898957838b8b8be8908be88b8be88b8b835fc3'
p2759
L61L
tp2760
a(S'sub_140039518'
p2761
S'898957838b8b8b8b8b83e88b8be88b8b818bf6748b8b8d81c7eb8b8b85758be833898be88575ff83eb8b8b818b83898989eb8b8b8189898983338b8b835fc3'
p2762
L238L
tp2763
a(S'sub_140039608'
p2764
S'898989558b83898574f7758374f7758d3d778d89898d8d89898d8d898d8d8d89e8ebe8c7e883835dc3'
p2765
L156L
tp2766
a(S'sub_1400396A4'
p2767
S'8989895783ba8be8338b85748d3b748d8d33bae88389c7c680888d8d3b758b33e88b8b8b8b835fc3'
p2768
L149L
tp2769
a(S'sub_14003973C'
p2770
S'8574898957838d8b8b3b748bff833b758be88b8b835fc3'
p2771
L80L
tp2772
a(S'sub_14003978C'
p2773
S'89898957838b8172e8bb89e88beb338de8908b8b893b7c8d3974ebe88985758deb8b8389ffebb9e88b8b8b8b835fc3'
p2774
L168L
tp2775
a(S'sub_140039834'
p2776
S'638d8b83c1c103ff'
p2777
L35L
tp2778
a(S'sub_140039858'
p2779
S'638d8b83c1c103ff'
p2780
L35L
tp2781
a(S'sub_14003987C'
p2782
S'89898956836385783b738b8d838bc1c18bf6748374e8837585742b743b75b9ebb9ebb933ff8b8333ebe8c7e883838b8b8b835ec3'
p2783
L186L
tp2784
a(S'sub_140039938'
p2785
S'838375e883e8c7eb85783b73638d8b83c1c18bf6748bebe883e8c7e88383c3'
p2786
L117L
tp2787
a(S'sub_1400399B0'
p2788
S'53838b8de88bb68bb72580748b83835bc3'
p2789
L63L
tp2790
a(S'sub_1400399F0'
p2791
S'5554555657838d8989898b3389638b898b8b857e8b8be83b8d7c8b8b85758b8bf78b8b8b1b838383ffe86385848bb8038d3b1b237481778d3b778b83e82b8d8584c7eb8be88b8574c783eb338584898b8b89ba8be88584838b838b838b8b838b83e8638584ba85748b85843b8f838b838b838b898b8b89e88b8585e98b038d3b1b23743b778d3b77b883e82b8d8584c7ebe88b8574c783eb338574838b838b838b898b89e885748333218b8b8b8b85752121e88b85758d8175e83385748d8175e88b8b33e88b8b8b8d5f5e5d5c5dc3898b89eb8d8175e8eb'
p2792
L789L
tp2793
a(S'sub_140039D08'
p2794
S'898957838b8b8b8b8de88b8d898b8b8b898b8b898b898b89e880748b838d8b8b8b5fc3'
p2795
L150L
tp2796
a(S'sub_140039DB4'
p2797
S'8989555657545556578b83338b8575e88d89e88be957898b7f8985748dc78b88e88b85758d3333e8eb8d8be88b8575838beb8b8be98b8b8b8b8b892b8b8bc1ff8dc13b478385748b8bff3875ff8303ff3b7589b88b8be88b85748d8b898b893b748b2b898b8bff38752bff038b8be885858b8b8b890383893b758b8b8933e88b8b2b83c13b4785748be8ff8d3b758be88b8b835f5e5d5c5f5e5dc33389333333e8cc'
p2798
L521L
tp2799
a(S'sub_140039FC0'
p2800
S'898989575455565783838b338b8b8bff3875ba8b03f73b768d8b8b8b835f5e5d5c5fc38d038be88b85748b8b8b8be885852b8d8b8b8be885858b8d8b3b8539758b8de83389e88b85748d8989eb2bb8c13b778b8d8b8be8857533e88be8bf33e88be98d89898d8933e88b8901eb3389333333e8cc3389333333e8cc'
p2801
L412L
tp2802
a(S'sub_14003A15C'
p2803
S'895556575657818b33898b8bbb3b748a2c3c77bea3728be88b3b758a80758d3b748b33338be8e980338077bea3b0728a2b8dffb8f61b2333e833898d89338be88b83758b33338be88b83748bff8b8b33e88b815f5e5f5e5dc38b2bc180758a84743c7538748b8d8b8be885758d8be885758b8b2bc13b842b8d8db8e8e9'
p2804
L426L
tp2805
a(S'sub_14003A310'
p2806
S'8957818b33898b8bb88dff8575ff8be833eb8b8d8be88b33e88b815fc3'
p2807
L124L
tp2808
a(S'sub_14003A38C'
p2809
S'898957838b8b8be8908b8b8b838b85748574b88b8d10111011101110111011101110110310110383758a88eb33b8e8e8c7e8b88d8b8b8b058b857485741011101110111011101110111011031011038375eb33b8e8e8c7e88b8b8b83c183758b8b8d39748be88b8b8b8b8b898b8b8bff8be88b835fc3'
p2810
L442L
tp2811
a(S'sub_14003A548'
p2812
S'53838b338de8838375c7ffeb8375c7ff8beb83758bc78b80748b838b835bc3'
p2813
L125L
tp2814
a(S'sub_14003A5C8'
p2815
S'89898957838d8bbd8b8b33e8338d89b989b7ab8d2b8a88ff83758dba8a88ff83758b8b8b835fc3'
p2816
L144L
tp2817
a(S'sub_14003A658'
p2818
S'8989558d818b33898b8b81848dff8584338dbe88ffff3b728a8dc6ebb6b6eb3b738bc6ff3b76838a84758b8d838b89ba8d3389e8838d8b8b8b33898d898989e8838d8bb88b33898d898989e8b88df674808aebf674808aeb328883ff8375eb33be8d8d8d8377808deb8377808deb3288ffff3b728b33e88d8b8b8b5dc3'
p2819
L483L
tp2820
a(S'sub_14003A83C'
p2821
S'8989895556578b838a8b8b8be88be88b8b8b3b7533e9b9e88b85848bba8b8b8d1011101110111011101110111011031003118375101110118b898b218be88b8375e8c7838be88b8b835f5e5dc38475e88b8b83c183758b8b8d3b74e8c78b8b33898bf675f6758d898d8d898d8d8d898d89e884848b8b89e9'
p2822
L450L
tp2823
a(S'sub_14003AA00'
p2824
S'898957838b8b8b857483748bebb9e8908b893b74857483c183758d8b3b74e88b8989ff8bb9e885748b8b8b835fc3e890'
p2825
L184L
tp2826
a(S'sub_14003AAB8'
p2827
S'8380758d898d8d8989e88d8bb2b9e8c6b083c3'
p2828
L96L
tp2829
a(S'sub_14003AB18'
p2830
S'83e88b8d83e9'
p2831
L28L
tp2832
a(S'sub_14003AB34'
p2833
S'8955565754555657838b33898be8338b85758be8e98d8b8bbd3984038383728184b7ff8584b83b75898989898db7b9abe98d8bff8584338db8e8838989858d38743874b6b63b772b8d8d80032b758338758db980032b758b8174837483743b748beb8beb8beb8beb8b89eb8b89e9398583e9338db8e88b8d8dbe8dc1038b38743874b6b63b778d81738a030803b63b7683387583032b7589898174837483743b758beb8beb8beb8b2b898db98db7898d2b758be8338b33e88b835f5e5d5c5f5e5dc3'
p2834
L695L
tp2835
a(S'sub_14003ADEC'
p2836
S'898957838b8b8b8b8de88bb6847585748b8bb723eb338574b880748b838b8b835fc3'
p2837
L117L
tp2838
a(S'sub_14003AE64'
p2839
S'8bb93333e9'
p2840
L18L
tp2841
a(S'sub_14003AE78'
p2842
S'81778d8377baa372837533eb8174817681768174817583ff'
p2843
L90L
tp2844
a(S'sub_14003AED4'
p2845
S'538d8b83963381778d8377b9a37283eb81748176817681748174baeb8b8b848b4545898b895bff'
p2846
L150L
tp2847
a(S'sub_14003AF6C'
p2848
S'8b898989895683ff338b85848b397483ff39758d833975892b8983d18b8b89338933e86385748be88b8574898b898b89333389e885748b8beb8b8be8eb8b85748bff8b8b8b8b8b835ec3'
p2849
L257L
tp2850
a(S'sub_14003B070'
p2851
S'89895556575455565783338b8b8575e8c783e9ba8be88b85843b848b3b8a88758be88b89bc858585743974e885848b3b858be88b89eb8484ba8be83389e88b857583e93975ba8be83389e839748b85748b8b2b8b85748b8b8be885758b80743874838beb2bc1eb2bc1f7857839748be8847489e98b89ff3975b88b8be8338be8857489eb8484f78d3b7383e9b83b73b88be8338be885748989898b3984838bff3875ba8de88b85748b8d8be885758b8d2b03f61b23888be88575e88bc78be8ebe883c78b8b8b8b8be88b8b835f5e5d5c5f5e5dc33389333333e8cc'
p2852
L800L
tp2853
a(S'sub_14003B390'
p2854
S'89898956838b857533e9338b3974ff8d8375ffbae88b85748b85748b2b83ff8075ba8de83389e88b85748b8de88575838b857533e88b8b8b8b835ec3e8cc8333333333e8cce8cc'
p2855
L235L
tp2856
a(S'sub_14003B48C'
p2857
S'89898957838b8b8b8574338df73b73e8c733eb8574e88beb33af8b8be88b85743b732b8d8b33e88b8b8b8b835fc3'
p2858
L149L
tp2859
a(S'sub_14003B524'
p2860
S'83ff85899583c3'
p2861
L28L
tp2862
a(S'sub_14003B540'
p2863
S'83b0c3'
p2864
L11L
tp2865
a(S'sub_14003B54C'
p2866
S'898957838b8b3b75b0eb8b8b8574ff8474833b753b743b748383748b857433ff838d3b75328b8b835fc3'
p2867
L128L
tp2868
a(S'sub_14003B5CC'
p2869
S'8957838b8b3beb8b857433ff833b75b08b835fc3'
p2870
L60L
tp2871
a(S'sub_14003B608'
p2872
S'898957838b8be8908b8b8333d38be88b8b835fc3'
p2873
L69L
tp2874
a(S'sub_14003B650'
p2875
S'8b83b88d8d898d898de883c3'
p2876
L46L
tp2877
a(S'sub_14003B680'
p2878
S'89898989c3'
p2879
L29L
tp2880
a(S'sub_14003B6A0'
p2881
S'895657545556838b3321b6888374837483748374837483748d83778384837483848374837433e9e88b857583e98b8bc18deb3974833b75338575e8c7e8eb8d3288eb8deb8deb8deb8d838474b9e8908b84748b8b8333d3838485758485e9bc8377a3738b8989838375e88b8989e8c783758bc1038bc103893b748383eb8b8b83b92b33d33389ebbc8474b9e8837533eb8375e88b8b8b8bffeb8b8b8bff8377a3738b898375e88b89eb8b835e5d5c5f5ec3b9e8b9e890cc'
p2882
L640L
tp2883
a(S'sub_14003B920'
p2884
S'858453838b8b3b74e88b3b74e88b3b74e88b3b74e88b3b74e88b3b74e88b3b74e88b3b74e88b3b74e88b3b74e88b3b74e88b3b74e88b3b74e8835bc3'
p2885
L266L
tp2886
a(S'sub_14003BA2C'
p2887
S'857453838b8b3b74e88b3b74e88b3b74e88b3b74e88b3b74e8835bc3'
p2888
L108L
tp2889
a(S'sub_14003BA98'
p2890
S'89895783338bc18b8dc13b4785748be8ff8d3b758b8b835fc3'
p2891
L83L
tp2892
a(S'sub_14003BAEC'
p2893
S'858489895683bd8b8be88d8be88d8b8de88d8be88d8de88be88be88be88d8be88d8be88d8be88d8be88d8de88be88be88be88be88b8b835ec3'
p2894
L264L
tp2895
a(S'sub_14003BBF4'
p2896
S'5554555657838d8989898b33898b8b8b8b8de88b85758b8bf78b8b8b1b838383ffe863857533e98b038d3b1b237481778d3b77b883e82b8d8574c7ebe88b8574c783eb3385748b338be88b898b89ba8be885748b8b8b8bff8beb3385748d8175e880748b838b8b33e88b8b8b8d5f5e5d5c5dc3'
p2897
L397L
tp2898
a(S'sub_14003BD84'
p2899
S'ff8b8574ff8b8574ff8b8574ff8b8574ff8db88d39748b8574ff83748b8574ff8383758be9'
p2900
L139L
tp2901
a(S'sub_14003BE10'
p2902
S'89898957838b8b85748d3b748b857483758b85748375e88be88b85748375e88be88be88be88b857483758b81e88bbf2be88b2be88be88be88dbd8d8d39748b85748375e88be883748b85748375e8838383758b8b8b8b835fe9'
p2903
L374L
tp2904
a(S'sub_14003BFB0'
p2905
S'857453838d8b3b748b8575e88be8835bc3'
p2906
L54L
tp2907
a(S'sub_14003BFE8'
p2908
S'85748d3b7483c1ffc3b8c3'
p2909
L37L
tp2910
a(S'sub_14003C010'
p2911
S'83858483018b8574018b8574018b8574018b8574018db88d39748b85740183748b8574018383758be883c3'
p2912
L168L
tp2913
a(S'sub_14003C0B8'
p2914
S'895783e88d8b8b85748b8575b9e8908b8be88bb9e885748b8b835fc3e890cccc'
p2915
L112L
tp2916
a(S'sub_14003C128'
p2917
S'8957838b857485748b3b758beb898be885748be883758d3b748be8eb338b835fc3'
p2918
L101L
tp2919
a(S'sub_14003C190'
p2920
S'53838b8de883778bb98147857489835bc3'
p2921
L57L
tp2922
a(S'sub_14003C1CC'
p2923
S'89895754555657838b338b8b8b8b85848b85843875b8eb3875b8eb8af61bf7838b8d8be88b837485748b8176837681b88b89c1ff0b89b82383b80b89038383852b89d18beb8b89eb89e8c7838b8b835f5e5d5c5fc38b3875b8eb3875b8eb8af61bf7838b8b33e8837485748375ff03ffeb'
p2924
L374L
tp2925
a(S'sub_14003C344'
p2926
S'8957838b8b8575e8bb89e88be9857433c6854fff983b77e8bbeb85748b8dc6ebb68d84ba4544888bffff857fc678807cebc6ff8a3c74fe888075ffeb83ff8075ff8d8be8338b835fc3'
p2927
L226L
tp2928
a(S'sub_14003C430'
p2929
S'895656818b8b8b857533815e5ec3898b8575338b815e5ec3898d89ff898985858b3383758b8d83893389bae88be985758b8d89338389bae8338bf785899589e9bf8b8b3b748b1f8b33c1030bc1f78b8b033b7533898d89ba8de88b89c18b858995ff89e93b778b632b8b633b7c838d8b2b2b8d8b3975ffff833b7deb8b2b63638b3973ff857533e98d898bbb8d8bbd8974bb2beb8b2b898985748b8b8bd38bd38bd30b8983768d8b8bd30b89338d8b85888b8d8bbf89893b778beb8b8d898b8d8b89898b85748b8b8bd38bd30bd383728b8d8bd30beb8b338bf78b8b3b76b8038baf033b778b8baf908bc10b3b76ff2b033b7685848b8b85748b831f8b8daf038d8b8bc18b3b8d432bff898b3b728b8b3b738b8b85748b838b8d8b8d03ff8b038b89c13b72ff8dc1ff8b0383898d8b3b731f8bff893b72898574ff39758985758b8b8b8b8b8b8b815e5ec3'
p2930
L1166L
tp2931
a(S'sub_14003C8C0'
p2932
S'55535657545556578d818b3389898b8d898b898be88b33833c7588eb8de8c68bbb85898bb9ba8d488bc189237585758b8d8b89e88585e9be3b748beb8b2375b9eb8579ba3b75b9eb8bc1f7830bc78384838483848384b923ff891089118b8bc18b238bf7b81b232303f71b238103e8e82c898d83f71bc123898b89f71bf7ff89858833c7898985848b8b8b3985ff3b758d898b8d83c18bbf2b8bd3ff8bbd8bf774ffeb8b2b8d8375b13b778a8383878485be3b428b3b743b728b2b8d3b738beb333b738beb33238b8b23d3038bd30b893b748beb33857483ff3b753b8d47eb3383bf8989c7c7e98d898b8d83c18bbf2b8bd3ff8bbd8bf774ffeb8b2b8d8375b13b778a8383878485be3b428b3b743b728b2b8d3b738beb333b738beb33238b8b23d3038bd30b893b748beb33857483ff3b753b8d47eb3383bf8b8989c789e9818433c7898985848b8b8b3985ff3b75bd8974ffeb8b2b8b838b8b8d3b738beb333b738beb33c18bc10b8b893b748beb3b8d8d422b8b89c1338bc18be8838d8ab8d3898bc189898584bb8d3b878de8e98d89bd74ffeb8b2b8b838b8b8d3b738beb333b738beb33c18d0b8b893b748beb838dbf8d422b8b89c1338bc18be8838d8ab8d389e98b33e8e8c7e88bb88588f78b8dc1898b898584b88b3b47898db6b68b8b33c18b8d8d89e88dc1b78d8d8b038de88b83878b85753389e983848584338b338b8baf038b89c1ff3b75857483738b898bffeb338932e98be983878b8bc18b898574b88d3b778de8eb8b33e8e8c7e88b858483848584338b338b8baf038b89c1ff3b75e93b8d8b8d438d428d439284894533338985848b8b85753b85218d89e9338b85848bf783748b3b75838d898d8b8bff8baf03038d898bc13b748beb857483848b3b75838d898bff8b03898bc18b857583848bff3b858bc1898574b88d3b778de8eb8b33e8e8c7e88b8b8bb084842b8d89858b8b8d038b2b848d8b857483848584338b338b8baf038b89c1ff3b75857483738b898bffeb3389e93389e98be98bf7f78b8dc1898b8985848bb93b4789ff8bb6b68bc1338b8d8d89e88dc1b78d8d8b038de88b83878b85753389e983848584338b338b8baf038b89c1ff3b75857483738b898bffeb338932e98be983878b8bc18b898574b88d3b778de8eb8b33e8e8c7e88b858483848584338b338b8baf038b89c1ff3b75e93b8d8b8d438d4289928d4384894533338985848b8b85753b85218d89e9338b85848bf783748b3b75838d898d8b8bff8baf038d03898bc13b748beb857483848b3b75838d898bff8b03898bc18b857583848b8bff3b858bc1898574b88d3b778de8eb8b33e8e8c7e88b8bb084842b8d89858b8d032b848d8b857483748574338b338b8baf038b89c1ff3b758574838b738b898bff89eb8b8b838b33eb8b8b8b338b85748b8b8bff8b8d8b8d89c13b75857483738b89ffeb33898d89ba8de88d8de88385ffc68d85848b8b8bff8b8d8b8d89c13b75857483738b89ffeb33898d89ba8de8eb8575ffeb048d888b8b8985788177038bff8b3b42033b84be838b85848b8b8bff8b698b038b89c13b75857483738b89ffeb33898d89ba8de88d8de88b8b2bb9b8f7c18ac08d022a8d8b3b728b88033b758b2b3b4f033b8588eb8b8d8be88585eb8b8d8be88585eb8b8d8be88585eb8b8d8be8858538748de88b33e8815f5e5d5c5f5e5b5dc33389333333e8cc3389333333e8cc3389333333e8cc3389333333e8cc3389333333e8cc'
p2933
L4823L
tp2934
a(S'sub_14003DB98'
p2935
S'898957838b8b8b857533eb8575e8bb89e88beb85743b728b8be8eb8b33e885743b73e8bbebb88b8b835fc3'
p2936
L135L
tp2937
a(S'sub_14003DC20'
p2938
S'838375e8c7eb85783b73638d8b83c1c18bb683ebe8c7e83383c3'
p2939
L95L
tp2940
a(S'sub_14003DC88'
p2941
S'898b8b8b8574b6ffb68d838d8d478dff8347837485743b742b8beb338bc3'
p2942
L92L
tp2943
a(S'sub_14003DCE4'
p2944
S'8383758575e8c7e8b883c38574817783e93383e9'
p2945
L79L
tp2946
a(S'sub_14003DD34'
p2947
S'8b89898957838b8b8b85848b8de8bb857485743b76e8c7e8eb8b83758b8b8be88beb2bb68de8b68d8be8ff837485743b742b80748b838beb338b8b8b835fc3'
p2948
L218L
tp2949
a(S'sub_14003DE10'
p2950
S'5553565754555657818d8b338963338b8b898b89857e8b8be88b63857e8b8be88beb837d33e9837c8b85758b8bbf857485853b75b8e93b7e8be93b7eb8e98d8bff8574857e8372388d7438748a3a723a768338eb857e8372388d7438748a3a723a868338eb898b8b89ba8be86385848bb8038d3b1b237481778d3b778b83e82b8d8584c7eb8be88b8574c783eb338584898b8b89ba8be88584838b838bba8be86385848b038d3b1b237481778d3b77b883e82b8d8574c7eb8be88b8574c783eb338574898b8b89ba8be88574838b838b838b8b8989e88beb3385748d8175e8eb3385748d8175e88b8b33e88d5f5e5d5c5f5e5b5dc3'
p2951
L844L
tp2952
a(S'sub_14003E15C'
p2953
S'898957838b8b8b8b8de88b8d898b8b8b898b8b898b89e880748b838b8b835fc3'
p2954
L137L
tp2955
a(S'sub_14003E1E8'
p2956
S'8b898989895657338d8b8bb98d8b99bd2bd1638b8bc18b2bb7b783b78383b747838383478d837485743b74b7b72b74858d498b8d493b8e83eb038b8b8b8b8b5f5ec3'
p2957
L232L
tp2958
a(S'sub_14003E2D0'
p2959
S'838574e885783d73988d038beb3383c3'
p2960
L49L
tp2961
a(S'sub_14003E304'
p2962
S'8957838b8575e8c7e883eb838bc1a874e88b8be88be88be8857983eb8b8574e8838be88b8b835fc3'
p2963
L131L
tp2964
a(S'sub_14003E388'
p2965
S'898957838b8575e8c7e883eb8bc1a874e8ebe8908be88b8be88b8b835fc3'
p2966
L98L
tp2967
a(S'sub_14003E3EC'
p2968
S'89895783638b8b8be88375e8c783eb8b8d8b8bff8575ff8be8eb8b83748b8d838bc1c18b808b8b835fc3'
p2969
L153L
tp2970
a(S'sub_14003E490'
p2971
S'8983e88575b8eb8dba8de88574b783c3'
p2972
L59L
tp2973
a(S'sub_14003E4CC'
p2974
S'3338743b74ff8075c3'
p2975
L21L
tp2976
a(S'sub_14003E4F0'
p2977
S'545556818b33898b8b8b85758574e8c7e8e985748574838289898989898daf0333891f338b2bf78d83873b768d8b8b3b771f8b8b8bff854f033b768b8b3b742b1fb6b688888d83752b3b778b8389888b8be9d18baf8b8d8bff857e8b8b3b741fb68b2bb68888ff83758b8b8bff857e8b8b3b748b2b90b6b688888d83758b8b8bff857e8b8b3b748b2b1fb6b688888d83758b8b903b76033b738b8b8bff857e3b77033b778b8b8bff857e8b2b3b768b8b8bff857f3b728b8b3b748b2b1f1fb6b688888d83753b8b458be93b73902b3b768b8b8bff85743b722b3b768b8b8bff85748b8b2b2b3b8b7c3b738989ff893b838be93b738989ff893b838be98b8b8b8b8b8b33e8815e5d5cc3'
p2978
L941L
tp2979
a(S'sub_14003E8A0'
p2980
S'895783338b8b857585758574e8bb89e88b8b8b835fc385748574857588eb857588eb2b8b8b83758a8b88ff84748375848d44eb8a88ff84748374837585758885858375888de988e8bbe9'
p2981
L229L
tp2982
a(S'sub_14003E988'
p2983
S'838b3389338b838b73c6ff837c8aebb6c1b683b6abff888a8475ebb6bab683c1d38475ff8a8475338b33e883c38bebe8cc'
p2984
L158L
tp2985
a(S'sub_14003EA30'
p2986
S'898957838b8d838b2b8b8b578d6f83778b03ff73eb73eb73eb73eb73eb73eb73eb73eb73eb73eb73eb73eb73eb73eb7357ba74d78584bc85758deb338bb92b3b928b2b3b878b03ff7373e97373e97373e97373e97373eb7373eb7373eb7373eb7373eb7373eb7373eb7373eb7373eb7373eb7373eb5785856f6f74d785758b8b8b8b835fe9857538848b8b8b835fe9bc8b2b8383772b83778b038bff73eb73eb73eb73eb73eb73eb73eb73eb73eb73eb73eb73eb73eb73eb73eb57eb6fb684741fbe6e60607074d78575b6ff8475338b8b835fc38b8b8b835fc31f76037d0384038b0392'
p2987
L992L
tp2988
a(S'sub_14003EE10'
p2989
S'8b8989898956838b8b8b8b857538748be88883838333e9338b338bff83748b8d3b7680748be8c68de889b8f71bf783448594888985758b8b8b8bff83743b74ff89e9e88b8b8b8b8b835ec3'
p2990
L263L
tp2991
a(S'sub_14003EF18'
p2992
S'8b89895783838b838b838d838b838d33c6e8857483eb8b8b8b8b898b8b89ff8b80748be88b8b8b835fc3'
p2993
L164L
tp2994
a(S'sub_14003EFBC'
p2995
S'89898957838b8b8b8b857538748883838333eb338b338bff83748bff3b768074c6e8b9898bc683eb8b8b8b8bff83743b74ff89ebe88b8b8b8b835fc3'
p2996
L202L
tp2997
a(S'sub_14003F088'
p2998
S'8989558d818b33898b8dff3385848b8d898d8bb989338b898b898b898b898b898b898d89898d89898988e88575b9898d89898d8d8933898d88e885948b8b33e88d8b8b8b5dc3'
p2999
L306L
tp3000
a(S'sub_14003F1BC'
p3001
S'33e9'
p3002
L8L
tp3003
a(S'sub_14003F1C4'
p3004
S'8957838b8b8575e8c7e833eb85743b738b8de88b8d8374ff3b77b6f6758b2b8b832bff80748b838b8b835fc3'
p3005
L148L
tp3006
a(S'sub_14003F258'
p3007
S'89898955575456578b83338b8b8b8574857533e9898575e8c7e883e98b8de88b8b8175338d8b898d8be88be98584397585848bb6893884ff833b72e98b83898b898de8638585ff83758b8b8b8574ff3874b68de88574ff3874ff85758b8b2b898bba898be8638575e8c789eb8beb8339758bff3875eb8b8b89ba89e8638575e8c7eb8d38748b838b8d8b8b8b5f5e5c5f5dc3'
p3008
L514L
tp3009
a(S'sub_14003F464'
p3010
S'83758deb33e9'
p3011
L26L
tp3012
a(S'sub_14003F480'
p3013
S'83e83384948b83c3'
p3014
L23L
tp3015
a(S'sub_14003F498'
p3016
S'8b89898989558d818b8b338de8338d33898d898b89898b8988898989898988e88575338d8d8be88b85758b8bff8beb8b38748be838748be838748b838d8b8b8b8b8b8b5dc3'
p3017
L255L
tp3018
a(S'sub_14003F5A0'
p3019
S'838575e8c7e88383c38b338b83ff'
p3020
L57L
tp3021
a(S'sub_14003F5DC'
p3022
S'895556575657838b3389338d858d8b8b45858d458b45f71b238575c7e9b785758aff84788574b68984958be98a243c75b1eb8a243c75b1eb8a243c85b1b6b92b8bd38a2bb623eb8a8b8d3c873a823a83b63b8b43eb8aff8a243c858bb683c18b0b8b2b3b723b73b62a89b68989e98d3d768173b6c7c7c73b7285748933b6f7891b23eb3389e8c7838b33e88b835f5e5f5e5dc3'
p3023
L475L
tp3024
a(S'sub_14003F7B8'
p3025
S'53838be889e88933835bc3'
p3026
L32L
tp3027
a(S'sub_14003F7D8'
p3028
S'53838b8be88be8338d89e885758b39758b397533ebb8835bc3'
p3029
L77L
tp3030
a(S'sub_14003F828'
p3031
S'5383838b838de88574b8eb8b8d8389e88575e833835bc3'
p3032
L80L
tp3033
a(S'sub_14003F878'
p3034
S'33118bb98b23b93b953b72b93b768be9b93b7385748574b88910eb10eb8bb9c12ab8d3fff723891085753b7458c3'
p3035
L194L
tp3036
a(S'sub_14003F940'
p3037
S'837f83852828737efb28542f8428e6572f86db5c2f84548b2323d1036e2f82c1ebeb8d5c5928288d1010595959285858595959585859581059595c108d1010595858586f83c31f105c58285e1010285958285959595858595959595910585c1028db5c582828595959595858586f83c3eb5c10db7e73fae6e99075108be8eb1f108be8eb1f3b743b740b6e906f83c31f33e1f9e1faf9f984d1f986f9fbf984f9f9e1e1f9d9f982c1e9f18df3738df3fbfbf1f110f1fbd1e1f3fbc9108d10ebc9fbf983c390fbfbebfbfbfbfbf3f3e9e9ebdbebebd3dbdbf9fbdbdbdbe3e3fbfbfbf983c3e9ebd1e9f9d1fae91f75fb8be8f983c31ffb8be8f983c3903b743b740b6e8be8eb1ff983c3'
p3038
L1451L
tp3039
a(S'sub_14003FEEC'
p3040
S'898957838b8b8be8908b638b8bc18d83c18bf674e88bebe8c7838be88b8b835fc3'
p3041
L113L
tp3042
a(S'sub_14003FF60'
p3043
S'8983638375e883e8c7eb85783b738b8d838bc1c18bf6748d89898d8d898d8de8ebe883e8c7e88383c3'
p3044
L161L
tp3045
a(S'sub_140040004'
p3046
S'895783638be8837533eb8bb9837584753b75f674e8b98be83b748be88bff8575ff8b8be88b8d838bc1c18bc685748be883eb338b835fc3'
p3047
L186L
tp3048
a(S'sub_1400400C0'
p3049
S'8333898989898987c3'
p3050
L28L
tp3051
a(S'sub_1400400DC'
p3052
S'53838b338375898d898d3389baff8983958b835bc3'
p3053
L82L
tp3054
a(S'sub_140040130'
p3055
S'838b8377ff83c3'
p3056
L28L
tp3057
a(S'sub_14004014C'
p3058
S'8b8989895783838b8b8b8b8b8b8bff8b8575ff83758b8377ff838d83b83389baff838b8b898b8bff8b8b8b8b8b835fc3'
p3059
L190L
tp3060
a(S'sub_14004020C'
p3061
S'555356575456578d81c78b33898b8b89338b898574857533e98575e8c7e883e98b8de8908b8b817533898d8b8d8be88be9858439758584ba8b39778a88b783898584ff3b72e9e883e98b837585748b8b3974838375857439758b2bd1ff8d898989898b338be863857439758d3845e98d89898989838b338be863857439858de93985ff838585848d8b8b8b3b4f8d8989898d89b98b338be8858439858588633b878d3b878b857e8a888484ffff3b7c8b83893b83e939758b8bb78574ba3b77ff83b78575ebe8c783eb8d89898989838b8b338be86385743975ffebe8c78b38748b838b8b33e8815f5e5c5f5e5b5dc3'
p3062
L871L
tp3063
a(S'sub_14004057C'
p3064
S'ba33ae8bb7238d3b75b8eb8375b8eb3b8bb9448bba23743d743d743bb945ebb9ebb9eb8bbab7c1b7c12323c1c10bb7c123c10bb7c123c10bb7c123030bb7c1230b0b0b8b8bc18325c10b0bc3'
p3065
L254L
tp3066
a(S'sub_14004067C'
p3067
S'ae8b838b8bc183d1c183c10b8bc183c10b8bc183030b8b83c1c10bb60b8bc10bc3'
p3068
L86L
tp3069
a(S'sub_1400406D4'
p3070
S'8989898b8bc12581330bbfb8c123bb3b743b743b74b7ebb9ebb9ebb98bb9bbba23743b743b743b75b9ebb9ebb9ebb7f674baebb78bd1a875b78b0bc1a875b78b0bc1a875b78b0bc1a874b8ebb70bc1f675b78b0b8b0b8b0bae8bb781250b89aec3'
p3071
L327L
tp3072
a(S'sub_14004081C'
p3073
S'8bb9c183ae8b8bd123b68bc123c1c10bb6238bc1c10bb6238bc1c10bc1b6b623230b030b8b83830b89aec3'
p3074
L131L
tp3075
a(S'sub_1400408A0'
p3076
S'5383e88be833f6748b8b8b83c18b8380448b83248b448b83248b448b832444f674ba8b835bc3'
p3077
L110L
tp3078
a(S'sub_140040910'
p3079
S'8b5383108b10ba898b11111189e88de885758be810835bc3'
p3080
L101L
tp3081
a(S'sub_140040978'
p3082
S'898957838b8b838bf6748479b9e883ebb98474ba73e883ebf674ba73b9e883ebf674ba73f674b9e883f674ba73b9e8838b33858b94835fc3'
p3083
L186L
tp3084
a(S'sub_140040A34'
p3085
S'8b55535657568d81298b33898b8bbab98b8be88b8989108b11e810857583758b831183898b8d898d8d8b8d89e8e8847485748b8b108b108b891111e8eb8be88bbae8108b33e828815e5f5e5b5dc3'
p3086
L295L
tp3087
a(S'sub_140040B80'
p3088
S'53833333898d8ba289b8892389893b753301c10b898b8b243c44898933835bc3'
p3089
L112L
tp3090
a(S'sub_140040BF0'
p3091
S'838db989e883c3'
p3092
L32L
tp3093
a(S'sub_140040C10'
p3094
S'8b8329288b28837483758957118b11c7c7ebc75711b911c7c78b118be8282883c3'
p3095
L150L
tp3096
a(S'sub_140040CA8'
p3097
S'8955565754555657838b33898b8b898b8b8b85848b8bb78d838b438be88b83743b743b728b8b8be885748d80748385452b038beb338d2b898beb8983eb33b78d8be88374857480740383ebff038b33e88b835f5e5d5c5f5e5dc3'
p3098
L283L
tp3099
a(S'sub_140040DE0'
p3100
S'83ae8b83c3'
p3101
L16L
tp3102
a(S'sub_140040DF0'
p3103
S'89aec3'
p3104
L10L
tp3105
a(S'sub_140040DFA'
p3106
S'aeb921aec3'
p3107
L20L
tp3108
a(S'sub_140040E30'
p3109
S'83838b898b89e883c3'
p3110
L39L
tp3111
a(S'sub_140040E58'
p3112
S'8b89898989558b838b8b33bf898b898b89f6748bbf83f6748bbf83f6748bbf83f6748bbf83f6748bbf838b8bc1c1f73383318b8bc1c1f73383318b8bc1c1f73383318b8bc103f73383318b8bc1f7338331e88ba8748b83f6748b83f6748b83f6748b83f6748b838bb923743d743d743b758b83eb8b838b83eb8b838b83eb8b838b81c1818b098b8b8383748bba218b8b8b898b838b218b8b89eb8bb88b2383898b8b8b898b838b8b2383898b8b89e8338d8b8dff8b8ba874ba8ba874ba8ba874ba8ba874ba8ba874ba8b837483748374837581ebbabaebbabaeb8183748b89eb8b898b8b8b835dc3'
p3113
L781L
tp3114
a(S'sub_140041168'
p3115
S'8383748d8377e8c7ebe8c783c3'
p3116
L46L
tp3117
a(S'sub_140041198'
p3118
S'5383e88b83e88b835bc3'
p3119
L29L
tp3120
a(S'sub_1400411B8'
p3121
S'898957838b8be88b898bf78123230b898074f674e8ebc68b83e88beb83e88b8b8b835fc3'
p3122
L124L
tp3123
a(S'sub_140041234'
p3124
S'53838be8830b8b835be9'
p3125
L31L
tp3126
a(S'sub_140041254'
p3127
S'83e88383c3'
p3128
L17L
tp3129
a(S'sub_140041268'
p3130
S'5383858db88b45b90383753b773389e8c783ebb8033b77b7c125058933ebb78b8b835be93b77b78d8133038b89e83389835bc3'
p3131
L167L
tp3132
a(S'sub_140041310'
p3133
S'8385753389b8e9857588ebf77588ebf775b9b2ebf7758d3d76b9b2ebf7758177b9b28b8ac1240c8883750a3388898deb3389e8c78383c3'
p3134
L183L
tp3135
a(S'sub_1400413E0'
p3136
S'6333038bb7b7830385748b3b728b033b72ff833b7233c3'
p3137
L68L
tp3138
a(S'sub_140041430'
p3139
S'8957838b8d8be885742b8b8be885748bc1f783eb338b835fc3'
p3140
L77L
tp3141
a(S'sub_140041480'
p3142
S'b8397563038175b93975b8c333c3'
p3143
L45L
tp3144
a(S'sub_1400414B0'
p3145
S'83338b8575838b838b8357d36f74d72375836f74d78574bc03e9838db68b83838b57c10b6e8b708357d374d7706f74d7232375bd6f6f038545837474d7d785748bf723ff23bd0385458b83c3be8b3b45808b74fff675b66e63736303637483eb8beb'
p3146
L329L
tp3147
a(S'sub_140041A71'
p3148
S'e8908d835dc3'
p3149
L19L
tp3150
a(S'sub_140041DAF'
p3151
S'55838b80758b8b8b8be890835dc3cc'
p3152
L44L
tp3153
a(S'sub_140041DDB'
p3154
S'55838b80758b8b8b8be890835dc3cc'
p3155
L44L
tp3156
a(S'sub_140041E07'
p3157
S'55838b89898b8b898b8174c78bebe890835dc3cc'
p3158
L65L
tp3159
a(S'sub_140041E48'
p3160
S'558b8b3381948b5dc3cc'
p3161
L24L
tp3162
a(S'sub_140041E60'
p3163
S'55838b8b8b8be890835dc3cc'
p3164
L30L
tp3165
a(S'sub_140041E7E'
p3166
S'55838b333895835dc3cc'
p3167
L24L
tp3168
a(S'sub_140041E96'
p3169
S'5355838b8989e88b898b8be88b898bc683838b898b8b8b8be8e883c7b8835d5bc3cc'
p3170
L145L
tp3171
a(S'sub_140041F27'
p3172
S'55838b898d8be890835dc3cc'
p3173
L37L
tp3174
a(S'sub_140041F4C'
p3175
S'5355838b8be883758b817583758b2d83778be88574b28be890e88b89e88b89835d5bc3cc'
p3176
L120L
tp3177
a(S'sub_140041FC4'
p3178
S'55838be890835dc3cc'
p3179
L22L
tp3180
a(S'sub_140041FDA'
p3181
S'55838be8837ee8ff835dc3cc'
p3182
L35L
tp3183
a(S'sub_140041FFD'
p3184
S'55838b8b8b835de9cc'
p3185
L26L
tp3186
a(S'sub_140042017'
p3187
S'55838b8b8be890835dc3cc'
p3188
L27L
tp3189
a(S'sub_140042032'
p3190
S'55838bb9835de9cc'
p3191
L25L
tp3192
a(S'sub_14004204B'
p3193
S'55838b8b8b835de9cc'
p3194
L27L
tp3195
a(S'sub_140042066'
p3196
S'55838b8b8b835de9cc'
p3197
L29L
tp3198
a(S'sub_140042083'
p3199
S'55838b8b835de9cc'
p3200
L23L
tp3201
a(S'sub_14004209A'
p3202
S'55838b33835de9cc'
p3203
L22L
tp3204
a(S'sub_1400420B0'
p3205
S'55838b8b8b835de9cc'
p3206
L26L
tp3207
a(S'sub_1400420CA'
p3208
S'55838bb9835de9cc'
p3209
L25L
tp3210
a(S'sub_1400420E3'
p3211
S'55838bb9835de9cc'
p3212
L25L
tp3213
a(S'sub_1400420FC'
p3214
S'55838b8b8b835de9cc'
p3215
L26L
tp3216
a(S'sub_140042116'
p3217
S'55838b8b835de9cc'
p3218
L23L
tp3219
a(S'sub_14004212D'
p3220
S'55838bb9835de9cc'
p3221
L25L
tp3222
a(S'sub_140042146'
p3223
S'55838b8074b9e890835dc3cc'
p3224
L33L
tp3225
a(S'sub_140042167'
p3226
S'55838bb9835de9cc'
p3227
L25L
tp3228
a(S'sub_140042180'
p3229
S'55838b8b835de9cc'
p3230
L24L
tp3231
a(S'sub_1400421A4'
p3232
S'55838b8b8174817433ebb8835dc3cc'
p3233
L44L
tp3234
a(S'sub_1400421D0'
p3235
S'55838b8b3381948b835dc3cc'
p3236
L32L
tp3237
a(S'sub_1400421F0'
p3238
S'838b8574ff83838383c3'
p3239
L51L
tp3240
a.